(dp1
S'output'
p2
S"<type 'exceptions.AttributeError'> 'NoneType' object has no attribute 'id'"
p3
sS'layer'
p4
S'/Users/abaric/Downloads/web2py/web2py.app/Contents/Resources/applications/Final_Impulse/controllers/default.py'
p5
sS'code'
p6
S"from gluon.tools import datetime\nfrom gluon.tools import Auth\n        \n\ndef user():\n    return dict(form=auth())\n    \ndef load_roles():\n        session.roles=[]\n        if auth.has_membership('arts_board'):\n            session.user_arts_board_id=db(db.arts_board.email==auth.arts_board.email).select().first().id\n            a=('arts_board','index',session.user_arts_board_id)\n            session.roles.append(a)\n        return locals()\n                                      \ndef index():\n    return locals()\n\ndef download():\n    return response.download(request, db)\n\ndef show_image_comments():\n    image_form=SQLFORM(db.image,fields=['title','file'],labels={'file':'Your Image'})\n    image_form.vars.author_id=auth.user.id\n    image_form.add_button('Back', URL('index'))\n    if image_form.process().accepted:\n        response.flash='image post submitted!'\n    images=db(db.image).select(db.image.ALL, orderby=db.image.id)\n    \n    d={}\n    for image in images:\n        comments=db((db.image_comment.image_id==image.id) &\\\n                   (db.auth_user.id==db.image_comment.author_id)).select() \n        tuple_list=[]       \n        for comment in comments:\n            author=('%s %s')%(comment.auth_user.first_name,comment.auth_user.last_name)\n            body=('%s')%(comment.image_comment.body)\n            t=(author,body)\n            tuple_list.append(t)\n        d[image.id]=tuple_list\n  \n    form = SQLFORM(db.writing_comment)\n    if form.process().accepted:\n        response.flash = 'your comment is posted'\n    #images = db(db.image_comment.image_id==image.id).select()\n    return locals()\n    \ndef show_writing_comments():\n    writing_form=SQLFORM(db.writing,fields=['title','body'],labels={'body':'Insert your post'})\n    writing_form.vars.author_id=auth.user.id\n    writing_form.add_button('Back', URL('index'))\n    if writing_form.process().accepted:\n        response.flash='writing post submitted!'\n   \n    writings=db(db.writing).select(db.writing.ALL, orderby=db.writing.id)\n    d={}\n    for writing in writings:\n        comments=db((db.writing_comment.writing_id==writing.id) &\\\n                   (db.auth_user.id==db.writing_comment.author_id)).select() \n        tuple_list=[]       \n        for comment in comments:\n            author=('%s %s')%(comment.auth_user.first_name,comment.auth_user.last_name)\n            body=('%s')%(comment.writing_comment.body)\n            t=(author,body)\n            tuple_list.append(t)\n        d[writing.id]=tuple_list\n  \n    form = SQLFORM(db.writing_comment)\n    if form.process().accepted:\n        response.flash = 'your comment is posted'\n    return locals()\n\ndef show_video_comments():\n    video_form=SQLFORM(db.video,fields=['title','url_str'],labels={'url_str':'Insert url string per above directions'})\n    video_form.vars.author_id=auth.user.id\n    video_form.add_button('Back', URL('index'))\n    if video_form.process().accepted:\n        response.flash='video post submitted!'\n    \n    videos=db(db.video).select(db.video.ALL, orderby=db.video.id)\n    d={}\n    for video in videos:\n        comments=db((db.video_comment.video_id==video.id) &\\\n                   (db.auth_user.id==db.video_comment.author_id)).select() \n        tuple_list=[]       \n        for comment in comments:\n            author=('%s %s')%(comment.auth_user.first_name,comment.auth_user.last_name)\n            body=('%s')%(comment.video_comment.body)\n            t=(author,body)\n            tuple_list.append(t)\n        d[video.id]=tuple_list\n    form = SQLFORM(db.video_comment)\n    if form.process().accepted:\n        response.flash = 'your comment is posted'\n    return locals()  \n\ndef insert_writing_comment():\n    if auth.user:\n        writing_comment=request.post_vars.writing_comment\n        writing_id=request.args(0)\n        db.writing_comment.insert(author_id=auth.user.id,\n                                  writing_id=writing_id,\n                                  email=None,\n                                  body=writing_comment,\n                                  date_of_entry=datetime.datetime.today())\n        db.commit()\n       \n    else:\n        session.flash='You must log in to post a comment.'\n    redirect(URL('show_writing_comments'))\n    return locals()\n\n\ndef insert_image_comment():\n    if auth.user:\n        image_comment=request.post_vars.image_comment\n        image_id=request.args(0)\n        db.image_comment.insert(author_id=auth.user.id,\n                                  image_id=image_id,\n                                  email=None,\n                                  body=image_comment,\n                                  date_of_entry=datetime.datetime.today())\n        db.commit()\n       \n    else:\n        session.flash='You must log in to post a comment.'\n    redirect(URL('show_image_comments'))\n    return locals()\n    \ndef insert_video_comment():\n    if auth.user:\n        video_comment=request.post_vars.video_comment\n        video_id=request.args(0)\n        db.video_comment.insert(author_id=auth.user.id,\n                                  video_id=video_id,\n                                  email=None,\n                                  body=video_comment,\n                                  date_of_entry=datetime.datetime.today())\n        db.commit()\n       \n    else:\n        session.flash='You must log in to post a comment.'\n    redirect(URL('show_video_comments'))\n    return locals()\n\ndef all_media():\n    images=db(db.image).select(db.image.ALL)\n    writings=db(db.writing).select(db.image.ALL)\n    videos=db(db.video).select(db.video.ALL)\n    \n    images_with_app=[]\n    images_wo_app=[]\n    videos_with_app=[]\n    videos_wo_app=[]\n    writings_with_app=[]\n    writings_wo_app=[]\n    \n    for image in images:\n        if image.image.approved:\n            images_w_app.append(image)\n        else:\n            images_wo_app.append(image)\n            \n    for video in videos:\n        if video.video.approved:\n            videos_w_app.append(video)\n        else:\n            videos_wo_app.append(video)\n    \n    for writing in wristing:\n        if writing.writing.approved:\n            writings_w_app.append(writing)\n        else:\n            writings_wo_app.append(writing)\n    \n    return locals()\n\n\n#def update_approve():\n\nresponse._vars=response._caller(show_image_comments)\n"
p7
sS'snapshot'
p8
(dp9
S'exception'
p10
(dp11
S'__hash__'
p12
S"<method-wrapper '__hash__' of exceptions.AttributeError object at 0x8a25dc8>"
p13
sS'__setattr__'
p14
S"<method-wrapper '__setattr__' of exceptions.AttributeError object at 0x8a25dc8>"
p15
sS'__reduce_ex__'
p16
S'<built-in method __reduce_ex__ of exceptions.AttributeError object at 0x8a25dc8>'
p17
sS'__getslice__'
p18
S"<method-wrapper '__getslice__' of exceptions.AttributeError object at 0x8a25dc8>"
p19
sS'__getitem__'
p20
S"<method-wrapper '__getitem__' of exceptions.AttributeError object at 0x8a25dc8>"
p21
sS'__setstate__'
p22
S'<built-in method __setstate__ of exceptions.AttributeError object at 0x8a25dc8>'
p23
sS'__reduce__'
p24
S'<built-in method __reduce__ of exceptions.AttributeError object at 0x8a25dc8>'
p25
sS'__str__'
p26
S"<method-wrapper '__str__' of exceptions.AttributeError object at 0x8a25dc8>"
p27
sS'args'
p28
S'("\'NoneType\' object has no attribute \'id\'",)'
p29
sS'__getattribute__'
p30
S"<method-wrapper '__getattribute__' of exceptions.AttributeError object at 0x8a25dc8>"
p31
sS'__class__'
p32
S"<type 'exceptions.AttributeError'>"
p33
sS'__delattr__'
p34
S"<method-wrapper '__delattr__' of exceptions.AttributeError object at 0x8a25dc8>"
p35
sS'__repr__'
p36
S"<method-wrapper '__repr__' of exceptions.AttributeError object at 0x8a25dc8>"
p37
sS'__dict__'
p38
S'{}'
p39
sS'__doc__'
p40
S"'Attribute not found.'"
p41
sS'__init__'
p42
S"<method-wrapper '__init__' of exceptions.AttributeError object at 0x8a25dc8>"
p43
sS'__new__'
p44
S'<built-in method __new__ of type object at 0x5f94a0>'
p45
ssS'evalue'
p46
S"'NoneType' object has no attribute 'id'"
p47
sS'request'
p48
ccopy_reg
_reconstructor
p49
(cgluon.html
BEAUTIFY
p50
c__builtin__
object
p51
NtRp52
(dp53
S'attributes'
p54
(dp55
sS'components'
p56
(lp57
g49
(cgluon.html
TABLE
p58
g51
NtRp59
(dp60
g54
(dp61
S'level'
p62
I5
ssS'parent'
p63
Nsg56
(lp64
g49
(cgluon.html
TR
p65
g51
NtRp66
(dp67
g54
(dp68
sg63
g59
sg56
(lp69
g49
(cgluon.html
TD
p70
g51
NtRp71
(dp72
g54
(dp73
S'_style'
p74
S'font-weight:bold;vertical-align:top'
p75
ssg63
g66
sg56
(lp76
S'ajax'
p77
asbag49
(g70
g51
NtRp78
(dp79
g54
(dp80
S'_valign'
p81
S'top'
p82
ssg63
g66
sg56
(lp83
S':'
asbag49
(g70
g51
NtRp84
(dp85
g54
(dp86
sg63
g66
sg56
(lp87
g49
(g50
g51
NtRp88
(dp89
g54
(dp90
g62
I5
ssg63
g84
sg56
(lp91
S'False'
p92
asbasbasbag49
(g65
g51
NtRp93
(dp94
g54
(dp95
sg63
g59
sg56
(lp96
g49
(g70
g51
NtRp97
(dp98
g54
(dp99
g74
g75
ssg63
g93
sg56
(lp100
S'application'
p101
asbag49
(g70
g51
NtRp102
(dp103
g54
(dp104
g81
g82
ssg63
g93
sg56
(lp105
S':'
asbag49
(g70
g51
NtRp106
(dp107
g54
(dp108
sg63
g93
sg56
(lp109
g49
(g50
g51
NtRp110
(dp111
g54
(dp112
g62
I5
ssg63
g106
sg56
(lp113
S'Final_Impulse'
p114
asbasbasbag49
(g65
g51
NtRp115
(dp116
g54
(dp117
sg63
g59
sg56
(lp118
g49
(g70
g51
NtRp119
(dp120
g54
(dp121
g74
g75
ssg63
g115
sg56
(lp122
g28
asbag49
(g70
g51
NtRp123
(dp124
g54
(dp125
g81
g82
ssg63
g115
sg56
(lp126
S':'
asbag49
(g70
g51
NtRp127
(dp128
g54
(dp129
sg63
g115
sg56
(lp130
g49
(g50
g51
NtRp131
(dp132
g54
(dp133
g62
I5
ssg63
g127
sg56
(lp134
g49
(g58
g51
NtRp135
(dp136
g54
(dp137
g62
I4
ssg63
Nsg56
(lp138
sbasbasbasbag49
(g65
g51
NtRp139
(dp140
g54
(dp141
sg63
g59
sg56
(lp142
g49
(g70
g51
NtRp143
(dp144
g54
(dp145
g74
g75
ssg63
g139
sg56
(lp146
S'body'
p147
asbag49
(g70
g51
NtRp148
(dp149
g54
(dp150
g81
g82
ssg63
g139
sg56
(lp151
S':'
asbag49
(g70
g51
NtRp152
(dp153
g54
(dp154
sg63
g139
sg56
(lp155
g49
(g50
g51
NtRp156
(dp157
g54
(dp158
g62
I5
ssg63
g152
sg56
(lp159
S'<cStringIO.StringO object at 0x8a27340>'
p160
asbasbasbag49
(g65
g51
NtRp161
(dp162
g54
(dp163
sg63
g59
sg56
(lp164
g49
(g70
g51
NtRp165
(dp166
g54
(dp167
g74
g75
ssg63
g161
sg56
(lp168
S'cid'
p169
asbag49
(g70
g51
NtRp170
(dp171
g54
(dp172
g81
g82
ssg63
g161
sg56
(lp173
S':'
asbag49
(g70
g51
NtRp174
(dp175
g54
(dp176
sg63
g161
sg56
(lp177
g49
(g50
g51
NtRp178
(dp179
g54
(dp180
g62
I5
ssg63
g174
sg56
(lp181
S'None'
p182
asbasbasbag49
(g65
g51
NtRp183
(dp184
g54
(dp185
sg63
g59
sg56
(lp186
g49
(g70
g51
NtRp187
(dp188
g54
(dp189
g74
g75
ssg63
g183
sg56
(lp190
S'client'
p191
asbag49
(g70
g51
NtRp192
(dp193
g54
(dp194
g81
g82
ssg63
g183
sg56
(lp195
S':'
asbag49
(g70
g51
NtRp196
(dp197
g54
(dp198
sg63
g183
sg56
(lp199
g49
(g50
g51
NtRp200
(dp201
g54
(dp202
g62
I5
ssg63
g196
sg56
(lp203
S'127.0.0.1'
p204
asbasbasbag49
(g65
g51
NtRp205
(dp206
g54
(dp207
sg63
g59
sg56
(lp208
g49
(g70
g51
NtRp209
(dp210
g54
(dp211
g74
g75
ssg63
g205
sg56
(lp212
S'controller'
p213
asbag49
(g70
g51
NtRp214
(dp215
g54
(dp216
g81
g82
ssg63
g205
sg56
(lp217
S':'
asbag49
(g70
g51
NtRp218
(dp219
g54
(dp220
sg63
g205
sg56
(lp221
g49
(g50
g51
NtRp222
(dp223
g54
(dp224
g62
I5
ssg63
g218
sg56
(lp225
S'default'
p226
asbasbasbag49
(g65
g51
NtRp227
(dp228
g54
(dp229
sg63
g59
sg56
(lp230
g49
(g70
g51
NtRp231
(dp232
g54
(dp233
g74
g75
ssg63
g227
sg56
(lp234
S'cookies'
p235
asbag49
(g70
g51
NtRp236
(dp237
g54
(dp238
g81
g82
ssg63
g227
sg56
(lp239
S':'
asbag49
(g70
g51
NtRp240
(dp241
g54
(dp242
sg63
g227
sg56
(lp243
g49
(g50
g51
NtRp244
(dp245
g54
(dp246
g62
I5
ssg63
g240
sg56
(lp247
g49
(g58
g51
NtRp248
(dp249
g54
(dp250
g62
I4
ssg63
Nsg56
(lp251
g49
(g65
g51
NtRp252
(dp253
g54
(dp254
sg63
g248
sg56
(lp255
g49
(g70
g51
NtRp256
(dp257
g54
(dp258
g74
g75
ssg63
g252
sg56
(lp259
S'session_id_admin'
p260
asbag49
(g70
g51
NtRp261
(dp262
g54
(dp263
g81
g82
ssg63
g252
sg56
(lp264
S':'
asbag49
(g70
g51
NtRp265
(dp266
g54
(dp267
sg63
g252
sg56
(lp268
g49
(g50
g51
NtRp269
(dp270
g54
(dp271
g62
I4
ssg63
g265
sg56
(lp272
S'127.0.0.1-67366ae2-92b9-4efd-b49c-19ef6bad89ed'
p273
ag49
(g58
g51
NtRp274
(dp275
g54
(dp276
g62
I3
ssg63
Nsg56
(lp277
g49
(g65
g51
NtRp278
(dp279
g54
(dp280
sg63
g274
sg56
(lp281
g49
(g70
g51
NtRp282
(dp283
g54
(dp284
g74
g75
ssg63
g278
sg56
(lp285
S'comment'
p286
asbag49
(g70
g51
NtRp287
(dp288
g54
(dp289
g81
g82
ssg63
g278
sg56
(lp290
S':'
asbag49
(g70
g51
NtRp291
(dp292
g54
(dp293
sg63
g278
sg56
(lp294
g49
(g50
g51
NtRp295
(dp296
g54
(dp297
g62
I3
ssg63
g291
sg56
(lp298
S''
asbasbasbag49
(g65
g51
NtRp299
(dp300
g54
(dp301
sg63
g274
sg56
(lp302
g49
(g70
g51
NtRp303
(dp304
g54
(dp305
g74
g75
ssg63
g299
sg56
(lp306
S'domain'
p307
asbag49
(g70
g51
NtRp308
(dp309
g54
(dp310
g81
g82
ssg63
g299
sg56
(lp311
S':'
asbag49
(g70
g51
NtRp312
(dp313
g54
(dp314
sg63
g299
sg56
(lp315
g49
(g50
g51
NtRp316
(dp317
g54
(dp318
g62
I3
ssg63
g312
sg56
(lp319
S''
asbasbasbag49
(g65
g51
NtRp320
(dp321
g54
(dp322
sg63
g274
sg56
(lp323
g49
(g70
g51
NtRp324
(dp325
g54
(dp326
g74
g75
ssg63
g320
sg56
(lp327
S'expires'
p328
asbag49
(g70
g51
NtRp329
(dp330
g54
(dp331
g81
g82
ssg63
g320
sg56
(lp332
S':'
asbag49
(g70
g51
NtRp333
(dp334
g54
(dp335
sg63
g320
sg56
(lp336
g49
(g50
g51
NtRp337
(dp338
g54
(dp339
g62
I3
ssg63
g333
sg56
(lp340
S''
asbasbasbag49
(g65
g51
NtRp341
(dp342
g54
(dp343
sg63
g274
sg56
(lp344
g49
(g70
g51
NtRp345
(dp346
g54
(dp347
g74
g75
ssg63
g341
sg56
(lp348
S'max-age'
p349
asbag49
(g70
g51
NtRp350
(dp351
g54
(dp352
g81
g82
ssg63
g341
sg56
(lp353
S':'
asbag49
(g70
g51
NtRp354
(dp355
g54
(dp356
sg63
g341
sg56
(lp357
g49
(g50
g51
NtRp358
(dp359
g54
(dp360
g62
I3
ssg63
g354
sg56
(lp361
S''
asbasbasbag49
(g65
g51
NtRp362
(dp363
g54
(dp364
sg63
g274
sg56
(lp365
g49
(g70
g51
NtRp366
(dp367
g54
(dp368
g74
g75
ssg63
g362
sg56
(lp369
S'path'
p370
asbag49
(g70
g51
NtRp371
(dp372
g54
(dp373
g81
g82
ssg63
g362
sg56
(lp374
S':'
asbag49
(g70
g51
NtRp375
(dp376
g54
(dp377
sg63
g362
sg56
(lp378
g49
(g50
g51
NtRp379
(dp380
g54
(dp381
g62
I3
ssg63
g375
sg56
(lp382
S''
asbasbasbag49
(g65
g51
NtRp383
(dp384
g54
(dp385
sg63
g274
sg56
(lp386
g49
(g70
g51
NtRp387
(dp388
g54
(dp389
g74
g75
ssg63
g383
sg56
(lp390
S'secure'
p391
asbag49
(g70
g51
NtRp392
(dp393
g54
(dp394
g81
g82
ssg63
g383
sg56
(lp395
S':'
asbag49
(g70
g51
NtRp396
(dp397
g54
(dp398
sg63
g383
sg56
(lp399
g49
(g50
g51
NtRp400
(dp401
g54
(dp402
g62
I3
ssg63
g396
sg56
(lp403
S''
asbasbasbag49
(g65
g51
NtRp404
(dp405
g54
(dp406
sg63
g274
sg56
(lp407
g49
(g70
g51
NtRp408
(dp409
g54
(dp410
g74
g75
ssg63
g404
sg56
(lp411
S'version'
p412
asbag49
(g70
g51
NtRp413
(dp414
g54
(dp415
g81
g82
ssg63
g404
sg56
(lp416
S':'
asbag49
(g70
g51
NtRp417
(dp418
g54
(dp419
sg63
g404
sg56
(lp420
g49
(g50
g51
NtRp421
(dp422
g54
(dp423
g62
I3
ssg63
g417
sg56
(lp424
S''
asbasbasbasbasbasbasbag49
(g65
g51
NtRp425
(dp426
g54
(dp427
sg63
g248
sg56
(lp428
g49
(g70
g51
NtRp429
(dp430
g54
(dp431
g74
g75
ssg63
g425
sg56
(lp432
S'session_id_caldwell'
p433
asbag49
(g70
g51
NtRp434
(dp435
g54
(dp436
g81
g82
ssg63
g425
sg56
(lp437
S':'
asbag49
(g70
g51
NtRp438
(dp439
g54
(dp440
sg63
g425
sg56
(lp441
g49
(g50
g51
NtRp442
(dp443
g54
(dp444
g62
I4
ssg63
g438
sg56
(lp445
S'127.0.0.1-774f070d-0370-4fcd-8b83-d9dc7d2b5d2d'
p446
ag49
(g58
g51
NtRp447
(dp448
g54
(dp449
g62
I3
ssg63
Nsg56
(lp450
g49
(g65
g51
NtRp451
(dp452
g54
(dp453
sg63
g447
sg56
(lp454
g49
(g70
g51
NtRp455
(dp456
g54
(dp457
g74
g75
ssg63
g451
sg56
(lp458
g286
asbag49
(g70
g51
NtRp459
(dp460
g54
(dp461
g81
g82
ssg63
g451
sg56
(lp462
S':'
asbag49
(g70
g51
NtRp463
(dp464
g54
(dp465
sg63
g451
sg56
(lp466
g49
(g50
g51
NtRp467
(dp468
g54
(dp469
g62
I3
ssg63
g463
sg56
(lp470
S''
asbasbasbag49
(g65
g51
NtRp471
(dp472
g54
(dp473
sg63
g447
sg56
(lp474
g49
(g70
g51
NtRp475
(dp476
g54
(dp477
g74
g75
ssg63
g471
sg56
(lp478
g307
asbag49
(g70
g51
NtRp479
(dp480
g54
(dp481
g81
g82
ssg63
g471
sg56
(lp482
S':'
asbag49
(g70
g51
NtRp483
(dp484
g54
(dp485
sg63
g471
sg56
(lp486
g49
(g50
g51
NtRp487
(dp488
g54
(dp489
g62
I3
ssg63
g483
sg56
(lp490
S''
asbasbasbag49
(g65
g51
NtRp491
(dp492
g54
(dp493
sg63
g447
sg56
(lp494
g49
(g70
g51
NtRp495
(dp496
g54
(dp497
g74
g75
ssg63
g491
sg56
(lp498
g328
asbag49
(g70
g51
NtRp499
(dp500
g54
(dp501
g81
g82
ssg63
g491
sg56
(lp502
S':'
asbag49
(g70
g51
NtRp503
(dp504
g54
(dp505
sg63
g491
sg56
(lp506
g49
(g50
g51
NtRp507
(dp508
g54
(dp509
g62
I3
ssg63
g503
sg56
(lp510
S''
asbasbasbag49
(g65
g51
NtRp511
(dp512
g54
(dp513
sg63
g447
sg56
(lp514
g49
(g70
g51
NtRp515
(dp516
g54
(dp517
g74
g75
ssg63
g511
sg56
(lp518
g349
asbag49
(g70
g51
NtRp519
(dp520
g54
(dp521
g81
g82
ssg63
g511
sg56
(lp522
S':'
asbag49
(g70
g51
NtRp523
(dp524
g54
(dp525
sg63
g511
sg56
(lp526
g49
(g50
g51
NtRp527
(dp528
g54
(dp529
g62
I3
ssg63
g523
sg56
(lp530
S''
asbasbasbag49
(g65
g51
NtRp531
(dp532
g54
(dp533
sg63
g447
sg56
(lp534
g49
(g70
g51
NtRp535
(dp536
g54
(dp537
g74
g75
ssg63
g531
sg56
(lp538
g370
asbag49
(g70
g51
NtRp539
(dp540
g54
(dp541
g81
g82
ssg63
g531
sg56
(lp542
S':'
asbag49
(g70
g51
NtRp543
(dp544
g54
(dp545
sg63
g531
sg56
(lp546
g49
(g50
g51
NtRp547
(dp548
g54
(dp549
g62
I3
ssg63
g543
sg56
(lp550
S''
asbasbasbag49
(g65
g51
NtRp551
(dp552
g54
(dp553
sg63
g447
sg56
(lp554
g49
(g70
g51
NtRp555
(dp556
g54
(dp557
g74
g75
ssg63
g551
sg56
(lp558
g391
asbag49
(g70
g51
NtRp559
(dp560
g54
(dp561
g81
g82
ssg63
g551
sg56
(lp562
S':'
asbag49
(g70
g51
NtRp563
(dp564
g54
(dp565
sg63
g551
sg56
(lp566
g49
(g50
g51
NtRp567
(dp568
g54
(dp569
g62
I3
ssg63
g563
sg56
(lp570
S''
asbasbasbag49
(g65
g51
NtRp571
(dp572
g54
(dp573
sg63
g447
sg56
(lp574
g49
(g70
g51
NtRp575
(dp576
g54
(dp577
g74
g75
ssg63
g571
sg56
(lp578
g412
asbag49
(g70
g51
NtRp579
(dp580
g54
(dp581
g81
g82
ssg63
g571
sg56
(lp582
S':'
asbag49
(g70
g51
NtRp583
(dp584
g54
(dp585
sg63
g571
sg56
(lp586
g49
(g50
g51
NtRp587
(dp588
g54
(dp589
g62
I3
ssg63
g583
sg56
(lp590
S''
asbasbasbasbasbasbasbag49
(g65
g51
NtRp591
(dp592
g54
(dp593
sg63
g248
sg56
(lp594
g49
(g70
g51
NtRp595
(dp596
g54
(dp597
g74
g75
ssg63
g591
sg56
(lp598
S'session_id_course_recommendations'
p599
asbag49
(g70
g51
NtRp600
(dp601
g54
(dp602
g81
g82
ssg63
g591
sg56
(lp603
S':'
asbag49
(g70
g51
NtRp604
(dp605
g54
(dp606
sg63
g591
sg56
(lp607
g49
(g50
g51
NtRp608
(dp609
g54
(dp610
g62
I4
ssg63
g604
sg56
(lp611
S'127.0.0.1-eddf8dff-6ce0-4bec-bee5-62116570058b'
p612
ag49
(g58
g51
NtRp613
(dp614
g54
(dp615
g62
I3
ssg63
Nsg56
(lp616
g49
(g65
g51
NtRp617
(dp618
g54
(dp619
sg63
g613
sg56
(lp620
g49
(g70
g51
NtRp621
(dp622
g54
(dp623
g74
g75
ssg63
g617
sg56
(lp624
g286
asbag49
(g70
g51
NtRp625
(dp626
g54
(dp627
g81
g82
ssg63
g617
sg56
(lp628
S':'
asbag49
(g70
g51
NtRp629
(dp630
g54
(dp631
sg63
g617
sg56
(lp632
g49
(g50
g51
NtRp633
(dp634
g54
(dp635
g62
I3
ssg63
g629
sg56
(lp636
S''
asbasbasbag49
(g65
g51
NtRp637
(dp638
g54
(dp639
sg63
g613
sg56
(lp640
g49
(g70
g51
NtRp641
(dp642
g54
(dp643
g74
g75
ssg63
g637
sg56
(lp644
g307
asbag49
(g70
g51
NtRp645
(dp646
g54
(dp647
g81
g82
ssg63
g637
sg56
(lp648
S':'
asbag49
(g70
g51
NtRp649
(dp650
g54
(dp651
sg63
g637
sg56
(lp652
g49
(g50
g51
NtRp653
(dp654
g54
(dp655
g62
I3
ssg63
g649
sg56
(lp656
S''
asbasbasbag49
(g65
g51
NtRp657
(dp658
g54
(dp659
sg63
g613
sg56
(lp660
g49
(g70
g51
NtRp661
(dp662
g54
(dp663
g74
g75
ssg63
g657
sg56
(lp664
g328
asbag49
(g70
g51
NtRp665
(dp666
g54
(dp667
g81
g82
ssg63
g657
sg56
(lp668
S':'
asbag49
(g70
g51
NtRp669
(dp670
g54
(dp671
sg63
g657
sg56
(lp672
g49
(g50
g51
NtRp673
(dp674
g54
(dp675
g62
I3
ssg63
g669
sg56
(lp676
S''
asbasbasbag49
(g65
g51
NtRp677
(dp678
g54
(dp679
sg63
g613
sg56
(lp680
g49
(g70
g51
NtRp681
(dp682
g54
(dp683
g74
g75
ssg63
g677
sg56
(lp684
g349
asbag49
(g70
g51
NtRp685
(dp686
g54
(dp687
g81
g82
ssg63
g677
sg56
(lp688
S':'
asbag49
(g70
g51
NtRp689
(dp690
g54
(dp691
sg63
g677
sg56
(lp692
g49
(g50
g51
NtRp693
(dp694
g54
(dp695
g62
I3
ssg63
g689
sg56
(lp696
S''
asbasbasbag49
(g65
g51
NtRp697
(dp698
g54
(dp699
sg63
g613
sg56
(lp700
g49
(g70
g51
NtRp701
(dp702
g54
(dp703
g74
g75
ssg63
g697
sg56
(lp704
g370
asbag49
(g70
g51
NtRp705
(dp706
g54
(dp707
g81
g82
ssg63
g697
sg56
(lp708
S':'
asbag49
(g70
g51
NtRp709
(dp710
g54
(dp711
sg63
g697
sg56
(lp712
g49
(g50
g51
NtRp713
(dp714
g54
(dp715
g62
I3
ssg63
g709
sg56
(lp716
S''
asbasbasbag49
(g65
g51
NtRp717
(dp718
g54
(dp719
sg63
g613
sg56
(lp720
g49
(g70
g51
NtRp721
(dp722
g54
(dp723
g74
g75
ssg63
g717
sg56
(lp724
g391
asbag49
(g70
g51
NtRp725
(dp726
g54
(dp727
g81
g82
ssg63
g717
sg56
(lp728
S':'
asbag49
(g70
g51
NtRp729
(dp730
g54
(dp731
sg63
g717
sg56
(lp732
g49
(g50
g51
NtRp733
(dp734
g54
(dp735
g62
I3
ssg63
g729
sg56
(lp736
S''
asbasbasbag49
(g65
g51
NtRp737
(dp738
g54
(dp739
sg63
g613
sg56
(lp740
g49
(g70
g51
NtRp741
(dp742
g54
(dp743
g74
g75
ssg63
g737
sg56
(lp744
g412
asbag49
(g70
g51
NtRp745
(dp746
g54
(dp747
g81
g82
ssg63
g737
sg56
(lp748
S':'
asbag49
(g70
g51
NtRp749
(dp750
g54
(dp751
sg63
g737
sg56
(lp752
g49
(g50
g51
NtRp753
(dp754
g54
(dp755
g62
I3
ssg63
g749
sg56
(lp756
S''
asbasbasbasbasbasbasbag49
(g65
g51
NtRp757
(dp758
g54
(dp759
sg63
g248
sg56
(lp760
g49
(g70
g51
NtRp761
(dp762
g54
(dp763
g74
g75
ssg63
g757
sg56
(lp764
S'session_id_final_impulse'
p765
asbag49
(g70
g51
NtRp766
(dp767
g54
(dp768
g81
g82
ssg63
g757
sg56
(lp769
S':'
asbag49
(g70
g51
NtRp770
(dp771
g54
(dp772
sg63
g757
sg56
(lp773
g49
(g50
g51
NtRp774
(dp775
g54
(dp776
g62
I4
ssg63
g770
sg56
(lp777
S'127.0.0.1-ac36925b-09fb-464c-8328-24d40603a009'
p778
ag49
(g58
g51
NtRp779
(dp780
g54
(dp781
g62
I3
ssg63
Nsg56
(lp782
g49
(g65
g51
NtRp783
(dp784
g54
(dp785
sg63
g779
sg56
(lp786
g49
(g70
g51
NtRp787
(dp788
g54
(dp789
g74
g75
ssg63
g783
sg56
(lp790
g286
asbag49
(g70
g51
NtRp791
(dp792
g54
(dp793
g81
g82
ssg63
g783
sg56
(lp794
S':'
asbag49
(g70
g51
NtRp795
(dp796
g54
(dp797
sg63
g783
sg56
(lp798
g49
(g50
g51
NtRp799
(dp800
g54
(dp801
g62
I3
ssg63
g795
sg56
(lp802
S''
asbasbasbag49
(g65
g51
NtRp803
(dp804
g54
(dp805
sg63
g779
sg56
(lp806
g49
(g70
g51
NtRp807
(dp808
g54
(dp809
g74
g75
ssg63
g803
sg56
(lp810
g307
asbag49
(g70
g51
NtRp811
(dp812
g54
(dp813
g81
g82
ssg63
g803
sg56
(lp814
S':'
asbag49
(g70
g51
NtRp815
(dp816
g54
(dp817
sg63
g803
sg56
(lp818
g49
(g50
g51
NtRp819
(dp820
g54
(dp821
g62
I3
ssg63
g815
sg56
(lp822
S''
asbasbasbag49
(g65
g51
NtRp823
(dp824
g54
(dp825
sg63
g779
sg56
(lp826
g49
(g70
g51
NtRp827
(dp828
g54
(dp829
g74
g75
ssg63
g823
sg56
(lp830
g328
asbag49
(g70
g51
NtRp831
(dp832
g54
(dp833
g81
g82
ssg63
g823
sg56
(lp834
S':'
asbag49
(g70
g51
NtRp835
(dp836
g54
(dp837
sg63
g823
sg56
(lp838
g49
(g50
g51
NtRp839
(dp840
g54
(dp841
g62
I3
ssg63
g835
sg56
(lp842
S''
asbasbasbag49
(g65
g51
NtRp843
(dp844
g54
(dp845
sg63
g779
sg56
(lp846
g49
(g70
g51
NtRp847
(dp848
g54
(dp849
g74
g75
ssg63
g843
sg56
(lp850
g349
asbag49
(g70
g51
NtRp851
(dp852
g54
(dp853
g81
g82
ssg63
g843
sg56
(lp854
S':'
asbag49
(g70
g51
NtRp855
(dp856
g54
(dp857
sg63
g843
sg56
(lp858
g49
(g50
g51
NtRp859
(dp860
g54
(dp861
g62
I3
ssg63
g855
sg56
(lp862
S''
asbasbasbag49
(g65
g51
NtRp863
(dp864
g54
(dp865
sg63
g779
sg56
(lp866
g49
(g70
g51
NtRp867
(dp868
g54
(dp869
g74
g75
ssg63
g863
sg56
(lp870
g370
asbag49
(g70
g51
NtRp871
(dp872
g54
(dp873
g81
g82
ssg63
g863
sg56
(lp874
S':'
asbag49
(g70
g51
NtRp875
(dp876
g54
(dp877
sg63
g863
sg56
(lp878
g49
(g50
g51
NtRp879
(dp880
g54
(dp881
g62
I3
ssg63
g875
sg56
(lp882
S''
asbasbasbag49
(g65
g51
NtRp883
(dp884
g54
(dp885
sg63
g779
sg56
(lp886
g49
(g70
g51
NtRp887
(dp888
g54
(dp889
g74
g75
ssg63
g883
sg56
(lp890
g391
asbag49
(g70
g51
NtRp891
(dp892
g54
(dp893
g81
g82
ssg63
g883
sg56
(lp894
S':'
asbag49
(g70
g51
NtRp895
(dp896
g54
(dp897
sg63
g883
sg56
(lp898
g49
(g50
g51
NtRp899
(dp900
g54
(dp901
g62
I3
ssg63
g895
sg56
(lp902
S''
asbasbasbag49
(g65
g51
NtRp903
(dp904
g54
(dp905
sg63
g779
sg56
(lp906
g49
(g70
g51
NtRp907
(dp908
g54
(dp909
g74
g75
ssg63
g903
sg56
(lp910
g412
asbag49
(g70
g51
NtRp911
(dp912
g54
(dp913
g81
g82
ssg63
g903
sg56
(lp914
S':'
asbag49
(g70
g51
NtRp915
(dp916
g54
(dp917
sg63
g903
sg56
(lp918
g49
(g50
g51
NtRp919
(dp920
g54
(dp921
g62
I3
ssg63
g915
sg56
(lp922
S''
asbasbasbasbasbasbasbag49
(g65
g51
NtRp923
(dp924
g54
(dp925
sg63
g248
sg56
(lp926
g49
(g70
g51
NtRp927
(dp928
g54
(dp929
g74
g75
ssg63
g923
sg56
(lp930
S'session_id_welcome'
p931
asbag49
(g70
g51
NtRp932
(dp933
g54
(dp934
g81
g82
ssg63
g923
sg56
(lp935
S':'
asbag49
(g70
g51
NtRp936
(dp937
g54
(dp938
sg63
g923
sg56
(lp939
g49
(g50
g51
NtRp940
(dp941
g54
(dp942
g62
I4
ssg63
g936
sg56
(lp943
S'127.0.0.1-a1b29d7f-93ea-4f9a-855b-c9366e00dcc8'
p944
ag49
(g58
g51
NtRp945
(dp946
g54
(dp947
g62
I3
ssg63
Nsg56
(lp948
g49
(g65
g51
NtRp949
(dp950
g54
(dp951
sg63
g945
sg56
(lp952
g49
(g70
g51
NtRp953
(dp954
g54
(dp955
g74
g75
ssg63
g949
sg56
(lp956
g286
asbag49
(g70
g51
NtRp957
(dp958
g54
(dp959
g81
g82
ssg63
g949
sg56
(lp960
S':'
asbag49
(g70
g51
NtRp961
(dp962
g54
(dp963
sg63
g949
sg56
(lp964
g49
(g50
g51
NtRp965
(dp966
g54
(dp967
g62
I3
ssg63
g961
sg56
(lp968
S''
asbasbasbag49
(g65
g51
NtRp969
(dp970
g54
(dp971
sg63
g945
sg56
(lp972
g49
(g70
g51
NtRp973
(dp974
g54
(dp975
g74
g75
ssg63
g969
sg56
(lp976
g307
asbag49
(g70
g51
NtRp977
(dp978
g54
(dp979
g81
g82
ssg63
g969
sg56
(lp980
S':'
asbag49
(g70
g51
NtRp981
(dp982
g54
(dp983
sg63
g969
sg56
(lp984
g49
(g50
g51
NtRp985
(dp986
g54
(dp987
g62
I3
ssg63
g981
sg56
(lp988
S''
asbasbasbag49
(g65
g51
NtRp989
(dp990
g54
(dp991
sg63
g945
sg56
(lp992
g49
(g70
g51
NtRp993
(dp994
g54
(dp995
g74
g75
ssg63
g989
sg56
(lp996
g328
asbag49
(g70
g51
NtRp997
(dp998
g54
(dp999
g81
g82
ssg63
g989
sg56
(lp1000
S':'
asbag49
(g70
g51
NtRp1001
(dp1002
g54
(dp1003
sg63
g989
sg56
(lp1004
g49
(g50
g51
NtRp1005
(dp1006
g54
(dp1007
g62
I3
ssg63
g1001
sg56
(lp1008
S''
asbasbasbag49
(g65
g51
NtRp1009
(dp1010
g54
(dp1011
sg63
g945
sg56
(lp1012
g49
(g70
g51
NtRp1013
(dp1014
g54
(dp1015
g74
g75
ssg63
g1009
sg56
(lp1016
g349
asbag49
(g70
g51
NtRp1017
(dp1018
g54
(dp1019
g81
g82
ssg63
g1009
sg56
(lp1020
S':'
asbag49
(g70
g51
NtRp1021
(dp1022
g54
(dp1023
sg63
g1009
sg56
(lp1024
g49
(g50
g51
NtRp1025
(dp1026
g54
(dp1027
g62
I3
ssg63
g1021
sg56
(lp1028
S''
asbasbasbag49
(g65
g51
NtRp1029
(dp1030
g54
(dp1031
sg63
g945
sg56
(lp1032
g49
(g70
g51
NtRp1033
(dp1034
g54
(dp1035
g74
g75
ssg63
g1029
sg56
(lp1036
g370
asbag49
(g70
g51
NtRp1037
(dp1038
g54
(dp1039
g81
g82
ssg63
g1029
sg56
(lp1040
S':'
asbag49
(g70
g51
NtRp1041
(dp1042
g54
(dp1043
sg63
g1029
sg56
(lp1044
g49
(g50
g51
NtRp1045
(dp1046
g54
(dp1047
g62
I3
ssg63
g1041
sg56
(lp1048
S''
asbasbasbag49
(g65
g51
NtRp1049
(dp1050
g54
(dp1051
sg63
g945
sg56
(lp1052
g49
(g70
g51
NtRp1053
(dp1054
g54
(dp1055
g74
g75
ssg63
g1049
sg56
(lp1056
g391
asbag49
(g70
g51
NtRp1057
(dp1058
g54
(dp1059
g81
g82
ssg63
g1049
sg56
(lp1060
S':'
asbag49
(g70
g51
NtRp1061
(dp1062
g54
(dp1063
sg63
g1049
sg56
(lp1064
g49
(g50
g51
NtRp1065
(dp1066
g54
(dp1067
g62
I3
ssg63
g1061
sg56
(lp1068
S''
asbasbasbag49
(g65
g51
NtRp1069
(dp1070
g54
(dp1071
sg63
g945
sg56
(lp1072
g49
(g70
g51
NtRp1073
(dp1074
g54
(dp1075
g74
g75
ssg63
g1069
sg56
(lp1076
g412
asbag49
(g70
g51
NtRp1077
(dp1078
g54
(dp1079
g81
g82
ssg63
g1069
sg56
(lp1080
S':'
asbag49
(g70
g51
NtRp1081
(dp1082
g54
(dp1083
sg63
g1069
sg56
(lp1084
g49
(g50
g51
NtRp1085
(dp1086
g54
(dp1087
g62
I3
ssg63
g1081
sg56
(lp1088
S''
asbasbasbasbasbasbasbasbasbasbasbag49
(g65
g51
NtRp1089
(dp1090
g54
(dp1091
sg63
g59
sg56
(lp1092
g49
(g70
g51
NtRp1093
(dp1094
g54
(dp1095
g74
g75
ssg63
g1089
sg56
(lp1096
S'env'
p1097
asbag49
(g70
g51
NtRp1098
(dp1099
g54
(dp1100
g81
g82
ssg63
g1089
sg56
(lp1101
S':'
asbag49
(g70
g51
NtRp1102
(dp1103
g54
(dp1104
sg63
g1089
sg56
(lp1105
g49
(g50
g51
NtRp1106
(dp1107
g54
(dp1108
g62
I5
ssg63
g1102
sg56
(lp1109
g49
(g58
g51
NtRp1110
(dp1111
g54
(dp1112
g62
I4
ssg63
Nsg56
(lp1113
g49
(g65
g51
NtRp1114
(dp1115
g54
(dp1116
sg63
g1110
sg56
(lp1117
g49
(g70
g51
NtRp1118
(dp1119
g54
(dp1120
g74
g75
ssg63
g1114
sg56
(lp1121
S'app_folders'
p1122
asbag49
(g70
g51
NtRp1123
(dp1124
g54
(dp1125
g81
g82
ssg63
g1114
sg56
(lp1126
S':'
asbag49
(g70
g51
NtRp1127
(dp1128
g54
(dp1129
sg63
g1114
sg56
(lp1130
g49
(g50
g51
NtRp1131
(dp1132
g54
(dp1133
g62
I4
ssg63
g1127
sg56
(lp1134
S"set(['/Users/abaric/Downloads/web2py/web2py.app/Contents/Resources/applications/Final_Impulse/', '/Users/abaric/Downloads/web2py/web2py.app/Contents/Resources/applications/welcome/', '/Users/abaric/Downloads/web2py/web2py.app/Contents/Resources/applications/admin/', '/Users/abaric/Downloads/web2py/web2py.app/Contents/Resources/applications/Caldwell/', '/Users/abaric/Downloads/web2py/web2py.app/Contents/Resources/applications/Course_Recommendations/', '/Users/abaric/Downloads/web2py/web2py.app/Contents/Resources/applications/examples/'])"
p1135
asbasbasbag49
(g65
g51
NtRp1136
(dp1137
g54
(dp1138
sg63
g1110
sg56
(lp1139
g49
(g70
g51
NtRp1140
(dp1141
g54
(dp1142
g74
g75
ssg63
g1136
sg56
(lp1143
S'applications_parent'
p1144
asbag49
(g70
g51
NtRp1145
(dp1146
g54
(dp1147
g81
g82
ssg63
g1136
sg56
(lp1148
S':'
asbag49
(g70
g51
NtRp1149
(dp1150
g54
(dp1151
sg63
g1136
sg56
(lp1152
g49
(g50
g51
NtRp1153
(dp1154
g54
(dp1155
g62
I4
ssg63
g1149
sg56
(lp1156
S'/Users/abaric/Downloads/web2py/web2py.app/Contents/Resources'
p1157
asbasbasbag49
(g65
g51
NtRp1158
(dp1159
g54
(dp1160
sg63
g1110
sg56
(lp1161
g49
(g70
g51
NtRp1162
(dp1163
g54
(dp1164
g74
g75
ssg63
g1158
sg56
(lp1165
S'cmd_args'
p1166
asbag49
(g70
g51
NtRp1167
(dp1168
g54
(dp1169
g81
g82
ssg63
g1158
sg56
(lp1170
S':'
asbag49
(g70
g51
NtRp1171
(dp1172
g54
(dp1173
sg63
g1158
sg56
(lp1174
g49
(g50
g51
NtRp1175
(dp1176
g54
(dp1177
g62
I4
ssg63
g1171
sg56
(lp1178
g49
(g58
g51
NtRp1179
(dp1180
g54
(dp1181
g62
I3
ssg63
Nsg56
(lp1182
sbasbasbasbag49
(g65
g51
NtRp1183
(dp1184
g54
(dp1185
sg63
g1110
sg56
(lp1186
g49
(g70
g51
NtRp1187
(dp1188
g54
(dp1189
g74
g75
ssg63
g1183
sg56
(lp1190
S'cmd_options'
p1191
asbag49
(g70
g51
NtRp1192
(dp1193
g54
(dp1194
g81
g82
ssg63
g1183
sg56
(lp1195
S':'
asbag49
(g70
g51
NtRp1196
(dp1197
g54
(dp1198
sg63
g1183
sg56
(lp1199
g49
(g50
g51
NtRp1200
(dp1201
g54
(dp1202
g62
I4
ssg63
g1196
sg56
(lp1203
S"<Values at 0x45061c0: {'verbose': False, 'ip': '127.0.0.1', 'with_scheduler': False, 'ips': ['144.118.245.17'], 'shutdown_timeout': 5, 'taskbar': False, 'port': 8000, 'maxthreads': None, 'softcron': False, 'server_name': 'Andrea-Barics-MacBook-Pro.local', 'bpython': False, 'nogui': False, 'pid_filename': 'httpserver.pid', 'extcron': False, 'runcron': False, 'run_system_tests': False, 'test': None, 'folder': '/Users/abaric/Downloads/web2py/web2py.app/Contents/Resources', 'config': '', 'import_models': False, 'winservice': '', 'shell': None, 'run': '', 'log_filename': 'httpserver.log', 'debuglevel': 30, 'args': [''], 'socket_timeout': 5, 'ssl_ca_certificate': None, 'scheduler': None, 'profiler_filename': None, 'ssl_private_key': '', 'scheduler_groups': None, 'password': '<ask>', 'request_queue_size': 5, 'ssl_certificate': '', 'cronjob': False, 'numthreads': None, 'quiet': False, 'interfaces': None, 'minthreads': None, 'timeout': 10, 'plain': False, 'nobanner': False}>"
p1204
asbasbasbag49
(g65
g51
NtRp1205
(dp1206
g54
(dp1207
sg63
g1110
sg56
(lp1208
g49
(g70
g51
NtRp1209
(dp1210
g54
(dp1211
g74
g75
ssg63
g1205
sg56
(lp1212
S'db_sessions'
p1213
asbag49
(g70
g51
NtRp1214
(dp1215
g54
(dp1216
g81
g82
ssg63
g1205
sg56
(lp1217
S':'
asbag49
(g70
g51
NtRp1218
(dp1219
g54
(dp1220
sg63
g1205
sg56
(lp1221
g49
(g50
g51
NtRp1222
(dp1223
g54
(dp1224
g62
I4
ssg63
g1218
sg56
(lp1225
S'set([])'
p1226
asbasbasbag49
(g65
g51
NtRp1227
(dp1228
g54
(dp1229
sg63
g1110
sg56
(lp1230
g49
(g70
g51
NtRp1231
(dp1232
g54
(dp1233
g74
g75
ssg63
g1227
sg56
(lp1234
S'debugging'
p1235
asbag49
(g70
g51
NtRp1236
(dp1237
g54
(dp1238
g81
g82
ssg63
g1227
sg56
(lp1239
S':'
asbag49
(g70
g51
NtRp1240
(dp1241
g54
(dp1242
sg63
g1227
sg56
(lp1243
g49
(g50
g51
NtRp1244
(dp1245
g54
(dp1246
g62
I4
ssg63
g1240
sg56
(lp1247
g92
asbasbasbag49
(g65
g51
NtRp1248
(dp1249
g54
(dp1250
sg63
g1110
sg56
(lp1251
g49
(g70
g51
NtRp1252
(dp1253
g54
(dp1254
g74
g75
ssg63
g1248
sg56
(lp1255
S'gluon_parent'
p1256
asbag49
(g70
g51
NtRp1257
(dp1258
g54
(dp1259
g81
g82
ssg63
g1248
sg56
(lp1260
S':'
asbag49
(g70
g51
NtRp1261
(dp1262
g54
(dp1263
sg63
g1248
sg56
(lp1264
g49
(g50
g51
NtRp1265
(dp1266
g54
(dp1267
g62
I4
ssg63
g1261
sg56
(lp1268
S'/Users/abaric/Downloads/web2py/web2py.app/Contents/Resources'
p1269
asbasbasbag49
(g65
g51
NtRp1270
(dp1271
g54
(dp1272
sg63
g1110
sg56
(lp1273
g49
(g70
g51
NtRp1274
(dp1275
g54
(dp1276
g74
g75
ssg63
g1270
sg56
(lp1277
S'http_accept'
p1278
asbag49
(g70
g51
NtRp1279
(dp1280
g54
(dp1281
g81
g82
ssg63
g1270
sg56
(lp1282
S':'
asbag49
(g70
g51
NtRp1283
(dp1284
g54
(dp1285
sg63
g1270
sg56
(lp1286
g49
(g50
g51
NtRp1287
(dp1288
g54
(dp1289
g62
I4
ssg63
g1283
sg56
(lp1290
S'text/html,application/xhtml+xml,application/xml;q=0.9,image/webp,*/*;q=0.8'
p1291
asbasbasbag49
(g65
g51
NtRp1292
(dp1293
g54
(dp1294
sg63
g1110
sg56
(lp1295
g49
(g70
g51
NtRp1296
(dp1297
g54
(dp1298
g74
g75
ssg63
g1292
sg56
(lp1299
S'http_accept_encoding'
p1300
asbag49
(g70
g51
NtRp1301
(dp1302
g54
(dp1303
g81
g82
ssg63
g1292
sg56
(lp1304
S':'
asbag49
(g70
g51
NtRp1305
(dp1306
g54
(dp1307
sg63
g1292
sg56
(lp1308
g49
(g50
g51
NtRp1309
(dp1310
g54
(dp1311
g62
I4
ssg63
g1305
sg56
(lp1312
S'gzip, deflate, sdch'
p1313
asbasbasbag49
(g65
g51
NtRp1314
(dp1315
g54
(dp1316
sg63
g1110
sg56
(lp1317
g49
(g70
g51
NtRp1318
(dp1319
g54
(dp1320
g74
g75
ssg63
g1314
sg56
(lp1321
S'http_accept_language'
p1322
asbag49
(g70
g51
NtRp1323
(dp1324
g54
(dp1325
g81
g82
ssg63
g1314
sg56
(lp1326
S':'
asbag49
(g70
g51
NtRp1327
(dp1328
g54
(dp1329
sg63
g1314
sg56
(lp1330
g49
(g50
g51
NtRp1331
(dp1332
g54
(dp1333
g62
I4
ssg63
g1327
sg56
(lp1334
S'en-US,en;q=0.8'
p1335
asbasbasbag49
(g65
g51
NtRp1336
(dp1337
g54
(dp1338
sg63
g1110
sg56
(lp1339
g49
(g70
g51
NtRp1340
(dp1341
g54
(dp1342
g74
g75
ssg63
g1336
sg56
(lp1343
S'http_connection'
p1344
asbag49
(g70
g51
NtRp1345
(dp1346
g54
(dp1347
g81
g82
ssg63
g1336
sg56
(lp1348
S':'
asbag49
(g70
g51
NtRp1349
(dp1350
g54
(dp1351
sg63
g1336
sg56
(lp1352
g49
(g50
g51
NtRp1353
(dp1354
g54
(dp1355
g62
I4
ssg63
g1349
sg56
(lp1356
S'keep-alive'
p1357
asbasbasbag49
(g65
g51
NtRp1358
(dp1359
g54
(dp1360
sg63
g1110
sg56
(lp1361
g49
(g70
g51
NtRp1362
(dp1363
g54
(dp1364
g74
g75
ssg63
g1358
sg56
(lp1365
S'http_cookie'
p1366
asbag49
(g70
g51
NtRp1367
(dp1368
g54
(dp1369
g81
g82
ssg63
g1358
sg56
(lp1370
S':'
asbag49
(g70
g51
NtRp1371
(dp1372
g54
(dp1373
sg63
g1358
sg56
(lp1374
g49
(g50
g51
NtRp1375
(dp1376
g54
(dp1377
g62
I4
ssg63
g1371
sg56
(lp1378
S'session_id_welcome=127.0.0.1-a1b29d7f-93ea-4f9a-855b-c9366e00dcc8; session_id_course_recommendations=127.0.0.1-eddf8dff-6ce0-4bec-bee5-62116570058b; session_id_caldwell=127.0.0.1-774f070d-0370-4fcd-8b83-d9dc7d2b5d2d; session_id_admin=127.0.0.1-67366ae2-92b9-4efd-b49c-19ef6bad89ed; session_id_final_impulse=127.0.0.1-ac36925b-09fb-464c-8328-24d40603a009'
p1379
asbasbasbag49
(g65
g51
NtRp1380
(dp1381
g54
(dp1382
sg63
g1110
sg56
(lp1383
g49
(g70
g51
NtRp1384
(dp1385
g54
(dp1386
g74
g75
ssg63
g1380
sg56
(lp1387
S'http_host'
p1388
asbag49
(g70
g51
NtRp1389
(dp1390
g54
(dp1391
g81
g82
ssg63
g1380
sg56
(lp1392
S':'
asbag49
(g70
g51
NtRp1393
(dp1394
g54
(dp1395
sg63
g1380
sg56
(lp1396
g49
(g50
g51
NtRp1397
(dp1398
g54
(dp1399
g62
I4
ssg63
g1393
sg56
(lp1400
S'127.0.0.1:8000'
p1401
asbasbasbag49
(g65
g51
NtRp1402
(dp1403
g54
(dp1404
sg63
g1110
sg56
(lp1405
g49
(g70
g51
NtRp1406
(dp1407
g54
(dp1408
g74
g75
ssg63
g1402
sg56
(lp1409
S'http_referer'
p1410
asbag49
(g70
g51
NtRp1411
(dp1412
g54
(dp1413
g81
g82
ssg63
g1402
sg56
(lp1414
S':'
asbag49
(g70
g51
NtRp1415
(dp1416
g54
(dp1417
sg63
g1402
sg56
(lp1418
g49
(g50
g51
NtRp1419
(dp1420
g54
(dp1421
g62
I4
ssg63
g1415
sg56
(lp1422
S'http://127.0.0.1:8000/Final_Impulse/default/index'
p1423
asbasbasbag49
(g65
g51
NtRp1424
(dp1425
g54
(dp1426
sg63
g1110
sg56
(lp1427
g49
(g70
g51
NtRp1428
(dp1429
g54
(dp1430
g74
g75
ssg63
g1424
sg56
(lp1431
S'http_user_agent'
p1432
asbag49
(g70
g51
NtRp1433
(dp1434
g54
(dp1435
g81
g82
ssg63
g1424
sg56
(lp1436
S':'
asbag49
(g70
g51
NtRp1437
(dp1438
g54
(dp1439
sg63
g1424
sg56
(lp1440
g49
(g50
g51
NtRp1441
(dp1442
g54
(dp1443
g62
I4
ssg63
g1437
sg56
(lp1444
S'Mozilla/5.0 (Macintosh; Intel Mac OS X 10_8_4) AppleWebKit/537.36 (KHTML, like Gecko) Chrome/41.0.2272.104 Safari/537.36'
p1445
asbasbasbag49
(g65
g51
NtRp1446
(dp1447
g54
(dp1448
sg63
g1110
sg56
(lp1449
g49
(g70
g51
NtRp1450
(dp1451
g54
(dp1452
g74
g75
ssg63
g1446
sg56
(lp1453
S'is_jython'
p1454
asbag49
(g70
g51
NtRp1455
(dp1456
g54
(dp1457
g81
g82
ssg63
g1446
sg56
(lp1458
S':'
asbag49
(g70
g51
NtRp1459
(dp1460
g54
(dp1461
sg63
g1446
sg56
(lp1462
g49
(g50
g51
NtRp1463
(dp1464
g54
(dp1465
g62
I4
ssg63
g1459
sg56
(lp1466
g92
asbasbasbag49
(g65
g51
NtRp1467
(dp1468
g54
(dp1469
sg63
g1110
sg56
(lp1470
g49
(g70
g51
NtRp1471
(dp1472
g54
(dp1473
g74
g75
ssg63
g1467
sg56
(lp1474
S'is_pypy'
p1475
asbag49
(g70
g51
NtRp1476
(dp1477
g54
(dp1478
g81
g82
ssg63
g1467
sg56
(lp1479
S':'
asbag49
(g70
g51
NtRp1480
(dp1481
g54
(dp1482
sg63
g1467
sg56
(lp1483
g49
(g50
g51
NtRp1484
(dp1485
g54
(dp1486
g62
I4
ssg63
g1480
sg56
(lp1487
g92
asbasbasbag49
(g65
g51
NtRp1488
(dp1489
g54
(dp1490
sg63
g1110
sg56
(lp1491
g49
(g70
g51
NtRp1492
(dp1493
g54
(dp1494
g74
g75
ssg63
g1488
sg56
(lp1495
S'local_hosts'
p1496
asbag49
(g70
g51
NtRp1497
(dp1498
g54
(dp1499
g81
g82
ssg63
g1488
sg56
(lp1500
S':'
asbag49
(g70
g51
NtRp1501
(dp1502
g54
(dp1503
sg63
g1488
sg56
(lp1504
g49
(g50
g51
NtRp1505
(dp1506
g54
(dp1507
g62
I4
ssg63
g1501
sg56
(lp1508
g49
(g58
g51
NtRp1509
(dp1510
g54
(dp1511
g62
I3
ssg63
Nsg56
(lp1512
g49
(g65
g51
NtRp1513
(dp1514
g54
(dp1515
sg63
g1509
sg56
(lp1516
g49
(g70
g51
NtRp1517
(dp1518
g54
(dp1519
sg63
g1513
sg56
(lp1520
g49
(g50
g51
NtRp1521
(dp1522
g54
(dp1523
g62
I3
ssg63
g1517
sg56
(lp1524
S'127.0.0.1'
p1525
asbasbasbag49
(g65
g51
NtRp1526
(dp1527
g54
(dp1528
sg63
g1509
sg56
(lp1529
g49
(g70
g51
NtRp1530
(dp1531
g54
(dp1532
sg63
g1526
sg56
(lp1533
g49
(g50
g51
NtRp1534
(dp1535
g54
(dp1536
g62
I3
ssg63
g1530
sg56
(lp1537
S'::ffff:127.0.0.1'
p1538
asbasbasbag49
(g65
g51
NtRp1539
(dp1540
g54
(dp1541
sg63
g1509
sg56
(lp1542
g49
(g70
g51
NtRp1543
(dp1544
g54
(dp1545
sg63
g1539
sg56
(lp1546
g49
(g50
g51
NtRp1547
(dp1548
g54
(dp1549
g62
I3
ssg63
g1543
sg56
(lp1550
S'Andrea-Barics-MacBook-Pro.local'
p1551
asbasbasbag49
(g65
g51
NtRp1552
(dp1553
g54
(dp1554
sg63
g1509
sg56
(lp1555
g49
(g70
g51
NtRp1556
(dp1557
g54
(dp1558
sg63
g1552
sg56
(lp1559
g49
(g50
g51
NtRp1560
(dp1561
g54
(dp1562
g62
I3
ssg63
g1556
sg56
(lp1563
S'Andrea-Barics-MacBook-Pro.local'
p1564
asbasbasbag49
(g65
g51
NtRp1565
(dp1566
g54
(dp1567
sg63
g1509
sg56
(lp1568
g49
(g70
g51
NtRp1569
(dp1570
g54
(dp1571
sg63
g1565
sg56
(lp1572
g49
(g50
g51
NtRp1573
(dp1574
g54
(dp1575
g62
I3
ssg63
g1569
sg56
(lp1576
S'144.118.245.17'
p1577
asbasbasbasbasbasbasbag49
(g65
g51
NtRp1578
(dp1579
g54
(dp1580
sg63
g1110
sg56
(lp1581
g49
(g70
g51
NtRp1582
(dp1583
g54
(dp1584
g74
g75
ssg63
g1578
sg56
(lp1585
S'path_info'
p1586
asbag49
(g70
g51
NtRp1587
(dp1588
g54
(dp1589
g81
g82
ssg63
g1578
sg56
(lp1590
S':'
asbag49
(g70
g51
NtRp1591
(dp1592
g54
(dp1593
sg63
g1578
sg56
(lp1594
g49
(g50
g51
NtRp1595
(dp1596
g54
(dp1597
g62
I4
ssg63
g1591
sg56
(lp1598
S'/Final_Impulse/default/show_image_comments'
p1599
asbasbasbag49
(g65
g51
NtRp1600
(dp1601
g54
(dp1602
sg63
g1110
sg56
(lp1603
g49
(g70
g51
NtRp1604
(dp1605
g54
(dp1606
g74
g75
ssg63
g1600
sg56
(lp1607
S'query_string'
p1608
asbag49
(g70
g51
NtRp1609
(dp1610
g54
(dp1611
g81
g82
ssg63
g1600
sg56
(lp1612
S':'
asbag49
(g70
g51
NtRp1613
(dp1614
g54
(dp1615
sg63
g1600
sg56
(lp1616
g49
(g50
g51
NtRp1617
(dp1618
g54
(dp1619
g62
I4
ssg63
g1613
sg56
(lp1620
S''
asbasbasbag49
(g65
g51
NtRp1621
(dp1622
g54
(dp1623
sg63
g1110
sg56
(lp1624
g49
(g70
g51
NtRp1625
(dp1626
g54
(dp1627
g74
g75
ssg63
g1621
sg56
(lp1628
S'remote_addr'
p1629
asbag49
(g70
g51
NtRp1630
(dp1631
g54
(dp1632
g81
g82
ssg63
g1621
sg56
(lp1633
S':'
asbag49
(g70
g51
NtRp1634
(dp1635
g54
(dp1636
sg63
g1621
sg56
(lp1637
g49
(g50
g51
NtRp1638
(dp1639
g54
(dp1640
g62
I4
ssg63
g1634
sg56
(lp1641
g204
asbasbasbag49
(g65
g51
NtRp1642
(dp1643
g54
(dp1644
sg63
g1110
sg56
(lp1645
g49
(g70
g51
NtRp1646
(dp1647
g54
(dp1648
g74
g75
ssg63
g1642
sg56
(lp1649
S'remote_port'
p1650
asbag49
(g70
g51
NtRp1651
(dp1652
g54
(dp1653
g81
g82
ssg63
g1642
sg56
(lp1654
S':'
asbag49
(g70
g51
NtRp1655
(dp1656
g54
(dp1657
sg63
g1642
sg56
(lp1658
g49
(g50
g51
NtRp1659
(dp1660
g54
(dp1661
g62
I4
ssg63
g1655
sg56
(lp1662
S'63268'
p1663
asbasbasbag49
(g65
g51
NtRp1664
(dp1665
g54
(dp1666
sg63
g1110
sg56
(lp1667
g49
(g70
g51
NtRp1668
(dp1669
g54
(dp1670
g74
g75
ssg63
g1664
sg56
(lp1671
S'request_method'
p1672
asbag49
(g70
g51
NtRp1673
(dp1674
g54
(dp1675
g81
g82
ssg63
g1664
sg56
(lp1676
S':'
asbag49
(g70
g51
NtRp1677
(dp1678
g54
(dp1679
sg63
g1664
sg56
(lp1680
g49
(g50
g51
NtRp1681
(dp1682
g54
(dp1683
g62
I4
ssg63
g1677
sg56
(lp1684
S'GET'
p1685
asbasbasbag49
(g65
g51
NtRp1686
(dp1687
g54
(dp1688
sg63
g1110
sg56
(lp1689
g49
(g70
g51
NtRp1690
(dp1691
g54
(dp1692
g74
g75
ssg63
g1686
sg56
(lp1693
S'request_uri'
p1694
asbag49
(g70
g51
NtRp1695
(dp1696
g54
(dp1697
g81
g82
ssg63
g1686
sg56
(lp1698
S':'
asbag49
(g70
g51
NtRp1699
(dp1700
g54
(dp1701
sg63
g1686
sg56
(lp1702
g49
(g50
g51
NtRp1703
(dp1704
g54
(dp1705
g62
I4
ssg63
g1699
sg56
(lp1706
g1599
asbasbasbag49
(g65
g51
NtRp1707
(dp1708
g54
(dp1709
sg63
g1110
sg56
(lp1710
g49
(g70
g51
NtRp1711
(dp1712
g54
(dp1713
g74
g75
ssg63
g1707
sg56
(lp1714
S'script_name'
p1715
asbag49
(g70
g51
NtRp1716
(dp1717
g54
(dp1718
g81
g82
ssg63
g1707
sg56
(lp1719
S':'
asbag49
(g70
g51
NtRp1720
(dp1721
g54
(dp1722
sg63
g1707
sg56
(lp1723
g49
(g50
g51
NtRp1724
(dp1725
g54
(dp1726
g62
I4
ssg63
g1720
sg56
(lp1727
S''
asbasbasbag49
(g65
g51
NtRp1728
(dp1729
g54
(dp1730
sg63
g1110
sg56
(lp1731
g49
(g70
g51
NtRp1732
(dp1733
g54
(dp1734
g74
g75
ssg63
g1728
sg56
(lp1735
S'server_name'
p1736
asbag49
(g70
g51
NtRp1737
(dp1738
g54
(dp1739
g81
g82
ssg63
g1728
sg56
(lp1740
S':'
asbag49
(g70
g51
NtRp1741
(dp1742
g54
(dp1743
sg63
g1728
sg56
(lp1744
g49
(g50
g51
NtRp1745
(dp1746
g54
(dp1747
g62
I4
ssg63
g1741
sg56
(lp1748
g1564
asbasbasbag49
(g65
g51
NtRp1749
(dp1750
g54
(dp1751
sg63
g1110
sg56
(lp1752
g49
(g70
g51
NtRp1753
(dp1754
g54
(dp1755
g74
g75
ssg63
g1749
sg56
(lp1756
S'server_port'
p1757
asbag49
(g70
g51
NtRp1758
(dp1759
g54
(dp1760
g81
g82
ssg63
g1749
sg56
(lp1761
S':'
asbag49
(g70
g51
NtRp1762
(dp1763
g54
(dp1764
sg63
g1749
sg56
(lp1765
g49
(g50
g51
NtRp1766
(dp1767
g54
(dp1768
g62
I4
ssg63
g1762
sg56
(lp1769
S'8000'
p1770
asbasbasbag49
(g65
g51
NtRp1771
(dp1772
g54
(dp1773
sg63
g1110
sg56
(lp1774
g49
(g70
g51
NtRp1775
(dp1776
g54
(dp1777
g74
g75
ssg63
g1771
sg56
(lp1778
S'server_protocol'
p1779
asbag49
(g70
g51
NtRp1780
(dp1781
g54
(dp1782
g81
g82
ssg63
g1771
sg56
(lp1783
S':'
asbag49
(g70
g51
NtRp1784
(dp1785
g54
(dp1786
sg63
g1771
sg56
(lp1787
g49
(g50
g51
NtRp1788
(dp1789
g54
(dp1790
g62
I4
ssg63
g1784
sg56
(lp1791
S'HTTP/1.1'
p1792
asbasbasbag49
(g65
g51
NtRp1793
(dp1794
g54
(dp1795
sg63
g1110
sg56
(lp1796
g49
(g70
g51
NtRp1797
(dp1798
g54
(dp1799
g74
g75
ssg63
g1793
sg56
(lp1800
S'server_software'
p1801
asbag49
(g70
g51
NtRp1802
(dp1803
g54
(dp1804
g81
g82
ssg63
g1793
sg56
(lp1805
S':'
asbag49
(g70
g51
NtRp1806
(dp1807
g54
(dp1808
sg63
g1793
sg56
(lp1809
g49
(g50
g51
NtRp1810
(dp1811
g54
(dp1812
g62
I4
ssg63
g1806
sg56
(lp1813
S'Rocket 1.2.5'
p1814
asbasbasbag49
(g65
g51
NtRp1815
(dp1816
g54
(dp1817
sg63
g1110
sg56
(lp1818
g49
(g70
g51
NtRp1819
(dp1820
g54
(dp1821
g74
g75
ssg63
g1815
sg56
(lp1822
S'web2py_path'
p1823
asbag49
(g70
g51
NtRp1824
(dp1825
g54
(dp1826
g81
g82
ssg63
g1815
sg56
(lp1827
S':'
asbag49
(g70
g51
NtRp1828
(dp1829
g54
(dp1830
sg63
g1815
sg56
(lp1831
g49
(g50
g51
NtRp1832
(dp1833
g54
(dp1834
g62
I4
ssg63
g1828
sg56
(lp1835
g1157
asbasbasbag49
(g65
g51
NtRp1836
(dp1837
g54
(dp1838
sg63
g1110
sg56
(lp1839
g49
(g70
g51
NtRp1840
(dp1841
g54
(dp1842
g74
g75
ssg63
g1836
sg56
(lp1843
S'web2py_version'
p1844
asbag49
(g70
g51
NtRp1845
(dp1846
g54
(dp1847
g81
g82
ssg63
g1836
sg56
(lp1848
S':'
asbag49
(g70
g51
NtRp1849
(dp1850
g54
(dp1851
sg63
g1836
sg56
(lp1852
g49
(g50
g51
NtRp1853
(dp1854
g54
(dp1855
g62
I4
ssg63
g1849
sg56
(lp1856
g49
(g58
g51
NtRp1857
(dp1858
g54
(dp1859
g62
I3
ssg63
Nsg56
(lp1860
g49
(g65
g51
NtRp1861
(dp1862
g54
(dp1863
sg63
g1857
sg56
(lp1864
g49
(g70
g51
NtRp1865
(dp1866
g54
(dp1867
sg63
g1861
sg56
(lp1868
g49
(g50
g51
NtRp1869
(dp1870
g54
(dp1871
g62
I3
ssg63
g1865
sg56
(lp1872
S'2'
asbasbasbag49
(g65
g51
NtRp1873
(dp1874
g54
(dp1875
sg63
g1857
sg56
(lp1876
g49
(g70
g51
NtRp1877
(dp1878
g54
(dp1879
sg63
g1873
sg56
(lp1880
g49
(g50
g51
NtRp1881
(dp1882
g54
(dp1883
g62
I3
ssg63
g1877
sg56
(lp1884
S'2'
asbasbasbag49
(g65
g51
NtRp1885
(dp1886
g54
(dp1887
sg63
g1857
sg56
(lp1888
g49
(g70
g51
NtRp1889
(dp1890
g54
(dp1891
sg63
g1885
sg56
(lp1892
g49
(g50
g51
NtRp1893
(dp1894
g54
(dp1895
g62
I3
ssg63
g1889
sg56
(lp1896
S'1'
asbasbasbag49
(g65
g51
NtRp1897
(dp1898
g54
(dp1899
sg63
g1857
sg56
(lp1900
g49
(g70
g51
NtRp1901
(dp1902
g54
(dp1903
sg63
g1897
sg56
(lp1904
g49
(g50
g51
NtRp1905
(dp1906
g54
(dp1907
g62
I3
ssg63
g1901
sg56
(lp1908
S'datetime.datetime(2012, 10, 21, 16, 57, 4)'
p1909
asbasbasbag49
(g65
g51
NtRp1910
(dp1911
g54
(dp1912
sg63
g1857
sg56
(lp1913
g49
(g70
g51
NtRp1914
(dp1915
g54
(dp1916
sg63
g1910
sg56
(lp1917
g49
(g50
g51
NtRp1918
(dp1919
g54
(dp1920
g62
I3
ssg63
g1914
sg56
(lp1921
S'stable'
p1922
asbasbasbasbasbasbasbag49
(g65
g51
NtRp1923
(dp1924
g54
(dp1925
sg63
g1110
sg56
(lp1926
g49
(g70
g51
NtRp1927
(dp1928
g54
(dp1929
g74
g75
ssg63
g1923
sg56
(lp1930
S'wsgi_errors'
p1931
asbag49
(g70
g51
NtRp1932
(dp1933
g54
(dp1934
g81
g82
ssg63
g1923
sg56
(lp1935
S':'
asbag49
(g70
g51
NtRp1936
(dp1937
g54
(dp1938
sg63
g1923
sg56
(lp1939
g49
(g50
g51
NtRp1940
(dp1941
g54
(dp1942
g62
I4
ssg63
g1936
sg56
(lp1943
S"<open file '<stderr>', mode 'w' at 0x540b0>"
p1944
asbasbasbag49
(g65
g51
NtRp1945
(dp1946
g54
(dp1947
sg63
g1110
sg56
(lp1948
g49
(g70
g51
NtRp1949
(dp1950
g54
(dp1951
g74
g75
ssg63
g1945
sg56
(lp1952
S'wsgi_file_wrapper'
p1953
asbag49
(g70
g51
NtRp1954
(dp1955
g54
(dp1956
g81
g82
ssg63
g1945
sg56
(lp1957
S':'
asbag49
(g70
g51
NtRp1958
(dp1959
g54
(dp1960
sg63
g1945
sg56
(lp1961
g49
(g50
g51
NtRp1962
(dp1963
g54
(dp1964
g62
I4
ssg63
g1958
sg56
(lp1965
S'<class wsgiref.util.FileWrapper at 0x44d82d0>'
p1966
asbasbasbag49
(g65
g51
NtRp1967
(dp1968
g54
(dp1969
sg63
g1110
sg56
(lp1970
g49
(g70
g51
NtRp1971
(dp1972
g54
(dp1973
g74
g75
ssg63
g1967
sg56
(lp1974
S'wsgi_input'
p1975
asbag49
(g70
g51
NtRp1976
(dp1977
g54
(dp1978
g81
g82
ssg63
g1967
sg56
(lp1979
S':'
asbag49
(g70
g51
NtRp1980
(dp1981
g54
(dp1982
sg63
g1967
sg56
(lp1983
g49
(g50
g51
NtRp1984
(dp1985
g54
(dp1986
g62
I4
ssg63
g1980
sg56
(lp1987
S'<socket._fileobject object at 0x791b1f0>'
p1988
asbasbasbag49
(g65
g51
NtRp1989
(dp1990
g54
(dp1991
sg63
g1110
sg56
(lp1992
g49
(g70
g51
NtRp1993
(dp1994
g54
(dp1995
g74
g75
ssg63
g1989
sg56
(lp1996
S'wsgi_multiprocess'
p1997
asbag49
(g70
g51
NtRp1998
(dp1999
g54
(dp2000
g81
g82
ssg63
g1989
sg56
(lp2001
S':'
asbag49
(g70
g51
NtRp2002
(dp2003
g54
(dp2004
sg63
g1989
sg56
(lp2005
g49
(g50
g51
NtRp2006
(dp2007
g54
(dp2008
g62
I4
ssg63
g2002
sg56
(lp2009
g92
asbasbasbag49
(g65
g51
NtRp2010
(dp2011
g54
(dp2012
sg63
g1110
sg56
(lp2013
g49
(g70
g51
NtRp2014
(dp2015
g54
(dp2016
g74
g75
ssg63
g2010
sg56
(lp2017
S'wsgi_multithread'
p2018
asbag49
(g70
g51
NtRp2019
(dp2020
g54
(dp2021
g81
g82
ssg63
g2010
sg56
(lp2022
S':'
asbag49
(g70
g51
NtRp2023
(dp2024
g54
(dp2025
sg63
g2010
sg56
(lp2026
g49
(g50
g51
NtRp2027
(dp2028
g54
(dp2029
g62
I4
ssg63
g2023
sg56
(lp2030
S'True'
p2031
asbasbasbag49
(g65
g51
NtRp2032
(dp2033
g54
(dp2034
sg63
g1110
sg56
(lp2035
g49
(g70
g51
NtRp2036
(dp2037
g54
(dp2038
g74
g75
ssg63
g2032
sg56
(lp2039
S'wsgi_run_once'
p2040
asbag49
(g70
g51
NtRp2041
(dp2042
g54
(dp2043
g81
g82
ssg63
g2032
sg56
(lp2044
S':'
asbag49
(g70
g51
NtRp2045
(dp2046
g54
(dp2047
sg63
g2032
sg56
(lp2048
g49
(g50
g51
NtRp2049
(dp2050
g54
(dp2051
g62
I4
ssg63
g2045
sg56
(lp2052
g92
asbasbasbag49
(g65
g51
NtRp2053
(dp2054
g54
(dp2055
sg63
g1110
sg56
(lp2056
g49
(g70
g51
NtRp2057
(dp2058
g54
(dp2059
g74
g75
ssg63
g2053
sg56
(lp2060
S'wsgi_url_scheme'
p2061
asbag49
(g70
g51
NtRp2062
(dp2063
g54
(dp2064
g81
g82
ssg63
g2053
sg56
(lp2065
S':'
asbag49
(g70
g51
NtRp2066
(dp2067
g54
(dp2068
sg63
g2053
sg56
(lp2069
g49
(g50
g51
NtRp2070
(dp2071
g54
(dp2072
g62
I4
ssg63
g2066
sg56
(lp2073
S'http'
p2074
asbasbasbag49
(g65
g51
NtRp2075
(dp2076
g54
(dp2077
sg63
g1110
sg56
(lp2078
g49
(g70
g51
NtRp2079
(dp2080
g54
(dp2081
g74
g75
ssg63
g2075
sg56
(lp2082
S'wsgi_version'
p2083
asbag49
(g70
g51
NtRp2084
(dp2085
g54
(dp2086
g81
g82
ssg63
g2075
sg56
(lp2087
S':'
asbag49
(g70
g51
NtRp2088
(dp2089
g54
(dp2090
sg63
g2075
sg56
(lp2091
g49
(g50
g51
NtRp2092
(dp2093
g54
(dp2094
g62
I4
ssg63
g2088
sg56
(lp2095
g49
(g58
g51
NtRp2096
(dp2097
g54
(dp2098
g62
I3
ssg63
Nsg56
(lp2099
g49
(g65
g51
NtRp2100
(dp2101
g54
(dp2102
sg63
g2096
sg56
(lp2103
g49
(g70
g51
NtRp2104
(dp2105
g54
(dp2106
sg63
g2100
sg56
(lp2107
g49
(g50
g51
NtRp2108
(dp2109
g54
(dp2110
g62
I3
ssg63
g2104
sg56
(lp2111
S'1'
asbasbasbag49
(g65
g51
NtRp2112
(dp2113
g54
(dp2114
sg63
g2096
sg56
(lp2115
g49
(g70
g51
NtRp2116
(dp2117
g54
(dp2118
sg63
g2112
sg56
(lp2119
g49
(g50
g51
NtRp2120
(dp2121
g54
(dp2122
g62
I3
ssg63
g2116
sg56
(lp2123
S'0'
asbasbasbasbasbasbasbasbasbasbasbag49
(g65
g51
NtRp2124
(dp2125
g54
(dp2126
sg63
g59
sg56
(lp2127
g49
(g70
g51
NtRp2128
(dp2129
g54
(dp2130
g74
g75
ssg63
g2124
sg56
(lp2131
S'extension'
p2132
asbag49
(g70
g51
NtRp2133
(dp2134
g54
(dp2135
g81
g82
ssg63
g2124
sg56
(lp2136
S':'
asbag49
(g70
g51
NtRp2137
(dp2138
g54
(dp2139
sg63
g2124
sg56
(lp2140
g49
(g50
g51
NtRp2141
(dp2142
g54
(dp2143
g62
I5
ssg63
g2137
sg56
(lp2144
S'html'
p2145
asbasbasbag49
(g65
g51
NtRp2146
(dp2147
g54
(dp2148
sg63
g59
sg56
(lp2149
g49
(g70
g51
NtRp2150
(dp2151
g54
(dp2152
g74
g75
ssg63
g2146
sg56
(lp2153
S'folder'
p2154
asbag49
(g70
g51
NtRp2155
(dp2156
g54
(dp2157
g81
g82
ssg63
g2146
sg56
(lp2158
S':'
asbag49
(g70
g51
NtRp2159
(dp2160
g54
(dp2161
sg63
g2146
sg56
(lp2162
g49
(g50
g51
NtRp2163
(dp2164
g54
(dp2165
g62
I5
ssg63
g2159
sg56
(lp2166
S'/Users/abaric/Downloads/web2py/web2py.app/Contents/Resources/applications/Final_Impulse/'
p2167
asbasbasbag49
(g65
g51
NtRp2168
(dp2169
g54
(dp2170
sg63
g59
sg56
(lp2171
g49
(g70
g51
NtRp2172
(dp2173
g54
(dp2174
g74
g75
ssg63
g2168
sg56
(lp2175
S'function'
p2176
asbag49
(g70
g51
NtRp2177
(dp2178
g54
(dp2179
g81
g82
ssg63
g2168
sg56
(lp2180
S':'
asbag49
(g70
g51
NtRp2181
(dp2182
g54
(dp2183
sg63
g2168
sg56
(lp2184
g49
(g50
g51
NtRp2185
(dp2186
g54
(dp2187
g62
I5
ssg63
g2181
sg56
(lp2188
S'show_image_comments'
p2189
asbasbasbag49
(g65
g51
NtRp2190
(dp2191
g54
(dp2192
sg63
g59
sg56
(lp2193
g49
(g70
g51
NtRp2194
(dp2195
g54
(dp2196
g74
g75
ssg63
g2190
sg56
(lp2197
S'get_vars'
p2198
asbag49
(g70
g51
NtRp2199
(dp2200
g54
(dp2201
g81
g82
ssg63
g2190
sg56
(lp2202
S':'
asbag49
(g70
g51
NtRp2203
(dp2204
g54
(dp2205
sg63
g2190
sg56
(lp2206
g49
(g50
g51
NtRp2207
(dp2208
g54
(dp2209
g62
I5
ssg63
g2203
sg56
(lp2210
g49
(g58
g51
NtRp2211
(dp2212
g54
(dp2213
g62
I4
ssg63
Nsg56
(lp2214
sbasbasbasbag49
(g65
g51
NtRp2215
(dp2216
g54
(dp2217
sg63
g59
sg56
(lp2218
g49
(g70
g51
NtRp2219
(dp2220
g54
(dp2221
g74
g75
ssg63
g2215
sg56
(lp2222
S'global_settings'
p2223
asbag49
(g70
g51
NtRp2224
(dp2225
g54
(dp2226
g81
g82
ssg63
g2215
sg56
(lp2227
S':'
asbag49
(g70
g51
NtRp2228
(dp2229
g54
(dp2230
sg63
g2215
sg56
(lp2231
g49
(g50
g51
NtRp2232
(dp2233
g54
(dp2234
g62
I5
ssg63
g2228
sg56
(lp2235
g49
(g58
g51
NtRp2236
(dp2237
g54
(dp2238
g62
I4
ssg63
Nsg56
(lp2239
g49
(g65
g51
NtRp2240
(dp2241
g54
(dp2242
sg63
g2236
sg56
(lp2243
g49
(g70
g51
NtRp2244
(dp2245
g54
(dp2246
g74
g75
ssg63
g2240
sg56
(lp2247
g1122
asbag49
(g70
g51
NtRp2248
(dp2249
g54
(dp2250
g81
g82
ssg63
g2240
sg56
(lp2251
S':'
asbag49
(g70
g51
NtRp2252
(dp2253
g54
(dp2254
sg63
g2240
sg56
(lp2255
g49
(g50
g51
NtRp2256
(dp2257
g54
(dp2258
g62
I4
ssg63
g2252
sg56
(lp2259
S"set(['/Users/abaric/Downloads/web2py/web2py.app/Contents/Resources/applications/Final_Impulse/', '/Users/abaric/Downloads/web2py/web2py.app/Contents/Resources/applications/welcome/', '/Users/abaric/Downloads/web2py/web2py.app/Contents/Resources/applications/admin/', '/Users/abaric/Downloads/web2py/web2py.app/Contents/Resources/applications/Caldwell/', '/Users/abaric/Downloads/web2py/web2py.app/Contents/Resources/applications/Course_Recommendations/', '/Users/abaric/Downloads/web2py/web2py.app/Contents/Resources/applications/examples/'])"
p2260
asbasbasbag49
(g65
g51
NtRp2261
(dp2262
g54
(dp2263
sg63
g2236
sg56
(lp2264
g49
(g70
g51
NtRp2265
(dp2266
g54
(dp2267
g74
g75
ssg63
g2261
sg56
(lp2268
g1144
asbag49
(g70
g51
NtRp2269
(dp2270
g54
(dp2271
g81
g82
ssg63
g2261
sg56
(lp2272
S':'
asbag49
(g70
g51
NtRp2273
(dp2274
g54
(dp2275
sg63
g2261
sg56
(lp2276
g49
(g50
g51
NtRp2277
(dp2278
g54
(dp2279
g62
I4
ssg63
g2273
sg56
(lp2280
g1157
asbasbasbag49
(g65
g51
NtRp2281
(dp2282
g54
(dp2283
sg63
g2236
sg56
(lp2284
g49
(g70
g51
NtRp2285
(dp2286
g54
(dp2287
g74
g75
ssg63
g2281
sg56
(lp2288
g1166
asbag49
(g70
g51
NtRp2289
(dp2290
g54
(dp2291
g81
g82
ssg63
g2281
sg56
(lp2292
S':'
asbag49
(g70
g51
NtRp2293
(dp2294
g54
(dp2295
sg63
g2281
sg56
(lp2296
g49
(g50
g51
NtRp2297
(dp2298
g54
(dp2299
g62
I4
ssg63
g2293
sg56
(lp2300
g49
(g58
g51
NtRp2301
(dp2302
g54
(dp2303
g62
I3
ssg63
Nsg56
(lp2304
sbasbasbasbag49
(g65
g51
NtRp2305
(dp2306
g54
(dp2307
sg63
g2236
sg56
(lp2308
g49
(g70
g51
NtRp2309
(dp2310
g54
(dp2311
g74
g75
ssg63
g2305
sg56
(lp2312
g1191
asbag49
(g70
g51
NtRp2313
(dp2314
g54
(dp2315
g81
g82
ssg63
g2305
sg56
(lp2316
S':'
asbag49
(g70
g51
NtRp2317
(dp2318
g54
(dp2319
sg63
g2305
sg56
(lp2320
g49
(g50
g51
NtRp2321
(dp2322
g54
(dp2323
g62
I4
ssg63
g2317
sg56
(lp2324
S"<Values at 0x45061c0: {'verbose': False, 'ip': '127.0.0.1', 'with_scheduler': False, 'ips': ['144.118.245.17'], 'shutdown_timeout': 5, 'taskbar': False, 'port': 8000, 'maxthreads': None, 'softcron': False, 'server_name': 'Andrea-Barics-MacBook-Pro.local', 'bpython': False, 'nogui': False, 'pid_filename': 'httpserver.pid', 'extcron': False, 'runcron': False, 'run_system_tests': False, 'test': None, 'folder': '/Users/abaric/Downloads/web2py/web2py.app/Contents/Resources', 'config': '', 'import_models': False, 'winservice': '', 'shell': None, 'run': '', 'log_filename': 'httpserver.log', 'debuglevel': 30, 'args': [''], 'socket_timeout': 5, 'ssl_ca_certificate': None, 'scheduler': None, 'profiler_filename': None, 'ssl_private_key': '', 'scheduler_groups': None, 'password': '<ask>', 'request_queue_size': 5, 'ssl_certificate': '', 'cronjob': False, 'numthreads': None, 'quiet': False, 'interfaces': None, 'minthreads': None, 'timeout': 10, 'plain': False, 'nobanner': False}>"
p2325
asbasbasbag49
(g65
g51
NtRp2326
(dp2327
g54
(dp2328
sg63
g2236
sg56
(lp2329
g49
(g70
g51
NtRp2330
(dp2331
g54
(dp2332
g74
g75
ssg63
g2326
sg56
(lp2333
g1213
asbag49
(g70
g51
NtRp2334
(dp2335
g54
(dp2336
g81
g82
ssg63
g2326
sg56
(lp2337
S':'
asbag49
(g70
g51
NtRp2338
(dp2339
g54
(dp2340
sg63
g2326
sg56
(lp2341
g49
(g50
g51
NtRp2342
(dp2343
g54
(dp2344
g62
I4
ssg63
g2338
sg56
(lp2345
S'set([])'
p2346
asbasbasbag49
(g65
g51
NtRp2347
(dp2348
g54
(dp2349
sg63
g2236
sg56
(lp2350
g49
(g70
g51
NtRp2351
(dp2352
g54
(dp2353
g74
g75
ssg63
g2347
sg56
(lp2354
g1235
asbag49
(g70
g51
NtRp2355
(dp2356
g54
(dp2357
g81
g82
ssg63
g2347
sg56
(lp2358
S':'
asbag49
(g70
g51
NtRp2359
(dp2360
g54
(dp2361
sg63
g2347
sg56
(lp2362
g49
(g50
g51
NtRp2363
(dp2364
g54
(dp2365
g62
I4
ssg63
g2359
sg56
(lp2366
g92
asbasbasbag49
(g65
g51
NtRp2367
(dp2368
g54
(dp2369
sg63
g2236
sg56
(lp2370
g49
(g70
g51
NtRp2371
(dp2372
g54
(dp2373
g74
g75
ssg63
g2367
sg56
(lp2374
g1256
asbag49
(g70
g51
NtRp2375
(dp2376
g54
(dp2377
g81
g82
ssg63
g2367
sg56
(lp2378
S':'
asbag49
(g70
g51
NtRp2379
(dp2380
g54
(dp2381
sg63
g2367
sg56
(lp2382
g49
(g50
g51
NtRp2383
(dp2384
g54
(dp2385
g62
I4
ssg63
g2379
sg56
(lp2386
g1269
asbasbasbag49
(g65
g51
NtRp2387
(dp2388
g54
(dp2389
sg63
g2236
sg56
(lp2390
g49
(g70
g51
NtRp2391
(dp2392
g54
(dp2393
g74
g75
ssg63
g2387
sg56
(lp2394
g1454
asbag49
(g70
g51
NtRp2395
(dp2396
g54
(dp2397
g81
g82
ssg63
g2387
sg56
(lp2398
S':'
asbag49
(g70
g51
NtRp2399
(dp2400
g54
(dp2401
sg63
g2387
sg56
(lp2402
g49
(g50
g51
NtRp2403
(dp2404
g54
(dp2405
g62
I4
ssg63
g2399
sg56
(lp2406
g92
asbasbasbag49
(g65
g51
NtRp2407
(dp2408
g54
(dp2409
sg63
g2236
sg56
(lp2410
g49
(g70
g51
NtRp2411
(dp2412
g54
(dp2413
g74
g75
ssg63
g2407
sg56
(lp2414
g1475
asbag49
(g70
g51
NtRp2415
(dp2416
g54
(dp2417
g81
g82
ssg63
g2407
sg56
(lp2418
S':'
asbag49
(g70
g51
NtRp2419
(dp2420
g54
(dp2421
sg63
g2407
sg56
(lp2422
g49
(g50
g51
NtRp2423
(dp2424
g54
(dp2425
g62
I4
ssg63
g2419
sg56
(lp2426
g92
asbasbasbag49
(g65
g51
NtRp2427
(dp2428
g54
(dp2429
sg63
g2236
sg56
(lp2430
g49
(g70
g51
NtRp2431
(dp2432
g54
(dp2433
g74
g75
ssg63
g2427
sg56
(lp2434
g1496
asbag49
(g70
g51
NtRp2435
(dp2436
g54
(dp2437
g81
g82
ssg63
g2427
sg56
(lp2438
S':'
asbag49
(g70
g51
NtRp2439
(dp2440
g54
(dp2441
sg63
g2427
sg56
(lp2442
g49
(g50
g51
NtRp2443
(dp2444
g54
(dp2445
g62
I4
ssg63
g2439
sg56
(lp2446
g49
(g58
g51
NtRp2447
(dp2448
g54
(dp2449
g62
I3
ssg63
Nsg56
(lp2450
g49
(g65
g51
NtRp2451
(dp2452
g54
(dp2453
sg63
g2447
sg56
(lp2454
g49
(g70
g51
NtRp2455
(dp2456
g54
(dp2457
sg63
g2451
sg56
(lp2458
g49
(g50
g51
NtRp2459
(dp2460
g54
(dp2461
g62
I3
ssg63
g2455
sg56
(lp2462
g1525
asbasbasbag49
(g65
g51
NtRp2463
(dp2464
g54
(dp2465
sg63
g2447
sg56
(lp2466
g49
(g70
g51
NtRp2467
(dp2468
g54
(dp2469
sg63
g2463
sg56
(lp2470
g49
(g50
g51
NtRp2471
(dp2472
g54
(dp2473
g62
I3
ssg63
g2467
sg56
(lp2474
g1538
asbasbasbag49
(g65
g51
NtRp2475
(dp2476
g54
(dp2477
sg63
g2447
sg56
(lp2478
g49
(g70
g51
NtRp2479
(dp2480
g54
(dp2481
sg63
g2475
sg56
(lp2482
g49
(g50
g51
NtRp2483
(dp2484
g54
(dp2485
g62
I3
ssg63
g2479
sg56
(lp2486
g1551
asbasbasbag49
(g65
g51
NtRp2487
(dp2488
g54
(dp2489
sg63
g2447
sg56
(lp2490
g49
(g70
g51
NtRp2491
(dp2492
g54
(dp2493
sg63
g2487
sg56
(lp2494
g49
(g50
g51
NtRp2495
(dp2496
g54
(dp2497
g62
I3
ssg63
g2491
sg56
(lp2498
g1564
asbasbasbag49
(g65
g51
NtRp2499
(dp2500
g54
(dp2501
sg63
g2447
sg56
(lp2502
g49
(g70
g51
NtRp2503
(dp2504
g54
(dp2505
sg63
g2499
sg56
(lp2506
g49
(g50
g51
NtRp2507
(dp2508
g54
(dp2509
g62
I3
ssg63
g2503
sg56
(lp2510
g1577
asbasbasbasbasbasbasbag49
(g65
g51
NtRp2511
(dp2512
g54
(dp2513
sg63
g2236
sg56
(lp2514
g49
(g70
g51
NtRp2515
(dp2516
g54
(dp2517
g74
g75
ssg63
g2511
sg56
(lp2518
g1844
asbag49
(g70
g51
NtRp2519
(dp2520
g54
(dp2521
g81
g82
ssg63
g2511
sg56
(lp2522
S':'
asbag49
(g70
g51
NtRp2523
(dp2524
g54
(dp2525
sg63
g2511
sg56
(lp2526
g49
(g50
g51
NtRp2527
(dp2528
g54
(dp2529
g62
I4
ssg63
g2523
sg56
(lp2530
g49
(g58
g51
NtRp2531
(dp2532
g54
(dp2533
g62
I3
ssg63
Nsg56
(lp2534
g49
(g65
g51
NtRp2535
(dp2536
g54
(dp2537
sg63
g2531
sg56
(lp2538
g49
(g70
g51
NtRp2539
(dp2540
g54
(dp2541
sg63
g2535
sg56
(lp2542
g49
(g50
g51
NtRp2543
(dp2544
g54
(dp2545
g62
I3
ssg63
g2539
sg56
(lp2546
S'2'
asbasbasbag49
(g65
g51
NtRp2547
(dp2548
g54
(dp2549
sg63
g2531
sg56
(lp2550
g49
(g70
g51
NtRp2551
(dp2552
g54
(dp2553
sg63
g2547
sg56
(lp2554
g49
(g50
g51
NtRp2555
(dp2556
g54
(dp2557
g62
I3
ssg63
g2551
sg56
(lp2558
S'2'
asbasbasbag49
(g65
g51
NtRp2559
(dp2560
g54
(dp2561
sg63
g2531
sg56
(lp2562
g49
(g70
g51
NtRp2563
(dp2564
g54
(dp2565
sg63
g2559
sg56
(lp2566
g49
(g50
g51
NtRp2567
(dp2568
g54
(dp2569
g62
I3
ssg63
g2563
sg56
(lp2570
S'1'
asbasbasbag49
(g65
g51
NtRp2571
(dp2572
g54
(dp2573
sg63
g2531
sg56
(lp2574
g49
(g70
g51
NtRp2575
(dp2576
g54
(dp2577
sg63
g2571
sg56
(lp2578
g49
(g50
g51
NtRp2579
(dp2580
g54
(dp2581
g62
I3
ssg63
g2575
sg56
(lp2582
S'datetime.datetime(2012, 10, 21, 16, 57, 4)'
p2583
asbasbasbag49
(g65
g51
NtRp2584
(dp2585
g54
(dp2586
sg63
g2531
sg56
(lp2587
g49
(g70
g51
NtRp2588
(dp2589
g54
(dp2590
sg63
g2584
sg56
(lp2591
g49
(g50
g51
NtRp2592
(dp2593
g54
(dp2594
g62
I3
ssg63
g2588
sg56
(lp2595
g1922
asbasbasbasbasbasbasbasbasbasbasbag49
(g65
g51
NtRp2596
(dp2597
g54
(dp2598
sg63
g59
sg56
(lp2599
g49
(g70
g51
NtRp2600
(dp2601
g54
(dp2602
g74
g75
ssg63
g2596
sg56
(lp2603
S'is_https'
p2604
asbag49
(g70
g51
NtRp2605
(dp2606
g54
(dp2607
g81
g82
ssg63
g2596
sg56
(lp2608
S':'
asbag49
(g70
g51
NtRp2609
(dp2610
g54
(dp2611
sg63
g2596
sg56
(lp2612
g49
(g50
g51
NtRp2613
(dp2614
g54
(dp2615
g62
I5
ssg63
g2609
sg56
(lp2616
g92
asbasbasbag49
(g65
g51
NtRp2617
(dp2618
g54
(dp2619
sg63
g59
sg56
(lp2620
g49
(g70
g51
NtRp2621
(dp2622
g54
(dp2623
g74
g75
ssg63
g2617
sg56
(lp2624
S'is_local'
p2625
asbag49
(g70
g51
NtRp2626
(dp2627
g54
(dp2628
g81
g82
ssg63
g2617
sg56
(lp2629
S':'
asbag49
(g70
g51
NtRp2630
(dp2631
g54
(dp2632
sg63
g2617
sg56
(lp2633
g49
(g50
g51
NtRp2634
(dp2635
g54
(dp2636
g62
I5
ssg63
g2630
sg56
(lp2637
g2031
asbasbasbag49
(g65
g51
NtRp2638
(dp2639
g54
(dp2640
sg63
g59
sg56
(lp2641
g49
(g70
g51
NtRp2642
(dp2643
g54
(dp2644
g74
g75
ssg63
g2638
sg56
(lp2645
S'is_restful'
p2646
asbag49
(g70
g51
NtRp2647
(dp2648
g54
(dp2649
g81
g82
ssg63
g2638
sg56
(lp2650
S':'
asbag49
(g70
g51
NtRp2651
(dp2652
g54
(dp2653
sg63
g2638
sg56
(lp2654
g49
(g50
g51
NtRp2655
(dp2656
g54
(dp2657
g62
I5
ssg63
g2651
sg56
(lp2658
g92
asbasbasbag49
(g65
g51
NtRp2659
(dp2660
g54
(dp2661
sg63
g59
sg56
(lp2662
g49
(g70
g51
NtRp2663
(dp2664
g54
(dp2665
g74
g75
ssg63
g2659
sg56
(lp2666
S'now'
p2667
asbag49
(g70
g51
NtRp2668
(dp2669
g54
(dp2670
g81
g82
ssg63
g2659
sg56
(lp2671
S':'
asbag49
(g70
g51
NtRp2672
(dp2673
g54
(dp2674
sg63
g2659
sg56
(lp2675
g49
(g50
g51
NtRp2676
(dp2677
g54
(dp2678
g62
I5
ssg63
g2672
sg56
(lp2679
S'datetime.datetime(2015, 4, 1, 2, 23, 9, 740234)'
p2680
asbasbasbag49
(g65
g51
NtRp2681
(dp2682
g54
(dp2683
sg63
g59
sg56
(lp2684
g49
(g70
g51
NtRp2685
(dp2686
g54
(dp2687
g74
g75
ssg63
g2681
sg56
(lp2688
S'post_vars'
p2689
asbag49
(g70
g51
NtRp2690
(dp2691
g54
(dp2692
g81
g82
ssg63
g2681
sg56
(lp2693
S':'
asbag49
(g70
g51
NtRp2694
(dp2695
g54
(dp2696
sg63
g2681
sg56
(lp2697
g49
(g50
g51
NtRp2698
(dp2699
g54
(dp2700
g62
I5
ssg63
g2694
sg56
(lp2701
g49
(g58
g51
NtRp2702
(dp2703
g54
(dp2704
g62
I4
ssg63
Nsg56
(lp2705
sbasbasbasbag49
(g65
g51
NtRp2706
(dp2707
g54
(dp2708
sg63
g59
sg56
(lp2709
g49
(g70
g51
NtRp2710
(dp2711
g54
(dp2712
g74
g75
ssg63
g2706
sg56
(lp2713
S'raw_args'
p2714
asbag49
(g70
g51
NtRp2715
(dp2716
g54
(dp2717
g81
g82
ssg63
g2706
sg56
(lp2718
S':'
asbag49
(g70
g51
NtRp2719
(dp2720
g54
(dp2721
sg63
g2706
sg56
(lp2722
g49
(g50
g51
NtRp2723
(dp2724
g54
(dp2725
g62
I5
ssg63
g2719
sg56
(lp2726
S''
asbasbasbag49
(g65
g51
NtRp2727
(dp2728
g54
(dp2729
sg63
g59
sg56
(lp2730
g49
(g70
g51
NtRp2731
(dp2732
g54
(dp2733
g74
g75
ssg63
g2727
sg56
(lp2734
S'raw_extension'
p2735
asbag49
(g70
g51
NtRp2736
(dp2737
g54
(dp2738
g81
g82
ssg63
g2727
sg56
(lp2739
S':'
asbag49
(g70
g51
NtRp2740
(dp2741
g54
(dp2742
sg63
g2727
sg56
(lp2743
g49
(g50
g51
NtRp2744
(dp2745
g54
(dp2746
g62
I5
ssg63
g2740
sg56
(lp2747
S'None'
p2748
asbasbasbag49
(g65
g51
NtRp2749
(dp2750
g54
(dp2751
sg63
g59
sg56
(lp2752
g49
(g70
g51
NtRp2753
(dp2754
g54
(dp2755
g74
g75
ssg63
g2749
sg56
(lp2756
S'url'
p2757
asbag49
(g70
g51
NtRp2758
(dp2759
g54
(dp2760
g81
g82
ssg63
g2749
sg56
(lp2761
S':'
asbag49
(g70
g51
NtRp2762
(dp2763
g54
(dp2764
sg63
g2749
sg56
(lp2765
g49
(g50
g51
NtRp2766
(dp2767
g54
(dp2768
g62
I5
ssg63
g2762
sg56
(lp2769
g1599
asbasbasbag49
(g65
g51
NtRp2770
(dp2771
g54
(dp2772
sg63
g59
sg56
(lp2773
g49
(g70
g51
NtRp2774
(dp2775
g54
(dp2776
g74
g75
ssg63
g2770
sg56
(lp2777
S'utcnow'
p2778
asbag49
(g70
g51
NtRp2779
(dp2780
g54
(dp2781
g81
g82
ssg63
g2770
sg56
(lp2782
S':'
asbag49
(g70
g51
NtRp2783
(dp2784
g54
(dp2785
sg63
g2770
sg56
(lp2786
g49
(g50
g51
NtRp2787
(dp2788
g54
(dp2789
g62
I5
ssg63
g2783
sg56
(lp2790
S'datetime.datetime(2015, 4, 1, 6, 23, 9, 740245)'
p2791
asbasbasbag49
(g65
g51
NtRp2792
(dp2793
g54
(dp2794
sg63
g59
sg56
(lp2795
g49
(g70
g51
NtRp2796
(dp2797
g54
(dp2798
g74
g75
ssg63
g2792
sg56
(lp2799
S'uuid'
p2800
asbag49
(g70
g51
NtRp2801
(dp2802
g54
(dp2803
g81
g82
ssg63
g2792
sg56
(lp2804
S':'
asbag49
(g70
g51
NtRp2805
(dp2806
g54
(dp2807
sg63
g2792
sg56
(lp2808
g49
(g50
g51
NtRp2809
(dp2810
g54
(dp2811
g62
I5
ssg63
g2805
sg56
(lp2812
S'Final_Impulse/127.0.0.1.2015-04-01.02-23-09.122c80ba-2488-4137-ad78-ca89b95f9c17'
p2813
asbasbasbag49
(g65
g51
NtRp2814
(dp2815
g54
(dp2816
sg63
g59
sg56
(lp2817
g49
(g70
g51
NtRp2818
(dp2819
g54
(dp2820
g74
g75
ssg63
g2814
sg56
(lp2821
S'vars'
p2822
asbag49
(g70
g51
NtRp2823
(dp2824
g54
(dp2825
g81
g82
ssg63
g2814
sg56
(lp2826
S':'
asbag49
(g70
g51
NtRp2827
(dp2828
g54
(dp2829
sg63
g2814
sg56
(lp2830
g49
(g50
g51
NtRp2831
(dp2832
g54
(dp2833
g62
I5
ssg63
g2827
sg56
(lp2834
g49
(g58
g51
NtRp2835
(dp2836
g54
(dp2837
g62
I4
ssg63
Nsg56
(lp2838
sbasbasbasbag49
(g65
g51
NtRp2839
(dp2840
g54
(dp2841
sg63
g59
sg56
(lp2842
g49
(g70
g51
NtRp2843
(dp2844
g54
(dp2845
g74
g75
ssg63
g2839
sg56
(lp2846
S'wsgi'
p2847
asbag49
(g70
g51
NtRp2848
(dp2849
g54
(dp2850
g81
g82
ssg63
g2839
sg56
(lp2851
S':'
asbag49
(g70
g51
NtRp2852
(dp2853
g54
(dp2854
sg63
g2839
sg56
(lp2855
g49
(g50
g51
NtRp2856
(dp2857
g54
(dp2858
g62
I5
ssg63
g2852
sg56
(lp2859
g49
(g58
g51
NtRp2860
(dp2861
g54
(dp2862
g62
I4
ssg63
Nsg56
(lp2863
g49
(g65
g51
NtRp2864
(dp2865
g54
(dp2866
sg63
g2860
sg56
(lp2867
g49
(g70
g51
NtRp2868
(dp2869
g54
(dp2870
g74
g75
ssg63
g2864
sg56
(lp2871
S'environ'
p2872
asbag49
(g70
g51
NtRp2873
(dp2874
g54
(dp2875
g81
g82
ssg63
g2864
sg56
(lp2876
S':'
asbag49
(g70
g51
NtRp2877
(dp2878
g54
(dp2879
sg63
g2864
sg56
(lp2880
g49
(g50
g51
NtRp2881
(dp2882
g54
(dp2883
g62
I4
ssg63
g2877
sg56
(lp2884
g49
(g58
g51
NtRp2885
(dp2886
g54
(dp2887
g62
I3
ssg63
Nsg56
(lp2888
g49
(g65
g51
NtRp2889
(dp2890
g54
(dp2891
sg63
g2885
sg56
(lp2892
g49
(g70
g51
NtRp2893
(dp2894
g54
(dp2895
g74
g75
ssg63
g2889
sg56
(lp2896
S'HTTP_ACCEPT'
p2897
asbag49
(g70
g51
NtRp2898
(dp2899
g54
(dp2900
g81
g82
ssg63
g2889
sg56
(lp2901
S':'
asbag49
(g70
g51
NtRp2902
(dp2903
g54
(dp2904
sg63
g2889
sg56
(lp2905
g49
(g50
g51
NtRp2906
(dp2907
g54
(dp2908
g62
I3
ssg63
g2902
sg56
(lp2909
g1291
asbasbasbag49
(g65
g51
NtRp2910
(dp2911
g54
(dp2912
sg63
g2885
sg56
(lp2913
g49
(g70
g51
NtRp2914
(dp2915
g54
(dp2916
g74
g75
ssg63
g2910
sg56
(lp2917
S'HTTP_ACCEPT_ENCODING'
p2918
asbag49
(g70
g51
NtRp2919
(dp2920
g54
(dp2921
g81
g82
ssg63
g2910
sg56
(lp2922
S':'
asbag49
(g70
g51
NtRp2923
(dp2924
g54
(dp2925
sg63
g2910
sg56
(lp2926
g49
(g50
g51
NtRp2927
(dp2928
g54
(dp2929
g62
I3
ssg63
g2923
sg56
(lp2930
g1313
asbasbasbag49
(g65
g51
NtRp2931
(dp2932
g54
(dp2933
sg63
g2885
sg56
(lp2934
g49
(g70
g51
NtRp2935
(dp2936
g54
(dp2937
g74
g75
ssg63
g2931
sg56
(lp2938
S'HTTP_ACCEPT_LANGUAGE'
p2939
asbag49
(g70
g51
NtRp2940
(dp2941
g54
(dp2942
g81
g82
ssg63
g2931
sg56
(lp2943
S':'
asbag49
(g70
g51
NtRp2944
(dp2945
g54
(dp2946
sg63
g2931
sg56
(lp2947
g49
(g50
g51
NtRp2948
(dp2949
g54
(dp2950
g62
I3
ssg63
g2944
sg56
(lp2951
g1335
asbasbasbag49
(g65
g51
NtRp2952
(dp2953
g54
(dp2954
sg63
g2885
sg56
(lp2955
g49
(g70
g51
NtRp2956
(dp2957
g54
(dp2958
g74
g75
ssg63
g2952
sg56
(lp2959
S'HTTP_CONNECTION'
p2960
asbag49
(g70
g51
NtRp2961
(dp2962
g54
(dp2963
g81
g82
ssg63
g2952
sg56
(lp2964
S':'
asbag49
(g70
g51
NtRp2965
(dp2966
g54
(dp2967
sg63
g2952
sg56
(lp2968
g49
(g50
g51
NtRp2969
(dp2970
g54
(dp2971
g62
I3
ssg63
g2965
sg56
(lp2972
g1357
asbasbasbag49
(g65
g51
NtRp2973
(dp2974
g54
(dp2975
sg63
g2885
sg56
(lp2976
g49
(g70
g51
NtRp2977
(dp2978
g54
(dp2979
g74
g75
ssg63
g2973
sg56
(lp2980
S'HTTP_COOKIE'
p2981
asbag49
(g70
g51
NtRp2982
(dp2983
g54
(dp2984
g81
g82
ssg63
g2973
sg56
(lp2985
S':'
asbag49
(g70
g51
NtRp2986
(dp2987
g54
(dp2988
sg63
g2973
sg56
(lp2989
g49
(g50
g51
NtRp2990
(dp2991
g54
(dp2992
g62
I3
ssg63
g2986
sg56
(lp2993
g1379
asbasbasbag49
(g65
g51
NtRp2994
(dp2995
g54
(dp2996
sg63
g2885
sg56
(lp2997
g49
(g70
g51
NtRp2998
(dp2999
g54
(dp3000
g74
g75
ssg63
g2994
sg56
(lp3001
S'HTTP_HOST'
p3002
asbag49
(g70
g51
NtRp3003
(dp3004
g54
(dp3005
g81
g82
ssg63
g2994
sg56
(lp3006
S':'
asbag49
(g70
g51
NtRp3007
(dp3008
g54
(dp3009
sg63
g2994
sg56
(lp3010
g49
(g50
g51
NtRp3011
(dp3012
g54
(dp3013
g62
I3
ssg63
g3007
sg56
(lp3014
g1401
asbasbasbag49
(g65
g51
NtRp3015
(dp3016
g54
(dp3017
sg63
g2885
sg56
(lp3018
g49
(g70
g51
NtRp3019
(dp3020
g54
(dp3021
g74
g75
ssg63
g3015
sg56
(lp3022
S'HTTP_REFERER'
p3023
asbag49
(g70
g51
NtRp3024
(dp3025
g54
(dp3026
g81
g82
ssg63
g3015
sg56
(lp3027
S':'
asbag49
(g70
g51
NtRp3028
(dp3029
g54
(dp3030
sg63
g3015
sg56
(lp3031
g49
(g50
g51
NtRp3032
(dp3033
g54
(dp3034
g62
I3
ssg63
g3028
sg56
(lp3035
g1423
asbasbasbag49
(g65
g51
NtRp3036
(dp3037
g54
(dp3038
sg63
g2885
sg56
(lp3039
g49
(g70
g51
NtRp3040
(dp3041
g54
(dp3042
g74
g75
ssg63
g3036
sg56
(lp3043
S'HTTP_USER_AGENT'
p3044
asbag49
(g70
g51
NtRp3045
(dp3046
g54
(dp3047
g81
g82
ssg63
g3036
sg56
(lp3048
S':'
asbag49
(g70
g51
NtRp3049
(dp3050
g54
(dp3051
sg63
g3036
sg56
(lp3052
g49
(g50
g51
NtRp3053
(dp3054
g54
(dp3055
g62
I3
ssg63
g3049
sg56
(lp3056
g1445
asbasbasbag49
(g65
g51
NtRp3057
(dp3058
g54
(dp3059
sg63
g2885
sg56
(lp3060
g49
(g70
g51
NtRp3061
(dp3062
g54
(dp3063
g74
g75
ssg63
g3057
sg56
(lp3064
S'PATH_INFO'
p3065
asbag49
(g70
g51
NtRp3066
(dp3067
g54
(dp3068
g81
g82
ssg63
g3057
sg56
(lp3069
S':'
asbag49
(g70
g51
NtRp3070
(dp3071
g54
(dp3072
sg63
g3057
sg56
(lp3073
g49
(g50
g51
NtRp3074
(dp3075
g54
(dp3076
g62
I3
ssg63
g3070
sg56
(lp3077
g1599
asbasbasbag49
(g65
g51
NtRp3078
(dp3079
g54
(dp3080
sg63
g2885
sg56
(lp3081
g49
(g70
g51
NtRp3082
(dp3083
g54
(dp3084
g74
g75
ssg63
g3078
sg56
(lp3085
S'QUERY_STRING'
p3086
asbag49
(g70
g51
NtRp3087
(dp3088
g54
(dp3089
g81
g82
ssg63
g3078
sg56
(lp3090
S':'
asbag49
(g70
g51
NtRp3091
(dp3092
g54
(dp3093
sg63
g3078
sg56
(lp3094
g49
(g50
g51
NtRp3095
(dp3096
g54
(dp3097
g62
I3
ssg63
g3091
sg56
(lp3098
S''
asbasbasbag49
(g65
g51
NtRp3099
(dp3100
g54
(dp3101
sg63
g2885
sg56
(lp3102
g49
(g70
g51
NtRp3103
(dp3104
g54
(dp3105
g74
g75
ssg63
g3099
sg56
(lp3106
S'REMOTE_ADDR'
p3107
asbag49
(g70
g51
NtRp3108
(dp3109
g54
(dp3110
g81
g82
ssg63
g3099
sg56
(lp3111
S':'
asbag49
(g70
g51
NtRp3112
(dp3113
g54
(dp3114
sg63
g3099
sg56
(lp3115
g49
(g50
g51
NtRp3116
(dp3117
g54
(dp3118
g62
I3
ssg63
g3112
sg56
(lp3119
g204
asbasbasbag49
(g65
g51
NtRp3120
(dp3121
g54
(dp3122
sg63
g2885
sg56
(lp3123
g49
(g70
g51
NtRp3124
(dp3125
g54
(dp3126
g74
g75
ssg63
g3120
sg56
(lp3127
S'REMOTE_PORT'
p3128
asbag49
(g70
g51
NtRp3129
(dp3130
g54
(dp3131
g81
g82
ssg63
g3120
sg56
(lp3132
S':'
asbag49
(g70
g51
NtRp3133
(dp3134
g54
(dp3135
sg63
g3120
sg56
(lp3136
g49
(g50
g51
NtRp3137
(dp3138
g54
(dp3139
g62
I3
ssg63
g3133
sg56
(lp3140
g1663
asbasbasbag49
(g65
g51
NtRp3141
(dp3142
g54
(dp3143
sg63
g2885
sg56
(lp3144
g49
(g70
g51
NtRp3145
(dp3146
g54
(dp3147
g74
g75
ssg63
g3141
sg56
(lp3148
S'REQUEST_METHOD'
p3149
asbag49
(g70
g51
NtRp3150
(dp3151
g54
(dp3152
g81
g82
ssg63
g3141
sg56
(lp3153
S':'
asbag49
(g70
g51
NtRp3154
(dp3155
g54
(dp3156
sg63
g3141
sg56
(lp3157
g49
(g50
g51
NtRp3158
(dp3159
g54
(dp3160
g62
I3
ssg63
g3154
sg56
(lp3161
g1685
asbasbasbag49
(g65
g51
NtRp3162
(dp3163
g54
(dp3164
sg63
g2885
sg56
(lp3165
g49
(g70
g51
NtRp3166
(dp3167
g54
(dp3168
g74
g75
ssg63
g3162
sg56
(lp3169
S'REQUEST_URI'
p3170
asbag49
(g70
g51
NtRp3171
(dp3172
g54
(dp3173
g81
g82
ssg63
g3162
sg56
(lp3174
S':'
asbag49
(g70
g51
NtRp3175
(dp3176
g54
(dp3177
sg63
g3162
sg56
(lp3178
g49
(g50
g51
NtRp3179
(dp3180
g54
(dp3181
g62
I3
ssg63
g3175
sg56
(lp3182
g1599
asbasbasbag49
(g65
g51
NtRp3183
(dp3184
g54
(dp3185
sg63
g2885
sg56
(lp3186
g49
(g70
g51
NtRp3187
(dp3188
g54
(dp3189
g74
g75
ssg63
g3183
sg56
(lp3190
S'SCRIPT_NAME'
p3191
asbag49
(g70
g51
NtRp3192
(dp3193
g54
(dp3194
g81
g82
ssg63
g3183
sg56
(lp3195
S':'
asbag49
(g70
g51
NtRp3196
(dp3197
g54
(dp3198
sg63
g3183
sg56
(lp3199
g49
(g50
g51
NtRp3200
(dp3201
g54
(dp3202
g62
I3
ssg63
g3196
sg56
(lp3203
S''
asbasbasbag49
(g65
g51
NtRp3204
(dp3205
g54
(dp3206
sg63
g2885
sg56
(lp3207
g49
(g70
g51
NtRp3208
(dp3209
g54
(dp3210
g74
g75
ssg63
g3204
sg56
(lp3211
S'SERVER_NAME'
p3212
asbag49
(g70
g51
NtRp3213
(dp3214
g54
(dp3215
g81
g82
ssg63
g3204
sg56
(lp3216
S':'
asbag49
(g70
g51
NtRp3217
(dp3218
g54
(dp3219
sg63
g3204
sg56
(lp3220
g49
(g50
g51
NtRp3221
(dp3222
g54
(dp3223
g62
I3
ssg63
g3217
sg56
(lp3224
g1564
asbasbasbag49
(g65
g51
NtRp3225
(dp3226
g54
(dp3227
sg63
g2885
sg56
(lp3228
g49
(g70
g51
NtRp3229
(dp3230
g54
(dp3231
g74
g75
ssg63
g3225
sg56
(lp3232
S'SERVER_PORT'
p3233
asbag49
(g70
g51
NtRp3234
(dp3235
g54
(dp3236
g81
g82
ssg63
g3225
sg56
(lp3237
S':'
asbag49
(g70
g51
NtRp3238
(dp3239
g54
(dp3240
sg63
g3225
sg56
(lp3241
g49
(g50
g51
NtRp3242
(dp3243
g54
(dp3244
g62
I3
ssg63
g3238
sg56
(lp3245
g1770
asbasbasbag49
(g65
g51
NtRp3246
(dp3247
g54
(dp3248
sg63
g2885
sg56
(lp3249
g49
(g70
g51
NtRp3250
(dp3251
g54
(dp3252
g74
g75
ssg63
g3246
sg56
(lp3253
S'SERVER_PROTOCOL'
p3254
asbag49
(g70
g51
NtRp3255
(dp3256
g54
(dp3257
g81
g82
ssg63
g3246
sg56
(lp3258
S':'
asbag49
(g70
g51
NtRp3259
(dp3260
g54
(dp3261
sg63
g3246
sg56
(lp3262
g49
(g50
g51
NtRp3263
(dp3264
g54
(dp3265
g62
I3
ssg63
g3259
sg56
(lp3266
g1792
asbasbasbag49
(g65
g51
NtRp3267
(dp3268
g54
(dp3269
sg63
g2885
sg56
(lp3270
g49
(g70
g51
NtRp3271
(dp3272
g54
(dp3273
g74
g75
ssg63
g3267
sg56
(lp3274
S'SERVER_SOFTWARE'
p3275
asbag49
(g70
g51
NtRp3276
(dp3277
g54
(dp3278
g81
g82
ssg63
g3267
sg56
(lp3279
S':'
asbag49
(g70
g51
NtRp3280
(dp3281
g54
(dp3282
sg63
g3267
sg56
(lp3283
g49
(g50
g51
NtRp3284
(dp3285
g54
(dp3286
g62
I3
ssg63
g3280
sg56
(lp3287
g1814
asbasbasbag49
(g65
g51
NtRp3288
(dp3289
g54
(dp3290
sg63
g2885
sg56
(lp3291
g49
(g70
g51
NtRp3292
(dp3293
g54
(dp3294
g74
g75
ssg63
g3288
sg56
(lp3295
S'wsgi.errors'
p3296
asbag49
(g70
g51
NtRp3297
(dp3298
g54
(dp3299
g81
g82
ssg63
g3288
sg56
(lp3300
S':'
asbag49
(g70
g51
NtRp3301
(dp3302
g54
(dp3303
sg63
g3288
sg56
(lp3304
g49
(g50
g51
NtRp3305
(dp3306
g54
(dp3307
g62
I3
ssg63
g3301
sg56
(lp3308
S"<open file '<stderr>', mode 'w' at 0x540b0>"
p3309
asbasbasbag49
(g65
g51
NtRp3310
(dp3311
g54
(dp3312
sg63
g2885
sg56
(lp3313
g49
(g70
g51
NtRp3314
(dp3315
g54
(dp3316
g74
g75
ssg63
g3310
sg56
(lp3317
S'wsgi.file_wrapper'
p3318
asbag49
(g70
g51
NtRp3319
(dp3320
g54
(dp3321
g81
g82
ssg63
g3310
sg56
(lp3322
S':'
asbag49
(g70
g51
NtRp3323
(dp3324
g54
(dp3325
sg63
g3310
sg56
(lp3326
g49
(g50
g51
NtRp3327
(dp3328
g54
(dp3329
g62
I3
ssg63
g3323
sg56
(lp3330
S'<class wsgiref.util.FileWrapper at 0x44d82d0>'
p3331
asbasbasbag49
(g65
g51
NtRp3332
(dp3333
g54
(dp3334
sg63
g2885
sg56
(lp3335
g49
(g70
g51
NtRp3336
(dp3337
g54
(dp3338
g74
g75
ssg63
g3332
sg56
(lp3339
S'wsgi.input'
p3340
asbag49
(g70
g51
NtRp3341
(dp3342
g54
(dp3343
g81
g82
ssg63
g3332
sg56
(lp3344
S':'
asbag49
(g70
g51
NtRp3345
(dp3346
g54
(dp3347
sg63
g3332
sg56
(lp3348
g49
(g50
g51
NtRp3349
(dp3350
g54
(dp3351
g62
I3
ssg63
g3345
sg56
(lp3352
S'<cStringIO.StringO object at 0x8a27340>'
p3353
asbasbasbag49
(g65
g51
NtRp3354
(dp3355
g54
(dp3356
sg63
g2885
sg56
(lp3357
g49
(g70
g51
NtRp3358
(dp3359
g54
(dp3360
g74
g75
ssg63
g3354
sg56
(lp3361
S'wsgi.multiprocess'
p3362
asbag49
(g70
g51
NtRp3363
(dp3364
g54
(dp3365
g81
g82
ssg63
g3354
sg56
(lp3366
S':'
asbag49
(g70
g51
NtRp3367
(dp3368
g54
(dp3369
sg63
g3354
sg56
(lp3370
g49
(g50
g51
NtRp3371
(dp3372
g54
(dp3373
g62
I3
ssg63
g3367
sg56
(lp3374
g92
asbasbasbag49
(g65
g51
NtRp3375
(dp3376
g54
(dp3377
sg63
g2885
sg56
(lp3378
g49
(g70
g51
NtRp3379
(dp3380
g54
(dp3381
g74
g75
ssg63
g3375
sg56
(lp3382
S'wsgi.multithread'
p3383
asbag49
(g70
g51
NtRp3384
(dp3385
g54
(dp3386
g81
g82
ssg63
g3375
sg56
(lp3387
S':'
asbag49
(g70
g51
NtRp3388
(dp3389
g54
(dp3390
sg63
g3375
sg56
(lp3391
g49
(g50
g51
NtRp3392
(dp3393
g54
(dp3394
g62
I3
ssg63
g3388
sg56
(lp3395
g2031
asbasbasbag49
(g65
g51
NtRp3396
(dp3397
g54
(dp3398
sg63
g2885
sg56
(lp3399
g49
(g70
g51
NtRp3400
(dp3401
g54
(dp3402
g74
g75
ssg63
g3396
sg56
(lp3403
S'wsgi.run_once'
p3404
asbag49
(g70
g51
NtRp3405
(dp3406
g54
(dp3407
g81
g82
ssg63
g3396
sg56
(lp3408
S':'
asbag49
(g70
g51
NtRp3409
(dp3410
g54
(dp3411
sg63
g3396
sg56
(lp3412
g49
(g50
g51
NtRp3413
(dp3414
g54
(dp3415
g62
I3
ssg63
g3409
sg56
(lp3416
g92
asbasbasbag49
(g65
g51
NtRp3417
(dp3418
g54
(dp3419
sg63
g2885
sg56
(lp3420
g49
(g70
g51
NtRp3421
(dp3422
g54
(dp3423
g74
g75
ssg63
g3417
sg56
(lp3424
S'wsgi.url_scheme'
p3425
asbag49
(g70
g51
NtRp3426
(dp3427
g54
(dp3428
g81
g82
ssg63
g3417
sg56
(lp3429
S':'
asbag49
(g70
g51
NtRp3430
(dp3431
g54
(dp3432
sg63
g3417
sg56
(lp3433
g49
(g50
g51
NtRp3434
(dp3435
g54
(dp3436
g62
I3
ssg63
g3430
sg56
(lp3437
g2074
asbasbasbag49
(g65
g51
NtRp3438
(dp3439
g54
(dp3440
sg63
g2885
sg56
(lp3441
g49
(g70
g51
NtRp3442
(dp3443
g54
(dp3444
g74
g75
ssg63
g3438
sg56
(lp3445
S'wsgi.version'
p3446
asbag49
(g70
g51
NtRp3447
(dp3448
g54
(dp3449
g81
g82
ssg63
g3438
sg56
(lp3450
S':'
asbag49
(g70
g51
NtRp3451
(dp3452
g54
(dp3453
sg63
g3438
sg56
(lp3454
g49
(g50
g51
NtRp3455
(dp3456
g54
(dp3457
g62
I3
ssg63
g3451
sg56
(lp3458
S'1'
asbasbasbasbasbasbasbasbasbasbasbasbasbsS'frames'
p3459
(lp3460
(dp3461
S'file'
p3462
S'/Users/abaric/Downloads/web2py/web2py.app/Contents/Resources/gluon/restricted.py'
p3463
sS'dump'
p3464
(dp3465
sS'lnum'
p3466
I212
sS'lines'
p3467
(dp3468
sS'call'
p3469
S"(code='from gluon.tools import datetime\\nfrom gluon.tool...onse._vars=response._caller(show_image_comments)\\n', environment={'A': <class 'gluon.html.A'>, 'Auth': <class 'gluon.tools.Auth'>, 'B': <class 'gluon.html.B'>, 'BEAUTIFY': <class 'gluon.html.BEAUTIFY'>, 'BODY': <class 'gluon.html.BODY'>, 'BR': <class 'gluon.html.BR'>, 'BUTTON': <class 'gluon.html.BUTTON'>, 'CAT': <class 'gluon.html.CAT'>, 'CENTER': <class 'gluon.html.CENTER'>, 'CLEANUP': <class 'gluon.validators.CLEANUP'>, ...}, layer='/Users/abaric/Downloads/web2py/web2py.app/Conten...applications/Final_Impulse/controllers/default.py')"
p3470
sS'func'
p3471
S'restricted'
p3472
sa(dp3473
g3462
S'/Users/abaric/Downloads/web2py/web2py.app/Contents/Resources/applications/Final_Impulse/controllers/default.py'
p3474
sg3464
(dp3475
sg3466
I181
sg3467
(dp3476
I170
S'    for writing in wristing:'
p3477
sI171
S'        if writing.writing.approved:'
p3478
sI172
S'            writings_w_app.append(writing)'
p3479
sI173
S'        else:'
p3480
sI174
S'            writings_wo_app.append(writing)'
p3481
sI175
S''
sI176
S'    return locals()'
p3482
sI177
S''
sI178
S''
sI179
S'#def update_approve():'
p3483
ssg3469
S'()'
p3484
sg3471
S'<module>'
p3485
sa(dp3486
g3462
S'/Users/abaric/Downloads/web2py/web2py.app/Contents/Resources/gluon/globals.py'
p3487
sg3464
(dp3488
sg3466
I188
sg3467
(dp3489
sg3469
S'(f=<function show_image_comments at 0x79340f0>)'
p3490
sg3471
S'<lambda>'
p3491
sa(dp3492
g3462
S'/Users/abaric/Downloads/web2py/web2py.app/Contents/Resources/applications/Final_Impulse/controllers/default.py'
p3493
sg3464
(dp3494
sg3466
I24
sg3467
(dp3495
I19
S'def download():'
p3496
sI20
S'    return response.download(request, db)'
p3497
sI21
S''
sI22
S'def show_image_comments():'
p3498
sI23
S"    image_form=SQLFORM(db.image,fields=['title','file'],labels={'file':'Your Image'})"
p3499
sI24
S'    image_form.vars.author_id=auth.user.id'
p3500
sI25
S"    image_form.add_button('Back', URL('index'))"
p3501
sI26
S'    if image_form.process().accepted:'
p3502
sI27
S"        response.flash='image post submitted!'"
p3503
sI28
S'    images=db(db.image).select(db.image.ALL, orderby=db.image.id)'
p3504
ssg3469
S'()'
p3505
sg3471
S'show_image_comments'
p3506
sasS'pyver'
p3507
S'Python 2.5.1: /Users/abaric/Downloads/web2py/web2py.app/Contents/MacOS/python'
p3508
sS'session'
p3509
g49
(g50
g51
NtRp3510
(dp3511
g54
(dp3512
sg56
(lp3513
g49
(g58
g51
NtRp3514
(dp3515
g54
(dp3516
g62
I5
ssg63
Nsg56
(lp3517
sbasbsS'etype'
p3518
S"<type 'exceptions.AttributeError'>"
p3519
sS'date'
p3520
S'Wed Apr  1 02:23:09 2015'
p3521
sS'response'
p3522
g49
(g50
g51
NtRp3523
(dp3524
g54
(dp3525
sg56
(lp3526
g49
(g58
g51
NtRp3527
(dp3528
g54
(dp3529
g62
I5
ssg63
Nsg56
(lp3530
g49
(g65
g51
NtRp3531
(dp3532
g54
(dp3533
sg63
g3527
sg56
(lp3534
g49
(g70
g51
NtRp3535
(dp3536
g54
(dp3537
g74
g75
ssg63
g3531
sg56
(lp3538
g147
asbag49
(g70
g51
NtRp3539
(dp3540
g54
(dp3541
g81
g82
ssg63
g3531
sg56
(lp3542
S':'
asbag49
(g70
g51
NtRp3543
(dp3544
g54
(dp3545
sg63
g3531
sg56
(lp3546
g49
(g50
g51
NtRp3547
(dp3548
g54
(dp3549
g62
I5
ssg63
g3543
sg56
(lp3550
S'<cStringIO.StringO object at 0x8c3e980>'
p3551
asbasbasbag49
(g65
g51
NtRp3552
(dp3553
g54
(dp3554
sg63
g3527
sg56
(lp3555
g49
(g70
g51
NtRp3556
(dp3557
g54
(dp3558
g74
g75
ssg63
g3552
sg56
(lp3559
g235
asbag49
(g70
g51
NtRp3560
(dp3561
g54
(dp3562
g81
g82
ssg63
g3552
sg56
(lp3563
S':'
asbag49
(g70
g51
NtRp3564
(dp3565
g54
(dp3566
sg63
g3552
sg56
(lp3567
g49
(g50
g51
NtRp3568
(dp3569
g54
(dp3570
g62
I5
ssg63
g3564
sg56
(lp3571
g49
(g58
g51
NtRp3572
(dp3573
g54
(dp3574
g62
I4
ssg63
Nsg56
(lp3575
g49
(g65
g51
NtRp3576
(dp3577
g54
(dp3578
sg63
g3572
sg56
(lp3579
g49
(g70
g51
NtRp3580
(dp3581
g54
(dp3582
g74
g75
ssg63
g3576
sg56
(lp3583
S'session_id_final_impulse'
p3584
asbag49
(g70
g51
NtRp3585
(dp3586
g54
(dp3587
g81
g82
ssg63
g3576
sg56
(lp3588
S':'
asbag49
(g70
g51
NtRp3589
(dp3590
g54
(dp3591
sg63
g3576
sg56
(lp3592
g49
(g50
g51
NtRp3593
(dp3594
g54
(dp3595
g62
I4
ssg63
g3589
sg56
(lp3596
S'127.0.0.1-dca90485-55cd-4917-817c-ab5e848b766c'
p3597
ag49
(g58
g51
NtRp3598
(dp3599
g54
(dp3600
g62
I3
ssg63
Nsg56
(lp3601
g49
(g65
g51
NtRp3602
(dp3603
g54
(dp3604
sg63
g3598
sg56
(lp3605
g49
(g70
g51
NtRp3606
(dp3607
g54
(dp3608
g74
g75
ssg63
g3602
sg56
(lp3609
g286
asbag49
(g70
g51
NtRp3610
(dp3611
g54
(dp3612
g81
g82
ssg63
g3602
sg56
(lp3613
S':'
asbag49
(g70
g51
NtRp3614
(dp3615
g54
(dp3616
sg63
g3602
sg56
(lp3617
g49
(g50
g51
NtRp3618
(dp3619
g54
(dp3620
g62
I3
ssg63
g3614
sg56
(lp3621
S''
asbasbasbag49
(g65
g51
NtRp3622
(dp3623
g54
(dp3624
sg63
g3598
sg56
(lp3625
g49
(g70
g51
NtRp3626
(dp3627
g54
(dp3628
g74
g75
ssg63
g3622
sg56
(lp3629
g307
asbag49
(g70
g51
NtRp3630
(dp3631
g54
(dp3632
g81
g82
ssg63
g3622
sg56
(lp3633
S':'
asbag49
(g70
g51
NtRp3634
(dp3635
g54
(dp3636
sg63
g3622
sg56
(lp3637
g49
(g50
g51
NtRp3638
(dp3639
g54
(dp3640
g62
I3
ssg63
g3634
sg56
(lp3641
S''
asbasbasbag49
(g65
g51
NtRp3642
(dp3643
g54
(dp3644
sg63
g3598
sg56
(lp3645
g49
(g70
g51
NtRp3646
(dp3647
g54
(dp3648
g74
g75
ssg63
g3642
sg56
(lp3649
g328
asbag49
(g70
g51
NtRp3650
(dp3651
g54
(dp3652
g81
g82
ssg63
g3642
sg56
(lp3653
S':'
asbag49
(g70
g51
NtRp3654
(dp3655
g54
(dp3656
sg63
g3642
sg56
(lp3657
g49
(g50
g51
NtRp3658
(dp3659
g54
(dp3660
g62
I3
ssg63
g3654
sg56
(lp3661
S''
asbasbasbag49
(g65
g51
NtRp3662
(dp3663
g54
(dp3664
sg63
g3598
sg56
(lp3665
g49
(g70
g51
NtRp3666
(dp3667
g54
(dp3668
g74
g75
ssg63
g3662
sg56
(lp3669
g349
asbag49
(g70
g51
NtRp3670
(dp3671
g54
(dp3672
g81
g82
ssg63
g3662
sg56
(lp3673
S':'
asbag49
(g70
g51
NtRp3674
(dp3675
g54
(dp3676
sg63
g3662
sg56
(lp3677
g49
(g50
g51
NtRp3678
(dp3679
g54
(dp3680
g62
I3
ssg63
g3674
sg56
(lp3681
S''
asbasbasbag49
(g65
g51
NtRp3682
(dp3683
g54
(dp3684
sg63
g3598
sg56
(lp3685
g49
(g70
g51
NtRp3686
(dp3687
g54
(dp3688
g74
g75
ssg63
g3682
sg56
(lp3689
g370
asbag49
(g70
g51
NtRp3690
(dp3691
g54
(dp3692
g81
g82
ssg63
g3682
sg56
(lp3693
S':'
asbag49
(g70
g51
NtRp3694
(dp3695
g54
(dp3696
sg63
g3682
sg56
(lp3697
g49
(g50
g51
NtRp3698
(dp3699
g54
(dp3700
g62
I3
ssg63
g3694
sg56
(lp3701
S'/'
asbasbasbag49
(g65
g51
NtRp3702
(dp3703
g54
(dp3704
sg63
g3598
sg56
(lp3705
g49
(g70
g51
NtRp3706
(dp3707
g54
(dp3708
g74
g75
ssg63
g3702
sg56
(lp3709
g391
asbag49
(g70
g51
NtRp3710
(dp3711
g54
(dp3712
g81
g82
ssg63
g3702
sg56
(lp3713
S':'
asbag49
(g70
g51
NtRp3714
(dp3715
g54
(dp3716
sg63
g3702
sg56
(lp3717
g49
(g50
g51
NtRp3718
(dp3719
g54
(dp3720
g62
I3
ssg63
g3714
sg56
(lp3721
S''
asbasbasbag49
(g65
g51
NtRp3722
(dp3723
g54
(dp3724
sg63
g3598
sg56
(lp3725
g49
(g70
g51
NtRp3726
(dp3727
g54
(dp3728
g74
g75
ssg63
g3722
sg56
(lp3729
g412
asbag49
(g70
g51
NtRp3730
(dp3731
g54
(dp3732
g81
g82
ssg63
g3722
sg56
(lp3733
S':'
asbag49
(g70
g51
NtRp3734
(dp3735
g54
(dp3736
sg63
g3722
sg56
(lp3737
g49
(g50
g51
NtRp3738
(dp3739
g54
(dp3740
g62
I3
ssg63
g3734
sg56
(lp3741
S''
asbasbasbasbasbasbasbasbasbasbasbag49
(g65
g51
NtRp3742
(dp3743
g54
(dp3744
sg63
g3527
sg56
(lp3745
g49
(g70
g51
NtRp3746
(dp3747
g54
(dp3748
g74
g75
ssg63
g3742
sg56
(lp3749
S'delimiters'
p3750
asbag49
(g70
g51
NtRp3751
(dp3752
g54
(dp3753
g81
g82
ssg63
g3742
sg56
(lp3754
S':'
asbag49
(g70
g51
NtRp3755
(dp3756
g54
(dp3757
sg63
g3742
sg56
(lp3758
g49
(g50
g51
NtRp3759
(dp3760
g54
(dp3761
g62
I5
ssg63
g3755
sg56
(lp3762
g49
(g58
g51
NtRp3763
(dp3764
g54
(dp3765
g62
I4
ssg63
Nsg56
(lp3766
g49
(g65
g51
NtRp3767
(dp3768
g54
(dp3769
sg63
g3763
sg56
(lp3770
g49
(g70
g51
NtRp3771
(dp3772
g54
(dp3773
sg63
g3767
sg56
(lp3774
g49
(g50
g51
NtRp3775
(dp3776
g54
(dp3777
g62
I4
ssg63
g3771
sg56
(lp3778
S'{{'
p3779
asbasbasbag49
(g65
g51
NtRp3780
(dp3781
g54
(dp3782
sg63
g3763
sg56
(lp3783
g49
(g70
g51
NtRp3784
(dp3785
g54
(dp3786
sg63
g3780
sg56
(lp3787
g49
(g50
g51
NtRp3788
(dp3789
g54
(dp3790
g62
I4
ssg63
g3784
sg56
(lp3791
S'}}'
p3792
asbasbasbasbasbasbasbag49
(g65
g51
NtRp3793
(dp3794
g54
(dp3795
sg63
g3527
sg56
(lp3796
g49
(g70
g51
NtRp3797
(dp3798
g54
(dp3799
g74
g75
ssg63
g3793
sg56
(lp3800
S'files'
p3801
asbag49
(g70
g51
NtRp3802
(dp3803
g54
(dp3804
g81
g82
ssg63
g3793
sg56
(lp3805
S':'
asbag49
(g70
g51
NtRp3806
(dp3807
g54
(dp3808
sg63
g3793
sg56
(lp3809
g49
(g50
g51
NtRp3810
(dp3811
g54
(dp3812
g62
I5
ssg63
g3806
sg56
(lp3813
g49
(g58
g51
NtRp3814
(dp3815
g54
(dp3816
g62
I4
ssg63
Nsg56
(lp3817
sbasbasbasbag49
(g65
g51
NtRp3818
(dp3819
g54
(dp3820
sg63
g3527
sg56
(lp3821
g49
(g70
g51
NtRp3822
(dp3823
g54
(dp3824
g74
g75
ssg63
g3818
sg56
(lp3825
S'flash'
p3826
asbag49
(g70
g51
NtRp3827
(dp3828
g54
(dp3829
g81
g82
ssg63
g3818
sg56
(lp3830
S':'
asbag49
(g70
g51
NtRp3831
(dp3832
g54
(dp3833
sg63
g3818
sg56
(lp3834
g49
(g50
g51
NtRp3835
(dp3836
g54
(dp3837
g62
I5
ssg63
g3831
sg56
(lp3838
S''
asbasbasbag49
(g65
g51
NtRp3839
(dp3840
g54
(dp3841
sg63
g3527
sg56
(lp3842
g49
(g70
g51
NtRp3843
(dp3844
g54
(dp3845
g74
g75
ssg63
g3839
sg56
(lp3846
S'generic_patterns'
p3847
asbag49
(g70
g51
NtRp3848
(dp3849
g54
(dp3850
g81
g82
ssg63
g3839
sg56
(lp3851
S':'
asbag49
(g70
g51
NtRp3852
(dp3853
g54
(dp3854
sg63
g3839
sg56
(lp3855
g49
(g50
g51
NtRp3856
(dp3857
g54
(dp3858
g62
I5
ssg63
g3852
sg56
(lp3859
g49
(g58
g51
NtRp3860
(dp3861
g54
(dp3862
g62
I4
ssg63
Nsg56
(lp3863
sbasbasbasbag49
(g65
g51
NtRp3864
(dp3865
g54
(dp3866
sg63
g3527
sg56
(lp3867
g49
(g70
g51
NtRp3868
(dp3869
g54
(dp3870
g74
g75
ssg63
g3864
sg56
(lp3871
S'google_analytics_id'
p3872
asbag49
(g70
g51
NtRp3873
(dp3874
g54
(dp3875
g81
g82
ssg63
g3864
sg56
(lp3876
S':'
asbag49
(g70
g51
NtRp3877
(dp3878
g54
(dp3879
sg63
g3864
sg56
(lp3880
g49
(g50
g51
NtRp3881
(dp3882
g54
(dp3883
g62
I5
ssg63
g3877
sg56
(lp3884
S'None'
p3885
asbasbasbag49
(g65
g51
NtRp3886
(dp3887
g54
(dp3888
sg63
g3527
sg56
(lp3889
g49
(g70
g51
NtRp3890
(dp3891
g54
(dp3892
g74
g75
ssg63
g3886
sg56
(lp3893
S'headers'
p3894
asbag49
(g70
g51
NtRp3895
(dp3896
g54
(dp3897
g81
g82
ssg63
g3886
sg56
(lp3898
S':'
asbag49
(g70
g51
NtRp3899
(dp3900
g54
(dp3901
sg63
g3886
sg56
(lp3902
g49
(g50
g51
NtRp3903
(dp3904
g54
(dp3905
g62
I5
ssg63
g3899
sg56
(lp3906
g49
(g58
g51
NtRp3907
(dp3908
g54
(dp3909
g62
I4
ssg63
Nsg56
(lp3910
g49
(g65
g51
NtRp3911
(dp3912
g54
(dp3913
sg63
g3907
sg56
(lp3914
g49
(g70
g51
NtRp3915
(dp3916
g54
(dp3917
g74
g75
ssg63
g3911
sg56
(lp3918
S'X-Powered-By'
p3919
asbag49
(g70
g51
NtRp3920
(dp3921
g54
(dp3922
g81
g82
ssg63
g3911
sg56
(lp3923
S':'
asbag49
(g70
g51
NtRp3924
(dp3925
g54
(dp3926
sg63
g3911
sg56
(lp3927
g49
(g50
g51
NtRp3928
(dp3929
g54
(dp3930
g62
I4
ssg63
g3924
sg56
(lp3931
S'web2py'
p3932
asbasbasbasbasbasbasbag49
(g65
g51
NtRp3933
(dp3934
g54
(dp3935
sg63
g3527
sg56
(lp3936
g49
(g70
g51
NtRp3937
(dp3938
g54
(dp3939
g74
g75
ssg63
g3933
sg56
(lp3940
S'menu'
p3941
asbag49
(g70
g51
NtRp3942
(dp3943
g54
(dp3944
g81
g82
ssg63
g3933
sg56
(lp3945
S':'
asbag49
(g70
g51
NtRp3946
(dp3947
g54
(dp3948
sg63
g3933
sg56
(lp3949
g49
(g50
g51
NtRp3950
(dp3951
g54
(dp3952
g62
I5
ssg63
g3946
sg56
(lp3953
g49
(g58
g51
NtRp3954
(dp3955
g54
(dp3956
g62
I4
ssg63
Nsg56
(lp3957
g49
(g65
g51
NtRp3958
(dp3959
g54
(dp3960
sg63
g3954
sg56
(lp3961
g49
(g70
g51
NtRp3962
(dp3963
g54
(dp3964
sg63
g3958
sg56
(lp3965
g49
(g50
g51
NtRp3966
(dp3967
g54
(dp3968
g62
I4
ssg63
g3962
sg56
(lp3969
g49
(g58
g51
NtRp3970
(dp3971
g54
(dp3972
g62
I3
ssg63
Nsg56
(lp3973
g49
(g65
g51
NtRp3974
(dp3975
g54
(dp3976
sg63
g3970
sg56
(lp3977
g49
(g70
g51
NtRp3978
(dp3979
g54
(dp3980
sg63
g3974
sg56
(lp3981
g49
(g50
g51
NtRp3982
(dp3983
g54
(dp3984
g62
I3
ssg63
g3978
sg56
(lp3985
cgluon.languages
lazyT_unpickle
p3986
(S't\x04\x00\x00\x00Home'
tRp3987
asbasbasbag49
(g65
g51
NtRp3988
(dp3989
g54
(dp3990
sg63
g3970
sg56
(lp3991
g49
(g70
g51
NtRp3992
(dp3993
g54
(dp3994
sg63
g3988
sg56
(lp3995
g49
(g50
g51
NtRp3996
(dp3997
g54
(dp3998
g62
I3
ssg63
g3992
sg56
(lp3999
g92
asbasbasbag49
(g65
g51
NtRp4000
(dp4001
g54
(dp4002
sg63
g3970
sg56
(lp4003
g49
(g70
g51
NtRp4004
(dp4005
g54
(dp4006
sg63
g4000
sg56
(lp4007
g49
(g50
g51
NtRp4008
(dp4009
g54
(dp4010
g62
I3
ssg63
g4004
sg56
(lp4011
S'/Final_Impulse/default/index'
p4012
asbasbasbag49
(g65
g51
NtRp4013
(dp4014
g54
(dp4015
sg63
g3970
sg56
(lp4016
g49
(g70
g51
NtRp4017
(dp4018
g54
(dp4019
sg63
g4013
sg56
(lp4020
g49
(g50
g51
NtRp4021
(dp4022
g54
(dp4023
g62
I3
ssg63
g4017
sg56
(lp4024
g49
(g58
g51
NtRp4025
(dp4026
g54
(dp4027
g62
I2
ssg63
Nsg56
(lp4028
sbasbasbasbasbasbasbasbag49
(g65
g51
NtRp4029
(dp4030
g54
(dp4031
sg63
g3954
sg56
(lp4032
g49
(g70
g51
NtRp4033
(dp4034
g54
(dp4035
sg63
g4029
sg56
(lp4036
g49
(g50
g51
NtRp4037
(dp4038
g54
(dp4039
g62
I4
ssg63
g4033
sg56
(lp4040
g49
(g58
g51
NtRp4041
(dp4042
g54
(dp4043
g62
I3
ssg63
Nsg56
(lp4044
g49
(g65
g51
NtRp4045
(dp4046
g54
(dp4047
sg63
g4041
sg56
(lp4048
g49
(g70
g51
NtRp4049
(dp4050
g54
(dp4051
sg63
g4045
sg56
(lp4052
g49
(g50
g51
NtRp4053
(dp4054
g54
(dp4055
g62
I3
ssg63
g4049
sg56
(lp4056
g49
(cgluon.html
SPAN
p4057
g51
NtRp4058
(dp4059
g54
(dp4060
S'_class'
p4061
S'highlighted'
p4062
ssg63
Nsg56
(lp4063
g3932
asbasbasbasbag49
(g65
g51
NtRp4064
(dp4065
g54
(dp4066
sg63
g4041
sg56
(lp4067
g49
(g70
g51
NtRp4068
(dp4069
g54
(dp4070
sg63
g4064
sg56
(lp4071
g49
(g50
g51
NtRp4072
(dp4073
g54
(dp4074
g62
I3
ssg63
g4068
sg56
(lp4075
g92
asbasbasbag49
(g65
g51
NtRp4076
(dp4077
g54
(dp4078
sg63
g4041
sg56
(lp4079
g49
(g70
g51
NtRp4080
(dp4081
g54
(dp4082
sg63
g4076
sg56
(lp4083
g49
(g50
g51
NtRp4084
(dp4085
g54
(dp4086
g62
I3
ssg63
g4080
sg56
(lp4087
S'http://web2py.com'
p4088
asbasbasbag49
(g65
g51
NtRp4089
(dp4090
g54
(dp4091
sg63
g4041
sg56
(lp4092
g49
(g70
g51
NtRp4093
(dp4094
g54
(dp4095
sg63
g4089
sg56
(lp4096
g49
(g50
g51
NtRp4097
(dp4098
g54
(dp4099
g62
I3
ssg63
g4093
sg56
(lp4100
g49
(g58
g51
NtRp4101
(dp4102
g54
(dp4103
g62
I2
ssg63
Nsg56
(lp4104
g49
(g65
g51
NtRp4105
(dp4106
g54
(dp4107
sg63
g4101
sg56
(lp4108
g49
(g70
g51
NtRp4109
(dp4110
g54
(dp4111
sg63
g4105
sg56
(lp4112
g49
(g50
g51
NtRp4113
(dp4114
g54
(dp4115
g62
I2
ssg63
g4109
sg56
(lp4116
g49
(g58
g51
NtRp4117
(dp4118
g54
(dp4119
g62
I1
ssg63
Nsg56
(lp4120
g49
(g65
g51
NtRp4121
(dp4122
g54
(dp4123
sg63
g4117
sg56
(lp4124
g49
(g70
g51
NtRp4125
(dp4126
g54
(dp4127
sg63
g4121
sg56
(lp4128
g49
(g50
g51
NtRp4129
(dp4130
g54
(dp4131
g62
I1
ssg63
g4125
sg56
(lp4132
g3986
(S's\x08\x00\x00\x00My Sites'
tRp4133
asbasbasbag49
(g65
g51
NtRp4134
(dp4135
g54
(dp4136
sg63
g4117
sg56
(lp4137
g49
(g70
g51
NtRp4138
(dp4139
g54
(dp4140
sg63
g4134
sg56
(lp4141
g49
(g50
g51
NtRp4142
(dp4143
g54
(dp4144
g62
I1
ssg63
g4138
sg56
(lp4145
I00
asbasbasbag49
(g65
g51
NtRp4146
(dp4147
g54
(dp4148
sg63
g4117
sg56
(lp4149
g49
(g70
g51
NtRp4150
(dp4151
g54
(dp4152
sg63
g4146
sg56
(lp4153
g49
(g50
g51
NtRp4154
(dp4155
g54
(dp4156
g62
I1
ssg63
g4150
sg56
(lp4157
S'/admin/default/site'
p4158
asbasbasbasbasbasbasbag49
(g65
g51
NtRp4159
(dp4160
g54
(dp4161
sg63
g4101
sg56
(lp4162
g49
(g70
g51
NtRp4163
(dp4164
g54
(dp4165
sg63
g4159
sg56
(lp4166
g49
(g50
g51
NtRp4167
(dp4168
g54
(dp4169
g62
I2
ssg63
g4163
sg56
(lp4170
g49
(g58
g51
NtRp4171
(dp4172
g54
(dp4173
g62
I1
ssg63
Nsg56
(lp4174
g49
(g65
g51
NtRp4175
(dp4176
g54
(dp4177
sg63
g4171
sg56
(lp4178
g49
(g70
g51
NtRp4179
(dp4180
g54
(dp4181
sg63
g4175
sg56
(lp4182
g49
(g50
g51
NtRp4183
(dp4184
g54
(dp4185
g62
I1
ssg63
g4179
sg56
(lp4186
g3986
(S's\x08\x00\x00\x00This App'
tRp4187
asbasbasbag49
(g65
g51
NtRp4188
(dp4189
g54
(dp4190
sg63
g4171
sg56
(lp4191
g49
(g70
g51
NtRp4192
(dp4193
g54
(dp4194
sg63
g4188
sg56
(lp4195
g49
(g50
g51
NtRp4196
(dp4197
g54
(dp4198
g62
I1
ssg63
g4192
sg56
(lp4199
I00
asbasbasbag49
(g65
g51
NtRp4200
(dp4201
g54
(dp4202
sg63
g4171
sg56
(lp4203
g49
(g70
g51
NtRp4204
(dp4205
g54
(dp4206
sg63
g4200
sg56
(lp4207
g49
(g50
g51
NtRp4208
(dp4209
g54
(dp4210
g62
I1
ssg63
g4204
sg56
(lp4211
S'/admin/default/design/Final_Impulse'
p4212
asbasbasbag49
(g65
g51
NtRp4213
(dp4214
g54
(dp4215
sg63
g4171
sg56
(lp4216
g49
(g70
g51
NtRp4217
(dp4218
g54
(dp4219
sg63
g4213
sg56
(lp4220
g49
(g50
g51
NtRp4221
(dp4222
g54
(dp4223
g62
I1
ssg63
g4217
sg56
(lp4224
(lp4225
(g3986
(S't\n\x00\x00\x00Controller'
tRp4226
I00
S'/admin/default/edit/Final_Impulse/controllers/default.py'
tp4227
a(g3986
(S't\x04\x00\x00\x00View'
tRp4228
I00
S'/admin/default/edit/Final_Impulse/views/default/show_image_comments.html'
tp4229
a(g3986
(S't\x06\x00\x00\x00Layout'
tRp4230
I00
S'/admin/default/edit/Final_Impulse/views/layout.html'
tp4231
a(g3986
(S't\n\x00\x00\x00Stylesheet'
tRp4232
I00
S'/admin/default/edit/Final_Impulse/static/css/web2py.css'
tp4233
a(g3986
(S's\x08\x00\x00\x00DB Model'
tRp4234
I00
S'/admin/default/edit/Final_Impulse/models/db.py'
tp4235
a(g3986
(S's\n\x00\x00\x00Menu Model'
tRp4236
I00
S'/admin/default/edit/Final_Impulse/models/menu.py'
tp4237
a(g3986
(S't\x08\x00\x00\x00Database'
tRp4238
I00
S'/Final_Impulse/appadmin/index'
tp4239
a(g3986
(S't\x06\x00\x00\x00Errors'
tRp4240
I00
S'/admin/default/errors/Final_Impulse'
tp4241
a(g3986
(S't\x05\x00\x00\x00About'
tRp4242
I00
S'/admin/default/about/Final_Impulse'
tp4243
aasbasbasbasbasbasbasbag49
(g65
g51
NtRp4244
(dp4245
g54
(dp4246
sg63
g4101
sg56
(lp4247
g49
(g70
g51
NtRp4248
(dp4249
g54
(dp4250
sg63
g4244
sg56
(lp4251
g49
(g50
g51
NtRp4252
(dp4253
g54
(dp4254
g62
I2
ssg63
g4248
sg56
(lp4255
g49
(g58
g51
NtRp4256
(dp4257
g54
(dp4258
g62
I1
ssg63
Nsg56
(lp4259
g49
(g65
g51
NtRp4260
(dp4261
g54
(dp4262
sg63
g4256
sg56
(lp4263
g49
(g70
g51
NtRp4264
(dp4265
g54
(dp4266
sg63
g4260
sg56
(lp4267
g49
(g50
g51
NtRp4268
(dp4269
g54
(dp4270
g62
I1
ssg63
g4264
sg56
(lp4271
S'web2py.com'
p4272
asbasbasbag49
(g65
g51
NtRp4273
(dp4274
g54
(dp4275
sg63
g4256
sg56
(lp4276
g49
(g70
g51
NtRp4277
(dp4278
g54
(dp4279
sg63
g4273
sg56
(lp4280
g49
(g50
g51
NtRp4281
(dp4282
g54
(dp4283
g62
I1
ssg63
g4277
sg56
(lp4284
I00
asbasbasbag49
(g65
g51
NtRp4285
(dp4286
g54
(dp4287
sg63
g4256
sg56
(lp4288
g49
(g70
g51
NtRp4289
(dp4290
g54
(dp4291
sg63
g4285
sg56
(lp4292
g49
(g50
g51
NtRp4293
(dp4294
g54
(dp4295
g62
I1
ssg63
g4289
sg56
(lp4296
S'http://www.web2py.com'
p4297
asbasbasbag49
(g65
g51
NtRp4298
(dp4299
g54
(dp4300
sg63
g4256
sg56
(lp4301
g49
(g70
g51
NtRp4302
(dp4303
g54
(dp4304
sg63
g4298
sg56
(lp4305
g49
(g50
g51
NtRp4306
(dp4307
g54
(dp4308
g62
I1
ssg63
g4302
sg56
(lp4309
(lp4310
(g3986
(S't\x08\x00\x00\x00Download'
tRp4311
I00
S'http://www.web2py.com/examples/default/download'
p4312
tp4313
a(g3986
(S't\x07\x00\x00\x00Support'
tRp4314
I00
S'http://www.web2py.com/examples/default/support'
p4315
tp4316
a(g3986
(S't\x04\x00\x00\x00Demo'
tRp4317
I00
S'http://web2py.com/demo_admin'
p4318
tp4319
a(g3986
(S's\x0e\x00\x00\x00Quick Examples'
tRp4320
I00
S'http://web2py.com/examples/default/examples'
p4321
tp4322
a(g3986
(S't\x03\x00\x00\x00FAQ'
tRp4323
I00
S'http://web2py.com/AlterEgo'
p4324
tp4325
a(g3986
(S't\x06\x00\x00\x00Videos'
tRp4326
I00
S'http://www.web2py.com/examples/default/videos/'
p4327
tp4328
a(g3986
(S's\x11\x00\x00\x00Free Applications'
tRp4329
I00
S'http://web2py.com/appliances'
p4330
tp4331
a(g3986
(S't\x07\x00\x00\x00Plugins'
tRp4332
I00
S'http://web2py.com/plugins'
p4333
tp4334
a(g3986
(S't\x07\x00\x00\x00Layouts'
tRp4335
I00
S'http://web2py.com/layouts'
p4336
tp4337
a(g3986
(S't\x07\x00\x00\x00Recipes'
tRp4338
I00
S'http://web2pyslices.com/'
p4339
tp4340
a(g3986
(S't\x08\x00\x00\x00Semantic'
tRp4341
I00
S'http://web2py.com/semantic'
p4342
tp4343
aasbasbasbasbasbasbasbag49
(g65
g51
NtRp4344
(dp4345
g54
(dp4346
sg63
g4101
sg56
(lp4347
g49
(g70
g51
NtRp4348
(dp4349
g54
(dp4350
sg63
g4344
sg56
(lp4351
g49
(g50
g51
NtRp4352
(dp4353
g54
(dp4354
g62
I2
ssg63
g4348
sg56
(lp4355
g49
(g58
g51
NtRp4356
(dp4357
g54
(dp4358
g62
I1
ssg63
Nsg56
(lp4359
g49
(g65
g51
NtRp4360
(dp4361
g54
(dp4362
sg63
g4356
sg56
(lp4363
g49
(g70
g51
NtRp4364
(dp4365
g54
(dp4366
sg63
g4360
sg56
(lp4367
g49
(g50
g51
NtRp4368
(dp4369
g54
(dp4370
g62
I1
ssg63
g4364
sg56
(lp4371
g3986
(S't\r\x00\x00\x00Documentation'
tRp4372
asbasbasbag49
(g65
g51
NtRp4373
(dp4374
g54
(dp4375
sg63
g4356
sg56
(lp4376
g49
(g70
g51
NtRp4377
(dp4378
g54
(dp4379
sg63
g4373
sg56
(lp4380
g49
(g50
g51
NtRp4381
(dp4382
g54
(dp4383
g62
I1
ssg63
g4377
sg56
(lp4384
I00
asbasbasbag49
(g65
g51
NtRp4385
(dp4386
g54
(dp4387
sg63
g4356
sg56
(lp4388
g49
(g70
g51
NtRp4389
(dp4390
g54
(dp4391
sg63
g4385
sg56
(lp4392
g49
(g50
g51
NtRp4393
(dp4394
g54
(dp4395
g62
I1
ssg63
g4389
sg56
(lp4396
S'http://www.web2py.com/book'
p4397
asbasbasbag49
(g65
g51
NtRp4398
(dp4399
g54
(dp4400
sg63
g4356
sg56
(lp4401
g49
(g70
g51
NtRp4402
(dp4403
g54
(dp4404
sg63
g4398
sg56
(lp4405
g49
(g50
g51
NtRp4406
(dp4407
g54
(dp4408
g62
I1
ssg63
g4402
sg56
(lp4409
(lp4410
(g3986
(S't\x07\x00\x00\x00Preface'
tRp4411
I00
S'http://www.web2py.com/book/default/chapter/00'
p4412
tp4413
a(g3986
(S't\x0c\x00\x00\x00Introduction'
tRp4414
I00
S'http://www.web2py.com/book/default/chapter/01'
p4415
tp4416
a(g3986
(S't\x06\x00\x00\x00Python'
tRp4417
I00
S'http://www.web2py.com/book/default/chapter/02'
p4418
tp4419
a(g3986
(S't\x08\x00\x00\x00Overview'
tRp4420
I00
S'http://www.web2py.com/book/default/chapter/03'
p4421
tp4422
a(g3986
(S's\x08\x00\x00\x00The Core'
tRp4423
I00
S'http://www.web2py.com/book/default/chapter/04'
p4424
tp4425
a(g3986
(S's\t\x00\x00\x00The Views'
tRp4426
I00
S'http://www.web2py.com/book/default/chapter/05'
p4427
tp4428
a(g3986
(S't\x08\x00\x00\x00Database'
tRp4429
I00
S'http://www.web2py.com/book/default/chapter/06'
p4430
tp4431
a(g3986
(S's\x14\x00\x00\x00Forms and Validators'
tRp4432
I00
S'http://www.web2py.com/book/default/chapter/07'
p4433
tp4434
a(g3986
(S's\r\x00\x00\x00Email and SMS'
tRp4435
I00
S'http://www.web2py.com/book/default/chapter/08'
p4436
tp4437
a(g3986
(S's\x0e\x00\x00\x00Access Control'
tRp4438
I00
S'http://www.web2py.com/book/default/chapter/09'
p4439
tp4440
a(g3986
(S't\x08\x00\x00\x00Services'
tRp4441
I00
S'http://www.web2py.com/book/default/chapter/10'
p4442
tp4443
a(g3986
(S's\x0c\x00\x00\x00Ajax Recipes'
tRp4444
I00
S'http://www.web2py.com/book/default/chapter/11'
p4445
tp4446
a(g3986
(S's\x16\x00\x00\x00Components and Plugins'
tRp4447
I00
S'http://www.web2py.com/book/default/chapter/12'
p4448
tp4449
a(g3986
(S's\x12\x00\x00\x00Deployment Recipes'
tRp4450
I00
S'http://www.web2py.com/book/default/chapter/13'
p4451
tp4452
a(g3986
(S's\r\x00\x00\x00Other Recipes'
tRp4453
I00
S'http://www.web2py.com/book/default/chapter/14'
p4454
tp4455
a(g3986
(S's\r\x00\x00\x00Buy this book'
tRp4456
I00
S'http://stores.lulu.com/web2py'
p4457
tp4458
aasbasbasbasbasbasbasbag49
(g65
g51
NtRp4459
(dp4460
g54
(dp4461
sg63
g4101
sg56
(lp4462
g49
(g70
g51
NtRp4463
(dp4464
g54
(dp4465
sg63
g4459
sg56
(lp4466
g49
(g50
g51
NtRp4467
(dp4468
g54
(dp4469
g62
I2
ssg63
g4463
sg56
(lp4470
g49
(g58
g51
NtRp4471
(dp4472
g54
(dp4473
g62
I1
ssg63
Nsg56
(lp4474
g49
(g65
g51
NtRp4475
(dp4476
g54
(dp4477
sg63
g4471
sg56
(lp4478
g49
(g70
g51
NtRp4479
(dp4480
g54
(dp4481
sg63
g4475
sg56
(lp4482
g49
(g50
g51
NtRp4483
(dp4484
g54
(dp4485
g62
I1
ssg63
g4479
sg56
(lp4486
g3986
(S't\t\x00\x00\x00Community'
tRp4487
asbasbasbag49
(g65
g51
NtRp4488
(dp4489
g54
(dp4490
sg63
g4471
sg56
(lp4491
g49
(g70
g51
NtRp4492
(dp4493
g54
(dp4494
sg63
g4488
sg56
(lp4495
g49
(g50
g51
NtRp4496
(dp4497
g54
(dp4498
g62
I1
ssg63
g4492
sg56
(lp4499
I00
asbasbasbag49
(g65
g51
NtRp4500
(dp4501
g54
(dp4502
sg63
g4471
sg56
(lp4503
g49
(g70
g51
NtRp4504
(dp4505
g54
(dp4506
sg63
g4500
sg56
(lp4507
g49
(g50
g51
NtRp4508
(dp4509
g54
(dp4510
g62
I1
ssg63
g4504
sg56
(lp4511
Nasbasbasbag49
(g65
g51
NtRp4512
(dp4513
g54
(dp4514
sg63
g4471
sg56
(lp4515
g49
(g70
g51
NtRp4516
(dp4517
g54
(dp4518
sg63
g4512
sg56
(lp4519
g49
(g50
g51
NtRp4520
(dp4521
g54
(dp4522
g62
I1
ssg63
g4516
sg56
(lp4523
(lp4524
(g3986
(S't\x06\x00\x00\x00Groups'
tRp4525
I00
S'http://www.web2py.com/examples/default/usergroups'
p4526
tp4527
a(g3986
(S't\x07\x00\x00\x00Twitter'
tRp4528
I00
S'http://twitter.com/web2py'
p4529
tp4530
a(g3986
(S's\t\x00\x00\x00Live Chat'
tRp4531
I00
S'http://webchat.freenode.net/?channels=web2py'
p4532
tp4533
aasbasbasbasbasbasbasbag49
(g65
g51
NtRp4534
(dp4535
g54
(dp4536
sg63
g4101
sg56
(lp4537
g49
(g70
g51
NtRp4538
(dp4539
g54
(dp4540
sg63
g4534
sg56
(lp4541
g49
(g50
g51
NtRp4542
(dp4543
g54
(dp4544
g62
I2
ssg63
g4538
sg56
(lp4545
g49
(g58
g51
NtRp4546
(dp4547
g54
(dp4548
g62
I1
ssg63
Nsg56
(lp4549
g49
(g65
g51
NtRp4550
(dp4551
g54
(dp4552
sg63
g4546
sg56
(lp4553
g49
(g70
g51
NtRp4554
(dp4555
g54
(dp4556
sg63
g4550
sg56
(lp4557
g49
(g50
g51
NtRp4558
(dp4559
g54
(dp4560
g62
I1
ssg63
g4554
sg56
(lp4561
g3986
(S't\x07\x00\x00\x00Plugins'
tRp4562
asbasbasbag49
(g65
g51
NtRp4563
(dp4564
g54
(dp4565
sg63
g4546
sg56
(lp4566
g49
(g70
g51
NtRp4567
(dp4568
g54
(dp4569
sg63
g4563
sg56
(lp4570
g49
(g50
g51
NtRp4571
(dp4572
g54
(dp4573
g62
I1
ssg63
g4567
sg56
(lp4574
I00
asbasbasbag49
(g65
g51
NtRp4575
(dp4576
g54
(dp4577
sg63
g4546
sg56
(lp4578
g49
(g70
g51
NtRp4579
(dp4580
g54
(dp4581
sg63
g4575
sg56
(lp4582
g49
(g50
g51
NtRp4583
(dp4584
g54
(dp4585
g62
I1
ssg63
g4579
sg56
(lp4586
Nasbasbasbag49
(g65
g51
NtRp4587
(dp4588
g54
(dp4589
sg63
g4546
sg56
(lp4590
g49
(g70
g51
NtRp4591
(dp4592
g54
(dp4593
sg63
g4587
sg56
(lp4594
g49
(g50
g51
NtRp4595
(dp4596
g54
(dp4597
g62
I1
ssg63
g4591
sg56
(lp4598
(lp4599
(S'plugin_wiki'
p4600
I00
S'http://web2py.com/examples/default/download'
p4601
tp4602
a(g3986
(S's\r\x00\x00\x00Other Plugins'
tRp4603
I00
g4333
tp4604
a(g3986
(S's\x0e\x00\x00\x00Layout Plugins'
tRp4605
I00
g4336
tp4606
aasbasbasbasbasbasbasbasbasbasbasbasbasbasbasbasbasbasbasbag49
(g65
g51
NtRp4607
(dp4608
g54
(dp4609
sg63
g3527
sg56
(lp4610
g49
(g70
g51
NtRp4611
(dp4612
g54
(dp4613
g74
g75
ssg63
g4607
sg56
(lp4614
S'meta'
p4615
asbag49
(g70
g51
NtRp4616
(dp4617
g54
(dp4618
g81
g82
ssg63
g4607
sg56
(lp4619
S':'
asbag49
(g70
g51
NtRp4620
(dp4621
g54
(dp4622
sg63
g4607
sg56
(lp4623
g49
(g50
g51
NtRp4624
(dp4625
g54
(dp4626
g62
I5
ssg63
g4620
sg56
(lp4627
g49
(g58
g51
NtRp4628
(dp4629
g54
(dp4630
g62
I4
ssg63
Nsg56
(lp4631
g49
(g65
g51
NtRp4632
(dp4633
g54
(dp4634
sg63
g4628
sg56
(lp4635
g49
(g70
g51
NtRp4636
(dp4637
g54
(dp4638
g74
g75
ssg63
g4632
sg56
(lp4639
S'author'
p4640
asbag49
(g70
g51
NtRp4641
(dp4642
g54
(dp4643
g81
g82
ssg63
g4632
sg56
(lp4644
S':'
asbag49
(g70
g51
NtRp4645
(dp4646
g54
(dp4647
sg63
g4632
sg56
(lp4648
g49
(g50
g51
NtRp4649
(dp4650
g54
(dp4651
g62
I4
ssg63
g4645
sg56
(lp4652
S'Your Name <you@example.com>'
p4653
asbasbasbag49
(g65
g51
NtRp4654
(dp4655
g54
(dp4656
sg63
g4628
sg56
(lp4657
g49
(g70
g51
NtRp4658
(dp4659
g54
(dp4660
g74
g75
ssg63
g4654
sg56
(lp4661
S'description'
p4662
asbag49
(g70
g51
NtRp4663
(dp4664
g54
(dp4665
g81
g82
ssg63
g4654
sg56
(lp4666
S':'
asbag49
(g70
g51
NtRp4667
(dp4668
g54
(dp4669
sg63
g4654
sg56
(lp4670
g49
(g50
g51
NtRp4671
(dp4672
g54
(dp4673
g62
I4
ssg63
g4667
sg56
(lp4674
S'a cool new app'
p4675
asbasbasbag49
(g65
g51
NtRp4676
(dp4677
g54
(dp4678
sg63
g4628
sg56
(lp4679
g49
(g70
g51
NtRp4680
(dp4681
g54
(dp4682
g74
g75
ssg63
g4676
sg56
(lp4683
S'generator'
p4684
asbag49
(g70
g51
NtRp4685
(dp4686
g54
(dp4687
g81
g82
ssg63
g4676
sg56
(lp4688
S':'
asbag49
(g70
g51
NtRp4689
(dp4690
g54
(dp4691
sg63
g4676
sg56
(lp4692
g49
(g50
g51
NtRp4693
(dp4694
g54
(dp4695
g62
I4
ssg63
g4689
sg56
(lp4696
S'Web2py Web Framework'
p4697
asbasbasbag49
(g65
g51
NtRp4698
(dp4699
g54
(dp4700
sg63
g4628
sg56
(lp4701
g49
(g70
g51
NtRp4702
(dp4703
g54
(dp4704
g74
g75
ssg63
g4698
sg56
(lp4705
S'keywords'
p4706
asbag49
(g70
g51
NtRp4707
(dp4708
g54
(dp4709
g81
g82
ssg63
g4698
sg56
(lp4710
S':'
asbag49
(g70
g51
NtRp4711
(dp4712
g54
(dp4713
sg63
g4698
sg56
(lp4714
g49
(g50
g51
NtRp4715
(dp4716
g54
(dp4717
g62
I4
ssg63
g4711
sg56
(lp4718
S'web2py, python, framework'
p4719
asbasbasbasbasbasbasbag49
(g65
g51
NtRp4720
(dp4721
g54
(dp4722
sg63
g3527
sg56
(lp4723
g49
(g70
g51
NtRp4724
(dp4725
g54
(dp4726
g74
g75
ssg63
g4720
sg56
(lp4727
S'models_to_run'
p4728
asbag49
(g70
g51
NtRp4729
(dp4730
g54
(dp4731
g81
g82
ssg63
g4720
sg56
(lp4732
S':'
asbag49
(g70
g51
NtRp4733
(dp4734
g54
(dp4735
sg63
g4720
sg56
(lp4736
g49
(g50
g51
NtRp4737
(dp4738
g54
(dp4739
g62
I5
ssg63
g4733
sg56
(lp4740
g49
(g58
g51
NtRp4741
(dp4742
g54
(dp4743
g62
I4
ssg63
Nsg56
(lp4744
g49
(g65
g51
NtRp4745
(dp4746
g54
(dp4747
sg63
g4741
sg56
(lp4748
g49
(g70
g51
NtRp4749
(dp4750
g54
(dp4751
sg63
g4745
sg56
(lp4752
g49
(g50
g51
NtRp4753
(dp4754
g54
(dp4755
g62
I4
ssg63
g4749
sg56
(lp4756
S'^\\w+\\.py$'
p4757
asbasbasbag49
(g65
g51
NtRp4758
(dp4759
g54
(dp4760
sg63
g4741
sg56
(lp4761
g49
(g70
g51
NtRp4762
(dp4763
g54
(dp4764
sg63
g4758
sg56
(lp4765
g49
(g50
g51
NtRp4766
(dp4767
g54
(dp4768
g62
I4
ssg63
g4762
sg56
(lp4769
S'^default/\\w+\\.py$'
p4770
asbasbasbag49
(g65
g51
NtRp4771
(dp4772
g54
(dp4773
sg63
g4741
sg56
(lp4774
g49
(g70
g51
NtRp4775
(dp4776
g54
(dp4777
sg63
g4771
sg56
(lp4778
g49
(g50
g51
NtRp4779
(dp4780
g54
(dp4781
g62
I4
ssg63
g4775
sg56
(lp4782
S'^default/show_image_comments/\\w+\\.py$'
p4783
asbasbasbasbasbasbasbag49
(g65
g51
NtRp4784
(dp4785
g54
(dp4786
sg63
g3527
sg56
(lp4787
g49
(g70
g51
NtRp4788
(dp4789
g54
(dp4790
g74
g75
ssg63
g4784
sg56
(lp4791
S'postprocessing'
p4792
asbag49
(g70
g51
NtRp4793
(dp4794
g54
(dp4795
g81
g82
ssg63
g4784
sg56
(lp4796
S':'
asbag49
(g70
g51
NtRp4797
(dp4798
g54
(dp4799
sg63
g4784
sg56
(lp4800
g49
(g50
g51
NtRp4801
(dp4802
g54
(dp4803
g62
I5
ssg63
g4797
sg56
(lp4804
g49
(g58
g51
NtRp4805
(dp4806
g54
(dp4807
g62
I4
ssg63
Nsg56
(lp4808
sbasbasbasbag49
(g65
g51
NtRp4809
(dp4810
g54
(dp4811
sg63
g3527
sg56
(lp4812
g49
(g70
g51
NtRp4813
(dp4814
g54
(dp4815
g74
g75
ssg63
g4809
sg56
(lp4816
S'session_cookie_expires'
p4817
asbag49
(g70
g51
NtRp4818
(dp4819
g54
(dp4820
g81
g82
ssg63
g4809
sg56
(lp4821
S':'
asbag49
(g70
g51
NtRp4822
(dp4823
g54
(dp4824
sg63
g4809
sg56
(lp4825
g49
(g50
g51
NtRp4826
(dp4827
g54
(dp4828
g62
I5
ssg63
g4822
sg56
(lp4829
S'None'
p4830
asbasbasbag49
(g65
g51
NtRp4831
(dp4832
g54
(dp4833
sg63
g3527
sg56
(lp4834
g49
(g70
g51
NtRp4835
(dp4836
g54
(dp4837
g74
g75
ssg63
g4831
sg56
(lp4838
S'session_data_name'
p4839
asbag49
(g70
g51
NtRp4840
(dp4841
g54
(dp4842
g81
g82
ssg63
g4831
sg56
(lp4843
S':'
asbag49
(g70
g51
NtRp4844
(dp4845
g54
(dp4846
sg63
g4831
sg56
(lp4847
g49
(g50
g51
NtRp4848
(dp4849
g54
(dp4850
g62
I5
ssg63
g4844
sg56
(lp4851
S'session_data_final_impulse'
p4852
asbasbasbag49
(g65
g51
NtRp4853
(dp4854
g54
(dp4855
sg63
g3527
sg56
(lp4856
g49
(g70
g51
NtRp4857
(dp4858
g54
(dp4859
g74
g75
ssg63
g4853
sg56
(lp4860
S'session_filename'
p4861
asbag49
(g70
g51
NtRp4862
(dp4863
g54
(dp4864
g81
g82
ssg63
g4853
sg56
(lp4865
S':'
asbag49
(g70
g51
NtRp4866
(dp4867
g54
(dp4868
sg63
g4853
sg56
(lp4869
g49
(g50
g51
NtRp4870
(dp4871
g54
(dp4872
g62
I5
ssg63
g4866
sg56
(lp4873
S'/Users/abaric/Downloads/web2py/web2py.app/Contents/Resources/applications/Final_Impulse/sessions/127.0.0.1-dca90485-55cd-4917-817c-ab5e848b766c'
p4874
asbasbasbag49
(g65
g51
NtRp4875
(dp4876
g54
(dp4877
sg63
g3527
sg56
(lp4878
g49
(g70
g51
NtRp4879
(dp4880
g54
(dp4881
g74
g75
ssg63
g4875
sg56
(lp4882
S'session_id'
p4883
asbag49
(g70
g51
NtRp4884
(dp4885
g54
(dp4886
g81
g82
ssg63
g4875
sg56
(lp4887
S':'
asbag49
(g70
g51
NtRp4888
(dp4889
g54
(dp4890
sg63
g4875
sg56
(lp4891
g49
(g50
g51
NtRp4892
(dp4893
g54
(dp4894
g62
I5
ssg63
g4888
sg56
(lp4895
g3597
asbasbasbag49
(g65
g51
NtRp4896
(dp4897
g54
(dp4898
sg63
g3527
sg56
(lp4899
g49
(g70
g51
NtRp4900
(dp4901
g54
(dp4902
g74
g75
ssg63
g4896
sg56
(lp4903
S'session_id_name'
p4904
asbag49
(g70
g51
NtRp4905
(dp4906
g54
(dp4907
g81
g82
ssg63
g4896
sg56
(lp4908
S':'
asbag49
(g70
g51
NtRp4909
(dp4910
g54
(dp4911
sg63
g4896
sg56
(lp4912
g49
(g50
g51
NtRp4913
(dp4914
g54
(dp4915
g62
I5
ssg63
g4909
sg56
(lp4916
g3584
asbasbasbag49
(g65
g51
NtRp4917
(dp4918
g54
(dp4919
sg63
g3527
sg56
(lp4920
g49
(g70
g51
NtRp4921
(dp4922
g54
(dp4923
g74
g75
ssg63
g4917
sg56
(lp4924
S'session_new'
p4925
asbag49
(g70
g51
NtRp4926
(dp4927
g54
(dp4928
g81
g82
ssg63
g4917
sg56
(lp4929
S':'
asbag49
(g70
g51
NtRp4930
(dp4931
g54
(dp4932
sg63
g4917
sg56
(lp4933
g49
(g50
g51
NtRp4934
(dp4935
g54
(dp4936
g62
I5
ssg63
g4930
sg56
(lp4937
g2031
asbasbasbag49
(g65
g51
NtRp4938
(dp4939
g54
(dp4940
sg63
g3527
sg56
(lp4941
g49
(g70
g51
NtRp4942
(dp4943
g54
(dp4944
g74
g75
ssg63
g4938
sg56
(lp4945
S'session_storage_type'
p4946
asbag49
(g70
g51
NtRp4947
(dp4948
g54
(dp4949
g81
g82
ssg63
g4938
sg56
(lp4950
S':'
asbag49
(g70
g51
NtRp4951
(dp4952
g54
(dp4953
sg63
g4938
sg56
(lp4954
g49
(g50
g51
NtRp4955
(dp4956
g54
(dp4957
g62
I5
ssg63
g4951
sg56
(lp4958
g3462
asbasbasbag49
(g65
g51
NtRp4959
(dp4960
g54
(dp4961
sg63
g3527
sg56
(lp4962
g49
(g70
g51
NtRp4963
(dp4964
g54
(dp4965
g74
g75
ssg63
g4959
sg56
(lp4966
S'status'
p4967
asbag49
(g70
g51
NtRp4968
(dp4969
g54
(dp4970
g81
g82
ssg63
g4959
sg56
(lp4971
S':'
asbag49
(g70
g51
NtRp4972
(dp4973
g54
(dp4974
sg63
g4959
sg56
(lp4975
g49
(g50
g51
NtRp4976
(dp4977
g54
(dp4978
g62
I5
ssg63
g4972
sg56
(lp4979
S'200'
p4980
asbasbasbag49
(g65
g51
NtRp4981
(dp4982
g54
(dp4983
sg63
g3527
sg56
(lp4984
g49
(g70
g51
NtRp4985
(dp4986
g54
(dp4987
g74
g75
ssg63
g4981
sg56
(lp4988
S'subtitle'
p4989
asbag49
(g70
g51
NtRp4990
(dp4991
g54
(dp4992
g81
g82
ssg63
g4981
sg56
(lp4993
S':'
asbag49
(g70
g51
NtRp4994
(dp4995
g54
(dp4996
sg63
g4981
sg56
(lp4997
g49
(g50
g51
NtRp4998
(dp4999
g54
(dp5000
g62
I5
ssg63
g4994
sg56
(lp5001
g3986
(S's\r\x00\x00\x00customize me!'
tRp5002
asbasbasbag49
(g65
g51
NtRp5003
(dp5004
g54
(dp5005
sg63
g3527
sg56
(lp5006
g49
(g70
g51
NtRp5007
(dp5008
g54
(dp5009
g74
g75
ssg63
g5003
sg56
(lp5010
S'title'
p5011
asbag49
(g70
g51
NtRp5012
(dp5013
g54
(dp5014
g81
g82
ssg63
g5003
sg56
(lp5015
S':'
asbag49
(g70
g51
NtRp5016
(dp5017
g54
(dp5018
sg63
g5003
sg56
(lp5019
g49
(g50
g51
NtRp5020
(dp5021
g54
(dp5022
g62
I5
ssg63
g5016
sg56
(lp5023
S'Final Impulse'
p5024
asbasbasbag49
(g65
g51
NtRp5025
(dp5026
g54
(dp5027
sg63
g3527
sg56
(lp5028
g49
(g70
g51
NtRp5029
(dp5030
g54
(dp5031
g74
g75
ssg63
g5025
sg56
(lp5032
S'view'
p5033
asbag49
(g70
g51
NtRp5034
(dp5035
g54
(dp5036
g81
g82
ssg63
g5025
sg56
(lp5037
S':'
asbag49
(g70
g51
NtRp5038
(dp5039
g54
(dp5040
sg63
g5025
sg56
(lp5041
g49
(g50
g51
NtRp5042
(dp5043
g54
(dp5044
g62
I5
ssg63
g5038
sg56
(lp5045
S'default/show_image_comments.html'
p5046
asbasbasbasbasbsS'locals'
p5047
(dp5048
S'image_form'
p5049
S'<gluon.sqlhtml.SQLFORM object at 0x8c543b0>'
p5050
sssS'traceback'
p5051
S'Traceback (most recent call last):\n  File "gluon/restricted.py", line 212, in restricted\n  File "/Users/abaric/Downloads/web2py/web2py.app/Contents/Resources/applications/Final_Impulse/controllers/default.py", line 181, in <module>\n  File "gluon/globals.py", line 188, in <lambda>\n  File "/Users/abaric/Downloads/web2py/web2py.app/Contents/Resources/applications/Final_Impulse/controllers/default.py", line 24, in show_image_comments\nAttributeError: \'NoneType\' object has no attribute \'id\'\n'
p5052
s.