(dp1
S'output'
p2
S"<type 'exceptions.NameError'> name 'writing' is not defined"
p3
sS'layer'
p4
S'/Users/abaric/Downloads/web2py/web2py.app/Contents/Resources/applications/Final_Impulse/views/default/show_image_comments.html'
p5
sS'code'
p6
S'response.write(\'<!DOCTYPE html>\\n<!-- paulirish.com/2008/conditional-stylesheets-vs-css-hacks-answer-neither/ -->\\n<!--[if lt IE 7]><html class="ie ie6 ie-lte9 ie-lte8 ie-lte7 no-js" lang="\', escape=False)\nresponse.write(T.accepted_language or \'en\')\nresponse.write(\'"> <![endif]-->\\n<!--[if IE 7]><html class="ie ie7 ie-lte9 ie-lte8 ie-lte7 no-js" lang="\', escape=False)\nresponse.write(T.accepted_language or \'en\')\nresponse.write(\'"> <![endif]-->\\n<!--[if IE 8]><html class="ie ie8 ie-lte9 ie-lte8 no-js" lang="\', escape=False)\nresponse.write(T.accepted_language or \'en\')\nresponse.write(\'"> <![endif]-->\\n<!--[if IE 9]><html class="ie9 ie-lte9 no-js" lang="\', escape=False)\nresponse.write(T.accepted_language or \'en\')\nresponse.write(\'"> <![endif]-->\\n<!--[if (gt IE 9)|!(IE)]><!--> <html class="no-js" lang="\', escape=False)\nresponse.write(T.accepted_language or \'en\')\nresponse.write(\'"> <!--<![endif]-->\\n<head>\\n  <meta charset="utf-8" />\\n  <!-- www.phpied.com/conditional-comments-block-downloads/ -->\\n  <!-- Always force latest IE rendering engine\\n       (even in intranet) & Chrome Frame\\n       Remove this if you use the .htaccess -->\\n  <!--[if IE]>\\n      <meta http-equiv="X-UA-Compatible" content="IE=edge\', escape=False)\nresponse.write(not request.is_local and \',chrome=1\' or \'\')\nresponse.write(\'">\\n      <![endif]-->\\n\\n  <title>\', escape=False)\nresponse.write(response.title or request.application)\nresponse.write(\'</title>\\n\\n  <!-- http://dev.w3.org/html5/markup/meta.name.html -->\\n  <meta name="application-name" content="\', escape=False)\nresponse.write(request.application)\nresponse.write(\'" />\\n\\n  <!-- Speaking of Google, don\\\'t forget to set your site up:\\n       http://google.com/webmasters -->\\n  <meta name="google-site-verification" content="" />\\n\\n  <!--  Mobile Viewport Fix\\n        j.mp/mobileviewport & davidbcalhoun.com/2010/viewport-metatag\\n        device-width: Occupy full width of the screen in its current orientation\\n        initial-scale = 1.0 retains dimensions instead of zooming out if page height > device height\\n        user-scalable = yes allows the user to zoom in -->\\n  <meta name="viewport" content="width=device-width, initial-scale=1.0">\\n\\n  <link rel="shortcut icon" href="\', escape=False)\nresponse.write(URL(\'static\',\'images/favicon.ico\'))\nresponse.write(\'" type="image/x-icon">\\n  <link rel="apple-touch-icon" href="\', escape=False)\nresponse.write(URL(\'static\',\'images/favicon.png\'))\nresponse.write(\'">\\n\\n  <!-- All JavaScript at the bottom, except for Modernizr which enables\\n       HTML5 elements & feature detects -->\\n  <script src="\', escape=False)\nresponse.write(URL(\'static\',\'js/modernizr.custom.js\'))\nresponse.write(\'"></script>\\n\\n  <!-- include stylesheets -->\\n  \', escape=False)\nresponse.files.append(URL(\'static\',\'css/web2py.css\'))\nresponse.files.append(URL(\'static\',\'css/bootstrap.min.css\'))\nresponse.files.append(URL(\'static\',\'css/bootstrap-responsive.min.css\'))\nresponse.files.append(URL(\'static\',\'css/web2py_bootstrap.css\'))\nresponse.write(\'\\n\\n  \', escape=False)\nresponse.write(\'<script type="text/javascript"><!--\\n    // These variables are used by the web2py_ajax_init function in web2py_ajax.js (which is loaded below).\\n    var w2p_ajax_confirm_message = "\', escape=False)\nresponse.write(T(\'Are you sure you want to delete this object?\'))\nresponse.write(\'";\\n    var w2p_ajax_date_format = "\', escape=False)\nresponse.write(T(\'%Y-%m-%d\'))\nresponse.write(\'";\\n    var w2p_ajax_datetime_format = "\', escape=False)\nresponse.write(T(\'%Y-%m-%d %H:%M:%S\'))\nresponse.write(\'";\\n    //--></script>\\n\', escape=False)\nresponse.files.insert(0,URL(\'static\',\'js/jquery.js\'))\nresponse.files.insert(1,URL(\'static\',\'css/calendar.css\'))\nresponse.files.insert(2,URL(\'static\',\'js/calendar.js\'))\nresponse.files.insert(3,URL(\'static\',\'js/web2py.js\'))\nresponse.include_meta()\nresponse.include_files()\nresponse.write(\'\\n\', escape=False)\nresponse.write(\'\\n\\n  \', escape=False)\n# using sidebars need to know what sidebar you want to use\nleft_sidebar_enabled = globals().get(\'left_sidebar_enabled\',False)\nright_sidebar_enabled = globals().get(\'right_sidebar_enabled\',False)\nmiddle_columns = {0:\'span12\',1:\'span9\',2:\'span6\'}[\n(left_sidebar_enabled and 1 or 0)+(right_sidebar_enabled and 1 or 0)]\nresponse.write(\'\\n\\n  <!-- uncomment here to load jquery-ui\\n       <link rel="stylesheet" href="http://ajax.googleapis.com/ajax/libs/jqueryui/1.8.16/themes/base/jquery-ui.css" type="text/css" media="all" />\\n       <script src="http://ajax.googleapis.com/ajax/libs/jqueryui/1.8.16/jquery-ui.min.js" type="text/javascript"></script>\\n       uncomment to load jquery-ui //-->\\n  <noscript><link href="\', escape=False)\nresponse.write(URL(\'static\', \'css/web2py_bootstrap_nojs.css\'))\nresponse.write(\'" rel="stylesheet" type="text/css" /></noscript>\\n  \', escape=False)\nresponse.write(\'\\n</head>\\n\\n<body>\\n  <!-- Navbar ================================================== -->\\n  <div class="navbar navbar-inverse navbar-fixed-top">\\n    <div class="flash">\', escape=False)\nresponse.write(response.flash or \'\')\nresponse.write(\'</div>\\n    <div class="navbar-inner">\\n      <div class="container">\\n        <!-- the next tag is necessary for bootstrap menus, do not remove -->\\n        <button type="button" class="btn btn-navbar" data-toggle="collapse" data-target=".nav-collapse">\\n          <span class="icon-bar"></span>\\n          <span class="icon-bar"></span>\\n          <span class="icon-bar"></span>\\n        </button>\\n        <a class="brand" href="http://www.web2py.com/"><b>web<span>2</span>py</b>&trade;&nbsp;</a>\\n        <ul id="navbar" class="nav pull-right">\', escape=False)\nresponse.write(\'auth\' in globals() and auth.navbar(mode="dropdown") or \'\')\nresponse.write(\'</ul>\\n        <div class="nav-collapse">\\n          \', escape=False)\nis_mobile=request.user_agent().is_mobile\nresponse.write(\'\\n          \', escape=False)\nif response.menu:\n    response.write(\'\\n          \', escape=False)\n    response.write(MENU(response.menu, _class=\'mobile-menu nav\' if is_mobile else \'nav\',mobile=is_mobile,li_class=\'dropdown\',ul_class=\'dropdown-menu\'))\n    response.write(\'\\n          \', escape=False)\n    pass\nresponse.write(\'\\n        </div><!--/.nav-collapse -->\\n      </div>\\n    </div>\\n  </div><!--/top navbar -->\\n\\n  <div class="container">\\n    <!-- Masthead ================================================== -->\\n    <header class="mastheader row" id="header">\\n        <div class="span12">\\n            <div class="page-header">\\n                <h1>\\n                    \', escape=False)\nresponse.write(response.title or request.application)\nresponse.write(\'\\n                    <small>\', escape=False)\nresponse.write(response.subtitle or \'\')\nresponse.write(\'</small>\\n                </h1>\\n            </div>\\n        </div>\\n    </header>\\n\\n    <section id="main" class="main row">\\n        \', escape=False)\nif left_sidebar_enabled:\n    response.write(\'\\n        <div class="span3 left-sidebar">\\n            \', escape=False)\n    response.write(\'\\n            <h3>Left Sidebar</h3>\\n            <p></p>\\n            \', escape=False)\n    response.write(\'\\n        </div>\\n        \', escape=False)\n    pass\nresponse.write(\'\\n\\n        <div class="\', escape=False)\nresponse.write(middle_columns)\nresponse.write(\'">\\n            \', escape=False)\nresponse.write(\'\\n            \', escape=False)\nresponse.write("\\n\\n<h1>Da Image Posts</h1>\\n\\n<table width-\'100%\' border=\'1\'>\\n    ", escape=False)\nfor image in images:\n    response.write(\'\\n\\t<tr>    \\n          <td><center><img width="200px"\\n              src="\', escape=False)\n    response.write(URL(\'download\', args=image.file))\n    response.write(\'"/></center></td>\\n    </tr> \\n          \\n        \', escape=False)\n    if len(d[image.id]):\n        response.write("\\n        <tr>\\n        <td>\\n        <table width=\'100%\'>\\n            ", escape=False)\n        for t in d[image.id]:\n            response.write(\'\\n                        <tr>\\n                        \\n                            <td><center>\', escape=False)\n            response.write(("%s says, \'%s\'")%(t[0],t[1]))\n            response.write(\'</center></td>\\n                        \\n                        </tr>\\n            \', escape=False)\n            pass\n        response.write(\'\\n        </table>\\n        \\n        \\n        <table width=\\\'100%\\\'>\\n            <tr>\\n          \\t\\t\\t<form enctype="multipart/form-data" action="\', escape=False)\n        response.write(URL(\'insert_image_comment\',args=(writing.id)))\n        response.write(\'" method="post"> \\n                        <td><center><input name="image_comment" type="text"></center></td>\\n                        <td><center><input formmethod="post" name="commentform" type="submit"><br></center></td>\\n          \\t\\t\\t</form>\\n           </tr>\\n       </table>\\n        \\n     </td>\\n     </tr>\\n\\n         \', escape=False)\n        pass\n    response.write(\'\\n    \', escape=False)\n    pass\nresponse.write(\' \\n    \\n</table>\\n\', escape=False)\nresponse.write(\'\\n            \', escape=False)\nresponse.write(\'\\n        </div>\\n\\n        \', escape=False)\nif right_sidebar_enabled:\n    response.write(\'\\n        <div class="span3">\\n            \', escape=False)\n    response.write(\'\\n            <h3>Right Sidebar</h3>\\n            <p></p>\\n            \', escape=False)\n    response.write(\'\\n        </div>\\n        \', escape=False)\n    pass\nresponse.write(\'\\n    </section><!--/main-->\\n\\n    <!-- Footer ================================================== -->\\n    <div class="row">\\n        <footer class="footer span12" id="footer">\\n            <div class="footer-content">\\n                \', escape=False)\nresponse.write(\' <!-- this is default footer -->\\n                <div class="copyright pull-left">\', escape=False)\nresponse.write(T(\'Copyright\'))\nresponse.write(\' &#169; \', escape=False)\nresponse.write(request.now.year)\nresponse.write(\'</div>\\n                <div id="poweredBy" class="pull-right">\\n                    \', escape=False)\nresponse.write(T(\'Powered by\'))\nresponse.write(\'\\n                    <a href="http://www.web2py.com/">web2py</a>\\n                </div>\\n                \', escape=False)\nresponse.write(\'\\n            </div>\\n        </footer>\\n    </div>\\n\\n  </div> <!-- /container -->\\n\\n  <!-- The javascript =============================================\\n       (Placed at the end of the document so the pages load faster) -->\\n  <script src="\', escape=False)\nresponse.write(URL(\'static\',\'js/bootstrap.min.js\'))\nresponse.write(\'"></script>\\n  <script src="\', escape=False)\nresponse.write(URL(\'static\',\'js/web2py_bootstrap.js\'))\nresponse.write(\'"></script>\\n  <!--[if lt IE 7 ]>\\n      <script src="\', escape=False)\nresponse.write(URL(\'static\',\'js/dd_belatedpng.js\'))\nresponse.write(\'"></script>\\n      <script> DD_belatedPNG.fix(\\\'img, .png_bg\\\'); //fix any <img> or .png_bg background-images </script>\\n      <![endif]-->\\n  \', escape=False)\nif response.google_analytics_id:\n    response.write(\'<script type="text/javascript"> var _gaq = _gaq || []; _gaq.push([\\\'_setAccount\\\', \\\'\', escape=False)\n    response.write(response.google_analytics_id)\n    response.write("\']); _gaq.push([\'_trackPageview\']); (function() { var ga = document.createElement(\'script\'); ga.type = \'text/javascript\'; ga.async = true; ga.src = (\'https:\' == document.location.protocol ? \'https://ssl\' : \'http://www\') + \'.google-analytics.com/ga.js\'; var s = document.getElementsByTagName(\'script\')[0]; s.parentNode.insertBefore(ga, s); })(); </script> ", escape=False)\n    pass\nresponse.write(\'\\n  <script src="\', escape=False)\nresponse.write(URL(\'static\',\'js/share.js\',vars=dict(static=URL(\'static\',\'images\'))))\nresponse.write(\'"></script>\\n</body>\\n</html>\\n\\n<style>\\nbody { background: url(\\\'images/background.png\\\') repeat-x #E5E4E2; }\\na { color: #0C090A; }\\n.header h1 { color: #0C090A; }\\n.header h2 { color: white; font-style: italic; font-size: 14px;}\\n.statusbar { background: #333333; border-bottom: 5px #349C01 solid; }\\n.statusbar a { color: white; }\\n.footer { border-top: 5px #349C01 solid; }\\n</style>\\n\', escape=False)'
p7
sS'snapshot'
p8
(dp9
S'exception'
p10
(dp11
S'__hash__'
p12
S"<method-wrapper '__hash__' of exceptions.NameError object at 0x8e7c0f8>"
p13
sS'__setattr__'
p14
S"<method-wrapper '__setattr__' of exceptions.NameError object at 0x8e7c0f8>"
p15
sS'__reduce_ex__'
p16
S'<built-in method __reduce_ex__ of exceptions.NameError object at 0x8e7c0f8>'
p17
sS'__getslice__'
p18
S"<method-wrapper '__getslice__' of exceptions.NameError object at 0x8e7c0f8>"
p19
sS'__getitem__'
p20
S"<method-wrapper '__getitem__' of exceptions.NameError object at 0x8e7c0f8>"
p21
sS'__setstate__'
p22
S'<built-in method __setstate__ of exceptions.NameError object at 0x8e7c0f8>'
p23
sS'__reduce__'
p24
S'<built-in method __reduce__ of exceptions.NameError object at 0x8e7c0f8>'
p25
sS'__str__'
p26
S"<method-wrapper '__str__' of exceptions.NameError object at 0x8e7c0f8>"
p27
sS'args'
p28
S'("name \'writing\' is not defined",)'
p29
sS'__getattribute__'
p30
S"<method-wrapper '__getattribute__' of exceptions.NameError object at 0x8e7c0f8>"
p31
sS'__class__'
p32
S"<type 'exceptions.NameError'>"
p33
sS'__delattr__'
p34
S"<method-wrapper '__delattr__' of exceptions.NameError object at 0x8e7c0f8>"
p35
sS'__repr__'
p36
S"<method-wrapper '__repr__' of exceptions.NameError object at 0x8e7c0f8>"
p37
sS'__dict__'
p38
S'{}'
p39
sS'__doc__'
p40
S"'Name not found globally.'"
p41
sS'__init__'
p42
S"<method-wrapper '__init__' of exceptions.NameError object at 0x8e7c0f8>"
p43
sS'__new__'
p44
S'<built-in method __new__ of type object at 0x5f9640>'
p45
ssS'evalue'
p46
S"name 'writing' is not defined"
p47
sS'request'
p48
ccopy_reg
_reconstructor
p49
(cgluon.html
BEAUTIFY
p50
c__builtin__
object
p51
NtRp52
(dp53
S'attributes'
p54
(dp55
sS'components'
p56
(lp57
g49
(cgluon.html
TABLE
p58
g51
NtRp59
(dp60
g54
(dp61
S'level'
p62
I5
ssS'parent'
p63
Nsg56
(lp64
g49
(cgluon.html
TR
p65
g51
NtRp66
(dp67
g54
(dp68
sg63
g59
sg56
(lp69
g49
(cgluon.html
TD
p70
g51
NtRp71
(dp72
g54
(dp73
S'_style'
p74
S'font-weight:bold;vertical-align:top'
p75
ssg63
g66
sg56
(lp76
S'ajax'
p77
asbag49
(g70
g51
NtRp78
(dp79
g54
(dp80
S'_valign'
p81
S'top'
p82
ssg63
g66
sg56
(lp83
S':'
asbag49
(g70
g51
NtRp84
(dp85
g54
(dp86
sg63
g66
sg56
(lp87
g49
(g50
g51
NtRp88
(dp89
g54
(dp90
g62
I5
ssg63
g84
sg56
(lp91
S'False'
p92
asbasbasbag49
(g65
g51
NtRp93
(dp94
g54
(dp95
sg63
g59
sg56
(lp96
g49
(g70
g51
NtRp97
(dp98
g54
(dp99
g74
g75
ssg63
g93
sg56
(lp100
S'application'
p101
asbag49
(g70
g51
NtRp102
(dp103
g54
(dp104
g81
g82
ssg63
g93
sg56
(lp105
S':'
asbag49
(g70
g51
NtRp106
(dp107
g54
(dp108
sg63
g93
sg56
(lp109
g49
(g50
g51
NtRp110
(dp111
g54
(dp112
g62
I5
ssg63
g106
sg56
(lp113
S'Final_Impulse'
p114
asbasbasbag49
(g65
g51
NtRp115
(dp116
g54
(dp117
sg63
g59
sg56
(lp118
g49
(g70
g51
NtRp119
(dp120
g54
(dp121
g74
g75
ssg63
g115
sg56
(lp122
g28
asbag49
(g70
g51
NtRp123
(dp124
g54
(dp125
g81
g82
ssg63
g115
sg56
(lp126
S':'
asbag49
(g70
g51
NtRp127
(dp128
g54
(dp129
sg63
g115
sg56
(lp130
g49
(g50
g51
NtRp131
(dp132
g54
(dp133
g62
I5
ssg63
g127
sg56
(lp134
g49
(g58
g51
NtRp135
(dp136
g54
(dp137
g62
I4
ssg63
Nsg56
(lp138
sbasbasbasbag49
(g65
g51
NtRp139
(dp140
g54
(dp141
sg63
g59
sg56
(lp142
g49
(g70
g51
NtRp143
(dp144
g54
(dp145
g74
g75
ssg63
g139
sg56
(lp146
S'body'
p147
asbag49
(g70
g51
NtRp148
(dp149
g54
(dp150
g81
g82
ssg63
g139
sg56
(lp151
S':'
asbag49
(g70
g51
NtRp152
(dp153
g54
(dp154
sg63
g139
sg56
(lp155
g49
(g50
g51
NtRp156
(dp157
g54
(dp158
g62
I5
ssg63
g152
sg56
(lp159
S'<cStringIO.StringO object at 0x8e93fc0>'
p160
asbasbasbag49
(g65
g51
NtRp161
(dp162
g54
(dp163
sg63
g59
sg56
(lp164
g49
(g70
g51
NtRp165
(dp166
g54
(dp167
g74
g75
ssg63
g161
sg56
(lp168
S'cid'
p169
asbag49
(g70
g51
NtRp170
(dp171
g54
(dp172
g81
g82
ssg63
g161
sg56
(lp173
S':'
asbag49
(g70
g51
NtRp174
(dp175
g54
(dp176
sg63
g161
sg56
(lp177
g49
(g50
g51
NtRp178
(dp179
g54
(dp180
g62
I5
ssg63
g174
sg56
(lp181
S'None'
p182
asbasbasbag49
(g65
g51
NtRp183
(dp184
g54
(dp185
sg63
g59
sg56
(lp186
g49
(g70
g51
NtRp187
(dp188
g54
(dp189
g74
g75
ssg63
g183
sg56
(lp190
S'client'
p191
asbag49
(g70
g51
NtRp192
(dp193
g54
(dp194
g81
g82
ssg63
g183
sg56
(lp195
S':'
asbag49
(g70
g51
NtRp196
(dp197
g54
(dp198
sg63
g183
sg56
(lp199
g49
(g50
g51
NtRp200
(dp201
g54
(dp202
g62
I5
ssg63
g196
sg56
(lp203
S'127.0.0.1'
p204
asbasbasbag49
(g65
g51
NtRp205
(dp206
g54
(dp207
sg63
g59
sg56
(lp208
g49
(g70
g51
NtRp209
(dp210
g54
(dp211
g74
g75
ssg63
g205
sg56
(lp212
S'controller'
p213
asbag49
(g70
g51
NtRp214
(dp215
g54
(dp216
g81
g82
ssg63
g205
sg56
(lp217
S':'
asbag49
(g70
g51
NtRp218
(dp219
g54
(dp220
sg63
g205
sg56
(lp221
g49
(g50
g51
NtRp222
(dp223
g54
(dp224
g62
I5
ssg63
g218
sg56
(lp225
S'default'
p226
asbasbasbag49
(g65
g51
NtRp227
(dp228
g54
(dp229
sg63
g59
sg56
(lp230
g49
(g70
g51
NtRp231
(dp232
g54
(dp233
g74
g75
ssg63
g227
sg56
(lp234
S'cookies'
p235
asbag49
(g70
g51
NtRp236
(dp237
g54
(dp238
g81
g82
ssg63
g227
sg56
(lp239
S':'
asbag49
(g70
g51
NtRp240
(dp241
g54
(dp242
sg63
g227
sg56
(lp243
g49
(g50
g51
NtRp244
(dp245
g54
(dp246
g62
I5
ssg63
g240
sg56
(lp247
g49
(g58
g51
NtRp248
(dp249
g54
(dp250
g62
I4
ssg63
Nsg56
(lp251
g49
(g65
g51
NtRp252
(dp253
g54
(dp254
sg63
g248
sg56
(lp255
g49
(g70
g51
NtRp256
(dp257
g54
(dp258
g74
g75
ssg63
g252
sg56
(lp259
S'session_id_admin'
p260
asbag49
(g70
g51
NtRp261
(dp262
g54
(dp263
g81
g82
ssg63
g252
sg56
(lp264
S':'
asbag49
(g70
g51
NtRp265
(dp266
g54
(dp267
sg63
g252
sg56
(lp268
g49
(g50
g51
NtRp269
(dp270
g54
(dp271
g62
I4
ssg63
g265
sg56
(lp272
S'127.0.0.1-0ba3c38c-2343-4ee4-b45e-2a129ee8fadd'
p273
ag49
(g58
g51
NtRp274
(dp275
g54
(dp276
g62
I3
ssg63
Nsg56
(lp277
g49
(g65
g51
NtRp278
(dp279
g54
(dp280
sg63
g274
sg56
(lp281
g49
(g70
g51
NtRp282
(dp283
g54
(dp284
g74
g75
ssg63
g278
sg56
(lp285
S'comment'
p286
asbag49
(g70
g51
NtRp287
(dp288
g54
(dp289
g81
g82
ssg63
g278
sg56
(lp290
S':'
asbag49
(g70
g51
NtRp291
(dp292
g54
(dp293
sg63
g278
sg56
(lp294
g49
(g50
g51
NtRp295
(dp296
g54
(dp297
g62
I3
ssg63
g291
sg56
(lp298
S''
asbasbasbag49
(g65
g51
NtRp299
(dp300
g54
(dp301
sg63
g274
sg56
(lp302
g49
(g70
g51
NtRp303
(dp304
g54
(dp305
g74
g75
ssg63
g299
sg56
(lp306
S'domain'
p307
asbag49
(g70
g51
NtRp308
(dp309
g54
(dp310
g81
g82
ssg63
g299
sg56
(lp311
S':'
asbag49
(g70
g51
NtRp312
(dp313
g54
(dp314
sg63
g299
sg56
(lp315
g49
(g50
g51
NtRp316
(dp317
g54
(dp318
g62
I3
ssg63
g312
sg56
(lp319
S''
asbasbasbag49
(g65
g51
NtRp320
(dp321
g54
(dp322
sg63
g274
sg56
(lp323
g49
(g70
g51
NtRp324
(dp325
g54
(dp326
g74
g75
ssg63
g320
sg56
(lp327
S'expires'
p328
asbag49
(g70
g51
NtRp329
(dp330
g54
(dp331
g81
g82
ssg63
g320
sg56
(lp332
S':'
asbag49
(g70
g51
NtRp333
(dp334
g54
(dp335
sg63
g320
sg56
(lp336
g49
(g50
g51
NtRp337
(dp338
g54
(dp339
g62
I3
ssg63
g333
sg56
(lp340
S''
asbasbasbag49
(g65
g51
NtRp341
(dp342
g54
(dp343
sg63
g274
sg56
(lp344
g49
(g70
g51
NtRp345
(dp346
g54
(dp347
g74
g75
ssg63
g341
sg56
(lp348
S'max-age'
p349
asbag49
(g70
g51
NtRp350
(dp351
g54
(dp352
g81
g82
ssg63
g341
sg56
(lp353
S':'
asbag49
(g70
g51
NtRp354
(dp355
g54
(dp356
sg63
g341
sg56
(lp357
g49
(g50
g51
NtRp358
(dp359
g54
(dp360
g62
I3
ssg63
g354
sg56
(lp361
S''
asbasbasbag49
(g65
g51
NtRp362
(dp363
g54
(dp364
sg63
g274
sg56
(lp365
g49
(g70
g51
NtRp366
(dp367
g54
(dp368
g74
g75
ssg63
g362
sg56
(lp369
S'path'
p370
asbag49
(g70
g51
NtRp371
(dp372
g54
(dp373
g81
g82
ssg63
g362
sg56
(lp374
S':'
asbag49
(g70
g51
NtRp375
(dp376
g54
(dp377
sg63
g362
sg56
(lp378
g49
(g50
g51
NtRp379
(dp380
g54
(dp381
g62
I3
ssg63
g375
sg56
(lp382
S''
asbasbasbag49
(g65
g51
NtRp383
(dp384
g54
(dp385
sg63
g274
sg56
(lp386
g49
(g70
g51
NtRp387
(dp388
g54
(dp389
g74
g75
ssg63
g383
sg56
(lp390
S'secure'
p391
asbag49
(g70
g51
NtRp392
(dp393
g54
(dp394
g81
g82
ssg63
g383
sg56
(lp395
S':'
asbag49
(g70
g51
NtRp396
(dp397
g54
(dp398
sg63
g383
sg56
(lp399
g49
(g50
g51
NtRp400
(dp401
g54
(dp402
g62
I3
ssg63
g396
sg56
(lp403
S''
asbasbasbag49
(g65
g51
NtRp404
(dp405
g54
(dp406
sg63
g274
sg56
(lp407
g49
(g70
g51
NtRp408
(dp409
g54
(dp410
g74
g75
ssg63
g404
sg56
(lp411
S'version'
p412
asbag49
(g70
g51
NtRp413
(dp414
g54
(dp415
g81
g82
ssg63
g404
sg56
(lp416
S':'
asbag49
(g70
g51
NtRp417
(dp418
g54
(dp419
sg63
g404
sg56
(lp420
g49
(g50
g51
NtRp421
(dp422
g54
(dp423
g62
I3
ssg63
g417
sg56
(lp424
S''
asbasbasbasbasbasbasbag49
(g65
g51
NtRp425
(dp426
g54
(dp427
sg63
g248
sg56
(lp428
g49
(g70
g51
NtRp429
(dp430
g54
(dp431
g74
g75
ssg63
g425
sg56
(lp432
S'session_id_final_impulse'
p433
asbag49
(g70
g51
NtRp434
(dp435
g54
(dp436
g81
g82
ssg63
g425
sg56
(lp437
S':'
asbag49
(g70
g51
NtRp438
(dp439
g54
(dp440
sg63
g425
sg56
(lp441
g49
(g50
g51
NtRp442
(dp443
g54
(dp444
g62
I4
ssg63
g438
sg56
(lp445
S'127.0.0.1-74b0ab87-cc9c-4772-8ab4-9357b1f96576'
p446
ag49
(g58
g51
NtRp447
(dp448
g54
(dp449
g62
I3
ssg63
Nsg56
(lp450
g49
(g65
g51
NtRp451
(dp452
g54
(dp453
sg63
g447
sg56
(lp454
g49
(g70
g51
NtRp455
(dp456
g54
(dp457
g74
g75
ssg63
g451
sg56
(lp458
g286
asbag49
(g70
g51
NtRp459
(dp460
g54
(dp461
g81
g82
ssg63
g451
sg56
(lp462
S':'
asbag49
(g70
g51
NtRp463
(dp464
g54
(dp465
sg63
g451
sg56
(lp466
g49
(g50
g51
NtRp467
(dp468
g54
(dp469
g62
I3
ssg63
g463
sg56
(lp470
S''
asbasbasbag49
(g65
g51
NtRp471
(dp472
g54
(dp473
sg63
g447
sg56
(lp474
g49
(g70
g51
NtRp475
(dp476
g54
(dp477
g74
g75
ssg63
g471
sg56
(lp478
g307
asbag49
(g70
g51
NtRp479
(dp480
g54
(dp481
g81
g82
ssg63
g471
sg56
(lp482
S':'
asbag49
(g70
g51
NtRp483
(dp484
g54
(dp485
sg63
g471
sg56
(lp486
g49
(g50
g51
NtRp487
(dp488
g54
(dp489
g62
I3
ssg63
g483
sg56
(lp490
S''
asbasbasbag49
(g65
g51
NtRp491
(dp492
g54
(dp493
sg63
g447
sg56
(lp494
g49
(g70
g51
NtRp495
(dp496
g54
(dp497
g74
g75
ssg63
g491
sg56
(lp498
g328
asbag49
(g70
g51
NtRp499
(dp500
g54
(dp501
g81
g82
ssg63
g491
sg56
(lp502
S':'
asbag49
(g70
g51
NtRp503
(dp504
g54
(dp505
sg63
g491
sg56
(lp506
g49
(g50
g51
NtRp507
(dp508
g54
(dp509
g62
I3
ssg63
g503
sg56
(lp510
S''
asbasbasbag49
(g65
g51
NtRp511
(dp512
g54
(dp513
sg63
g447
sg56
(lp514
g49
(g70
g51
NtRp515
(dp516
g54
(dp517
g74
g75
ssg63
g511
sg56
(lp518
g349
asbag49
(g70
g51
NtRp519
(dp520
g54
(dp521
g81
g82
ssg63
g511
sg56
(lp522
S':'
asbag49
(g70
g51
NtRp523
(dp524
g54
(dp525
sg63
g511
sg56
(lp526
g49
(g50
g51
NtRp527
(dp528
g54
(dp529
g62
I3
ssg63
g523
sg56
(lp530
S''
asbasbasbag49
(g65
g51
NtRp531
(dp532
g54
(dp533
sg63
g447
sg56
(lp534
g49
(g70
g51
NtRp535
(dp536
g54
(dp537
g74
g75
ssg63
g531
sg56
(lp538
g370
asbag49
(g70
g51
NtRp539
(dp540
g54
(dp541
g81
g82
ssg63
g531
sg56
(lp542
S':'
asbag49
(g70
g51
NtRp543
(dp544
g54
(dp545
sg63
g531
sg56
(lp546
g49
(g50
g51
NtRp547
(dp548
g54
(dp549
g62
I3
ssg63
g543
sg56
(lp550
S''
asbasbasbag49
(g65
g51
NtRp551
(dp552
g54
(dp553
sg63
g447
sg56
(lp554
g49
(g70
g51
NtRp555
(dp556
g54
(dp557
g74
g75
ssg63
g551
sg56
(lp558
g391
asbag49
(g70
g51
NtRp559
(dp560
g54
(dp561
g81
g82
ssg63
g551
sg56
(lp562
S':'
asbag49
(g70
g51
NtRp563
(dp564
g54
(dp565
sg63
g551
sg56
(lp566
g49
(g50
g51
NtRp567
(dp568
g54
(dp569
g62
I3
ssg63
g563
sg56
(lp570
S''
asbasbasbag49
(g65
g51
NtRp571
(dp572
g54
(dp573
sg63
g447
sg56
(lp574
g49
(g70
g51
NtRp575
(dp576
g54
(dp577
g74
g75
ssg63
g571
sg56
(lp578
g412
asbag49
(g70
g51
NtRp579
(dp580
g54
(dp581
g81
g82
ssg63
g571
sg56
(lp582
S':'
asbag49
(g70
g51
NtRp583
(dp584
g54
(dp585
sg63
g571
sg56
(lp586
g49
(g50
g51
NtRp587
(dp588
g54
(dp589
g62
I3
ssg63
g583
sg56
(lp590
S''
asbasbasbasbasbasbasbag49
(g65
g51
NtRp591
(dp592
g54
(dp593
sg63
g248
sg56
(lp594
g49
(g70
g51
NtRp595
(dp596
g54
(dp597
g74
g75
ssg63
g591
sg56
(lp598
S'session_id_welcome'
p599
asbag49
(g70
g51
NtRp600
(dp601
g54
(dp602
g81
g82
ssg63
g591
sg56
(lp603
S':'
asbag49
(g70
g51
NtRp604
(dp605
g54
(dp606
sg63
g591
sg56
(lp607
g49
(g50
g51
NtRp608
(dp609
g54
(dp610
g62
I4
ssg63
g604
sg56
(lp611
S'127.0.0.1-a38babb5-0a6f-4186-bd3e-2f64ec0b7549'
p612
ag49
(g58
g51
NtRp613
(dp614
g54
(dp615
g62
I3
ssg63
Nsg56
(lp616
g49
(g65
g51
NtRp617
(dp618
g54
(dp619
sg63
g613
sg56
(lp620
g49
(g70
g51
NtRp621
(dp622
g54
(dp623
g74
g75
ssg63
g617
sg56
(lp624
g286
asbag49
(g70
g51
NtRp625
(dp626
g54
(dp627
g81
g82
ssg63
g617
sg56
(lp628
S':'
asbag49
(g70
g51
NtRp629
(dp630
g54
(dp631
sg63
g617
sg56
(lp632
g49
(g50
g51
NtRp633
(dp634
g54
(dp635
g62
I3
ssg63
g629
sg56
(lp636
S''
asbasbasbag49
(g65
g51
NtRp637
(dp638
g54
(dp639
sg63
g613
sg56
(lp640
g49
(g70
g51
NtRp641
(dp642
g54
(dp643
g74
g75
ssg63
g637
sg56
(lp644
g307
asbag49
(g70
g51
NtRp645
(dp646
g54
(dp647
g81
g82
ssg63
g637
sg56
(lp648
S':'
asbag49
(g70
g51
NtRp649
(dp650
g54
(dp651
sg63
g637
sg56
(lp652
g49
(g50
g51
NtRp653
(dp654
g54
(dp655
g62
I3
ssg63
g649
sg56
(lp656
S''
asbasbasbag49
(g65
g51
NtRp657
(dp658
g54
(dp659
sg63
g613
sg56
(lp660
g49
(g70
g51
NtRp661
(dp662
g54
(dp663
g74
g75
ssg63
g657
sg56
(lp664
g328
asbag49
(g70
g51
NtRp665
(dp666
g54
(dp667
g81
g82
ssg63
g657
sg56
(lp668
S':'
asbag49
(g70
g51
NtRp669
(dp670
g54
(dp671
sg63
g657
sg56
(lp672
g49
(g50
g51
NtRp673
(dp674
g54
(dp675
g62
I3
ssg63
g669
sg56
(lp676
S''
asbasbasbag49
(g65
g51
NtRp677
(dp678
g54
(dp679
sg63
g613
sg56
(lp680
g49
(g70
g51
NtRp681
(dp682
g54
(dp683
g74
g75
ssg63
g677
sg56
(lp684
g349
asbag49
(g70
g51
NtRp685
(dp686
g54
(dp687
g81
g82
ssg63
g677
sg56
(lp688
S':'
asbag49
(g70
g51
NtRp689
(dp690
g54
(dp691
sg63
g677
sg56
(lp692
g49
(g50
g51
NtRp693
(dp694
g54
(dp695
g62
I3
ssg63
g689
sg56
(lp696
S''
asbasbasbag49
(g65
g51
NtRp697
(dp698
g54
(dp699
sg63
g613
sg56
(lp700
g49
(g70
g51
NtRp701
(dp702
g54
(dp703
g74
g75
ssg63
g697
sg56
(lp704
g370
asbag49
(g70
g51
NtRp705
(dp706
g54
(dp707
g81
g82
ssg63
g697
sg56
(lp708
S':'
asbag49
(g70
g51
NtRp709
(dp710
g54
(dp711
sg63
g697
sg56
(lp712
g49
(g50
g51
NtRp713
(dp714
g54
(dp715
g62
I3
ssg63
g709
sg56
(lp716
S''
asbasbasbag49
(g65
g51
NtRp717
(dp718
g54
(dp719
sg63
g613
sg56
(lp720
g49
(g70
g51
NtRp721
(dp722
g54
(dp723
g74
g75
ssg63
g717
sg56
(lp724
g391
asbag49
(g70
g51
NtRp725
(dp726
g54
(dp727
g81
g82
ssg63
g717
sg56
(lp728
S':'
asbag49
(g70
g51
NtRp729
(dp730
g54
(dp731
sg63
g717
sg56
(lp732
g49
(g50
g51
NtRp733
(dp734
g54
(dp735
g62
I3
ssg63
g729
sg56
(lp736
S''
asbasbasbag49
(g65
g51
NtRp737
(dp738
g54
(dp739
sg63
g613
sg56
(lp740
g49
(g70
g51
NtRp741
(dp742
g54
(dp743
g74
g75
ssg63
g737
sg56
(lp744
g412
asbag49
(g70
g51
NtRp745
(dp746
g54
(dp747
g81
g82
ssg63
g737
sg56
(lp748
S':'
asbag49
(g70
g51
NtRp749
(dp750
g54
(dp751
sg63
g737
sg56
(lp752
g49
(g50
g51
NtRp753
(dp754
g54
(dp755
g62
I3
ssg63
g749
sg56
(lp756
S''
asbasbasbasbasbasbasbasbasbasbasbag49
(g65
g51
NtRp757
(dp758
g54
(dp759
sg63
g59
sg56
(lp760
g49
(g70
g51
NtRp761
(dp762
g54
(dp763
g74
g75
ssg63
g757
sg56
(lp764
S'env'
p765
asbag49
(g70
g51
NtRp766
(dp767
g54
(dp768
g81
g82
ssg63
g757
sg56
(lp769
S':'
asbag49
(g70
g51
NtRp770
(dp771
g54
(dp772
sg63
g757
sg56
(lp773
g49
(g50
g51
NtRp774
(dp775
g54
(dp776
g62
I5
ssg63
g770
sg56
(lp777
g49
(g58
g51
NtRp778
(dp779
g54
(dp780
g62
I4
ssg63
Nsg56
(lp781
g49
(g65
g51
NtRp782
(dp783
g54
(dp784
sg63
g778
sg56
(lp785
g49
(g70
g51
NtRp786
(dp787
g54
(dp788
g74
g75
ssg63
g782
sg56
(lp789
S'app_folders'
p790
asbag49
(g70
g51
NtRp791
(dp792
g54
(dp793
g81
g82
ssg63
g782
sg56
(lp794
S':'
asbag49
(g70
g51
NtRp795
(dp796
g54
(dp797
sg63
g782
sg56
(lp798
g49
(g50
g51
NtRp799
(dp800
g54
(dp801
g62
I4
ssg63
g795
sg56
(lp802
S"set(['/Users/abaric/Downloads/web2py/web2py.app/Contents/Resources/applications/Final_Impulse/', '/Users/abaric/Downloads/web2py/web2py.app/Contents/Resources/applications/welcome/', '/Users/abaric/Downloads/web2py/web2py.app/Contents/Resources/applications/admin/'])"
p803
asbasbasbag49
(g65
g51
NtRp804
(dp805
g54
(dp806
sg63
g778
sg56
(lp807
g49
(g70
g51
NtRp808
(dp809
g54
(dp810
g74
g75
ssg63
g804
sg56
(lp811
S'applications_parent'
p812
asbag49
(g70
g51
NtRp813
(dp814
g54
(dp815
g81
g82
ssg63
g804
sg56
(lp816
S':'
asbag49
(g70
g51
NtRp817
(dp818
g54
(dp819
sg63
g804
sg56
(lp820
g49
(g50
g51
NtRp821
(dp822
g54
(dp823
g62
I4
ssg63
g817
sg56
(lp824
S'/Users/abaric/Downloads/web2py/web2py.app/Contents/Resources'
p825
asbasbasbag49
(g65
g51
NtRp826
(dp827
g54
(dp828
sg63
g778
sg56
(lp829
g49
(g70
g51
NtRp830
(dp831
g54
(dp832
g74
g75
ssg63
g826
sg56
(lp833
S'cmd_args'
p834
asbag49
(g70
g51
NtRp835
(dp836
g54
(dp837
g81
g82
ssg63
g826
sg56
(lp838
S':'
asbag49
(g70
g51
NtRp839
(dp840
g54
(dp841
sg63
g826
sg56
(lp842
g49
(g50
g51
NtRp843
(dp844
g54
(dp845
g62
I4
ssg63
g839
sg56
(lp846
g49
(g58
g51
NtRp847
(dp848
g54
(dp849
g62
I3
ssg63
Nsg56
(lp850
sbasbasbasbag49
(g65
g51
NtRp851
(dp852
g54
(dp853
sg63
g778
sg56
(lp854
g49
(g70
g51
NtRp855
(dp856
g54
(dp857
g74
g75
ssg63
g851
sg56
(lp858
S'cmd_options'
p859
asbag49
(g70
g51
NtRp860
(dp861
g54
(dp862
g81
g82
ssg63
g851
sg56
(lp863
S':'
asbag49
(g70
g51
NtRp864
(dp865
g54
(dp866
sg63
g851
sg56
(lp867
g49
(g50
g51
NtRp868
(dp869
g54
(dp870
g62
I4
ssg63
g864
sg56
(lp871
S"<Values at 0x442e238: {'verbose': False, 'ip': '127.0.0.1', 'with_scheduler': False, 'ips': ['192.168.1.5'], 'shutdown_timeout': 5, 'taskbar': False, 'port': 8000, 'maxthreads': None, 'softcron': False, 'server_name': 'new-host.home', 'bpython': False, 'nogui': False, 'pid_filename': 'httpserver.pid', 'extcron': False, 'runcron': False, 'run_system_tests': False, 'test': None, 'folder': '/Users/abaric/Downloads/web2py/web2py.app/Contents/Resources', 'config': '', 'import_models': False, 'winservice': '', 'shell': None, 'run': '', 'log_filename': 'httpserver.log', 'debuglevel': 30, 'args': [''], 'socket_timeout': 5, 'ssl_ca_certificate': None, 'scheduler': None, 'profiler_filename': None, 'ssl_private_key': '', 'scheduler_groups': None, 'password': '<ask>', 'request_queue_size': 5, 'ssl_certificate': '', 'cronjob': False, 'numthreads': None, 'quiet': False, 'interfaces': None, 'minthreads': None, 'timeout': 10, 'plain': False, 'nobanner': False}>"
p872
asbasbasbag49
(g65
g51
NtRp873
(dp874
g54
(dp875
sg63
g778
sg56
(lp876
g49
(g70
g51
NtRp877
(dp878
g54
(dp879
g74
g75
ssg63
g873
sg56
(lp880
S'db_sessions'
p881
asbag49
(g70
g51
NtRp882
(dp883
g54
(dp884
g81
g82
ssg63
g873
sg56
(lp885
S':'
asbag49
(g70
g51
NtRp886
(dp887
g54
(dp888
sg63
g873
sg56
(lp889
g49
(g50
g51
NtRp890
(dp891
g54
(dp892
g62
I4
ssg63
g886
sg56
(lp893
S'set([])'
p894
asbasbasbag49
(g65
g51
NtRp895
(dp896
g54
(dp897
sg63
g778
sg56
(lp898
g49
(g70
g51
NtRp899
(dp900
g54
(dp901
g74
g75
ssg63
g895
sg56
(lp902
S'debugging'
p903
asbag49
(g70
g51
NtRp904
(dp905
g54
(dp906
g81
g82
ssg63
g895
sg56
(lp907
S':'
asbag49
(g70
g51
NtRp908
(dp909
g54
(dp910
sg63
g895
sg56
(lp911
g49
(g50
g51
NtRp912
(dp913
g54
(dp914
g62
I4
ssg63
g908
sg56
(lp915
g92
asbasbasbag49
(g65
g51
NtRp916
(dp917
g54
(dp918
sg63
g778
sg56
(lp919
g49
(g70
g51
NtRp920
(dp921
g54
(dp922
g74
g75
ssg63
g916
sg56
(lp923
S'gluon_parent'
p924
asbag49
(g70
g51
NtRp925
(dp926
g54
(dp927
g81
g82
ssg63
g916
sg56
(lp928
S':'
asbag49
(g70
g51
NtRp929
(dp930
g54
(dp931
sg63
g916
sg56
(lp932
g49
(g50
g51
NtRp933
(dp934
g54
(dp935
g62
I4
ssg63
g929
sg56
(lp936
S'/Users/abaric/Downloads/web2py/web2py.app/Contents/Resources'
p937
asbasbasbag49
(g65
g51
NtRp938
(dp939
g54
(dp940
sg63
g778
sg56
(lp941
g49
(g70
g51
NtRp942
(dp943
g54
(dp944
g74
g75
ssg63
g938
sg56
(lp945
S'http_accept'
p946
asbag49
(g70
g51
NtRp947
(dp948
g54
(dp949
g81
g82
ssg63
g938
sg56
(lp950
S':'
asbag49
(g70
g51
NtRp951
(dp952
g54
(dp953
sg63
g938
sg56
(lp954
g49
(g50
g51
NtRp955
(dp956
g54
(dp957
g62
I4
ssg63
g951
sg56
(lp958
S'text/html,application/xhtml+xml,application/xml;q=0.9,*/*;q=0.8'
p959
asbasbasbag49
(g65
g51
NtRp960
(dp961
g54
(dp962
sg63
g778
sg56
(lp963
g49
(g70
g51
NtRp964
(dp965
g54
(dp966
g74
g75
ssg63
g960
sg56
(lp967
S'http_accept_encoding'
p968
asbag49
(g70
g51
NtRp969
(dp970
g54
(dp971
g81
g82
ssg63
g960
sg56
(lp972
S':'
asbag49
(g70
g51
NtRp973
(dp974
g54
(dp975
sg63
g960
sg56
(lp976
g49
(g50
g51
NtRp977
(dp978
g54
(dp979
g62
I4
ssg63
g973
sg56
(lp980
S'gzip, deflate'
p981
asbasbasbag49
(g65
g51
NtRp982
(dp983
g54
(dp984
sg63
g778
sg56
(lp985
g49
(g70
g51
NtRp986
(dp987
g54
(dp988
g74
g75
ssg63
g982
sg56
(lp989
S'http_accept_language'
p990
asbag49
(g70
g51
NtRp991
(dp992
g54
(dp993
g81
g82
ssg63
g982
sg56
(lp994
S':'
asbag49
(g70
g51
NtRp995
(dp996
g54
(dp997
sg63
g982
sg56
(lp998
g49
(g50
g51
NtRp999
(dp1000
g54
(dp1001
g62
I4
ssg63
g995
sg56
(lp1002
S'en-us'
p1003
asbasbasbag49
(g65
g51
NtRp1004
(dp1005
g54
(dp1006
sg63
g778
sg56
(lp1007
g49
(g70
g51
NtRp1008
(dp1009
g54
(dp1010
g74
g75
ssg63
g1004
sg56
(lp1011
S'http_connection'
p1012
asbag49
(g70
g51
NtRp1013
(dp1014
g54
(dp1015
g81
g82
ssg63
g1004
sg56
(lp1016
S':'
asbag49
(g70
g51
NtRp1017
(dp1018
g54
(dp1019
sg63
g1004
sg56
(lp1020
g49
(g50
g51
NtRp1021
(dp1022
g54
(dp1023
g62
I4
ssg63
g1017
sg56
(lp1024
S'keep-alive'
p1025
asbasbasbag49
(g65
g51
NtRp1026
(dp1027
g54
(dp1028
sg63
g778
sg56
(lp1029
g49
(g70
g51
NtRp1030
(dp1031
g54
(dp1032
g74
g75
ssg63
g1026
sg56
(lp1033
S'http_cookie'
p1034
asbag49
(g70
g51
NtRp1035
(dp1036
g54
(dp1037
g81
g82
ssg63
g1026
sg56
(lp1038
S':'
asbag49
(g70
g51
NtRp1039
(dp1040
g54
(dp1041
sg63
g1026
sg56
(lp1042
g49
(g50
g51
NtRp1043
(dp1044
g54
(dp1045
g62
I4
ssg63
g1039
sg56
(lp1046
S'session_id_final_impulse=127.0.0.1-74b0ab87-cc9c-4772-8ab4-9357b1f96576; session_id_admin=127.0.0.1-0ba3c38c-2343-4ee4-b45e-2a129ee8fadd; session_id_welcome=127.0.0.1-a38babb5-0a6f-4186-bd3e-2f64ec0b7549'
p1047
asbasbasbag49
(g65
g51
NtRp1048
(dp1049
g54
(dp1050
sg63
g778
sg56
(lp1051
g49
(g70
g51
NtRp1052
(dp1053
g54
(dp1054
g74
g75
ssg63
g1048
sg56
(lp1055
S'http_host'
p1056
asbag49
(g70
g51
NtRp1057
(dp1058
g54
(dp1059
g81
g82
ssg63
g1048
sg56
(lp1060
S':'
asbag49
(g70
g51
NtRp1061
(dp1062
g54
(dp1063
sg63
g1048
sg56
(lp1064
g49
(g50
g51
NtRp1065
(dp1066
g54
(dp1067
g62
I4
ssg63
g1061
sg56
(lp1068
S'127.0.0.1:8000'
p1069
asbasbasbag49
(g65
g51
NtRp1070
(dp1071
g54
(dp1072
sg63
g778
sg56
(lp1073
g49
(g70
g51
NtRp1074
(dp1075
g54
(dp1076
g74
g75
ssg63
g1070
sg56
(lp1077
S'http_referer'
p1078
asbag49
(g70
g51
NtRp1079
(dp1080
g54
(dp1081
g81
g82
ssg63
g1070
sg56
(lp1082
S':'
asbag49
(g70
g51
NtRp1083
(dp1084
g54
(dp1085
sg63
g1070
sg56
(lp1086
g49
(g50
g51
NtRp1087
(dp1088
g54
(dp1089
g62
I4
ssg63
g1083
sg56
(lp1090
S'http://127.0.0.1:8000/Final_Impulse/default/index'
p1091
asbasbasbag49
(g65
g51
NtRp1092
(dp1093
g54
(dp1094
sg63
g778
sg56
(lp1095
g49
(g70
g51
NtRp1096
(dp1097
g54
(dp1098
g74
g75
ssg63
g1092
sg56
(lp1099
S'http_user_agent'
p1100
asbag49
(g70
g51
NtRp1101
(dp1102
g54
(dp1103
g81
g82
ssg63
g1092
sg56
(lp1104
S':'
asbag49
(g70
g51
NtRp1105
(dp1106
g54
(dp1107
sg63
g1092
sg56
(lp1108
g49
(g50
g51
NtRp1109
(dp1110
g54
(dp1111
g62
I4
ssg63
g1105
sg56
(lp1112
S'Mozilla/5.0 (Macintosh; Intel Mac OS X 10_8_4) AppleWebKit/536.30.1 (KHTML, like Gecko) Version/6.0.5 Safari/536.30.1'
p1113
asbasbasbag49
(g65
g51
NtRp1114
(dp1115
g54
(dp1116
sg63
g778
sg56
(lp1117
g49
(g70
g51
NtRp1118
(dp1119
g54
(dp1120
g74
g75
ssg63
g1114
sg56
(lp1121
S'is_jython'
p1122
asbag49
(g70
g51
NtRp1123
(dp1124
g54
(dp1125
g81
g82
ssg63
g1114
sg56
(lp1126
S':'
asbag49
(g70
g51
NtRp1127
(dp1128
g54
(dp1129
sg63
g1114
sg56
(lp1130
g49
(g50
g51
NtRp1131
(dp1132
g54
(dp1133
g62
I4
ssg63
g1127
sg56
(lp1134
g92
asbasbasbag49
(g65
g51
NtRp1135
(dp1136
g54
(dp1137
sg63
g778
sg56
(lp1138
g49
(g70
g51
NtRp1139
(dp1140
g54
(dp1141
g74
g75
ssg63
g1135
sg56
(lp1142
S'is_pypy'
p1143
asbag49
(g70
g51
NtRp1144
(dp1145
g54
(dp1146
g81
g82
ssg63
g1135
sg56
(lp1147
S':'
asbag49
(g70
g51
NtRp1148
(dp1149
g54
(dp1150
sg63
g1135
sg56
(lp1151
g49
(g50
g51
NtRp1152
(dp1153
g54
(dp1154
g62
I4
ssg63
g1148
sg56
(lp1155
g92
asbasbasbag49
(g65
g51
NtRp1156
(dp1157
g54
(dp1158
sg63
g778
sg56
(lp1159
g49
(g70
g51
NtRp1160
(dp1161
g54
(dp1162
g74
g75
ssg63
g1156
sg56
(lp1163
S'local_hosts'
p1164
asbag49
(g70
g51
NtRp1165
(dp1166
g54
(dp1167
g81
g82
ssg63
g1156
sg56
(lp1168
S':'
asbag49
(g70
g51
NtRp1169
(dp1170
g54
(dp1171
sg63
g1156
sg56
(lp1172
g49
(g50
g51
NtRp1173
(dp1174
g54
(dp1175
g62
I4
ssg63
g1169
sg56
(lp1176
g49
(g58
g51
NtRp1177
(dp1178
g54
(dp1179
g62
I3
ssg63
Nsg56
(lp1180
g49
(g65
g51
NtRp1181
(dp1182
g54
(dp1183
sg63
g1177
sg56
(lp1184
g49
(g70
g51
NtRp1185
(dp1186
g54
(dp1187
sg63
g1181
sg56
(lp1188
g49
(g50
g51
NtRp1189
(dp1190
g54
(dp1191
g62
I3
ssg63
g1185
sg56
(lp1192
S'127.0.0.1'
p1193
asbasbasbag49
(g65
g51
NtRp1194
(dp1195
g54
(dp1196
sg63
g1177
sg56
(lp1197
g49
(g70
g51
NtRp1198
(dp1199
g54
(dp1200
sg63
g1194
sg56
(lp1201
g49
(g50
g51
NtRp1202
(dp1203
g54
(dp1204
g62
I3
ssg63
g1198
sg56
(lp1205
S'::ffff:127.0.0.1'
p1206
asbasbasbag49
(g65
g51
NtRp1207
(dp1208
g54
(dp1209
sg63
g1177
sg56
(lp1210
g49
(g70
g51
NtRp1211
(dp1212
g54
(dp1213
sg63
g1207
sg56
(lp1214
g49
(g50
g51
NtRp1215
(dp1216
g54
(dp1217
g62
I3
ssg63
g1211
sg56
(lp1218
S'new-host.home'
p1219
asbasbasbag49
(g65
g51
NtRp1220
(dp1221
g54
(dp1222
sg63
g1177
sg56
(lp1223
g49
(g70
g51
NtRp1224
(dp1225
g54
(dp1226
sg63
g1220
sg56
(lp1227
g49
(g50
g51
NtRp1228
(dp1229
g54
(dp1230
g62
I3
ssg63
g1224
sg56
(lp1231
S'new-host.home'
p1232
asbasbasbag49
(g65
g51
NtRp1233
(dp1234
g54
(dp1235
sg63
g1177
sg56
(lp1236
g49
(g70
g51
NtRp1237
(dp1238
g54
(dp1239
sg63
g1233
sg56
(lp1240
g49
(g50
g51
NtRp1241
(dp1242
g54
(dp1243
g62
I3
ssg63
g1237
sg56
(lp1244
S'192.168.1.5'
p1245
asbasbasbasbasbasbasbag49
(g65
g51
NtRp1246
(dp1247
g54
(dp1248
sg63
g778
sg56
(lp1249
g49
(g70
g51
NtRp1250
(dp1251
g54
(dp1252
g74
g75
ssg63
g1246
sg56
(lp1253
S'path_info'
p1254
asbag49
(g70
g51
NtRp1255
(dp1256
g54
(dp1257
g81
g82
ssg63
g1246
sg56
(lp1258
S':'
asbag49
(g70
g51
NtRp1259
(dp1260
g54
(dp1261
sg63
g1246
sg56
(lp1262
g49
(g50
g51
NtRp1263
(dp1264
g54
(dp1265
g62
I4
ssg63
g1259
sg56
(lp1266
S'/Final_Impulse/default/show_image_comments'
p1267
asbasbasbag49
(g65
g51
NtRp1268
(dp1269
g54
(dp1270
sg63
g778
sg56
(lp1271
g49
(g70
g51
NtRp1272
(dp1273
g54
(dp1274
g74
g75
ssg63
g1268
sg56
(lp1275
S'query_string'
p1276
asbag49
(g70
g51
NtRp1277
(dp1278
g54
(dp1279
g81
g82
ssg63
g1268
sg56
(lp1280
S':'
asbag49
(g70
g51
NtRp1281
(dp1282
g54
(dp1283
sg63
g1268
sg56
(lp1284
g49
(g50
g51
NtRp1285
(dp1286
g54
(dp1287
g62
I4
ssg63
g1281
sg56
(lp1288
S''
asbasbasbag49
(g65
g51
NtRp1289
(dp1290
g54
(dp1291
sg63
g778
sg56
(lp1292
g49
(g70
g51
NtRp1293
(dp1294
g54
(dp1295
g74
g75
ssg63
g1289
sg56
(lp1296
S'remote_addr'
p1297
asbag49
(g70
g51
NtRp1298
(dp1299
g54
(dp1300
g81
g82
ssg63
g1289
sg56
(lp1301
S':'
asbag49
(g70
g51
NtRp1302
(dp1303
g54
(dp1304
sg63
g1289
sg56
(lp1305
g49
(g50
g51
NtRp1306
(dp1307
g54
(dp1308
g62
I4
ssg63
g1302
sg56
(lp1309
g204
asbasbasbag49
(g65
g51
NtRp1310
(dp1311
g54
(dp1312
sg63
g778
sg56
(lp1313
g49
(g70
g51
NtRp1314
(dp1315
g54
(dp1316
g74
g75
ssg63
g1310
sg56
(lp1317
S'remote_port'
p1318
asbag49
(g70
g51
NtRp1319
(dp1320
g54
(dp1321
g81
g82
ssg63
g1310
sg56
(lp1322
S':'
asbag49
(g70
g51
NtRp1323
(dp1324
g54
(dp1325
sg63
g1310
sg56
(lp1326
g49
(g50
g51
NtRp1327
(dp1328
g54
(dp1329
g62
I4
ssg63
g1323
sg56
(lp1330
S'59376'
p1331
asbasbasbag49
(g65
g51
NtRp1332
(dp1333
g54
(dp1334
sg63
g778
sg56
(lp1335
g49
(g70
g51
NtRp1336
(dp1337
g54
(dp1338
g74
g75
ssg63
g1332
sg56
(lp1339
S'request_method'
p1340
asbag49
(g70
g51
NtRp1341
(dp1342
g54
(dp1343
g81
g82
ssg63
g1332
sg56
(lp1344
S':'
asbag49
(g70
g51
NtRp1345
(dp1346
g54
(dp1347
sg63
g1332
sg56
(lp1348
g49
(g50
g51
NtRp1349
(dp1350
g54
(dp1351
g62
I4
ssg63
g1345
sg56
(lp1352
S'GET'
p1353
asbasbasbag49
(g65
g51
NtRp1354
(dp1355
g54
(dp1356
sg63
g778
sg56
(lp1357
g49
(g70
g51
NtRp1358
(dp1359
g54
(dp1360
g74
g75
ssg63
g1354
sg56
(lp1361
S'request_uri'
p1362
asbag49
(g70
g51
NtRp1363
(dp1364
g54
(dp1365
g81
g82
ssg63
g1354
sg56
(lp1366
S':'
asbag49
(g70
g51
NtRp1367
(dp1368
g54
(dp1369
sg63
g1354
sg56
(lp1370
g49
(g50
g51
NtRp1371
(dp1372
g54
(dp1373
g62
I4
ssg63
g1367
sg56
(lp1374
g1267
asbasbasbag49
(g65
g51
NtRp1375
(dp1376
g54
(dp1377
sg63
g778
sg56
(lp1378
g49
(g70
g51
NtRp1379
(dp1380
g54
(dp1381
g74
g75
ssg63
g1375
sg56
(lp1382
S'script_name'
p1383
asbag49
(g70
g51
NtRp1384
(dp1385
g54
(dp1386
g81
g82
ssg63
g1375
sg56
(lp1387
S':'
asbag49
(g70
g51
NtRp1388
(dp1389
g54
(dp1390
sg63
g1375
sg56
(lp1391
g49
(g50
g51
NtRp1392
(dp1393
g54
(dp1394
g62
I4
ssg63
g1388
sg56
(lp1395
S''
asbasbasbag49
(g65
g51
NtRp1396
(dp1397
g54
(dp1398
sg63
g778
sg56
(lp1399
g49
(g70
g51
NtRp1400
(dp1401
g54
(dp1402
g74
g75
ssg63
g1396
sg56
(lp1403
S'server_name'
p1404
asbag49
(g70
g51
NtRp1405
(dp1406
g54
(dp1407
g81
g82
ssg63
g1396
sg56
(lp1408
S':'
asbag49
(g70
g51
NtRp1409
(dp1410
g54
(dp1411
sg63
g1396
sg56
(lp1412
g49
(g50
g51
NtRp1413
(dp1414
g54
(dp1415
g62
I4
ssg63
g1409
sg56
(lp1416
g1232
asbasbasbag49
(g65
g51
NtRp1417
(dp1418
g54
(dp1419
sg63
g778
sg56
(lp1420
g49
(g70
g51
NtRp1421
(dp1422
g54
(dp1423
g74
g75
ssg63
g1417
sg56
(lp1424
S'server_port'
p1425
asbag49
(g70
g51
NtRp1426
(dp1427
g54
(dp1428
g81
g82
ssg63
g1417
sg56
(lp1429
S':'
asbag49
(g70
g51
NtRp1430
(dp1431
g54
(dp1432
sg63
g1417
sg56
(lp1433
g49
(g50
g51
NtRp1434
(dp1435
g54
(dp1436
g62
I4
ssg63
g1430
sg56
(lp1437
S'8000'
p1438
asbasbasbag49
(g65
g51
NtRp1439
(dp1440
g54
(dp1441
sg63
g778
sg56
(lp1442
g49
(g70
g51
NtRp1443
(dp1444
g54
(dp1445
g74
g75
ssg63
g1439
sg56
(lp1446
S'server_protocol'
p1447
asbag49
(g70
g51
NtRp1448
(dp1449
g54
(dp1450
g81
g82
ssg63
g1439
sg56
(lp1451
S':'
asbag49
(g70
g51
NtRp1452
(dp1453
g54
(dp1454
sg63
g1439
sg56
(lp1455
g49
(g50
g51
NtRp1456
(dp1457
g54
(dp1458
g62
I4
ssg63
g1452
sg56
(lp1459
S'HTTP/1.1'
p1460
asbasbasbag49
(g65
g51
NtRp1461
(dp1462
g54
(dp1463
sg63
g778
sg56
(lp1464
g49
(g70
g51
NtRp1465
(dp1466
g54
(dp1467
g74
g75
ssg63
g1461
sg56
(lp1468
S'server_software'
p1469
asbag49
(g70
g51
NtRp1470
(dp1471
g54
(dp1472
g81
g82
ssg63
g1461
sg56
(lp1473
S':'
asbag49
(g70
g51
NtRp1474
(dp1475
g54
(dp1476
sg63
g1461
sg56
(lp1477
g49
(g50
g51
NtRp1478
(dp1479
g54
(dp1480
g62
I4
ssg63
g1474
sg56
(lp1481
S'Rocket 1.2.5'
p1482
asbasbasbag49
(g65
g51
NtRp1483
(dp1484
g54
(dp1485
sg63
g778
sg56
(lp1486
g49
(g70
g51
NtRp1487
(dp1488
g54
(dp1489
g74
g75
ssg63
g1483
sg56
(lp1490
S'web2py_path'
p1491
asbag49
(g70
g51
NtRp1492
(dp1493
g54
(dp1494
g81
g82
ssg63
g1483
sg56
(lp1495
S':'
asbag49
(g70
g51
NtRp1496
(dp1497
g54
(dp1498
sg63
g1483
sg56
(lp1499
g49
(g50
g51
NtRp1500
(dp1501
g54
(dp1502
g62
I4
ssg63
g1496
sg56
(lp1503
g825
asbasbasbag49
(g65
g51
NtRp1504
(dp1505
g54
(dp1506
sg63
g778
sg56
(lp1507
g49
(g70
g51
NtRp1508
(dp1509
g54
(dp1510
g74
g75
ssg63
g1504
sg56
(lp1511
S'web2py_version'
p1512
asbag49
(g70
g51
NtRp1513
(dp1514
g54
(dp1515
g81
g82
ssg63
g1504
sg56
(lp1516
S':'
asbag49
(g70
g51
NtRp1517
(dp1518
g54
(dp1519
sg63
g1504
sg56
(lp1520
g49
(g50
g51
NtRp1521
(dp1522
g54
(dp1523
g62
I4
ssg63
g1517
sg56
(lp1524
g49
(g58
g51
NtRp1525
(dp1526
g54
(dp1527
g62
I3
ssg63
Nsg56
(lp1528
g49
(g65
g51
NtRp1529
(dp1530
g54
(dp1531
sg63
g1525
sg56
(lp1532
g49
(g70
g51
NtRp1533
(dp1534
g54
(dp1535
sg63
g1529
sg56
(lp1536
g49
(g50
g51
NtRp1537
(dp1538
g54
(dp1539
g62
I3
ssg63
g1533
sg56
(lp1540
S'2'
asbasbasbag49
(g65
g51
NtRp1541
(dp1542
g54
(dp1543
sg63
g1525
sg56
(lp1544
g49
(g70
g51
NtRp1545
(dp1546
g54
(dp1547
sg63
g1541
sg56
(lp1548
g49
(g50
g51
NtRp1549
(dp1550
g54
(dp1551
g62
I3
ssg63
g1545
sg56
(lp1552
S'2'
asbasbasbag49
(g65
g51
NtRp1553
(dp1554
g54
(dp1555
sg63
g1525
sg56
(lp1556
g49
(g70
g51
NtRp1557
(dp1558
g54
(dp1559
sg63
g1553
sg56
(lp1560
g49
(g50
g51
NtRp1561
(dp1562
g54
(dp1563
g62
I3
ssg63
g1557
sg56
(lp1564
S'1'
asbasbasbag49
(g65
g51
NtRp1565
(dp1566
g54
(dp1567
sg63
g1525
sg56
(lp1568
g49
(g70
g51
NtRp1569
(dp1570
g54
(dp1571
sg63
g1565
sg56
(lp1572
g49
(g50
g51
NtRp1573
(dp1574
g54
(dp1575
g62
I3
ssg63
g1569
sg56
(lp1576
S'datetime.datetime(2012, 10, 21, 16, 57, 4)'
p1577
asbasbasbag49
(g65
g51
NtRp1578
(dp1579
g54
(dp1580
sg63
g1525
sg56
(lp1581
g49
(g70
g51
NtRp1582
(dp1583
g54
(dp1584
sg63
g1578
sg56
(lp1585
g49
(g50
g51
NtRp1586
(dp1587
g54
(dp1588
g62
I3
ssg63
g1582
sg56
(lp1589
S'stable'
p1590
asbasbasbasbasbasbasbag49
(g65
g51
NtRp1591
(dp1592
g54
(dp1593
sg63
g778
sg56
(lp1594
g49
(g70
g51
NtRp1595
(dp1596
g54
(dp1597
g74
g75
ssg63
g1591
sg56
(lp1598
S'wsgi_errors'
p1599
asbag49
(g70
g51
NtRp1600
(dp1601
g54
(dp1602
g81
g82
ssg63
g1591
sg56
(lp1603
S':'
asbag49
(g70
g51
NtRp1604
(dp1605
g54
(dp1606
sg63
g1591
sg56
(lp1607
g49
(g50
g51
NtRp1608
(dp1609
g54
(dp1610
g62
I4
ssg63
g1604
sg56
(lp1611
S"<open file '<stderr>', mode 'w' at 0x540b0>"
p1612
asbasbasbag49
(g65
g51
NtRp1613
(dp1614
g54
(dp1615
sg63
g778
sg56
(lp1616
g49
(g70
g51
NtRp1617
(dp1618
g54
(dp1619
g74
g75
ssg63
g1613
sg56
(lp1620
S'wsgi_file_wrapper'
p1621
asbag49
(g70
g51
NtRp1622
(dp1623
g54
(dp1624
g81
g82
ssg63
g1613
sg56
(lp1625
S':'
asbag49
(g70
g51
NtRp1626
(dp1627
g54
(dp1628
sg63
g1613
sg56
(lp1629
g49
(g50
g51
NtRp1630
(dp1631
g54
(dp1632
g62
I4
ssg63
g1626
sg56
(lp1633
S'<class wsgiref.util.FileWrapper at 0x44002d0>'
p1634
asbasbasbag49
(g65
g51
NtRp1635
(dp1636
g54
(dp1637
sg63
g778
sg56
(lp1638
g49
(g70
g51
NtRp1639
(dp1640
g54
(dp1641
g74
g75
ssg63
g1635
sg56
(lp1642
S'wsgi_input'
p1643
asbag49
(g70
g51
NtRp1644
(dp1645
g54
(dp1646
g81
g82
ssg63
g1635
sg56
(lp1647
S':'
asbag49
(g70
g51
NtRp1648
(dp1649
g54
(dp1650
sg63
g1635
sg56
(lp1651
g49
(g50
g51
NtRp1652
(dp1653
g54
(dp1654
g62
I4
ssg63
g1648
sg56
(lp1655
S'<socket._fileobject object at 0x8ea55b0>'
p1656
asbasbasbag49
(g65
g51
NtRp1657
(dp1658
g54
(dp1659
sg63
g778
sg56
(lp1660
g49
(g70
g51
NtRp1661
(dp1662
g54
(dp1663
g74
g75
ssg63
g1657
sg56
(lp1664
S'wsgi_multiprocess'
p1665
asbag49
(g70
g51
NtRp1666
(dp1667
g54
(dp1668
g81
g82
ssg63
g1657
sg56
(lp1669
S':'
asbag49
(g70
g51
NtRp1670
(dp1671
g54
(dp1672
sg63
g1657
sg56
(lp1673
g49
(g50
g51
NtRp1674
(dp1675
g54
(dp1676
g62
I4
ssg63
g1670
sg56
(lp1677
g92
asbasbasbag49
(g65
g51
NtRp1678
(dp1679
g54
(dp1680
sg63
g778
sg56
(lp1681
g49
(g70
g51
NtRp1682
(dp1683
g54
(dp1684
g74
g75
ssg63
g1678
sg56
(lp1685
S'wsgi_multithread'
p1686
asbag49
(g70
g51
NtRp1687
(dp1688
g54
(dp1689
g81
g82
ssg63
g1678
sg56
(lp1690
S':'
asbag49
(g70
g51
NtRp1691
(dp1692
g54
(dp1693
sg63
g1678
sg56
(lp1694
g49
(g50
g51
NtRp1695
(dp1696
g54
(dp1697
g62
I4
ssg63
g1691
sg56
(lp1698
S'True'
p1699
asbasbasbag49
(g65
g51
NtRp1700
(dp1701
g54
(dp1702
sg63
g778
sg56
(lp1703
g49
(g70
g51
NtRp1704
(dp1705
g54
(dp1706
g74
g75
ssg63
g1700
sg56
(lp1707
S'wsgi_run_once'
p1708
asbag49
(g70
g51
NtRp1709
(dp1710
g54
(dp1711
g81
g82
ssg63
g1700
sg56
(lp1712
S':'
asbag49
(g70
g51
NtRp1713
(dp1714
g54
(dp1715
sg63
g1700
sg56
(lp1716
g49
(g50
g51
NtRp1717
(dp1718
g54
(dp1719
g62
I4
ssg63
g1713
sg56
(lp1720
g92
asbasbasbag49
(g65
g51
NtRp1721
(dp1722
g54
(dp1723
sg63
g778
sg56
(lp1724
g49
(g70
g51
NtRp1725
(dp1726
g54
(dp1727
g74
g75
ssg63
g1721
sg56
(lp1728
S'wsgi_url_scheme'
p1729
asbag49
(g70
g51
NtRp1730
(dp1731
g54
(dp1732
g81
g82
ssg63
g1721
sg56
(lp1733
S':'
asbag49
(g70
g51
NtRp1734
(dp1735
g54
(dp1736
sg63
g1721
sg56
(lp1737
g49
(g50
g51
NtRp1738
(dp1739
g54
(dp1740
g62
I4
ssg63
g1734
sg56
(lp1741
S'http'
p1742
asbasbasbag49
(g65
g51
NtRp1743
(dp1744
g54
(dp1745
sg63
g778
sg56
(lp1746
g49
(g70
g51
NtRp1747
(dp1748
g54
(dp1749
g74
g75
ssg63
g1743
sg56
(lp1750
S'wsgi_version'
p1751
asbag49
(g70
g51
NtRp1752
(dp1753
g54
(dp1754
g81
g82
ssg63
g1743
sg56
(lp1755
S':'
asbag49
(g70
g51
NtRp1756
(dp1757
g54
(dp1758
sg63
g1743
sg56
(lp1759
g49
(g50
g51
NtRp1760
(dp1761
g54
(dp1762
g62
I4
ssg63
g1756
sg56
(lp1763
g49
(g58
g51
NtRp1764
(dp1765
g54
(dp1766
g62
I3
ssg63
Nsg56
(lp1767
g49
(g65
g51
NtRp1768
(dp1769
g54
(dp1770
sg63
g1764
sg56
(lp1771
g49
(g70
g51
NtRp1772
(dp1773
g54
(dp1774
sg63
g1768
sg56
(lp1775
g49
(g50
g51
NtRp1776
(dp1777
g54
(dp1778
g62
I3
ssg63
g1772
sg56
(lp1779
S'1'
asbasbasbag49
(g65
g51
NtRp1780
(dp1781
g54
(dp1782
sg63
g1764
sg56
(lp1783
g49
(g70
g51
NtRp1784
(dp1785
g54
(dp1786
sg63
g1780
sg56
(lp1787
g49
(g50
g51
NtRp1788
(dp1789
g54
(dp1790
g62
I3
ssg63
g1784
sg56
(lp1791
S'0'
asbasbasbasbasbasbasbasbasbasbasbag49
(g65
g51
NtRp1792
(dp1793
g54
(dp1794
sg63
g59
sg56
(lp1795
g49
(g70
g51
NtRp1796
(dp1797
g54
(dp1798
g74
g75
ssg63
g1792
sg56
(lp1799
S'extension'
p1800
asbag49
(g70
g51
NtRp1801
(dp1802
g54
(dp1803
g81
g82
ssg63
g1792
sg56
(lp1804
S':'
asbag49
(g70
g51
NtRp1805
(dp1806
g54
(dp1807
sg63
g1792
sg56
(lp1808
g49
(g50
g51
NtRp1809
(dp1810
g54
(dp1811
g62
I5
ssg63
g1805
sg56
(lp1812
S'html'
p1813
asbasbasbag49
(g65
g51
NtRp1814
(dp1815
g54
(dp1816
sg63
g59
sg56
(lp1817
g49
(g70
g51
NtRp1818
(dp1819
g54
(dp1820
g74
g75
ssg63
g1814
sg56
(lp1821
S'folder'
p1822
asbag49
(g70
g51
NtRp1823
(dp1824
g54
(dp1825
g81
g82
ssg63
g1814
sg56
(lp1826
S':'
asbag49
(g70
g51
NtRp1827
(dp1828
g54
(dp1829
sg63
g1814
sg56
(lp1830
g49
(g50
g51
NtRp1831
(dp1832
g54
(dp1833
g62
I5
ssg63
g1827
sg56
(lp1834
S'/Users/abaric/Downloads/web2py/web2py.app/Contents/Resources/applications/Final_Impulse/'
p1835
asbasbasbag49
(g65
g51
NtRp1836
(dp1837
g54
(dp1838
sg63
g59
sg56
(lp1839
g49
(g70
g51
NtRp1840
(dp1841
g54
(dp1842
g74
g75
ssg63
g1836
sg56
(lp1843
S'function'
p1844
asbag49
(g70
g51
NtRp1845
(dp1846
g54
(dp1847
g81
g82
ssg63
g1836
sg56
(lp1848
S':'
asbag49
(g70
g51
NtRp1849
(dp1850
g54
(dp1851
sg63
g1836
sg56
(lp1852
g49
(g50
g51
NtRp1853
(dp1854
g54
(dp1855
g62
I5
ssg63
g1849
sg56
(lp1856
S'show_image_comments'
p1857
asbasbasbag49
(g65
g51
NtRp1858
(dp1859
g54
(dp1860
sg63
g59
sg56
(lp1861
g49
(g70
g51
NtRp1862
(dp1863
g54
(dp1864
g74
g75
ssg63
g1858
sg56
(lp1865
S'get_vars'
p1866
asbag49
(g70
g51
NtRp1867
(dp1868
g54
(dp1869
g81
g82
ssg63
g1858
sg56
(lp1870
S':'
asbag49
(g70
g51
NtRp1871
(dp1872
g54
(dp1873
sg63
g1858
sg56
(lp1874
g49
(g50
g51
NtRp1875
(dp1876
g54
(dp1877
g62
I5
ssg63
g1871
sg56
(lp1878
g49
(g58
g51
NtRp1879
(dp1880
g54
(dp1881
g62
I4
ssg63
Nsg56
(lp1882
sbasbasbasbag49
(g65
g51
NtRp1883
(dp1884
g54
(dp1885
sg63
g59
sg56
(lp1886
g49
(g70
g51
NtRp1887
(dp1888
g54
(dp1889
g74
g75
ssg63
g1883
sg56
(lp1890
S'global_settings'
p1891
asbag49
(g70
g51
NtRp1892
(dp1893
g54
(dp1894
g81
g82
ssg63
g1883
sg56
(lp1895
S':'
asbag49
(g70
g51
NtRp1896
(dp1897
g54
(dp1898
sg63
g1883
sg56
(lp1899
g49
(g50
g51
NtRp1900
(dp1901
g54
(dp1902
g62
I5
ssg63
g1896
sg56
(lp1903
g49
(g58
g51
NtRp1904
(dp1905
g54
(dp1906
g62
I4
ssg63
Nsg56
(lp1907
g49
(g65
g51
NtRp1908
(dp1909
g54
(dp1910
sg63
g1904
sg56
(lp1911
g49
(g70
g51
NtRp1912
(dp1913
g54
(dp1914
g74
g75
ssg63
g1908
sg56
(lp1915
g790
asbag49
(g70
g51
NtRp1916
(dp1917
g54
(dp1918
g81
g82
ssg63
g1908
sg56
(lp1919
S':'
asbag49
(g70
g51
NtRp1920
(dp1921
g54
(dp1922
sg63
g1908
sg56
(lp1923
g49
(g50
g51
NtRp1924
(dp1925
g54
(dp1926
g62
I4
ssg63
g1920
sg56
(lp1927
S"set(['/Users/abaric/Downloads/web2py/web2py.app/Contents/Resources/applications/Final_Impulse/', '/Users/abaric/Downloads/web2py/web2py.app/Contents/Resources/applications/welcome/', '/Users/abaric/Downloads/web2py/web2py.app/Contents/Resources/applications/admin/'])"
p1928
asbasbasbag49
(g65
g51
NtRp1929
(dp1930
g54
(dp1931
sg63
g1904
sg56
(lp1932
g49
(g70
g51
NtRp1933
(dp1934
g54
(dp1935
g74
g75
ssg63
g1929
sg56
(lp1936
g812
asbag49
(g70
g51
NtRp1937
(dp1938
g54
(dp1939
g81
g82
ssg63
g1929
sg56
(lp1940
S':'
asbag49
(g70
g51
NtRp1941
(dp1942
g54
(dp1943
sg63
g1929
sg56
(lp1944
g49
(g50
g51
NtRp1945
(dp1946
g54
(dp1947
g62
I4
ssg63
g1941
sg56
(lp1948
g825
asbasbasbag49
(g65
g51
NtRp1949
(dp1950
g54
(dp1951
sg63
g1904
sg56
(lp1952
g49
(g70
g51
NtRp1953
(dp1954
g54
(dp1955
g74
g75
ssg63
g1949
sg56
(lp1956
g834
asbag49
(g70
g51
NtRp1957
(dp1958
g54
(dp1959
g81
g82
ssg63
g1949
sg56
(lp1960
S':'
asbag49
(g70
g51
NtRp1961
(dp1962
g54
(dp1963
sg63
g1949
sg56
(lp1964
g49
(g50
g51
NtRp1965
(dp1966
g54
(dp1967
g62
I4
ssg63
g1961
sg56
(lp1968
g49
(g58
g51
NtRp1969
(dp1970
g54
(dp1971
g62
I3
ssg63
Nsg56
(lp1972
sbasbasbasbag49
(g65
g51
NtRp1973
(dp1974
g54
(dp1975
sg63
g1904
sg56
(lp1976
g49
(g70
g51
NtRp1977
(dp1978
g54
(dp1979
g74
g75
ssg63
g1973
sg56
(lp1980
g859
asbag49
(g70
g51
NtRp1981
(dp1982
g54
(dp1983
g81
g82
ssg63
g1973
sg56
(lp1984
S':'
asbag49
(g70
g51
NtRp1985
(dp1986
g54
(dp1987
sg63
g1973
sg56
(lp1988
g49
(g50
g51
NtRp1989
(dp1990
g54
(dp1991
g62
I4
ssg63
g1985
sg56
(lp1992
S"<Values at 0x442e238: {'verbose': False, 'ip': '127.0.0.1', 'with_scheduler': False, 'ips': ['192.168.1.5'], 'shutdown_timeout': 5, 'taskbar': False, 'port': 8000, 'maxthreads': None, 'softcron': False, 'server_name': 'new-host.home', 'bpython': False, 'nogui': False, 'pid_filename': 'httpserver.pid', 'extcron': False, 'runcron': False, 'run_system_tests': False, 'test': None, 'folder': '/Users/abaric/Downloads/web2py/web2py.app/Contents/Resources', 'config': '', 'import_models': False, 'winservice': '', 'shell': None, 'run': '', 'log_filename': 'httpserver.log', 'debuglevel': 30, 'args': [''], 'socket_timeout': 5, 'ssl_ca_certificate': None, 'scheduler': None, 'profiler_filename': None, 'ssl_private_key': '', 'scheduler_groups': None, 'password': '<ask>', 'request_queue_size': 5, 'ssl_certificate': '', 'cronjob': False, 'numthreads': None, 'quiet': False, 'interfaces': None, 'minthreads': None, 'timeout': 10, 'plain': False, 'nobanner': False}>"
p1993
asbasbasbag49
(g65
g51
NtRp1994
(dp1995
g54
(dp1996
sg63
g1904
sg56
(lp1997
g49
(g70
g51
NtRp1998
(dp1999
g54
(dp2000
g74
g75
ssg63
g1994
sg56
(lp2001
g881
asbag49
(g70
g51
NtRp2002
(dp2003
g54
(dp2004
g81
g82
ssg63
g1994
sg56
(lp2005
S':'
asbag49
(g70
g51
NtRp2006
(dp2007
g54
(dp2008
sg63
g1994
sg56
(lp2009
g49
(g50
g51
NtRp2010
(dp2011
g54
(dp2012
g62
I4
ssg63
g2006
sg56
(lp2013
S'set([])'
p2014
asbasbasbag49
(g65
g51
NtRp2015
(dp2016
g54
(dp2017
sg63
g1904
sg56
(lp2018
g49
(g70
g51
NtRp2019
(dp2020
g54
(dp2021
g74
g75
ssg63
g2015
sg56
(lp2022
g903
asbag49
(g70
g51
NtRp2023
(dp2024
g54
(dp2025
g81
g82
ssg63
g2015
sg56
(lp2026
S':'
asbag49
(g70
g51
NtRp2027
(dp2028
g54
(dp2029
sg63
g2015
sg56
(lp2030
g49
(g50
g51
NtRp2031
(dp2032
g54
(dp2033
g62
I4
ssg63
g2027
sg56
(lp2034
g92
asbasbasbag49
(g65
g51
NtRp2035
(dp2036
g54
(dp2037
sg63
g1904
sg56
(lp2038
g49
(g70
g51
NtRp2039
(dp2040
g54
(dp2041
g74
g75
ssg63
g2035
sg56
(lp2042
g924
asbag49
(g70
g51
NtRp2043
(dp2044
g54
(dp2045
g81
g82
ssg63
g2035
sg56
(lp2046
S':'
asbag49
(g70
g51
NtRp2047
(dp2048
g54
(dp2049
sg63
g2035
sg56
(lp2050
g49
(g50
g51
NtRp2051
(dp2052
g54
(dp2053
g62
I4
ssg63
g2047
sg56
(lp2054
g937
asbasbasbag49
(g65
g51
NtRp2055
(dp2056
g54
(dp2057
sg63
g1904
sg56
(lp2058
g49
(g70
g51
NtRp2059
(dp2060
g54
(dp2061
g74
g75
ssg63
g2055
sg56
(lp2062
g1122
asbag49
(g70
g51
NtRp2063
(dp2064
g54
(dp2065
g81
g82
ssg63
g2055
sg56
(lp2066
S':'
asbag49
(g70
g51
NtRp2067
(dp2068
g54
(dp2069
sg63
g2055
sg56
(lp2070
g49
(g50
g51
NtRp2071
(dp2072
g54
(dp2073
g62
I4
ssg63
g2067
sg56
(lp2074
g92
asbasbasbag49
(g65
g51
NtRp2075
(dp2076
g54
(dp2077
sg63
g1904
sg56
(lp2078
g49
(g70
g51
NtRp2079
(dp2080
g54
(dp2081
g74
g75
ssg63
g2075
sg56
(lp2082
g1143
asbag49
(g70
g51
NtRp2083
(dp2084
g54
(dp2085
g81
g82
ssg63
g2075
sg56
(lp2086
S':'
asbag49
(g70
g51
NtRp2087
(dp2088
g54
(dp2089
sg63
g2075
sg56
(lp2090
g49
(g50
g51
NtRp2091
(dp2092
g54
(dp2093
g62
I4
ssg63
g2087
sg56
(lp2094
g92
asbasbasbag49
(g65
g51
NtRp2095
(dp2096
g54
(dp2097
sg63
g1904
sg56
(lp2098
g49
(g70
g51
NtRp2099
(dp2100
g54
(dp2101
g74
g75
ssg63
g2095
sg56
(lp2102
g1164
asbag49
(g70
g51
NtRp2103
(dp2104
g54
(dp2105
g81
g82
ssg63
g2095
sg56
(lp2106
S':'
asbag49
(g70
g51
NtRp2107
(dp2108
g54
(dp2109
sg63
g2095
sg56
(lp2110
g49
(g50
g51
NtRp2111
(dp2112
g54
(dp2113
g62
I4
ssg63
g2107
sg56
(lp2114
g49
(g58
g51
NtRp2115
(dp2116
g54
(dp2117
g62
I3
ssg63
Nsg56
(lp2118
g49
(g65
g51
NtRp2119
(dp2120
g54
(dp2121
sg63
g2115
sg56
(lp2122
g49
(g70
g51
NtRp2123
(dp2124
g54
(dp2125
sg63
g2119
sg56
(lp2126
g49
(g50
g51
NtRp2127
(dp2128
g54
(dp2129
g62
I3
ssg63
g2123
sg56
(lp2130
g1193
asbasbasbag49
(g65
g51
NtRp2131
(dp2132
g54
(dp2133
sg63
g2115
sg56
(lp2134
g49
(g70
g51
NtRp2135
(dp2136
g54
(dp2137
sg63
g2131
sg56
(lp2138
g49
(g50
g51
NtRp2139
(dp2140
g54
(dp2141
g62
I3
ssg63
g2135
sg56
(lp2142
g1206
asbasbasbag49
(g65
g51
NtRp2143
(dp2144
g54
(dp2145
sg63
g2115
sg56
(lp2146
g49
(g70
g51
NtRp2147
(dp2148
g54
(dp2149
sg63
g2143
sg56
(lp2150
g49
(g50
g51
NtRp2151
(dp2152
g54
(dp2153
g62
I3
ssg63
g2147
sg56
(lp2154
g1219
asbasbasbag49
(g65
g51
NtRp2155
(dp2156
g54
(dp2157
sg63
g2115
sg56
(lp2158
g49
(g70
g51
NtRp2159
(dp2160
g54
(dp2161
sg63
g2155
sg56
(lp2162
g49
(g50
g51
NtRp2163
(dp2164
g54
(dp2165
g62
I3
ssg63
g2159
sg56
(lp2166
g1232
asbasbasbag49
(g65
g51
NtRp2167
(dp2168
g54
(dp2169
sg63
g2115
sg56
(lp2170
g49
(g70
g51
NtRp2171
(dp2172
g54
(dp2173
sg63
g2167
sg56
(lp2174
g49
(g50
g51
NtRp2175
(dp2176
g54
(dp2177
g62
I3
ssg63
g2171
sg56
(lp2178
g1245
asbasbasbasbasbasbasbag49
(g65
g51
NtRp2179
(dp2180
g54
(dp2181
sg63
g1904
sg56
(lp2182
g49
(g70
g51
NtRp2183
(dp2184
g54
(dp2185
g74
g75
ssg63
g2179
sg56
(lp2186
g1512
asbag49
(g70
g51
NtRp2187
(dp2188
g54
(dp2189
g81
g82
ssg63
g2179
sg56
(lp2190
S':'
asbag49
(g70
g51
NtRp2191
(dp2192
g54
(dp2193
sg63
g2179
sg56
(lp2194
g49
(g50
g51
NtRp2195
(dp2196
g54
(dp2197
g62
I4
ssg63
g2191
sg56
(lp2198
g49
(g58
g51
NtRp2199
(dp2200
g54
(dp2201
g62
I3
ssg63
Nsg56
(lp2202
g49
(g65
g51
NtRp2203
(dp2204
g54
(dp2205
sg63
g2199
sg56
(lp2206
g49
(g70
g51
NtRp2207
(dp2208
g54
(dp2209
sg63
g2203
sg56
(lp2210
g49
(g50
g51
NtRp2211
(dp2212
g54
(dp2213
g62
I3
ssg63
g2207
sg56
(lp2214
S'2'
asbasbasbag49
(g65
g51
NtRp2215
(dp2216
g54
(dp2217
sg63
g2199
sg56
(lp2218
g49
(g70
g51
NtRp2219
(dp2220
g54
(dp2221
sg63
g2215
sg56
(lp2222
g49
(g50
g51
NtRp2223
(dp2224
g54
(dp2225
g62
I3
ssg63
g2219
sg56
(lp2226
S'2'
asbasbasbag49
(g65
g51
NtRp2227
(dp2228
g54
(dp2229
sg63
g2199
sg56
(lp2230
g49
(g70
g51
NtRp2231
(dp2232
g54
(dp2233
sg63
g2227
sg56
(lp2234
g49
(g50
g51
NtRp2235
(dp2236
g54
(dp2237
g62
I3
ssg63
g2231
sg56
(lp2238
S'1'
asbasbasbag49
(g65
g51
NtRp2239
(dp2240
g54
(dp2241
sg63
g2199
sg56
(lp2242
g49
(g70
g51
NtRp2243
(dp2244
g54
(dp2245
sg63
g2239
sg56
(lp2246
g49
(g50
g51
NtRp2247
(dp2248
g54
(dp2249
g62
I3
ssg63
g2243
sg56
(lp2250
S'datetime.datetime(2012, 10, 21, 16, 57, 4)'
p2251
asbasbasbag49
(g65
g51
NtRp2252
(dp2253
g54
(dp2254
sg63
g2199
sg56
(lp2255
g49
(g70
g51
NtRp2256
(dp2257
g54
(dp2258
sg63
g2252
sg56
(lp2259
g49
(g50
g51
NtRp2260
(dp2261
g54
(dp2262
g62
I3
ssg63
g2256
sg56
(lp2263
g1590
asbasbasbasbasbasbasbasbasbasbasbag49
(g65
g51
NtRp2264
(dp2265
g54
(dp2266
sg63
g59
sg56
(lp2267
g49
(g70
g51
NtRp2268
(dp2269
g54
(dp2270
g74
g75
ssg63
g2264
sg56
(lp2271
S'is_https'
p2272
asbag49
(g70
g51
NtRp2273
(dp2274
g54
(dp2275
g81
g82
ssg63
g2264
sg56
(lp2276
S':'
asbag49
(g70
g51
NtRp2277
(dp2278
g54
(dp2279
sg63
g2264
sg56
(lp2280
g49
(g50
g51
NtRp2281
(dp2282
g54
(dp2283
g62
I5
ssg63
g2277
sg56
(lp2284
g92
asbasbasbag49
(g65
g51
NtRp2285
(dp2286
g54
(dp2287
sg63
g59
sg56
(lp2288
g49
(g70
g51
NtRp2289
(dp2290
g54
(dp2291
g74
g75
ssg63
g2285
sg56
(lp2292
S'is_local'
p2293
asbag49
(g70
g51
NtRp2294
(dp2295
g54
(dp2296
g81
g82
ssg63
g2285
sg56
(lp2297
S':'
asbag49
(g70
g51
NtRp2298
(dp2299
g54
(dp2300
sg63
g2285
sg56
(lp2301
g49
(g50
g51
NtRp2302
(dp2303
g54
(dp2304
g62
I5
ssg63
g2298
sg56
(lp2305
g1699
asbasbasbag49
(g65
g51
NtRp2306
(dp2307
g54
(dp2308
sg63
g59
sg56
(lp2309
g49
(g70
g51
NtRp2310
(dp2311
g54
(dp2312
g74
g75
ssg63
g2306
sg56
(lp2313
S'is_restful'
p2314
asbag49
(g70
g51
NtRp2315
(dp2316
g54
(dp2317
g81
g82
ssg63
g2306
sg56
(lp2318
S':'
asbag49
(g70
g51
NtRp2319
(dp2320
g54
(dp2321
sg63
g2306
sg56
(lp2322
g49
(g50
g51
NtRp2323
(dp2324
g54
(dp2325
g62
I5
ssg63
g2319
sg56
(lp2326
g92
asbasbasbag49
(g65
g51
NtRp2327
(dp2328
g54
(dp2329
sg63
g59
sg56
(lp2330
g49
(g70
g51
NtRp2331
(dp2332
g54
(dp2333
g74
g75
ssg63
g2327
sg56
(lp2334
S'now'
p2335
asbag49
(g70
g51
NtRp2336
(dp2337
g54
(dp2338
g81
g82
ssg63
g2327
sg56
(lp2339
S':'
asbag49
(g70
g51
NtRp2340
(dp2341
g54
(dp2342
sg63
g2327
sg56
(lp2343
g49
(g50
g51
NtRp2344
(dp2345
g54
(dp2346
g62
I5
ssg63
g2340
sg56
(lp2347
S'datetime.datetime(2014, 4, 16, 22, 25, 30, 480967)'
p2348
asbasbasbag49
(g65
g51
NtRp2349
(dp2350
g54
(dp2351
sg63
g59
sg56
(lp2352
g49
(g70
g51
NtRp2353
(dp2354
g54
(dp2355
g74
g75
ssg63
g2349
sg56
(lp2356
S'post_vars'
p2357
asbag49
(g70
g51
NtRp2358
(dp2359
g54
(dp2360
g81
g82
ssg63
g2349
sg56
(lp2361
S':'
asbag49
(g70
g51
NtRp2362
(dp2363
g54
(dp2364
sg63
g2349
sg56
(lp2365
g49
(g50
g51
NtRp2366
(dp2367
g54
(dp2368
g62
I5
ssg63
g2362
sg56
(lp2369
g49
(g58
g51
NtRp2370
(dp2371
g54
(dp2372
g62
I4
ssg63
Nsg56
(lp2373
sbasbasbasbag49
(g65
g51
NtRp2374
(dp2375
g54
(dp2376
sg63
g59
sg56
(lp2377
g49
(g70
g51
NtRp2378
(dp2379
g54
(dp2380
g74
g75
ssg63
g2374
sg56
(lp2381
S'raw_args'
p2382
asbag49
(g70
g51
NtRp2383
(dp2384
g54
(dp2385
g81
g82
ssg63
g2374
sg56
(lp2386
S':'
asbag49
(g70
g51
NtRp2387
(dp2388
g54
(dp2389
sg63
g2374
sg56
(lp2390
g49
(g50
g51
NtRp2391
(dp2392
g54
(dp2393
g62
I5
ssg63
g2387
sg56
(lp2394
S''
asbasbasbag49
(g65
g51
NtRp2395
(dp2396
g54
(dp2397
sg63
g59
sg56
(lp2398
g49
(g70
g51
NtRp2399
(dp2400
g54
(dp2401
g74
g75
ssg63
g2395
sg56
(lp2402
S'raw_extension'
p2403
asbag49
(g70
g51
NtRp2404
(dp2405
g54
(dp2406
g81
g82
ssg63
g2395
sg56
(lp2407
S':'
asbag49
(g70
g51
NtRp2408
(dp2409
g54
(dp2410
sg63
g2395
sg56
(lp2411
g49
(g50
g51
NtRp2412
(dp2413
g54
(dp2414
g62
I5
ssg63
g2408
sg56
(lp2415
S'None'
p2416
asbasbasbag49
(g65
g51
NtRp2417
(dp2418
g54
(dp2419
sg63
g59
sg56
(lp2420
g49
(g70
g51
NtRp2421
(dp2422
g54
(dp2423
g74
g75
ssg63
g2417
sg56
(lp2424
S'url'
p2425
asbag49
(g70
g51
NtRp2426
(dp2427
g54
(dp2428
g81
g82
ssg63
g2417
sg56
(lp2429
S':'
asbag49
(g70
g51
NtRp2430
(dp2431
g54
(dp2432
sg63
g2417
sg56
(lp2433
g49
(g50
g51
NtRp2434
(dp2435
g54
(dp2436
g62
I5
ssg63
g2430
sg56
(lp2437
g1267
asbasbasbag49
(g65
g51
NtRp2438
(dp2439
g54
(dp2440
sg63
g59
sg56
(lp2441
g49
(g70
g51
NtRp2442
(dp2443
g54
(dp2444
g74
g75
ssg63
g2438
sg56
(lp2445
S'utcnow'
p2446
asbag49
(g70
g51
NtRp2447
(dp2448
g54
(dp2449
g81
g82
ssg63
g2438
sg56
(lp2450
S':'
asbag49
(g70
g51
NtRp2451
(dp2452
g54
(dp2453
sg63
g2438
sg56
(lp2454
g49
(g50
g51
NtRp2455
(dp2456
g54
(dp2457
g62
I5
ssg63
g2451
sg56
(lp2458
S'datetime.datetime(2014, 4, 17, 2, 25, 30, 480981)'
p2459
asbasbasbag49
(g65
g51
NtRp2460
(dp2461
g54
(dp2462
sg63
g59
sg56
(lp2463
g49
(g70
g51
NtRp2464
(dp2465
g54
(dp2466
g74
g75
ssg63
g2460
sg56
(lp2467
S'uuid'
p2468
asbag49
(g70
g51
NtRp2469
(dp2470
g54
(dp2471
g81
g82
ssg63
g2460
sg56
(lp2472
S':'
asbag49
(g70
g51
NtRp2473
(dp2474
g54
(dp2475
sg63
g2460
sg56
(lp2476
g49
(g50
g51
NtRp2477
(dp2478
g54
(dp2479
g62
I5
ssg63
g2473
sg56
(lp2480
S'Final_Impulse/127.0.0.1.2014-04-16.22-25-30.a412411f-156f-4c2e-b8ff-1bf807e8051c'
p2481
asbasbasbag49
(g65
g51
NtRp2482
(dp2483
g54
(dp2484
sg63
g59
sg56
(lp2485
g49
(g70
g51
NtRp2486
(dp2487
g54
(dp2488
g74
g75
ssg63
g2482
sg56
(lp2489
S'vars'
p2490
asbag49
(g70
g51
NtRp2491
(dp2492
g54
(dp2493
g81
g82
ssg63
g2482
sg56
(lp2494
S':'
asbag49
(g70
g51
NtRp2495
(dp2496
g54
(dp2497
sg63
g2482
sg56
(lp2498
g49
(g50
g51
NtRp2499
(dp2500
g54
(dp2501
g62
I5
ssg63
g2495
sg56
(lp2502
g49
(g58
g51
NtRp2503
(dp2504
g54
(dp2505
g62
I4
ssg63
Nsg56
(lp2506
sbasbasbasbag49
(g65
g51
NtRp2507
(dp2508
g54
(dp2509
sg63
g59
sg56
(lp2510
g49
(g70
g51
NtRp2511
(dp2512
g54
(dp2513
g74
g75
ssg63
g2507
sg56
(lp2514
S'wsgi'
p2515
asbag49
(g70
g51
NtRp2516
(dp2517
g54
(dp2518
g81
g82
ssg63
g2507
sg56
(lp2519
S':'
asbag49
(g70
g51
NtRp2520
(dp2521
g54
(dp2522
sg63
g2507
sg56
(lp2523
g49
(g50
g51
NtRp2524
(dp2525
g54
(dp2526
g62
I5
ssg63
g2520
sg56
(lp2527
g49
(g58
g51
NtRp2528
(dp2529
g54
(dp2530
g62
I4
ssg63
Nsg56
(lp2531
g49
(g65
g51
NtRp2532
(dp2533
g54
(dp2534
sg63
g2528
sg56
(lp2535
g49
(g70
g51
NtRp2536
(dp2537
g54
(dp2538
g74
g75
ssg63
g2532
sg56
(lp2539
S'environ'
p2540
asbag49
(g70
g51
NtRp2541
(dp2542
g54
(dp2543
g81
g82
ssg63
g2532
sg56
(lp2544
S':'
asbag49
(g70
g51
NtRp2545
(dp2546
g54
(dp2547
sg63
g2532
sg56
(lp2548
g49
(g50
g51
NtRp2549
(dp2550
g54
(dp2551
g62
I4
ssg63
g2545
sg56
(lp2552
g49
(g58
g51
NtRp2553
(dp2554
g54
(dp2555
g62
I3
ssg63
Nsg56
(lp2556
g49
(g65
g51
NtRp2557
(dp2558
g54
(dp2559
sg63
g2553
sg56
(lp2560
g49
(g70
g51
NtRp2561
(dp2562
g54
(dp2563
g74
g75
ssg63
g2557
sg56
(lp2564
S'HTTP_ACCEPT'
p2565
asbag49
(g70
g51
NtRp2566
(dp2567
g54
(dp2568
g81
g82
ssg63
g2557
sg56
(lp2569
S':'
asbag49
(g70
g51
NtRp2570
(dp2571
g54
(dp2572
sg63
g2557
sg56
(lp2573
g49
(g50
g51
NtRp2574
(dp2575
g54
(dp2576
g62
I3
ssg63
g2570
sg56
(lp2577
g959
asbasbasbag49
(g65
g51
NtRp2578
(dp2579
g54
(dp2580
sg63
g2553
sg56
(lp2581
g49
(g70
g51
NtRp2582
(dp2583
g54
(dp2584
g74
g75
ssg63
g2578
sg56
(lp2585
S'HTTP_ACCEPT_ENCODING'
p2586
asbag49
(g70
g51
NtRp2587
(dp2588
g54
(dp2589
g81
g82
ssg63
g2578
sg56
(lp2590
S':'
asbag49
(g70
g51
NtRp2591
(dp2592
g54
(dp2593
sg63
g2578
sg56
(lp2594
g49
(g50
g51
NtRp2595
(dp2596
g54
(dp2597
g62
I3
ssg63
g2591
sg56
(lp2598
g981
asbasbasbag49
(g65
g51
NtRp2599
(dp2600
g54
(dp2601
sg63
g2553
sg56
(lp2602
g49
(g70
g51
NtRp2603
(dp2604
g54
(dp2605
g74
g75
ssg63
g2599
sg56
(lp2606
S'HTTP_ACCEPT_LANGUAGE'
p2607
asbag49
(g70
g51
NtRp2608
(dp2609
g54
(dp2610
g81
g82
ssg63
g2599
sg56
(lp2611
S':'
asbag49
(g70
g51
NtRp2612
(dp2613
g54
(dp2614
sg63
g2599
sg56
(lp2615
g49
(g50
g51
NtRp2616
(dp2617
g54
(dp2618
g62
I3
ssg63
g2612
sg56
(lp2619
g1003
asbasbasbag49
(g65
g51
NtRp2620
(dp2621
g54
(dp2622
sg63
g2553
sg56
(lp2623
g49
(g70
g51
NtRp2624
(dp2625
g54
(dp2626
g74
g75
ssg63
g2620
sg56
(lp2627
S'HTTP_CONNECTION'
p2628
asbag49
(g70
g51
NtRp2629
(dp2630
g54
(dp2631
g81
g82
ssg63
g2620
sg56
(lp2632
S':'
asbag49
(g70
g51
NtRp2633
(dp2634
g54
(dp2635
sg63
g2620
sg56
(lp2636
g49
(g50
g51
NtRp2637
(dp2638
g54
(dp2639
g62
I3
ssg63
g2633
sg56
(lp2640
g1025
asbasbasbag49
(g65
g51
NtRp2641
(dp2642
g54
(dp2643
sg63
g2553
sg56
(lp2644
g49
(g70
g51
NtRp2645
(dp2646
g54
(dp2647
g74
g75
ssg63
g2641
sg56
(lp2648
S'HTTP_COOKIE'
p2649
asbag49
(g70
g51
NtRp2650
(dp2651
g54
(dp2652
g81
g82
ssg63
g2641
sg56
(lp2653
S':'
asbag49
(g70
g51
NtRp2654
(dp2655
g54
(dp2656
sg63
g2641
sg56
(lp2657
g49
(g50
g51
NtRp2658
(dp2659
g54
(dp2660
g62
I3
ssg63
g2654
sg56
(lp2661
g1047
asbasbasbag49
(g65
g51
NtRp2662
(dp2663
g54
(dp2664
sg63
g2553
sg56
(lp2665
g49
(g70
g51
NtRp2666
(dp2667
g54
(dp2668
g74
g75
ssg63
g2662
sg56
(lp2669
S'HTTP_HOST'
p2670
asbag49
(g70
g51
NtRp2671
(dp2672
g54
(dp2673
g81
g82
ssg63
g2662
sg56
(lp2674
S':'
asbag49
(g70
g51
NtRp2675
(dp2676
g54
(dp2677
sg63
g2662
sg56
(lp2678
g49
(g50
g51
NtRp2679
(dp2680
g54
(dp2681
g62
I3
ssg63
g2675
sg56
(lp2682
g1069
asbasbasbag49
(g65
g51
NtRp2683
(dp2684
g54
(dp2685
sg63
g2553
sg56
(lp2686
g49
(g70
g51
NtRp2687
(dp2688
g54
(dp2689
g74
g75
ssg63
g2683
sg56
(lp2690
S'HTTP_REFERER'
p2691
asbag49
(g70
g51
NtRp2692
(dp2693
g54
(dp2694
g81
g82
ssg63
g2683
sg56
(lp2695
S':'
asbag49
(g70
g51
NtRp2696
(dp2697
g54
(dp2698
sg63
g2683
sg56
(lp2699
g49
(g50
g51
NtRp2700
(dp2701
g54
(dp2702
g62
I3
ssg63
g2696
sg56
(lp2703
g1091
asbasbasbag49
(g65
g51
NtRp2704
(dp2705
g54
(dp2706
sg63
g2553
sg56
(lp2707
g49
(g70
g51
NtRp2708
(dp2709
g54
(dp2710
g74
g75
ssg63
g2704
sg56
(lp2711
S'HTTP_USER_AGENT'
p2712
asbag49
(g70
g51
NtRp2713
(dp2714
g54
(dp2715
g81
g82
ssg63
g2704
sg56
(lp2716
S':'
asbag49
(g70
g51
NtRp2717
(dp2718
g54
(dp2719
sg63
g2704
sg56
(lp2720
g49
(g50
g51
NtRp2721
(dp2722
g54
(dp2723
g62
I3
ssg63
g2717
sg56
(lp2724
g1113
asbasbasbag49
(g65
g51
NtRp2725
(dp2726
g54
(dp2727
sg63
g2553
sg56
(lp2728
g49
(g70
g51
NtRp2729
(dp2730
g54
(dp2731
g74
g75
ssg63
g2725
sg56
(lp2732
S'PATH_INFO'
p2733
asbag49
(g70
g51
NtRp2734
(dp2735
g54
(dp2736
g81
g82
ssg63
g2725
sg56
(lp2737
S':'
asbag49
(g70
g51
NtRp2738
(dp2739
g54
(dp2740
sg63
g2725
sg56
(lp2741
g49
(g50
g51
NtRp2742
(dp2743
g54
(dp2744
g62
I3
ssg63
g2738
sg56
(lp2745
g1267
asbasbasbag49
(g65
g51
NtRp2746
(dp2747
g54
(dp2748
sg63
g2553
sg56
(lp2749
g49
(g70
g51
NtRp2750
(dp2751
g54
(dp2752
g74
g75
ssg63
g2746
sg56
(lp2753
S'QUERY_STRING'
p2754
asbag49
(g70
g51
NtRp2755
(dp2756
g54
(dp2757
g81
g82
ssg63
g2746
sg56
(lp2758
S':'
asbag49
(g70
g51
NtRp2759
(dp2760
g54
(dp2761
sg63
g2746
sg56
(lp2762
g49
(g50
g51
NtRp2763
(dp2764
g54
(dp2765
g62
I3
ssg63
g2759
sg56
(lp2766
S''
asbasbasbag49
(g65
g51
NtRp2767
(dp2768
g54
(dp2769
sg63
g2553
sg56
(lp2770
g49
(g70
g51
NtRp2771
(dp2772
g54
(dp2773
g74
g75
ssg63
g2767
sg56
(lp2774
S'REMOTE_ADDR'
p2775
asbag49
(g70
g51
NtRp2776
(dp2777
g54
(dp2778
g81
g82
ssg63
g2767
sg56
(lp2779
S':'
asbag49
(g70
g51
NtRp2780
(dp2781
g54
(dp2782
sg63
g2767
sg56
(lp2783
g49
(g50
g51
NtRp2784
(dp2785
g54
(dp2786
g62
I3
ssg63
g2780
sg56
(lp2787
g204
asbasbasbag49
(g65
g51
NtRp2788
(dp2789
g54
(dp2790
sg63
g2553
sg56
(lp2791
g49
(g70
g51
NtRp2792
(dp2793
g54
(dp2794
g74
g75
ssg63
g2788
sg56
(lp2795
S'REMOTE_PORT'
p2796
asbag49
(g70
g51
NtRp2797
(dp2798
g54
(dp2799
g81
g82
ssg63
g2788
sg56
(lp2800
S':'
asbag49
(g70
g51
NtRp2801
(dp2802
g54
(dp2803
sg63
g2788
sg56
(lp2804
g49
(g50
g51
NtRp2805
(dp2806
g54
(dp2807
g62
I3
ssg63
g2801
sg56
(lp2808
g1331
asbasbasbag49
(g65
g51
NtRp2809
(dp2810
g54
(dp2811
sg63
g2553
sg56
(lp2812
g49
(g70
g51
NtRp2813
(dp2814
g54
(dp2815
g74
g75
ssg63
g2809
sg56
(lp2816
S'REQUEST_METHOD'
p2817
asbag49
(g70
g51
NtRp2818
(dp2819
g54
(dp2820
g81
g82
ssg63
g2809
sg56
(lp2821
S':'
asbag49
(g70
g51
NtRp2822
(dp2823
g54
(dp2824
sg63
g2809
sg56
(lp2825
g49
(g50
g51
NtRp2826
(dp2827
g54
(dp2828
g62
I3
ssg63
g2822
sg56
(lp2829
g1353
asbasbasbag49
(g65
g51
NtRp2830
(dp2831
g54
(dp2832
sg63
g2553
sg56
(lp2833
g49
(g70
g51
NtRp2834
(dp2835
g54
(dp2836
g74
g75
ssg63
g2830
sg56
(lp2837
S'REQUEST_URI'
p2838
asbag49
(g70
g51
NtRp2839
(dp2840
g54
(dp2841
g81
g82
ssg63
g2830
sg56
(lp2842
S':'
asbag49
(g70
g51
NtRp2843
(dp2844
g54
(dp2845
sg63
g2830
sg56
(lp2846
g49
(g50
g51
NtRp2847
(dp2848
g54
(dp2849
g62
I3
ssg63
g2843
sg56
(lp2850
g1267
asbasbasbag49
(g65
g51
NtRp2851
(dp2852
g54
(dp2853
sg63
g2553
sg56
(lp2854
g49
(g70
g51
NtRp2855
(dp2856
g54
(dp2857
g74
g75
ssg63
g2851
sg56
(lp2858
S'SCRIPT_NAME'
p2859
asbag49
(g70
g51
NtRp2860
(dp2861
g54
(dp2862
g81
g82
ssg63
g2851
sg56
(lp2863
S':'
asbag49
(g70
g51
NtRp2864
(dp2865
g54
(dp2866
sg63
g2851
sg56
(lp2867
g49
(g50
g51
NtRp2868
(dp2869
g54
(dp2870
g62
I3
ssg63
g2864
sg56
(lp2871
S''
asbasbasbag49
(g65
g51
NtRp2872
(dp2873
g54
(dp2874
sg63
g2553
sg56
(lp2875
g49
(g70
g51
NtRp2876
(dp2877
g54
(dp2878
g74
g75
ssg63
g2872
sg56
(lp2879
S'SERVER_NAME'
p2880
asbag49
(g70
g51
NtRp2881
(dp2882
g54
(dp2883
g81
g82
ssg63
g2872
sg56
(lp2884
S':'
asbag49
(g70
g51
NtRp2885
(dp2886
g54
(dp2887
sg63
g2872
sg56
(lp2888
g49
(g50
g51
NtRp2889
(dp2890
g54
(dp2891
g62
I3
ssg63
g2885
sg56
(lp2892
g1232
asbasbasbag49
(g65
g51
NtRp2893
(dp2894
g54
(dp2895
sg63
g2553
sg56
(lp2896
g49
(g70
g51
NtRp2897
(dp2898
g54
(dp2899
g74
g75
ssg63
g2893
sg56
(lp2900
S'SERVER_PORT'
p2901
asbag49
(g70
g51
NtRp2902
(dp2903
g54
(dp2904
g81
g82
ssg63
g2893
sg56
(lp2905
S':'
asbag49
(g70
g51
NtRp2906
(dp2907
g54
(dp2908
sg63
g2893
sg56
(lp2909
g49
(g50
g51
NtRp2910
(dp2911
g54
(dp2912
g62
I3
ssg63
g2906
sg56
(lp2913
g1438
asbasbasbag49
(g65
g51
NtRp2914
(dp2915
g54
(dp2916
sg63
g2553
sg56
(lp2917
g49
(g70
g51
NtRp2918
(dp2919
g54
(dp2920
g74
g75
ssg63
g2914
sg56
(lp2921
S'SERVER_PROTOCOL'
p2922
asbag49
(g70
g51
NtRp2923
(dp2924
g54
(dp2925
g81
g82
ssg63
g2914
sg56
(lp2926
S':'
asbag49
(g70
g51
NtRp2927
(dp2928
g54
(dp2929
sg63
g2914
sg56
(lp2930
g49
(g50
g51
NtRp2931
(dp2932
g54
(dp2933
g62
I3
ssg63
g2927
sg56
(lp2934
g1460
asbasbasbag49
(g65
g51
NtRp2935
(dp2936
g54
(dp2937
sg63
g2553
sg56
(lp2938
g49
(g70
g51
NtRp2939
(dp2940
g54
(dp2941
g74
g75
ssg63
g2935
sg56
(lp2942
S'SERVER_SOFTWARE'
p2943
asbag49
(g70
g51
NtRp2944
(dp2945
g54
(dp2946
g81
g82
ssg63
g2935
sg56
(lp2947
S':'
asbag49
(g70
g51
NtRp2948
(dp2949
g54
(dp2950
sg63
g2935
sg56
(lp2951
g49
(g50
g51
NtRp2952
(dp2953
g54
(dp2954
g62
I3
ssg63
g2948
sg56
(lp2955
g1482
asbasbasbag49
(g65
g51
NtRp2956
(dp2957
g54
(dp2958
sg63
g2553
sg56
(lp2959
g49
(g70
g51
NtRp2960
(dp2961
g54
(dp2962
g74
g75
ssg63
g2956
sg56
(lp2963
S'wsgi.errors'
p2964
asbag49
(g70
g51
NtRp2965
(dp2966
g54
(dp2967
g81
g82
ssg63
g2956
sg56
(lp2968
S':'
asbag49
(g70
g51
NtRp2969
(dp2970
g54
(dp2971
sg63
g2956
sg56
(lp2972
g49
(g50
g51
NtRp2973
(dp2974
g54
(dp2975
g62
I3
ssg63
g2969
sg56
(lp2976
S"<open file '<stderr>', mode 'w' at 0x540b0>"
p2977
asbasbasbag49
(g65
g51
NtRp2978
(dp2979
g54
(dp2980
sg63
g2553
sg56
(lp2981
g49
(g70
g51
NtRp2982
(dp2983
g54
(dp2984
g74
g75
ssg63
g2978
sg56
(lp2985
S'wsgi.file_wrapper'
p2986
asbag49
(g70
g51
NtRp2987
(dp2988
g54
(dp2989
g81
g82
ssg63
g2978
sg56
(lp2990
S':'
asbag49
(g70
g51
NtRp2991
(dp2992
g54
(dp2993
sg63
g2978
sg56
(lp2994
g49
(g50
g51
NtRp2995
(dp2996
g54
(dp2997
g62
I3
ssg63
g2991
sg56
(lp2998
S'<class wsgiref.util.FileWrapper at 0x44002d0>'
p2999
asbasbasbag49
(g65
g51
NtRp3000
(dp3001
g54
(dp3002
sg63
g2553
sg56
(lp3003
g49
(g70
g51
NtRp3004
(dp3005
g54
(dp3006
g74
g75
ssg63
g3000
sg56
(lp3007
S'wsgi.input'
p3008
asbag49
(g70
g51
NtRp3009
(dp3010
g54
(dp3011
g81
g82
ssg63
g3000
sg56
(lp3012
S':'
asbag49
(g70
g51
NtRp3013
(dp3014
g54
(dp3015
sg63
g3000
sg56
(lp3016
g49
(g50
g51
NtRp3017
(dp3018
g54
(dp3019
g62
I3
ssg63
g3013
sg56
(lp3020
S'<cStringIO.StringO object at 0x8e93fc0>'
p3021
asbasbasbag49
(g65
g51
NtRp3022
(dp3023
g54
(dp3024
sg63
g2553
sg56
(lp3025
g49
(g70
g51
NtRp3026
(dp3027
g54
(dp3028
g74
g75
ssg63
g3022
sg56
(lp3029
S'wsgi.multiprocess'
p3030
asbag49
(g70
g51
NtRp3031
(dp3032
g54
(dp3033
g81
g82
ssg63
g3022
sg56
(lp3034
S':'
asbag49
(g70
g51
NtRp3035
(dp3036
g54
(dp3037
sg63
g3022
sg56
(lp3038
g49
(g50
g51
NtRp3039
(dp3040
g54
(dp3041
g62
I3
ssg63
g3035
sg56
(lp3042
g92
asbasbasbag49
(g65
g51
NtRp3043
(dp3044
g54
(dp3045
sg63
g2553
sg56
(lp3046
g49
(g70
g51
NtRp3047
(dp3048
g54
(dp3049
g74
g75
ssg63
g3043
sg56
(lp3050
S'wsgi.multithread'
p3051
asbag49
(g70
g51
NtRp3052
(dp3053
g54
(dp3054
g81
g82
ssg63
g3043
sg56
(lp3055
S':'
asbag49
(g70
g51
NtRp3056
(dp3057
g54
(dp3058
sg63
g3043
sg56
(lp3059
g49
(g50
g51
NtRp3060
(dp3061
g54
(dp3062
g62
I3
ssg63
g3056
sg56
(lp3063
g1699
asbasbasbag49
(g65
g51
NtRp3064
(dp3065
g54
(dp3066
sg63
g2553
sg56
(lp3067
g49
(g70
g51
NtRp3068
(dp3069
g54
(dp3070
g74
g75
ssg63
g3064
sg56
(lp3071
S'wsgi.run_once'
p3072
asbag49
(g70
g51
NtRp3073
(dp3074
g54
(dp3075
g81
g82
ssg63
g3064
sg56
(lp3076
S':'
asbag49
(g70
g51
NtRp3077
(dp3078
g54
(dp3079
sg63
g3064
sg56
(lp3080
g49
(g50
g51
NtRp3081
(dp3082
g54
(dp3083
g62
I3
ssg63
g3077
sg56
(lp3084
g92
asbasbasbag49
(g65
g51
NtRp3085
(dp3086
g54
(dp3087
sg63
g2553
sg56
(lp3088
g49
(g70
g51
NtRp3089
(dp3090
g54
(dp3091
g74
g75
ssg63
g3085
sg56
(lp3092
S'wsgi.url_scheme'
p3093
asbag49
(g70
g51
NtRp3094
(dp3095
g54
(dp3096
g81
g82
ssg63
g3085
sg56
(lp3097
S':'
asbag49
(g70
g51
NtRp3098
(dp3099
g54
(dp3100
sg63
g3085
sg56
(lp3101
g49
(g50
g51
NtRp3102
(dp3103
g54
(dp3104
g62
I3
ssg63
g3098
sg56
(lp3105
g1742
asbasbasbag49
(g65
g51
NtRp3106
(dp3107
g54
(dp3108
sg63
g2553
sg56
(lp3109
g49
(g70
g51
NtRp3110
(dp3111
g54
(dp3112
g74
g75
ssg63
g3106
sg56
(lp3113
S'wsgi.version'
p3114
asbag49
(g70
g51
NtRp3115
(dp3116
g54
(dp3117
g81
g82
ssg63
g3106
sg56
(lp3118
S':'
asbag49
(g70
g51
NtRp3119
(dp3120
g54
(dp3121
sg63
g3106
sg56
(lp3122
g49
(g50
g51
NtRp3123
(dp3124
g54
(dp3125
g62
I3
ssg63
g3119
sg56
(lp3126
S'1'
asbasbasbasbasbasbasbasbasbasbasbasbasbsS'frames'
p3127
(lp3128
(dp3129
S'file'
p3130
S'/Users/abaric/Downloads/web2py/web2py.app/Contents/Resources/gluon/restricted.py'
p3131
sS'dump'
p3132
(dp3133
sS'lnum'
p3134
I212
sS'lines'
p3135
(dp3136
sS'call'
p3137
S'(code=r"response.write(\'<!DOCTYPE html>\\n<!-- paulirish.... 5px #349C01 solid; }\\n</style>\\n\', escape=False)", environment={\'A\': <class \'gluon.html.A\'>, \'Auth\': <class \'gluon.tools.Auth\'>, \'B\': <class \'gluon.html.B\'>, \'BEAUTIFY\': <class \'gluon.html.BEAUTIFY\'>, \'BODY\': <class \'gluon.html.BODY\'>, \'BR\': <class \'gluon.html.BR\'>, \'BUTTON\': <class \'gluon.html.BUTTON\'>, \'CAT\': <class \'gluon.html.CAT\'>, \'CENTER\': <class \'gluon.html.CENTER\'>, \'CLEANUP\': <class \'gluon.validators.CLEANUP\'>, ...}, layer=\'/Users/abaric/Downloads/web2py/web2py.app/Conten...al_Impulse/views/default/show_image_comments.html\')'
p3138
sS'func'
p3139
S'restricted'
p3140
sa(dp3141
g3130
S'/Users/abaric/Downloads/web2py/web2py.app/Contents/Resources/applications/Final_Impulse/views/default/show_image_comments.html'
p3142
sg3132
(dp3143
sg3134
I91
sg3135
(dp3144
I96
S"response.write(' \\n    \\n</table>\\n', escape=False)"
p3145
sI97
S"response.write('\\n            ', escape=False)"
p3146
sI98
S"response.write('\\n        </div>\\n\\n        ', escape=False)"
p3147
sI99
S'if right_sidebar_enabled:'
p3148
sI100
S'    response.write(\'\\n        <div class="span3">\\n            \', escape=False)'
p3149
sI101
S"    response.write('\\n            <h3>Right Sidebar</h3>\\n            <p></p>\\n            ', escape=False)"
p3150
sI82
S'    response.write(\'"/></center></td>\\n    </tr> \\n          \\n        \', escape=False)'
p3151
sI83
S'    if len(d[image.id]):'
p3152
sI84
S'        response.write("\\n        <tr>\\n        <td>\\n        <table width=\'100%\'>\\n            ", escape=False)'
p3153
sI85
S'        for t in d[image.id]:'
p3154
sI86
S"            response.write('\\n                        <tr>\\n                        \\n                            <td><center>', escape=False)"
p3155
sI87
S'            response.write(("%s says, \'%s\'")%(t[0],t[1]))'
p3156
sI88
S"            response.write('</center></td>\\n                        \\n                        </tr>\\n            ', escape=False)"
p3157
sI89
S'            pass'
p3158
sI90
S'        response.write(\'\\n        </table>\\n        \\n        \\n        <table width=\\\'100%\\\'>\\n            <tr>\\n          \\t\\t\\t<form enctype="multipart/form-data" action="\', escape=False)'
p3159
sI91
S"        response.write(URL('insert_image_comment',args=(writing.id)))"
p3160
sI92
S'        response.write(\'" method="post"> \\n                        <td><center><input name="image_comment" type="text"></center></td>\\n                        <td><center><input formmethod="post" name="commentform" type="submit"><br></center></td>\\n          \\t\\t\\t</form>\\n           </tr>\\n       </table>\\n        \\n     </td>\\n     </tr>\\n\\n         \', escape=False)'
p3161
sI93
S'        pass'
p3162
sI94
S"    response.write('\\n    ', escape=False)"
p3163
sI95
S'    pass'
p3164
ssg3137
S'()'
p3165
sg3139
S'<module>'
p3166
sasS'pyver'
p3167
S'Python 2.5.1: /Users/abaric/Downloads/web2py/web2py.app/Contents/MacOS/python'
p3168
sS'session'
p3169
g49
(g50
g51
NtRp3170
(dp3171
g54
(dp3172
sg56
(lp3173
g49
(g58
g51
NtRp3174
(dp3175
g54
(dp3176
g62
I5
ssg63
Nsg56
(lp3177
g49
(g65
g51
NtRp3178
(dp3179
g54
(dp3180
sg63
g3174
sg56
(lp3181
g49
(g70
g51
NtRp3182
(dp3183
g54
(dp3184
g74
g75
ssg63
g3178
sg56
(lp3185
S'auth'
p3186
asbag49
(g70
g51
NtRp3187
(dp3188
g54
(dp3189
g81
g82
ssg63
g3178
sg56
(lp3190
S':'
asbag49
(g70
g51
NtRp3191
(dp3192
g54
(dp3193
sg63
g3178
sg56
(lp3194
g49
(g50
g51
NtRp3195
(dp3196
g54
(dp3197
g62
I5
ssg63
g3191
sg56
(lp3198
g49
(g58
g51
NtRp3199
(dp3200
g54
(dp3201
g62
I4
ssg63
Nsg56
(lp3202
g49
(g65
g51
NtRp3203
(dp3204
g54
(dp3205
sg63
g3199
sg56
(lp3206
g49
(g70
g51
NtRp3207
(dp3208
g54
(dp3209
g74
g75
ssg63
g3203
sg56
(lp3210
S'expiration'
p3211
asbag49
(g70
g51
NtRp3212
(dp3213
g54
(dp3214
g81
g82
ssg63
g3203
sg56
(lp3215
S':'
asbag49
(g70
g51
NtRp3216
(dp3217
g54
(dp3218
sg63
g3203
sg56
(lp3219
g49
(g50
g51
NtRp3220
(dp3221
g54
(dp3222
g62
I4
ssg63
g3216
sg56
(lp3223
S'3600'
p3224
asbasbasbag49
(g65
g51
NtRp3225
(dp3226
g54
(dp3227
sg63
g3199
sg56
(lp3228
g49
(g70
g51
NtRp3229
(dp3230
g54
(dp3231
g74
g75
ssg63
g3225
sg56
(lp3232
S'hmac_key'
p3233
asbag49
(g70
g51
NtRp3234
(dp3235
g54
(dp3236
g81
g82
ssg63
g3225
sg56
(lp3237
S':'
asbag49
(g70
g51
NtRp3238
(dp3239
g54
(dp3240
sg63
g3225
sg56
(lp3241
g49
(g50
g51
NtRp3242
(dp3243
g54
(dp3244
g62
I4
ssg63
g3238
sg56
(lp3245
S'c4a7c4c9-3d5c-4d0b-bf8d-e4900cb9e564'
p3246
asbasbasbag49
(g65
g51
NtRp3247
(dp3248
g54
(dp3249
sg63
g3199
sg56
(lp3250
g49
(g70
g51
NtRp3251
(dp3252
g54
(dp3253
g74
g75
ssg63
g3247
sg56
(lp3254
S'last_visit'
p3255
asbag49
(g70
g51
NtRp3256
(dp3257
g54
(dp3258
g81
g82
ssg63
g3247
sg56
(lp3259
S':'
asbag49
(g70
g51
NtRp3260
(dp3261
g54
(dp3262
sg63
g3247
sg56
(lp3263
g49
(g50
g51
NtRp3264
(dp3265
g54
(dp3266
g62
I4
ssg63
g3260
sg56
(lp3267
S'datetime.datetime(2014, 4, 16, 22, 21, 29, 452168)'
p3268
asbasbasbag49
(g65
g51
NtRp3269
(dp3270
g54
(dp3271
sg63
g3199
sg56
(lp3272
g49
(g70
g51
NtRp3273
(dp3274
g54
(dp3275
g74
g75
ssg63
g3269
sg56
(lp3276
S'remember'
p3277
asbag49
(g70
g51
NtRp3278
(dp3279
g54
(dp3280
g81
g82
ssg63
g3269
sg56
(lp3281
S':'
asbag49
(g70
g51
NtRp3282
(dp3283
g54
(dp3284
sg63
g3269
sg56
(lp3285
g49
(g50
g51
NtRp3286
(dp3287
g54
(dp3288
g62
I4
ssg63
g3282
sg56
(lp3289
g92
asbasbasbag49
(g65
g51
NtRp3290
(dp3291
g54
(dp3292
sg63
g3199
sg56
(lp3293
g49
(g70
g51
NtRp3294
(dp3295
g54
(dp3296
g74
g75
ssg63
g3290
sg56
(lp3297
S'user'
p3298
asbag49
(g70
g51
NtRp3299
(dp3300
g54
(dp3301
g81
g82
ssg63
g3290
sg56
(lp3302
S':'
asbag49
(g70
g51
NtRp3303
(dp3304
g54
(dp3305
sg63
g3290
sg56
(lp3306
g49
(g50
g51
NtRp3307
(dp3308
g54
(dp3309
g62
I4
ssg63
g3303
sg56
(lp3310
g49
(g58
g51
NtRp3311
(dp3312
g54
(dp3313
g62
I3
ssg63
Nsg56
(lp3314
g49
(g65
g51
NtRp3315
(dp3316
g54
(dp3317
sg63
g3311
sg56
(lp3318
g49
(g70
g51
NtRp3319
(dp3320
g54
(dp3321
g74
g75
ssg63
g3315
sg56
(lp3322
S'email'
p3323
asbag49
(g70
g51
NtRp3324
(dp3325
g54
(dp3326
g81
g82
ssg63
g3315
sg56
(lp3327
S':'
asbag49
(g70
g51
NtRp3328
(dp3329
g54
(dp3330
sg63
g3315
sg56
(lp3331
g49
(g50
g51
NtRp3332
(dp3333
g54
(dp3334
g62
I3
ssg63
g3328
sg56
(lp3335
S'abaric@agnesirwin.org'
p3336
asbasbasbag49
(g65
g51
NtRp3337
(dp3338
g54
(dp3339
sg63
g3311
sg56
(lp3340
g49
(g70
g51
NtRp3341
(dp3342
g54
(dp3343
g74
g75
ssg63
g3337
sg56
(lp3344
S'first_name'
p3345
asbag49
(g70
g51
NtRp3346
(dp3347
g54
(dp3348
g81
g82
ssg63
g3337
sg56
(lp3349
S':'
asbag49
(g70
g51
NtRp3350
(dp3351
g54
(dp3352
sg63
g3337
sg56
(lp3353
g49
(g50
g51
NtRp3354
(dp3355
g54
(dp3356
g62
I3
ssg63
g3350
sg56
(lp3357
S'Andrea'
p3358
asbasbasbag49
(g65
g51
NtRp3359
(dp3360
g54
(dp3361
sg63
g3311
sg56
(lp3362
g49
(g70
g51
NtRp3363
(dp3364
g54
(dp3365
g74
g75
ssg63
g3359
sg56
(lp3366
S'id'
p3367
asbag49
(g70
g51
NtRp3368
(dp3369
g54
(dp3370
g81
g82
ssg63
g3359
sg56
(lp3371
S':'
asbag49
(g70
g51
NtRp3372
(dp3373
g54
(dp3374
sg63
g3359
sg56
(lp3375
g49
(g50
g51
NtRp3376
(dp3377
g54
(dp3378
g62
I3
ssg63
g3372
sg56
(lp3379
S'1'
asbasbasbag49
(g65
g51
NtRp3380
(dp3381
g54
(dp3382
sg63
g3311
sg56
(lp3383
g49
(g70
g51
NtRp3384
(dp3385
g54
(dp3386
g74
g75
ssg63
g3380
sg56
(lp3387
S'last_name'
p3388
asbag49
(g70
g51
NtRp3389
(dp3390
g54
(dp3391
g81
g82
ssg63
g3380
sg56
(lp3392
S':'
asbag49
(g70
g51
NtRp3393
(dp3394
g54
(dp3395
sg63
g3380
sg56
(lp3396
g49
(g50
g51
NtRp3397
(dp3398
g54
(dp3399
g62
I3
ssg63
g3393
sg56
(lp3400
S'Baric'
p3401
asbasbasbag49
(g65
g51
NtRp3402
(dp3403
g54
(dp3404
sg63
g3311
sg56
(lp3405
g49
(g70
g51
NtRp3406
(dp3407
g54
(dp3408
g74
g75
ssg63
g3402
sg56
(lp3409
S'registration_id'
p3410
asbag49
(g70
g51
NtRp3411
(dp3412
g54
(dp3413
g81
g82
ssg63
g3402
sg56
(lp3414
S':'
asbag49
(g70
g51
NtRp3415
(dp3416
g54
(dp3417
sg63
g3402
sg56
(lp3418
g49
(g50
g51
NtRp3419
(dp3420
g54
(dp3421
g62
I3
ssg63
g3415
sg56
(lp3422
S''
asbasbasbag49
(g65
g51
NtRp3423
(dp3424
g54
(dp3425
sg63
g3311
sg56
(lp3426
g49
(g70
g51
NtRp3427
(dp3428
g54
(dp3429
g74
g75
ssg63
g3423
sg56
(lp3430
S'registration_key'
p3431
asbag49
(g70
g51
NtRp3432
(dp3433
g54
(dp3434
g81
g82
ssg63
g3423
sg56
(lp3435
S':'
asbag49
(g70
g51
NtRp3436
(dp3437
g54
(dp3438
sg63
g3423
sg56
(lp3439
g49
(g50
g51
NtRp3440
(dp3441
g54
(dp3442
g62
I3
ssg63
g3436
sg56
(lp3443
S''
asbasbasbag49
(g65
g51
NtRp3444
(dp3445
g54
(dp3446
sg63
g3311
sg56
(lp3447
g49
(g70
g51
NtRp3448
(dp3449
g54
(dp3450
g74
g75
ssg63
g3444
sg56
(lp3451
S'reset_password_key'
p3452
asbag49
(g70
g51
NtRp3453
(dp3454
g54
(dp3455
g81
g82
ssg63
g3444
sg56
(lp3456
S':'
asbag49
(g70
g51
NtRp3457
(dp3458
g54
(dp3459
sg63
g3444
sg56
(lp3460
g49
(g50
g51
NtRp3461
(dp3462
g54
(dp3463
g62
I3
ssg63
g3457
sg56
(lp3464
S''
asbasbasbasbasbasbasbag49
(g65
g51
NtRp3465
(dp3466
g54
(dp3467
sg63
g3199
sg56
(lp3468
g49
(g70
g51
NtRp3469
(dp3470
g54
(dp3471
g74
g75
ssg63
g3465
sg56
(lp3472
S'user_groups'
p3473
asbag49
(g70
g51
NtRp3474
(dp3475
g54
(dp3476
g81
g82
ssg63
g3465
sg56
(lp3477
S':'
asbag49
(g70
g51
NtRp3478
(dp3479
g54
(dp3480
sg63
g3465
sg56
(lp3481
g49
(g50
g51
NtRp3482
(dp3483
g54
(dp3484
g62
I4
ssg63
g3478
sg56
(lp3485
g49
(g58
g51
NtRp3486
(dp3487
g54
(dp3488
g62
I3
ssg63
Nsg56
(lp3489
sbasbasbasbasbasbasbasbag49
(g65
g51
NtRp3490
(dp3491
g54
(dp3492
sg63
g3174
sg56
(lp3493
g49
(g70
g51
NtRp3494
(dp3495
g54
(dp3496
g74
g75
ssg63
g3490
sg56
(lp3497
S'flash'
p3498
asbag49
(g70
g51
NtRp3499
(dp3500
g54
(dp3501
g81
g82
ssg63
g3490
sg56
(lp3502
S':'
asbag49
(g70
g51
NtRp3503
(dp3504
g54
(dp3505
sg63
g3490
sg56
(lp3506
g49
(g50
g51
NtRp3507
(dp3508
g54
(dp3509
g62
I5
ssg63
g3503
sg56
(lp3510
S'None'
p3511
asbasbasbasbasbsS'etype'
p3512
S"<type 'exceptions.NameError'>"
p3513
sS'date'
p3514
S'Wed Apr 16 22:25:30 2014'
p3515
sS'response'
p3516
g49
(g50
g51
NtRp3517
(dp3518
g54
(dp3519
sg56
(lp3520
g49
(g58
g51
NtRp3521
(dp3522
g54
(dp3523
g62
I5
ssg63
Nsg56
(lp3524
g49
(g65
g51
NtRp3525
(dp3526
g54
(dp3527
sg63
g3521
sg56
(lp3528
g49
(g70
g51
NtRp3529
(dp3530
g54
(dp3531
g74
g75
ssg63
g3525
sg56
(lp3532
g147
asbag49
(g70
g51
NtRp3533
(dp3534
g54
(dp3535
g81
g82
ssg63
g3525
sg56
(lp3536
S':'
asbag49
(g70
g51
NtRp3537
(dp3538
g54
(dp3539
sg63
g3525
sg56
(lp3540
g49
(g50
g51
NtRp3541
(dp3542
g54
(dp3543
g62
I5
ssg63
g3537
sg56
(lp3544
S'<cStringIO.StringO object at 0x8e93be0>'
p3545
asbasbasbag49
(g65
g51
NtRp3546
(dp3547
g54
(dp3548
sg63
g3521
sg56
(lp3549
g49
(g70
g51
NtRp3550
(dp3551
g54
(dp3552
g74
g75
ssg63
g3546
sg56
(lp3553
g235
asbag49
(g70
g51
NtRp3554
(dp3555
g54
(dp3556
g81
g82
ssg63
g3546
sg56
(lp3557
S':'
asbag49
(g70
g51
NtRp3558
(dp3559
g54
(dp3560
sg63
g3546
sg56
(lp3561
g49
(g50
g51
NtRp3562
(dp3563
g54
(dp3564
g62
I5
ssg63
g3558
sg56
(lp3565
g49
(g58
g51
NtRp3566
(dp3567
g54
(dp3568
g62
I4
ssg63
Nsg56
(lp3569
g49
(g65
g51
NtRp3570
(dp3571
g54
(dp3572
sg63
g3566
sg56
(lp3573
g49
(g70
g51
NtRp3574
(dp3575
g54
(dp3576
g74
g75
ssg63
g3570
sg56
(lp3577
S'session_id_final_impulse'
p3578
asbag49
(g70
g51
NtRp3579
(dp3580
g54
(dp3581
g81
g82
ssg63
g3570
sg56
(lp3582
S':'
asbag49
(g70
g51
NtRp3583
(dp3584
g54
(dp3585
sg63
g3570
sg56
(lp3586
g49
(g50
g51
NtRp3587
(dp3588
g54
(dp3589
g62
I4
ssg63
g3583
sg56
(lp3590
g446
ag49
(g58
g51
NtRp3591
(dp3592
g54
(dp3593
g62
I3
ssg63
Nsg56
(lp3594
g49
(g65
g51
NtRp3595
(dp3596
g54
(dp3597
sg63
g3591
sg56
(lp3598
g49
(g70
g51
NtRp3599
(dp3600
g54
(dp3601
g74
g75
ssg63
g3595
sg56
(lp3602
g286
asbag49
(g70
g51
NtRp3603
(dp3604
g54
(dp3605
g81
g82
ssg63
g3595
sg56
(lp3606
S':'
asbag49
(g70
g51
NtRp3607
(dp3608
g54
(dp3609
sg63
g3595
sg56
(lp3610
g49
(g50
g51
NtRp3611
(dp3612
g54
(dp3613
g62
I3
ssg63
g3607
sg56
(lp3614
S''
asbasbasbag49
(g65
g51
NtRp3615
(dp3616
g54
(dp3617
sg63
g3591
sg56
(lp3618
g49
(g70
g51
NtRp3619
(dp3620
g54
(dp3621
g74
g75
ssg63
g3615
sg56
(lp3622
g307
asbag49
(g70
g51
NtRp3623
(dp3624
g54
(dp3625
g81
g82
ssg63
g3615
sg56
(lp3626
S':'
asbag49
(g70
g51
NtRp3627
(dp3628
g54
(dp3629
sg63
g3615
sg56
(lp3630
g49
(g50
g51
NtRp3631
(dp3632
g54
(dp3633
g62
I3
ssg63
g3627
sg56
(lp3634
S''
asbasbasbag49
(g65
g51
NtRp3635
(dp3636
g54
(dp3637
sg63
g3591
sg56
(lp3638
g49
(g70
g51
NtRp3639
(dp3640
g54
(dp3641
g74
g75
ssg63
g3635
sg56
(lp3642
g328
asbag49
(g70
g51
NtRp3643
(dp3644
g54
(dp3645
g81
g82
ssg63
g3635
sg56
(lp3646
S':'
asbag49
(g70
g51
NtRp3647
(dp3648
g54
(dp3649
sg63
g3635
sg56
(lp3650
g49
(g50
g51
NtRp3651
(dp3652
g54
(dp3653
g62
I3
ssg63
g3647
sg56
(lp3654
S''
asbasbasbag49
(g65
g51
NtRp3655
(dp3656
g54
(dp3657
sg63
g3591
sg56
(lp3658
g49
(g70
g51
NtRp3659
(dp3660
g54
(dp3661
g74
g75
ssg63
g3655
sg56
(lp3662
g349
asbag49
(g70
g51
NtRp3663
(dp3664
g54
(dp3665
g81
g82
ssg63
g3655
sg56
(lp3666
S':'
asbag49
(g70
g51
NtRp3667
(dp3668
g54
(dp3669
sg63
g3655
sg56
(lp3670
g49
(g50
g51
NtRp3671
(dp3672
g54
(dp3673
g62
I3
ssg63
g3667
sg56
(lp3674
S''
asbasbasbag49
(g65
g51
NtRp3675
(dp3676
g54
(dp3677
sg63
g3591
sg56
(lp3678
g49
(g70
g51
NtRp3679
(dp3680
g54
(dp3681
g74
g75
ssg63
g3675
sg56
(lp3682
g370
asbag49
(g70
g51
NtRp3683
(dp3684
g54
(dp3685
g81
g82
ssg63
g3675
sg56
(lp3686
S':'
asbag49
(g70
g51
NtRp3687
(dp3688
g54
(dp3689
sg63
g3675
sg56
(lp3690
g49
(g50
g51
NtRp3691
(dp3692
g54
(dp3693
g62
I3
ssg63
g3687
sg56
(lp3694
S'/'
asbasbasbag49
(g65
g51
NtRp3695
(dp3696
g54
(dp3697
sg63
g3591
sg56
(lp3698
g49
(g70
g51
NtRp3699
(dp3700
g54
(dp3701
g74
g75
ssg63
g3695
sg56
(lp3702
g391
asbag49
(g70
g51
NtRp3703
(dp3704
g54
(dp3705
g81
g82
ssg63
g3695
sg56
(lp3706
S':'
asbag49
(g70
g51
NtRp3707
(dp3708
g54
(dp3709
sg63
g3695
sg56
(lp3710
g49
(g50
g51
NtRp3711
(dp3712
g54
(dp3713
g62
I3
ssg63
g3707
sg56
(lp3714
S''
asbasbasbag49
(g65
g51
NtRp3715
(dp3716
g54
(dp3717
sg63
g3591
sg56
(lp3718
g49
(g70
g51
NtRp3719
(dp3720
g54
(dp3721
g74
g75
ssg63
g3715
sg56
(lp3722
g412
asbag49
(g70
g51
NtRp3723
(dp3724
g54
(dp3725
g81
g82
ssg63
g3715
sg56
(lp3726
S':'
asbag49
(g70
g51
NtRp3727
(dp3728
g54
(dp3729
sg63
g3715
sg56
(lp3730
g49
(g50
g51
NtRp3731
(dp3732
g54
(dp3733
g62
I3
ssg63
g3727
sg56
(lp3734
S''
asbasbasbasbasbasbasbasbasbasbasbag49
(g65
g51
NtRp3735
(dp3736
g54
(dp3737
sg63
g3521
sg56
(lp3738
g49
(g70
g51
NtRp3739
(dp3740
g54
(dp3741
g74
g75
ssg63
g3735
sg56
(lp3742
S'delimiters'
p3743
asbag49
(g70
g51
NtRp3744
(dp3745
g54
(dp3746
g81
g82
ssg63
g3735
sg56
(lp3747
S':'
asbag49
(g70
g51
NtRp3748
(dp3749
g54
(dp3750
sg63
g3735
sg56
(lp3751
g49
(g50
g51
NtRp3752
(dp3753
g54
(dp3754
g62
I5
ssg63
g3748
sg56
(lp3755
g49
(g58
g51
NtRp3756
(dp3757
g54
(dp3758
g62
I4
ssg63
Nsg56
(lp3759
g49
(g65
g51
NtRp3760
(dp3761
g54
(dp3762
sg63
g3756
sg56
(lp3763
g49
(g70
g51
NtRp3764
(dp3765
g54
(dp3766
sg63
g3760
sg56
(lp3767
g49
(g50
g51
NtRp3768
(dp3769
g54
(dp3770
g62
I4
ssg63
g3764
sg56
(lp3771
S'{{'
p3772
asbasbasbag49
(g65
g51
NtRp3773
(dp3774
g54
(dp3775
sg63
g3756
sg56
(lp3776
g49
(g70
g51
NtRp3777
(dp3778
g54
(dp3779
sg63
g3773
sg56
(lp3780
g49
(g50
g51
NtRp3781
(dp3782
g54
(dp3783
g62
I4
ssg63
g3777
sg56
(lp3784
S'}}'
p3785
asbasbasbasbasbasbasbag49
(g65
g51
NtRp3786
(dp3787
g54
(dp3788
sg63
g3521
sg56
(lp3789
g49
(g70
g51
NtRp3790
(dp3791
g54
(dp3792
g74
g75
ssg63
g3786
sg56
(lp3793
S'files'
p3794
asbag49
(g70
g51
NtRp3795
(dp3796
g54
(dp3797
g81
g82
ssg63
g3786
sg56
(lp3798
S':'
asbag49
(g70
g51
NtRp3799
(dp3800
g54
(dp3801
sg63
g3786
sg56
(lp3802
g49
(g50
g51
NtRp3803
(dp3804
g54
(dp3805
g62
I5
ssg63
g3799
sg56
(lp3806
g49
(g58
g51
NtRp3807
(dp3808
g54
(dp3809
g62
I4
ssg63
Nsg56
(lp3810
g49
(g65
g51
NtRp3811
(dp3812
g54
(dp3813
sg63
g3807
sg56
(lp3814
g49
(g70
g51
NtRp3815
(dp3816
g54
(dp3817
sg63
g3811
sg56
(lp3818
g49
(g50
g51
NtRp3819
(dp3820
g54
(dp3821
g62
I4
ssg63
g3815
sg56
(lp3822
S'/Final_Impulse/static/js/jquery.js'
p3823
asbasbasbag49
(g65
g51
NtRp3824
(dp3825
g54
(dp3826
sg63
g3807
sg56
(lp3827
g49
(g70
g51
NtRp3828
(dp3829
g54
(dp3830
sg63
g3824
sg56
(lp3831
g49
(g50
g51
NtRp3832
(dp3833
g54
(dp3834
g62
I4
ssg63
g3828
sg56
(lp3835
S'/Final_Impulse/static/css/calendar.css'
p3836
asbasbasbag49
(g65
g51
NtRp3837
(dp3838
g54
(dp3839
sg63
g3807
sg56
(lp3840
g49
(g70
g51
NtRp3841
(dp3842
g54
(dp3843
sg63
g3837
sg56
(lp3844
g49
(g50
g51
NtRp3845
(dp3846
g54
(dp3847
g62
I4
ssg63
g3841
sg56
(lp3848
S'/Final_Impulse/static/js/calendar.js'
p3849
asbasbasbag49
(g65
g51
NtRp3850
(dp3851
g54
(dp3852
sg63
g3807
sg56
(lp3853
g49
(g70
g51
NtRp3854
(dp3855
g54
(dp3856
sg63
g3850
sg56
(lp3857
g49
(g50
g51
NtRp3858
(dp3859
g54
(dp3860
g62
I4
ssg63
g3854
sg56
(lp3861
S'/Final_Impulse/static/js/web2py.js'
p3862
asbasbasbag49
(g65
g51
NtRp3863
(dp3864
g54
(dp3865
sg63
g3807
sg56
(lp3866
g49
(g70
g51
NtRp3867
(dp3868
g54
(dp3869
sg63
g3863
sg56
(lp3870
g49
(g50
g51
NtRp3871
(dp3872
g54
(dp3873
g62
I4
ssg63
g3867
sg56
(lp3874
S'/Final_Impulse/static/css/web2py.css'
p3875
asbasbasbag49
(g65
g51
NtRp3876
(dp3877
g54
(dp3878
sg63
g3807
sg56
(lp3879
g49
(g70
g51
NtRp3880
(dp3881
g54
(dp3882
sg63
g3876
sg56
(lp3883
g49
(g50
g51
NtRp3884
(dp3885
g54
(dp3886
g62
I4
ssg63
g3880
sg56
(lp3887
S'/Final_Impulse/static/css/bootstrap.min.css'
p3888
asbasbasbag49
(g65
g51
NtRp3889
(dp3890
g54
(dp3891
sg63
g3807
sg56
(lp3892
g49
(g70
g51
NtRp3893
(dp3894
g54
(dp3895
sg63
g3889
sg56
(lp3896
g49
(g50
g51
NtRp3897
(dp3898
g54
(dp3899
g62
I4
ssg63
g3893
sg56
(lp3900
S'/Final_Impulse/static/css/bootstrap-responsive.min.css'
p3901
asbasbasbag49
(g65
g51
NtRp3902
(dp3903
g54
(dp3904
sg63
g3807
sg56
(lp3905
g49
(g70
g51
NtRp3906
(dp3907
g54
(dp3908
sg63
g3902
sg56
(lp3909
g49
(g50
g51
NtRp3910
(dp3911
g54
(dp3912
g62
I4
ssg63
g3906
sg56
(lp3913
S'/Final_Impulse/static/css/web2py_bootstrap.css'
p3914
asbasbasbasbasbasbasbag49
(g65
g51
NtRp3915
(dp3916
g54
(dp3917
sg63
g3521
sg56
(lp3918
g49
(g70
g51
NtRp3919
(dp3920
g54
(dp3921
g74
g75
ssg63
g3915
sg56
(lp3922
S'flash'
p3923
asbag49
(g70
g51
NtRp3924
(dp3925
g54
(dp3926
g81
g82
ssg63
g3915
sg56
(lp3927
S':'
asbag49
(g70
g51
NtRp3928
(dp3929
g54
(dp3930
sg63
g3915
sg56
(lp3931
g49
(g50
g51
NtRp3932
(dp3933
g54
(dp3934
g62
I5
ssg63
g3928
sg56
(lp3935
S''
asbasbasbag49
(g65
g51
NtRp3936
(dp3937
g54
(dp3938
sg63
g3521
sg56
(lp3939
g49
(g70
g51
NtRp3940
(dp3941
g54
(dp3942
g74
g75
ssg63
g3936
sg56
(lp3943
S'generic_patterns'
p3944
asbag49
(g70
g51
NtRp3945
(dp3946
g54
(dp3947
g81
g82
ssg63
g3936
sg56
(lp3948
S':'
asbag49
(g70
g51
NtRp3949
(dp3950
g54
(dp3951
sg63
g3936
sg56
(lp3952
g49
(g50
g51
NtRp3953
(dp3954
g54
(dp3955
g62
I5
ssg63
g3949
sg56
(lp3956
g49
(g58
g51
NtRp3957
(dp3958
g54
(dp3959
g62
I4
ssg63
Nsg56
(lp3960
sbasbasbasbag49
(g65
g51
NtRp3961
(dp3962
g54
(dp3963
sg63
g3521
sg56
(lp3964
g49
(g70
g51
NtRp3965
(dp3966
g54
(dp3967
g74
g75
ssg63
g3961
sg56
(lp3968
S'google_analytics_id'
p3969
asbag49
(g70
g51
NtRp3970
(dp3971
g54
(dp3972
g81
g82
ssg63
g3961
sg56
(lp3973
S':'
asbag49
(g70
g51
NtRp3974
(dp3975
g54
(dp3976
sg63
g3961
sg56
(lp3977
g49
(g50
g51
NtRp3978
(dp3979
g54
(dp3980
g62
I5
ssg63
g3974
sg56
(lp3981
S'None'
p3982
asbasbasbag49
(g65
g51
NtRp3983
(dp3984
g54
(dp3985
sg63
g3521
sg56
(lp3986
g49
(g70
g51
NtRp3987
(dp3988
g54
(dp3989
g74
g75
ssg63
g3983
sg56
(lp3990
S'headers'
p3991
asbag49
(g70
g51
NtRp3992
(dp3993
g54
(dp3994
g81
g82
ssg63
g3983
sg56
(lp3995
S':'
asbag49
(g70
g51
NtRp3996
(dp3997
g54
(dp3998
sg63
g3983
sg56
(lp3999
g49
(g50
g51
NtRp4000
(dp4001
g54
(dp4002
g62
I5
ssg63
g3996
sg56
(lp4003
g49
(g58
g51
NtRp4004
(dp4005
g54
(dp4006
g62
I4
ssg63
Nsg56
(lp4007
g49
(g65
g51
NtRp4008
(dp4009
g54
(dp4010
sg63
g4004
sg56
(lp4011
g49
(g70
g51
NtRp4012
(dp4013
g54
(dp4014
g74
g75
ssg63
g4008
sg56
(lp4015
S'X-Powered-By'
p4016
asbag49
(g70
g51
NtRp4017
(dp4018
g54
(dp4019
g81
g82
ssg63
g4008
sg56
(lp4020
S':'
asbag49
(g70
g51
NtRp4021
(dp4022
g54
(dp4023
sg63
g4008
sg56
(lp4024
g49
(g50
g51
NtRp4025
(dp4026
g54
(dp4027
g62
I4
ssg63
g4021
sg56
(lp4028
S'web2py'
p4029
asbasbasbasbasbasbasbag49
(g65
g51
NtRp4030
(dp4031
g54
(dp4032
sg63
g3521
sg56
(lp4033
g49
(g70
g51
NtRp4034
(dp4035
g54
(dp4036
g74
g75
ssg63
g4030
sg56
(lp4037
S'menu'
p4038
asbag49
(g70
g51
NtRp4039
(dp4040
g54
(dp4041
g81
g82
ssg63
g4030
sg56
(lp4042
S':'
asbag49
(g70
g51
NtRp4043
(dp4044
g54
(dp4045
sg63
g4030
sg56
(lp4046
g49
(g50
g51
NtRp4047
(dp4048
g54
(dp4049
g62
I5
ssg63
g4043
sg56
(lp4050
g49
(g58
g51
NtRp4051
(dp4052
g54
(dp4053
g62
I4
ssg63
Nsg56
(lp4054
g49
(g65
g51
NtRp4055
(dp4056
g54
(dp4057
sg63
g4051
sg56
(lp4058
g49
(g70
g51
NtRp4059
(dp4060
g54
(dp4061
sg63
g4055
sg56
(lp4062
g49
(g50
g51
NtRp4063
(dp4064
g54
(dp4065
g62
I4
ssg63
g4059
sg56
(lp4066
g49
(g58
g51
NtRp4067
(dp4068
g54
(dp4069
g62
I3
ssg63
Nsg56
(lp4070
g49
(g65
g51
NtRp4071
(dp4072
g54
(dp4073
sg63
g4067
sg56
(lp4074
g49
(g70
g51
NtRp4075
(dp4076
g54
(dp4077
sg63
g4071
sg56
(lp4078
g49
(g50
g51
NtRp4079
(dp4080
g54
(dp4081
g62
I3
ssg63
g4075
sg56
(lp4082
cgluon.languages
lazyT_unpickle
p4083
(S't\x04\x00\x00\x00Home'
tRp4084
asbasbasbag49
(g65
g51
NtRp4085
(dp4086
g54
(dp4087
sg63
g4067
sg56
(lp4088
g49
(g70
g51
NtRp4089
(dp4090
g54
(dp4091
sg63
g4085
sg56
(lp4092
g49
(g50
g51
NtRp4093
(dp4094
g54
(dp4095
g62
I3
ssg63
g4089
sg56
(lp4096
g92
asbasbasbag49
(g65
g51
NtRp4097
(dp4098
g54
(dp4099
sg63
g4067
sg56
(lp4100
g49
(g70
g51
NtRp4101
(dp4102
g54
(dp4103
sg63
g4097
sg56
(lp4104
g49
(g50
g51
NtRp4105
(dp4106
g54
(dp4107
g62
I3
ssg63
g4101
sg56
(lp4108
S'/Final_Impulse/default/index'
p4109
asbasbasbag49
(g65
g51
NtRp4110
(dp4111
g54
(dp4112
sg63
g4067
sg56
(lp4113
g49
(g70
g51
NtRp4114
(dp4115
g54
(dp4116
sg63
g4110
sg56
(lp4117
g49
(g50
g51
NtRp4118
(dp4119
g54
(dp4120
g62
I3
ssg63
g4114
sg56
(lp4121
g49
(g58
g51
NtRp4122
(dp4123
g54
(dp4124
g62
I2
ssg63
Nsg56
(lp4125
sbasbasbasbasbasbasbasbag49
(g65
g51
NtRp4126
(dp4127
g54
(dp4128
sg63
g4051
sg56
(lp4129
g49
(g70
g51
NtRp4130
(dp4131
g54
(dp4132
sg63
g4126
sg56
(lp4133
g49
(g50
g51
NtRp4134
(dp4135
g54
(dp4136
g62
I4
ssg63
g4130
sg56
(lp4137
g49
(g58
g51
NtRp4138
(dp4139
g54
(dp4140
g62
I3
ssg63
Nsg56
(lp4141
g49
(g65
g51
NtRp4142
(dp4143
g54
(dp4144
sg63
g4138
sg56
(lp4145
g49
(g70
g51
NtRp4146
(dp4147
g54
(dp4148
sg63
g4142
sg56
(lp4149
g49
(g50
g51
NtRp4150
(dp4151
g54
(dp4152
g62
I3
ssg63
g4146
sg56
(lp4153
g49
(cgluon.html
SPAN
p4154
g51
NtRp4155
(dp4156
g54
(dp4157
S'_class'
p4158
S'highlighted'
p4159
ssg63
g49
(cgluon.html
A
p4160
g51
NtRp4161
(dp4162
g54
(dp4163
S'_href'
p4164
S'http://web2py.com'
p4165
ssg63
g49
(cgluon.html
LI
p4166
g51
NtRp4167
(dp4168
g54
(dp4169
g4158
S'dropdown'
p4170
ssg63
g49
(cgluon.html
UL
p4171
g51
NtRp4172
(dp4173
g54
(dp4174
S'li_class'
p4175
g4170
sS'mobile'
p4176
I00
sg4158
S'nav'
p4177
sS'ul_class'
p4178
S'dropdown-menu'
p4179
sS'li_active'
p4180
S'web2py-menu-active'
p4181
ssg63
Nsg56
(lp4182
g49
(g4166
g51
NtRp4183
(dp4184
g54
(dp4185
sg63
g4172
sg56
(lp4186
g49
(g4160
g51
NtRp4187
(dp4188
g54
(dp4189
g4164
g4109
ssg63
g4183
sg56
(lp4190
g4084
asbasbag4167
asbsg56
(lp4191
g4161
ag49
(g4171
g51
NtRp4192
(dp4193
g54
(dp4194
g4158
g4179
ssg63
g4167
sg56
(lp4195
g49
(g4166
g51
NtRp4196
(dp4197
g54
(dp4198
sg63
g4192
sg56
(lp4199
g49
(g4160
g51
NtRp4200
(dp4201
g54
(dp4202
g4164
S'/admin/default/site'
p4203
ssg63
g4196
sg56
(lp4204
g4083
(S's\x08\x00\x00\x00My Sites'
tRp4205
asbasbag49
(g4166
g51
NtRp4206
(dp4207
g54
(dp4208
g4158
g4170
ssg63
g4192
sg56
(lp4209
g49
(g4160
g51
NtRp4210
(dp4211
g54
(dp4212
g4164
S'/admin/default/design/Final_Impulse'
p4213
ssg63
g4206
sg56
(lp4214
g4083
(S's\x08\x00\x00\x00This App'
tRp4215
asbag49
(g4171
g51
NtRp4216
(dp4217
g54
(dp4218
g4158
g4179
ssg63
g4206
sg56
(lp4219
g49
(g4166
g51
NtRp4220
(dp4221
g54
(dp4222
sg63
g4216
sg56
(lp4223
g49
(g4160
g51
NtRp4224
(dp4225
g54
(dp4226
g4164
S'/admin/default/edit/Final_Impulse/controllers/default.py'
p4227
ssg63
g4220
sg56
(lp4228
g4083
(S't\n\x00\x00\x00Controller'
tRp4229
asbasbag49
(g4166
g51
NtRp4230
(dp4231
g54
(dp4232
sg63
g4216
sg56
(lp4233
g49
(g4160
g51
NtRp4234
(dp4235
g54
(dp4236
g4164
S'/admin/default/edit/Final_Impulse/views/default/show_image_comments.html'
p4237
ssg63
g4230
sg56
(lp4238
g4083
(S't\x04\x00\x00\x00View'
tRp4239
asbasbag49
(g4166
g51
NtRp4240
(dp4241
g54
(dp4242
sg63
g4216
sg56
(lp4243
g49
(g4160
g51
NtRp4244
(dp4245
g54
(dp4246
g4164
S'/admin/default/edit/Final_Impulse/views/layout.html'
p4247
ssg63
g4240
sg56
(lp4248
g4083
(S't\x06\x00\x00\x00Layout'
tRp4249
asbasbag49
(g4166
g51
NtRp4250
(dp4251
g54
(dp4252
sg63
g4216
sg56
(lp4253
g49
(g4160
g51
NtRp4254
(dp4255
g54
(dp4256
g4164
S'/admin/default/edit/Final_Impulse/static/css/web2py.css'
p4257
ssg63
g4250
sg56
(lp4258
g4083
(S't\n\x00\x00\x00Stylesheet'
tRp4259
asbasbag49
(g4166
g51
NtRp4260
(dp4261
g54
(dp4262
sg63
g4216
sg56
(lp4263
g49
(g4160
g51
NtRp4264
(dp4265
g54
(dp4266
g4164
S'/admin/default/edit/Final_Impulse/models/db.py'
p4267
ssg63
g4260
sg56
(lp4268
g4083
(S's\x08\x00\x00\x00DB Model'
tRp4269
asbasbag49
(g4166
g51
NtRp4270
(dp4271
g54
(dp4272
sg63
g4216
sg56
(lp4273
g49
(g4160
g51
NtRp4274
(dp4275
g54
(dp4276
g4164
S'/admin/default/edit/Final_Impulse/models/menu.py'
p4277
ssg63
g4270
sg56
(lp4278
g4083
(S's\n\x00\x00\x00Menu Model'
tRp4279
asbasbag49
(g4166
g51
NtRp4280
(dp4281
g54
(dp4282
sg63
g4216
sg56
(lp4283
g49
(g4160
g51
NtRp4284
(dp4285
g54
(dp4286
g4164
S'/Final_Impulse/appadmin/index'
p4287
ssg63
g4280
sg56
(lp4288
g4083
(S't\x08\x00\x00\x00Database'
tRp4289
asbasbag49
(g4166
g51
NtRp4290
(dp4291
g54
(dp4292
sg63
g4216
sg56
(lp4293
g49
(g4160
g51
NtRp4294
(dp4295
g54
(dp4296
g4164
S'/admin/default/errors/Final_Impulse'
p4297
ssg63
g4290
sg56
(lp4298
g4083
(S't\x06\x00\x00\x00Errors'
tRp4299
asbasbag49
(g4166
g51
NtRp4300
(dp4301
g54
(dp4302
sg63
g4216
sg56
(lp4303
g49
(g4160
g51
NtRp4304
(dp4305
g54
(dp4306
g4164
S'/admin/default/about/Final_Impulse'
p4307
ssg63
g4300
sg56
(lp4308
g4083
(S't\x05\x00\x00\x00About'
tRp4309
asbasbasbasbag49
(g4166
g51
NtRp4310
(dp4311
g54
(dp4312
g4158
g4170
ssg63
g4192
sg56
(lp4313
g49
(g4160
g51
NtRp4314
(dp4315
g54
(dp4316
g4164
S'http://www.web2py.com'
p4317
ssg63
g4310
sg56
(lp4318
S'web2py.com'
p4319
asbag49
(g4171
g51
NtRp4320
(dp4321
g54
(dp4322
g4158
g4179
ssg63
g4310
sg56
(lp4323
g49
(g4166
g51
NtRp4324
(dp4325
g54
(dp4326
sg63
g4320
sg56
(lp4327
g49
(g4160
g51
NtRp4328
(dp4329
g54
(dp4330
g4164
S'http://www.web2py.com/examples/default/download'
p4331
ssg63
g4324
sg56
(lp4332
g4083
(S't\x08\x00\x00\x00Download'
tRp4333
asbasbag49
(g4166
g51
NtRp4334
(dp4335
g54
(dp4336
sg63
g4320
sg56
(lp4337
g49
(g4160
g51
NtRp4338
(dp4339
g54
(dp4340
g4164
S'http://www.web2py.com/examples/default/support'
p4341
ssg63
g4334
sg56
(lp4342
g4083
(S't\x07\x00\x00\x00Support'
tRp4343
asbasbag49
(g4166
g51
NtRp4344
(dp4345
g54
(dp4346
sg63
g4320
sg56
(lp4347
g49
(g4160
g51
NtRp4348
(dp4349
g54
(dp4350
g4164
S'http://web2py.com/demo_admin'
p4351
ssg63
g4344
sg56
(lp4352
g4083
(S't\x04\x00\x00\x00Demo'
tRp4353
asbasbag49
(g4166
g51
NtRp4354
(dp4355
g54
(dp4356
sg63
g4320
sg56
(lp4357
g49
(g4160
g51
NtRp4358
(dp4359
g54
(dp4360
g4164
S'http://web2py.com/examples/default/examples'
p4361
ssg63
g4354
sg56
(lp4362
g4083
(S's\x0e\x00\x00\x00Quick Examples'
tRp4363
asbasbag49
(g4166
g51
NtRp4364
(dp4365
g54
(dp4366
sg63
g4320
sg56
(lp4367
g49
(g4160
g51
NtRp4368
(dp4369
g54
(dp4370
g4164
S'http://web2py.com/AlterEgo'
p4371
ssg63
g4364
sg56
(lp4372
g4083
(S't\x03\x00\x00\x00FAQ'
tRp4373
asbasbag49
(g4166
g51
NtRp4374
(dp4375
g54
(dp4376
sg63
g4320
sg56
(lp4377
g49
(g4160
g51
NtRp4378
(dp4379
g54
(dp4380
g4164
S'http://www.web2py.com/examples/default/videos/'
p4381
ssg63
g4374
sg56
(lp4382
g4083
(S't\x06\x00\x00\x00Videos'
tRp4383
asbasbag49
(g4166
g51
NtRp4384
(dp4385
g54
(dp4386
sg63
g4320
sg56
(lp4387
g49
(g4160
g51
NtRp4388
(dp4389
g54
(dp4390
g4164
S'http://web2py.com/appliances'
p4391
ssg63
g4384
sg56
(lp4392
g4083
(S's\x11\x00\x00\x00Free Applications'
tRp4393
asbasbag49
(g4166
g51
NtRp4394
(dp4395
g54
(dp4396
sg63
g4320
sg56
(lp4397
g49
(g4160
g51
NtRp4398
(dp4399
g54
(dp4400
g4164
S'http://web2py.com/plugins'
p4401
ssg63
g4394
sg56
(lp4402
g4083
(S't\x07\x00\x00\x00Plugins'
tRp4403
asbasbag49
(g4166
g51
NtRp4404
(dp4405
g54
(dp4406
sg63
g4320
sg56
(lp4407
g49
(g4160
g51
NtRp4408
(dp4409
g54
(dp4410
g4164
S'http://web2py.com/layouts'
p4411
ssg63
g4404
sg56
(lp4412
g4083
(S't\x07\x00\x00\x00Layouts'
tRp4413
asbasbag49
(g4166
g51
NtRp4414
(dp4415
g54
(dp4416
sg63
g4320
sg56
(lp4417
g49
(g4160
g51
NtRp4418
(dp4419
g54
(dp4420
g4164
S'http://web2pyslices.com/'
p4421
ssg63
g4414
sg56
(lp4422
g4083
(S't\x07\x00\x00\x00Recipes'
tRp4423
asbasbag49
(g4166
g51
NtRp4424
(dp4425
g54
(dp4426
sg63
g4320
sg56
(lp4427
g49
(g4160
g51
NtRp4428
(dp4429
g54
(dp4430
g4164
S'http://web2py.com/semantic'
p4431
ssg63
g4424
sg56
(lp4432
g4083
(S't\x08\x00\x00\x00Semantic'
tRp4433
asbasbasbasbag49
(g4166
g51
NtRp4434
(dp4435
g54
(dp4436
g4158
g4170
ssg63
g4192
sg56
(lp4437
g49
(g4160
g51
NtRp4438
(dp4439
g54
(dp4440
g4164
S'http://www.web2py.com/book'
p4441
ssg63
g4434
sg56
(lp4442
g4083
(S't\r\x00\x00\x00Documentation'
tRp4443
asbag49
(g4171
g51
NtRp4444
(dp4445
g54
(dp4446
g4158
g4179
ssg63
g4434
sg56
(lp4447
g49
(g4166
g51
NtRp4448
(dp4449
g54
(dp4450
sg63
g4444
sg56
(lp4451
g49
(g4160
g51
NtRp4452
(dp4453
g54
(dp4454
g4164
S'http://www.web2py.com/book/default/chapter/00'
p4455
ssg63
g4448
sg56
(lp4456
g4083
(S't\x07\x00\x00\x00Preface'
tRp4457
asbasbag49
(g4166
g51
NtRp4458
(dp4459
g54
(dp4460
sg63
g4444
sg56
(lp4461
g49
(g4160
g51
NtRp4462
(dp4463
g54
(dp4464
g4164
S'http://www.web2py.com/book/default/chapter/01'
p4465
ssg63
g4458
sg56
(lp4466
g4083
(S't\x0c\x00\x00\x00Introduction'
tRp4467
asbasbag49
(g4166
g51
NtRp4468
(dp4469
g54
(dp4470
sg63
g4444
sg56
(lp4471
g49
(g4160
g51
NtRp4472
(dp4473
g54
(dp4474
g4164
S'http://www.web2py.com/book/default/chapter/02'
p4475
ssg63
g4468
sg56
(lp4476
g4083
(S't\x06\x00\x00\x00Python'
tRp4477
asbasbag49
(g4166
g51
NtRp4478
(dp4479
g54
(dp4480
sg63
g4444
sg56
(lp4481
g49
(g4160
g51
NtRp4482
(dp4483
g54
(dp4484
g4164
S'http://www.web2py.com/book/default/chapter/03'
p4485
ssg63
g4478
sg56
(lp4486
g4083
(S't\x08\x00\x00\x00Overview'
tRp4487
asbasbag49
(g4166
g51
NtRp4488
(dp4489
g54
(dp4490
sg63
g4444
sg56
(lp4491
g49
(g4160
g51
NtRp4492
(dp4493
g54
(dp4494
g4164
S'http://www.web2py.com/book/default/chapter/04'
p4495
ssg63
g4488
sg56
(lp4496
g4083
(S's\x08\x00\x00\x00The Core'
tRp4497
asbasbag49
(g4166
g51
NtRp4498
(dp4499
g54
(dp4500
sg63
g4444
sg56
(lp4501
g49
(g4160
g51
NtRp4502
(dp4503
g54
(dp4504
g4164
S'http://www.web2py.com/book/default/chapter/05'
p4505
ssg63
g4498
sg56
(lp4506
g4083
(S's\t\x00\x00\x00The Views'
tRp4507
asbasbag49
(g4166
g51
NtRp4508
(dp4509
g54
(dp4510
sg63
g4444
sg56
(lp4511
g49
(g4160
g51
NtRp4512
(dp4513
g54
(dp4514
g4164
S'http://www.web2py.com/book/default/chapter/06'
p4515
ssg63
g4508
sg56
(lp4516
g4083
(S't\x08\x00\x00\x00Database'
tRp4517
asbasbag49
(g4166
g51
NtRp4518
(dp4519
g54
(dp4520
sg63
g4444
sg56
(lp4521
g49
(g4160
g51
NtRp4522
(dp4523
g54
(dp4524
g4164
S'http://www.web2py.com/book/default/chapter/07'
p4525
ssg63
g4518
sg56
(lp4526
g4083
(S's\x14\x00\x00\x00Forms and Validators'
tRp4527
asbasbag49
(g4166
g51
NtRp4528
(dp4529
g54
(dp4530
sg63
g4444
sg56
(lp4531
g49
(g4160
g51
NtRp4532
(dp4533
g54
(dp4534
g4164
S'http://www.web2py.com/book/default/chapter/08'
p4535
ssg63
g4528
sg56
(lp4536
g4083
(S's\r\x00\x00\x00Email and SMS'
tRp4537
asbasbag49
(g4166
g51
NtRp4538
(dp4539
g54
(dp4540
sg63
g4444
sg56
(lp4541
g49
(g4160
g51
NtRp4542
(dp4543
g54
(dp4544
g4164
S'http://www.web2py.com/book/default/chapter/09'
p4545
ssg63
g4538
sg56
(lp4546
g4083
(S's\x0e\x00\x00\x00Access Control'
tRp4547
asbasbag49
(g4166
g51
NtRp4548
(dp4549
g54
(dp4550
sg63
g4444
sg56
(lp4551
g49
(g4160
g51
NtRp4552
(dp4553
g54
(dp4554
g4164
S'http://www.web2py.com/book/default/chapter/10'
p4555
ssg63
g4548
sg56
(lp4556
g4083
(S't\x08\x00\x00\x00Services'
tRp4557
asbasbag49
(g4166
g51
NtRp4558
(dp4559
g54
(dp4560
sg63
g4444
sg56
(lp4561
g49
(g4160
g51
NtRp4562
(dp4563
g54
(dp4564
g4164
S'http://www.web2py.com/book/default/chapter/11'
p4565
ssg63
g4558
sg56
(lp4566
g4083
(S's\x0c\x00\x00\x00Ajax Recipes'
tRp4567
asbasbag49
(g4166
g51
NtRp4568
(dp4569
g54
(dp4570
sg63
g4444
sg56
(lp4571
g49
(g4160
g51
NtRp4572
(dp4573
g54
(dp4574
g4164
S'http://www.web2py.com/book/default/chapter/12'
p4575
ssg63
g4568
sg56
(lp4576
g4083
(S's\x16\x00\x00\x00Components and Plugins'
tRp4577
asbasbag49
(g4166
g51
NtRp4578
(dp4579
g54
(dp4580
sg63
g4444
sg56
(lp4581
g49
(g4160
g51
NtRp4582
(dp4583
g54
(dp4584
g4164
S'http://www.web2py.com/book/default/chapter/13'
p4585
ssg63
g4578
sg56
(lp4586
g4083
(S's\x12\x00\x00\x00Deployment Recipes'
tRp4587
asbasbag49
(g4166
g51
NtRp4588
(dp4589
g54
(dp4590
sg63
g4444
sg56
(lp4591
g49
(g4160
g51
NtRp4592
(dp4593
g54
(dp4594
g4164
S'http://www.web2py.com/book/default/chapter/14'
p4595
ssg63
g4588
sg56
(lp4596
g4083
(S's\r\x00\x00\x00Other Recipes'
tRp4597
asbasbag49
(g4166
g51
NtRp4598
(dp4599
g54
(dp4600
sg63
g4444
sg56
(lp4601
g49
(g4160
g51
NtRp4602
(dp4603
g54
(dp4604
g4164
S'http://stores.lulu.com/web2py'
p4605
ssg63
g4598
sg56
(lp4606
g4083
(S's\r\x00\x00\x00Buy this book'
tRp4607
asbasbasbasbag49
(g4166
g51
NtRp4608
(dp4609
g54
(dp4610
g4158
g4170
ssg63
g4192
sg56
(lp4611
g49
(g4160
g51
NtRp4612
(dp4613
g54
(dp4614
S'_onclick'
p4615
S'javascript:void(0);return false;'
p4616
sg4164
S'#'
ssg63
g4608
sg56
(lp4617
g4083
(S't\t\x00\x00\x00Community'
tRp4618
asbag49
(g4171
g51
NtRp4619
(dp4620
g54
(dp4621
g4158
g4179
ssg63
g4608
sg56
(lp4622
g49
(g4166
g51
NtRp4623
(dp4624
g54
(dp4625
sg63
g4619
sg56
(lp4626
g49
(g4160
g51
NtRp4627
(dp4628
g54
(dp4629
g4164
S'http://www.web2py.com/examples/default/usergroups'
p4630
ssg63
g4623
sg56
(lp4631
g4083
(S't\x06\x00\x00\x00Groups'
tRp4632
asbasbag49
(g4166
g51
NtRp4633
(dp4634
g54
(dp4635
sg63
g4619
sg56
(lp4636
g49
(g4160
g51
NtRp4637
(dp4638
g54
(dp4639
g4164
S'http://twitter.com/web2py'
p4640
ssg63
g4633
sg56
(lp4641
g4083
(S't\x07\x00\x00\x00Twitter'
tRp4642
asbasbag49
(g4166
g51
NtRp4643
(dp4644
g54
(dp4645
sg63
g4619
sg56
(lp4646
g49
(g4160
g51
NtRp4647
(dp4648
g54
(dp4649
g4164
S'http://webchat.freenode.net/?channels=web2py'
p4650
ssg63
g4643
sg56
(lp4651
g4083
(S's\t\x00\x00\x00Live Chat'
tRp4652
asbasbasbasbag49
(g4166
g51
NtRp4653
(dp4654
g54
(dp4655
g4158
g4170
ssg63
g4192
sg56
(lp4656
g49
(g4160
g51
NtRp4657
(dp4658
g54
(dp4659
g4615
g4616
sg4164
S'#'
ssg63
g4653
sg56
(lp4660
g4083
(S't\x07\x00\x00\x00Plugins'
tRp4661
asbag49
(g4171
g51
NtRp4662
(dp4663
g54
(dp4664
g4158
g4179
ssg63
g4653
sg56
(lp4665
g49
(g4166
g51
NtRp4666
(dp4667
g54
(dp4668
sg63
g4662
sg56
(lp4669
g49
(g4160
g51
NtRp4670
(dp4671
g54
(dp4672
g4164
S'http://web2py.com/examples/default/download'
p4673
ssg63
g4666
sg56
(lp4674
S'plugin_wiki'
p4675
asbasbag49
(g4166
g51
NtRp4676
(dp4677
g54
(dp4678
sg63
g4662
sg56
(lp4679
g49
(g4160
g51
NtRp4680
(dp4681
g54
(dp4682
g4164
g4401
ssg63
g4676
sg56
(lp4683
g4083
(S's\r\x00\x00\x00Other Plugins'
tRp4684
asbasbag49
(g4166
g51
NtRp4685
(dp4686
g54
(dp4687
sg63
g4662
sg56
(lp4688
g49
(g4160
g51
NtRp4689
(dp4690
g54
(dp4691
g4164
g4411
ssg63
g4685
sg56
(lp4692
g4083
(S's\x0e\x00\x00\x00Layout Plugins'
tRp4693
asbasbasbasbasbasbsg56
(lp4694
g4155
asbsg56
(lp4695
g4029
asbasbasbasbag49
(g65
g51
NtRp4696
(dp4697
g54
(dp4698
sg63
g4138
sg56
(lp4699
g49
(g70
g51
NtRp4700
(dp4701
g54
(dp4702
sg63
g4696
sg56
(lp4703
g49
(g50
g51
NtRp4704
(dp4705
g54
(dp4706
g62
I3
ssg63
g4700
sg56
(lp4707
g92
asbasbasbag49
(g65
g51
NtRp4708
(dp4709
g54
(dp4710
sg63
g4138
sg56
(lp4711
g49
(g70
g51
NtRp4712
(dp4713
g54
(dp4714
sg63
g4708
sg56
(lp4715
g49
(g50
g51
NtRp4716
(dp4717
g54
(dp4718
g62
I3
ssg63
g4712
sg56
(lp4719
g4165
asbasbasbag49
(g65
g51
NtRp4720
(dp4721
g54
(dp4722
sg63
g4138
sg56
(lp4723
g49
(g70
g51
NtRp4724
(dp4725
g54
(dp4726
sg63
g4720
sg56
(lp4727
g49
(g50
g51
NtRp4728
(dp4729
g54
(dp4730
g62
I3
ssg63
g4724
sg56
(lp4731
g49
(g58
g51
NtRp4732
(dp4733
g54
(dp4734
g62
I2
ssg63
Nsg56
(lp4735
g49
(g65
g51
NtRp4736
(dp4737
g54
(dp4738
sg63
g4732
sg56
(lp4739
g49
(g70
g51
NtRp4740
(dp4741
g54
(dp4742
sg63
g4736
sg56
(lp4743
g49
(g50
g51
NtRp4744
(dp4745
g54
(dp4746
g62
I2
ssg63
g4740
sg56
(lp4747
g49
(g58
g51
NtRp4748
(dp4749
g54
(dp4750
g62
I1
ssg63
Nsg56
(lp4751
g49
(g65
g51
NtRp4752
(dp4753
g54
(dp4754
sg63
g4748
sg56
(lp4755
g49
(g70
g51
NtRp4756
(dp4757
g54
(dp4758
sg63
g4752
sg56
(lp4759
g49
(g50
g51
NtRp4760
(dp4761
g54
(dp4762
g62
I1
ssg63
g4756
sg56
(lp4763
g4205
asbasbasbag49
(g65
g51
NtRp4764
(dp4765
g54
(dp4766
sg63
g4748
sg56
(lp4767
g49
(g70
g51
NtRp4768
(dp4769
g54
(dp4770
sg63
g4764
sg56
(lp4771
g49
(g50
g51
NtRp4772
(dp4773
g54
(dp4774
g62
I1
ssg63
g4768
sg56
(lp4775
I00
asbasbasbag49
(g65
g51
NtRp4776
(dp4777
g54
(dp4778
sg63
g4748
sg56
(lp4779
g49
(g70
g51
NtRp4780
(dp4781
g54
(dp4782
sg63
g4776
sg56
(lp4783
g49
(g50
g51
NtRp4784
(dp4785
g54
(dp4786
g62
I1
ssg63
g4780
sg56
(lp4787
g4203
asbasbasbasbasbasbasbag49
(g65
g51
NtRp4788
(dp4789
g54
(dp4790
sg63
g4732
sg56
(lp4791
g49
(g70
g51
NtRp4792
(dp4793
g54
(dp4794
sg63
g4788
sg56
(lp4795
g49
(g50
g51
NtRp4796
(dp4797
g54
(dp4798
g62
I2
ssg63
g4792
sg56
(lp4799
g49
(g58
g51
NtRp4800
(dp4801
g54
(dp4802
g62
I1
ssg63
Nsg56
(lp4803
g49
(g65
g51
NtRp4804
(dp4805
g54
(dp4806
sg63
g4800
sg56
(lp4807
g49
(g70
g51
NtRp4808
(dp4809
g54
(dp4810
sg63
g4804
sg56
(lp4811
g49
(g50
g51
NtRp4812
(dp4813
g54
(dp4814
g62
I1
ssg63
g4808
sg56
(lp4815
g4215
asbasbasbag49
(g65
g51
NtRp4816
(dp4817
g54
(dp4818
sg63
g4800
sg56
(lp4819
g49
(g70
g51
NtRp4820
(dp4821
g54
(dp4822
sg63
g4816
sg56
(lp4823
g49
(g50
g51
NtRp4824
(dp4825
g54
(dp4826
g62
I1
ssg63
g4820
sg56
(lp4827
I00
asbasbasbag49
(g65
g51
NtRp4828
(dp4829
g54
(dp4830
sg63
g4800
sg56
(lp4831
g49
(g70
g51
NtRp4832
(dp4833
g54
(dp4834
sg63
g4828
sg56
(lp4835
g49
(g50
g51
NtRp4836
(dp4837
g54
(dp4838
g62
I1
ssg63
g4832
sg56
(lp4839
g4213
asbasbasbag49
(g65
g51
NtRp4840
(dp4841
g54
(dp4842
sg63
g4800
sg56
(lp4843
g49
(g70
g51
NtRp4844
(dp4845
g54
(dp4846
sg63
g4840
sg56
(lp4847
g49
(g50
g51
NtRp4848
(dp4849
g54
(dp4850
g62
I1
ssg63
g4844
sg56
(lp4851
(lp4852
(g4229
I00
g4227
tp4853
a(g4239
I00
g4237
tp4854
a(g4249
I00
g4247
tp4855
a(g4259
I00
g4257
tp4856
a(g4269
I00
g4267
tp4857
a(g4279
I00
g4277
tp4858
a(g4289
I00
g4287
tp4859
a(g4299
I00
g4297
tp4860
a(g4309
I00
g4307
tp4861
aasbasbasbasbasbasbasbag49
(g65
g51
NtRp4862
(dp4863
g54
(dp4864
sg63
g4732
sg56
(lp4865
g49
(g70
g51
NtRp4866
(dp4867
g54
(dp4868
sg63
g4862
sg56
(lp4869
g49
(g50
g51
NtRp4870
(dp4871
g54
(dp4872
g62
I2
ssg63
g4866
sg56
(lp4873
g49
(g58
g51
NtRp4874
(dp4875
g54
(dp4876
g62
I1
ssg63
Nsg56
(lp4877
g49
(g65
g51
NtRp4878
(dp4879
g54
(dp4880
sg63
g4874
sg56
(lp4881
g49
(g70
g51
NtRp4882
(dp4883
g54
(dp4884
sg63
g4878
sg56
(lp4885
g49
(g50
g51
NtRp4886
(dp4887
g54
(dp4888
g62
I1
ssg63
g4882
sg56
(lp4889
g4319
asbasbasbag49
(g65
g51
NtRp4890
(dp4891
g54
(dp4892
sg63
g4874
sg56
(lp4893
g49
(g70
g51
NtRp4894
(dp4895
g54
(dp4896
sg63
g4890
sg56
(lp4897
g49
(g50
g51
NtRp4898
(dp4899
g54
(dp4900
g62
I1
ssg63
g4894
sg56
(lp4901
I00
asbasbasbag49
(g65
g51
NtRp4902
(dp4903
g54
(dp4904
sg63
g4874
sg56
(lp4905
g49
(g70
g51
NtRp4906
(dp4907
g54
(dp4908
sg63
g4902
sg56
(lp4909
g49
(g50
g51
NtRp4910
(dp4911
g54
(dp4912
g62
I1
ssg63
g4906
sg56
(lp4913
g4317
asbasbasbag49
(g65
g51
NtRp4914
(dp4915
g54
(dp4916
sg63
g4874
sg56
(lp4917
g49
(g70
g51
NtRp4918
(dp4919
g54
(dp4920
sg63
g4914
sg56
(lp4921
g49
(g50
g51
NtRp4922
(dp4923
g54
(dp4924
g62
I1
ssg63
g4918
sg56
(lp4925
(lp4926
(g4333
I00
g4331
tp4927
a(g4343
I00
g4341
tp4928
a(g4353
I00
g4351
tp4929
a(g4363
I00
g4361
tp4930
a(g4373
I00
g4371
tp4931
a(g4383
I00
g4381
tp4932
a(g4393
I00
g4391
tp4933
a(g4403
I00
g4401
tp4934
a(g4413
I00
g4411
tp4935
a(g4423
I00
g4421
tp4936
a(g4433
I00
g4431
tp4937
aasbasbasbasbasbasbasbag49
(g65
g51
NtRp4938
(dp4939
g54
(dp4940
sg63
g4732
sg56
(lp4941
g49
(g70
g51
NtRp4942
(dp4943
g54
(dp4944
sg63
g4938
sg56
(lp4945
g49
(g50
g51
NtRp4946
(dp4947
g54
(dp4948
g62
I2
ssg63
g4942
sg56
(lp4949
g49
(g58
g51
NtRp4950
(dp4951
g54
(dp4952
g62
I1
ssg63
Nsg56
(lp4953
g49
(g65
g51
NtRp4954
(dp4955
g54
(dp4956
sg63
g4950
sg56
(lp4957
g49
(g70
g51
NtRp4958
(dp4959
g54
(dp4960
sg63
g4954
sg56
(lp4961
g49
(g50
g51
NtRp4962
(dp4963
g54
(dp4964
g62
I1
ssg63
g4958
sg56
(lp4965
g4443
asbasbasbag49
(g65
g51
NtRp4966
(dp4967
g54
(dp4968
sg63
g4950
sg56
(lp4969
g49
(g70
g51
NtRp4970
(dp4971
g54
(dp4972
sg63
g4966
sg56
(lp4973
g49
(g50
g51
NtRp4974
(dp4975
g54
(dp4976
g62
I1
ssg63
g4970
sg56
(lp4977
I00
asbasbasbag49
(g65
g51
NtRp4978
(dp4979
g54
(dp4980
sg63
g4950
sg56
(lp4981
g49
(g70
g51
NtRp4982
(dp4983
g54
(dp4984
sg63
g4978
sg56
(lp4985
g49
(g50
g51
NtRp4986
(dp4987
g54
(dp4988
g62
I1
ssg63
g4982
sg56
(lp4989
g4441
asbasbasbag49
(g65
g51
NtRp4990
(dp4991
g54
(dp4992
sg63
g4950
sg56
(lp4993
g49
(g70
g51
NtRp4994
(dp4995
g54
(dp4996
sg63
g4990
sg56
(lp4997
g49
(g50
g51
NtRp4998
(dp4999
g54
(dp5000
g62
I1
ssg63
g4994
sg56
(lp5001
(lp5002
(g4457
I00
g4455
tp5003
a(g4467
I00
g4465
tp5004
a(g4477
I00
g4475
tp5005
a(g4487
I00
g4485
tp5006
a(g4497
I00
g4495
tp5007
a(g4507
I00
g4505
tp5008
a(g4517
I00
g4515
tp5009
a(g4527
I00
g4525
tp5010
a(g4537
I00
g4535
tp5011
a(g4547
I00
g4545
tp5012
a(g4557
I00
g4555
tp5013
a(g4567
I00
g4565
tp5014
a(g4577
I00
g4575
tp5015
a(g4587
I00
g4585
tp5016
a(g4597
I00
g4595
tp5017
a(g4607
I00
g4605
tp5018
aasbasbasbasbasbasbasbag49
(g65
g51
NtRp5019
(dp5020
g54
(dp5021
sg63
g4732
sg56
(lp5022
g49
(g70
g51
NtRp5023
(dp5024
g54
(dp5025
sg63
g5019
sg56
(lp5026
g49
(g50
g51
NtRp5027
(dp5028
g54
(dp5029
g62
I2
ssg63
g5023
sg56
(lp5030
g49
(g58
g51
NtRp5031
(dp5032
g54
(dp5033
g62
I1
ssg63
Nsg56
(lp5034
g49
(g65
g51
NtRp5035
(dp5036
g54
(dp5037
sg63
g5031
sg56
(lp5038
g49
(g70
g51
NtRp5039
(dp5040
g54
(dp5041
sg63
g5035
sg56
(lp5042
g49
(g50
g51
NtRp5043
(dp5044
g54
(dp5045
g62
I1
ssg63
g5039
sg56
(lp5046
g4618
asbasbasbag49
(g65
g51
NtRp5047
(dp5048
g54
(dp5049
sg63
g5031
sg56
(lp5050
g49
(g70
g51
NtRp5051
(dp5052
g54
(dp5053
sg63
g5047
sg56
(lp5054
g49
(g50
g51
NtRp5055
(dp5056
g54
(dp5057
g62
I1
ssg63
g5051
sg56
(lp5058
I00
asbasbasbag49
(g65
g51
NtRp5059
(dp5060
g54
(dp5061
sg63
g5031
sg56
(lp5062
g49
(g70
g51
NtRp5063
(dp5064
g54
(dp5065
sg63
g5059
sg56
(lp5066
g49
(g50
g51
NtRp5067
(dp5068
g54
(dp5069
g62
I1
ssg63
g5063
sg56
(lp5070
Nasbasbasbag49
(g65
g51
NtRp5071
(dp5072
g54
(dp5073
sg63
g5031
sg56
(lp5074
g49
(g70
g51
NtRp5075
(dp5076
g54
(dp5077
sg63
g5071
sg56
(lp5078
g49
(g50
g51
NtRp5079
(dp5080
g54
(dp5081
g62
I1
ssg63
g5075
sg56
(lp5082
(lp5083
(g4632
I00
g4630
tp5084
a(g4642
I00
g4640
tp5085
a(g4652
I00
g4650
tp5086
aasbasbasbasbasbasbasbag49
(g65
g51
NtRp5087
(dp5088
g54
(dp5089
sg63
g4732
sg56
(lp5090
g49
(g70
g51
NtRp5091
(dp5092
g54
(dp5093
sg63
g5087
sg56
(lp5094
g49
(g50
g51
NtRp5095
(dp5096
g54
(dp5097
g62
I2
ssg63
g5091
sg56
(lp5098
g49
(g58
g51
NtRp5099
(dp5100
g54
(dp5101
g62
I1
ssg63
Nsg56
(lp5102
g49
(g65
g51
NtRp5103
(dp5104
g54
(dp5105
sg63
g5099
sg56
(lp5106
g49
(g70
g51
NtRp5107
(dp5108
g54
(dp5109
sg63
g5103
sg56
(lp5110
g49
(g50
g51
NtRp5111
(dp5112
g54
(dp5113
g62
I1
ssg63
g5107
sg56
(lp5114
g4661
asbasbasbag49
(g65
g51
NtRp5115
(dp5116
g54
(dp5117
sg63
g5099
sg56
(lp5118
g49
(g70
g51
NtRp5119
(dp5120
g54
(dp5121
sg63
g5115
sg56
(lp5122
g49
(g50
g51
NtRp5123
(dp5124
g54
(dp5125
g62
I1
ssg63
g5119
sg56
(lp5126
I00
asbasbasbag49
(g65
g51
NtRp5127
(dp5128
g54
(dp5129
sg63
g5099
sg56
(lp5130
g49
(g70
g51
NtRp5131
(dp5132
g54
(dp5133
sg63
g5127
sg56
(lp5134
g49
(g50
g51
NtRp5135
(dp5136
g54
(dp5137
g62
I1
ssg63
g5131
sg56
(lp5138
Nasbasbasbag49
(g65
g51
NtRp5139
(dp5140
g54
(dp5141
sg63
g5099
sg56
(lp5142
g49
(g70
g51
NtRp5143
(dp5144
g54
(dp5145
sg63
g5139
sg56
(lp5146
g49
(g50
g51
NtRp5147
(dp5148
g54
(dp5149
g62
I1
ssg63
g5143
sg56
(lp5150
(lp5151
(g4675
I00
g4673
tp5152
a(g4684
I00
g4401
tp5153
a(g4693
I00
g4411
tp5154
aasbasbasbasbasbasbasbasbasbasbasbasbasbasbasbasbasbasbasbag49
(g65
g51
NtRp5155
(dp5156
g54
(dp5157
sg63
g3521
sg56
(lp5158
g49
(g70
g51
NtRp5159
(dp5160
g54
(dp5161
g74
g75
ssg63
g5155
sg56
(lp5162
S'meta'
p5163
asbag49
(g70
g51
NtRp5164
(dp5165
g54
(dp5166
g81
g82
ssg63
g5155
sg56
(lp5167
S':'
asbag49
(g70
g51
NtRp5168
(dp5169
g54
(dp5170
sg63
g5155
sg56
(lp5171
g49
(g50
g51
NtRp5172
(dp5173
g54
(dp5174
g62
I5
ssg63
g5168
sg56
(lp5175
g49
(g58
g51
NtRp5176
(dp5177
g54
(dp5178
g62
I4
ssg63
Nsg56
(lp5179
g49
(g65
g51
NtRp5180
(dp5181
g54
(dp5182
sg63
g5176
sg56
(lp5183
g49
(g70
g51
NtRp5184
(dp5185
g54
(dp5186
g74
g75
ssg63
g5180
sg56
(lp5187
S'author'
p5188
asbag49
(g70
g51
NtRp5189
(dp5190
g54
(dp5191
g81
g82
ssg63
g5180
sg56
(lp5192
S':'
asbag49
(g70
g51
NtRp5193
(dp5194
g54
(dp5195
sg63
g5180
sg56
(lp5196
g49
(g50
g51
NtRp5197
(dp5198
g54
(dp5199
g62
I4
ssg63
g5193
sg56
(lp5200
S'Your Name <you@example.com>'
p5201
asbasbasbag49
(g65
g51
NtRp5202
(dp5203
g54
(dp5204
sg63
g5176
sg56
(lp5205
g49
(g70
g51
NtRp5206
(dp5207
g54
(dp5208
g74
g75
ssg63
g5202
sg56
(lp5209
S'description'
p5210
asbag49
(g70
g51
NtRp5211
(dp5212
g54
(dp5213
g81
g82
ssg63
g5202
sg56
(lp5214
S':'
asbag49
(g70
g51
NtRp5215
(dp5216
g54
(dp5217
sg63
g5202
sg56
(lp5218
g49
(g50
g51
NtRp5219
(dp5220
g54
(dp5221
g62
I4
ssg63
g5215
sg56
(lp5222
S'a cool new app'
p5223
asbasbasbag49
(g65
g51
NtRp5224
(dp5225
g54
(dp5226
sg63
g5176
sg56
(lp5227
g49
(g70
g51
NtRp5228
(dp5229
g54
(dp5230
g74
g75
ssg63
g5224
sg56
(lp5231
S'generator'
p5232
asbag49
(g70
g51
NtRp5233
(dp5234
g54
(dp5235
g81
g82
ssg63
g5224
sg56
(lp5236
S':'
asbag49
(g70
g51
NtRp5237
(dp5238
g54
(dp5239
sg63
g5224
sg56
(lp5240
g49
(g50
g51
NtRp5241
(dp5242
g54
(dp5243
g62
I4
ssg63
g5237
sg56
(lp5244
S'Web2py Web Framework'
p5245
asbasbasbag49
(g65
g51
NtRp5246
(dp5247
g54
(dp5248
sg63
g5176
sg56
(lp5249
g49
(g70
g51
NtRp5250
(dp5251
g54
(dp5252
g74
g75
ssg63
g5246
sg56
(lp5253
S'keywords'
p5254
asbag49
(g70
g51
NtRp5255
(dp5256
g54
(dp5257
g81
g82
ssg63
g5246
sg56
(lp5258
S':'
asbag49
(g70
g51
NtRp5259
(dp5260
g54
(dp5261
sg63
g5246
sg56
(lp5262
g49
(g50
g51
NtRp5263
(dp5264
g54
(dp5265
g62
I4
ssg63
g5259
sg56
(lp5266
S'web2py, python, framework'
p5267
asbasbasbasbasbasbasbag49
(g65
g51
NtRp5268
(dp5269
g54
(dp5270
sg63
g3521
sg56
(lp5271
g49
(g70
g51
NtRp5272
(dp5273
g54
(dp5274
g74
g75
ssg63
g5268
sg56
(lp5275
S'models_to_run'
p5276
asbag49
(g70
g51
NtRp5277
(dp5278
g54
(dp5279
g81
g82
ssg63
g5268
sg56
(lp5280
S':'
asbag49
(g70
g51
NtRp5281
(dp5282
g54
(dp5283
sg63
g5268
sg56
(lp5284
g49
(g50
g51
NtRp5285
(dp5286
g54
(dp5287
g62
I5
ssg63
g5281
sg56
(lp5288
g49
(g58
g51
NtRp5289
(dp5290
g54
(dp5291
g62
I4
ssg63
Nsg56
(lp5292
g49
(g65
g51
NtRp5293
(dp5294
g54
(dp5295
sg63
g5289
sg56
(lp5296
g49
(g70
g51
NtRp5297
(dp5298
g54
(dp5299
sg63
g5293
sg56
(lp5300
g49
(g50
g51
NtRp5301
(dp5302
g54
(dp5303
g62
I4
ssg63
g5297
sg56
(lp5304
S'^\\w+\\.py$'
p5305
asbasbasbag49
(g65
g51
NtRp5306
(dp5307
g54
(dp5308
sg63
g5289
sg56
(lp5309
g49
(g70
g51
NtRp5310
(dp5311
g54
(dp5312
sg63
g5306
sg56
(lp5313
g49
(g50
g51
NtRp5314
(dp5315
g54
(dp5316
g62
I4
ssg63
g5310
sg56
(lp5317
S'^default/\\w+\\.py$'
p5318
asbasbasbag49
(g65
g51
NtRp5319
(dp5320
g54
(dp5321
sg63
g5289
sg56
(lp5322
g49
(g70
g51
NtRp5323
(dp5324
g54
(dp5325
sg63
g5319
sg56
(lp5326
g49
(g50
g51
NtRp5327
(dp5328
g54
(dp5329
g62
I4
ssg63
g5323
sg56
(lp5330
S'^default/show_image_comments/\\w+\\.py$'
p5331
asbasbasbasbasbasbasbag49
(g65
g51
NtRp5332
(dp5333
g54
(dp5334
sg63
g3521
sg56
(lp5335
g49
(g70
g51
NtRp5336
(dp5337
g54
(dp5338
g74
g75
ssg63
g5332
sg56
(lp5339
S'postprocessing'
p5340
asbag49
(g70
g51
NtRp5341
(dp5342
g54
(dp5343
g81
g82
ssg63
g5332
sg56
(lp5344
S':'
asbag49
(g70
g51
NtRp5345
(dp5346
g54
(dp5347
sg63
g5332
sg56
(lp5348
g49
(g50
g51
NtRp5349
(dp5350
g54
(dp5351
g62
I5
ssg63
g5345
sg56
(lp5352
g49
(g58
g51
NtRp5353
(dp5354
g54
(dp5355
g62
I4
ssg63
Nsg56
(lp5356
sbasbasbasbag49
(g65
g51
NtRp5357
(dp5358
g54
(dp5359
sg63
g3521
sg56
(lp5360
g49
(g70
g51
NtRp5361
(dp5362
g54
(dp5363
g74
g75
ssg63
g5357
sg56
(lp5364
S'session_cookie_expires'
p5365
asbag49
(g70
g51
NtRp5366
(dp5367
g54
(dp5368
g81
g82
ssg63
g5357
sg56
(lp5369
S':'
asbag49
(g70
g51
NtRp5370
(dp5371
g54
(dp5372
sg63
g5357
sg56
(lp5373
g49
(g50
g51
NtRp5374
(dp5375
g54
(dp5376
g62
I5
ssg63
g5370
sg56
(lp5377
S'None'
p5378
asbasbasbag49
(g65
g51
NtRp5379
(dp5380
g54
(dp5381
sg63
g3521
sg56
(lp5382
g49
(g70
g51
NtRp5383
(dp5384
g54
(dp5385
g74
g75
ssg63
g5379
sg56
(lp5386
S'session_data_name'
p5387
asbag49
(g70
g51
NtRp5388
(dp5389
g54
(dp5390
g81
g82
ssg63
g5379
sg56
(lp5391
S':'
asbag49
(g70
g51
NtRp5392
(dp5393
g54
(dp5394
sg63
g5379
sg56
(lp5395
g49
(g50
g51
NtRp5396
(dp5397
g54
(dp5398
g62
I5
ssg63
g5392
sg56
(lp5399
S'session_data_final_impulse'
p5400
asbasbasbag49
(g65
g51
NtRp5401
(dp5402
g54
(dp5403
sg63
g3521
sg56
(lp5404
g49
(g70
g51
NtRp5405
(dp5406
g54
(dp5407
g74
g75
ssg63
g5401
sg56
(lp5408
S'session_file'
p5409
asbag49
(g70
g51
NtRp5410
(dp5411
g54
(dp5412
g81
g82
ssg63
g5401
sg56
(lp5413
S':'
asbag49
(g70
g51
NtRp5414
(dp5415
g54
(dp5416
sg63
g5401
sg56
(lp5417
g49
(g50
g51
NtRp5418
(dp5419
g54
(dp5420
g62
I5
ssg63
g5414
sg56
(lp5421
S"<open file '/Users/abaric/Downloads/web2py/web2py.app/Contents/Resources/applications/Final_Impulse/sessions/127.0.0.1-74b0ab87-cc9c-4772-8ab4-9357b1f96576', mode 'rb+' at 0x8e9ce30>"
p5422
asbasbasbag49
(g65
g51
NtRp5423
(dp5424
g54
(dp5425
sg63
g3521
sg56
(lp5426
g49
(g70
g51
NtRp5427
(dp5428
g54
(dp5429
g74
g75
ssg63
g5423
sg56
(lp5430
S'session_filename'
p5431
asbag49
(g70
g51
NtRp5432
(dp5433
g54
(dp5434
g81
g82
ssg63
g5423
sg56
(lp5435
S':'
asbag49
(g70
g51
NtRp5436
(dp5437
g54
(dp5438
sg63
g5423
sg56
(lp5439
g49
(g50
g51
NtRp5440
(dp5441
g54
(dp5442
g62
I5
ssg63
g5436
sg56
(lp5443
S'/Users/abaric/Downloads/web2py/web2py.app/Contents/Resources/applications/Final_Impulse/sessions/127.0.0.1-74b0ab87-cc9c-4772-8ab4-9357b1f96576'
p5444
asbasbasbag49
(g65
g51
NtRp5445
(dp5446
g54
(dp5447
sg63
g3521
sg56
(lp5448
g49
(g70
g51
NtRp5449
(dp5450
g54
(dp5451
g74
g75
ssg63
g5445
sg56
(lp5452
S'session_id'
p5453
asbag49
(g70
g51
NtRp5454
(dp5455
g54
(dp5456
g81
g82
ssg63
g5445
sg56
(lp5457
S':'
asbag49
(g70
g51
NtRp5458
(dp5459
g54
(dp5460
sg63
g5445
sg56
(lp5461
g49
(g50
g51
NtRp5462
(dp5463
g54
(dp5464
g62
I5
ssg63
g5458
sg56
(lp5465
g446
asbasbasbag49
(g65
g51
NtRp5466
(dp5467
g54
(dp5468
sg63
g3521
sg56
(lp5469
g49
(g70
g51
NtRp5470
(dp5471
g54
(dp5472
g74
g75
ssg63
g5466
sg56
(lp5473
S'session_id_name'
p5474
asbag49
(g70
g51
NtRp5475
(dp5476
g54
(dp5477
g81
g82
ssg63
g5466
sg56
(lp5478
S':'
asbag49
(g70
g51
NtRp5479
(dp5480
g54
(dp5481
sg63
g5466
sg56
(lp5482
g49
(g50
g51
NtRp5483
(dp5484
g54
(dp5485
g62
I5
ssg63
g5479
sg56
(lp5486
g3578
asbasbasbag49
(g65
g51
NtRp5487
(dp5488
g54
(dp5489
sg63
g3521
sg56
(lp5490
g49
(g70
g51
NtRp5491
(dp5492
g54
(dp5493
g74
g75
ssg63
g5487
sg56
(lp5494
S'session_locked'
p5495
asbag49
(g70
g51
NtRp5496
(dp5497
g54
(dp5498
g81
g82
ssg63
g5487
sg56
(lp5499
S':'
asbag49
(g70
g51
NtRp5500
(dp5501
g54
(dp5502
sg63
g5487
sg56
(lp5503
g49
(g50
g51
NtRp5504
(dp5505
g54
(dp5506
g62
I5
ssg63
g5500
sg56
(lp5507
g1699
asbasbasbag49
(g65
g51
NtRp5508
(dp5509
g54
(dp5510
sg63
g3521
sg56
(lp5511
g49
(g70
g51
NtRp5512
(dp5513
g54
(dp5514
g74
g75
ssg63
g5508
sg56
(lp5515
S'session_new'
p5516
asbag49
(g70
g51
NtRp5517
(dp5518
g54
(dp5519
g81
g82
ssg63
g5508
sg56
(lp5520
S':'
asbag49
(g70
g51
NtRp5521
(dp5522
g54
(dp5523
sg63
g5508
sg56
(lp5524
g49
(g50
g51
NtRp5525
(dp5526
g54
(dp5527
g62
I5
ssg63
g5521
sg56
(lp5528
g92
asbasbasbag49
(g65
g51
NtRp5529
(dp5530
g54
(dp5531
sg63
g3521
sg56
(lp5532
g49
(g70
g51
NtRp5533
(dp5534
g54
(dp5535
g74
g75
ssg63
g5529
sg56
(lp5536
S'session_storage_type'
p5537
asbag49
(g70
g51
NtRp5538
(dp5539
g54
(dp5540
g81
g82
ssg63
g5529
sg56
(lp5541
S':'
asbag49
(g70
g51
NtRp5542
(dp5543
g54
(dp5544
sg63
g5529
sg56
(lp5545
g49
(g50
g51
NtRp5546
(dp5547
g54
(dp5548
g62
I5
ssg63
g5542
sg56
(lp5549
g3130
asbasbasbag49
(g65
g51
NtRp5550
(dp5551
g54
(dp5552
sg63
g3521
sg56
(lp5553
g49
(g70
g51
NtRp5554
(dp5555
g54
(dp5556
g74
g75
ssg63
g5550
sg56
(lp5557
S'status'
p5558
asbag49
(g70
g51
NtRp5559
(dp5560
g54
(dp5561
g81
g82
ssg63
g5550
sg56
(lp5562
S':'
asbag49
(g70
g51
NtRp5563
(dp5564
g54
(dp5565
sg63
g5550
sg56
(lp5566
g49
(g50
g51
NtRp5567
(dp5568
g54
(dp5569
g62
I5
ssg63
g5563
sg56
(lp5570
S'200'
p5571
asbasbasbag49
(g65
g51
NtRp5572
(dp5573
g54
(dp5574
sg63
g3521
sg56
(lp5575
g49
(g70
g51
NtRp5576
(dp5577
g54
(dp5578
g74
g75
ssg63
g5572
sg56
(lp5579
S'subtitle'
p5580
asbag49
(g70
g51
NtRp5581
(dp5582
g54
(dp5583
g81
g82
ssg63
g5572
sg56
(lp5584
S':'
asbag49
(g70
g51
NtRp5585
(dp5586
g54
(dp5587
sg63
g5572
sg56
(lp5588
g49
(g50
g51
NtRp5589
(dp5590
g54
(dp5591
g62
I5
ssg63
g5585
sg56
(lp5592
g4083
(S's\r\x00\x00\x00customize me!'
tRp5593
asbasbasbag49
(g65
g51
NtRp5594
(dp5595
g54
(dp5596
sg63
g3521
sg56
(lp5597
g49
(g70
g51
NtRp5598
(dp5599
g54
(dp5600
g74
g75
ssg63
g5594
sg56
(lp5601
S'title'
p5602
asbag49
(g70
g51
NtRp5603
(dp5604
g54
(dp5605
g81
g82
ssg63
g5594
sg56
(lp5606
S':'
asbag49
(g70
g51
NtRp5607
(dp5608
g54
(dp5609
sg63
g5594
sg56
(lp5610
g49
(g50
g51
NtRp5611
(dp5612
g54
(dp5613
g62
I5
ssg63
g5607
sg56
(lp5614
S'Final Impulse'
p5615
asbasbasbag49
(g65
g51
NtRp5616
(dp5617
g54
(dp5618
sg63
g3521
sg56
(lp5619
g49
(g70
g51
NtRp5620
(dp5621
g54
(dp5622
g74
g75
ssg63
g5616
sg56
(lp5623
S'view'
p5624
asbag49
(g70
g51
NtRp5625
(dp5626
g54
(dp5627
g81
g82
ssg63
g5616
sg56
(lp5628
S':'
asbag49
(g70
g51
NtRp5629
(dp5630
g54
(dp5631
sg63
g5616
sg56
(lp5632
g49
(g50
g51
NtRp5633
(dp5634
g54
(dp5635
g62
I5
ssg63
g5629
sg56
(lp5636
S'default/show_image_comments.html'
p5637
asbasbasbasbasbsS'locals'
p5638
(dp5639
S'OBJECT'
p5640
S"<class 'gluon.html.OBJECT'>"
p5641
sS'SQLDB'
p5642
S"<class 'gluon.dal.DAL'>"
p5643
sg3169
S"<Storage {'_formkey[writing_comment/create]': 'c... 'abaric@agnesirwin.org'}>, 'user_groups': {}}>}>"
p5644
sS'LINK'
p5645
S"<class 'gluon.html.LINK'>"
p5646
sS'comments'
p5647
S'<Rows (1)>'
p5648
sS'BR'
p5649
S"<class 'gluon.html.BR'>"
p5650
sS'local_import'
p5651
S'<function <lambda> at 0x8e863f0>'
p5652
sS'OPTGROUP'
p5653
S"<class 'gluon.html.OPTGROUP'>"
p5654
sS'PRE'
p5655
S"<class 'gluon.html.PRE'>"
p5656
sS'IS_INT_IN_RANGE'
p5657
S"<class 'gluon.validators.IS_INT_IN_RANGE'>"
p5658
sS'left_sidebar_enabled'
p5659
g92
sS'IS_LOWER'
p5660
S"<class 'gluon.validators.IS_LOWER'>"
p5661
sS'IS_STRONG'
p5662
S"<class 'gluon.validators.IS_STRONG'>"
p5663
sS'cache'
p5664
S'<gluon.cache.Cache object at 0x8e93610>'
p5665
sS'IS_IN_DB'
p5666
S"<class 'gluon.validators.IS_IN_DB'>"
p5667
sS'TAG'
p5668
S'<gluon.html.__TAG__ object at 0x404e9f0>'
p5669
sS'SQLField'
p5670
S"<class 'gluon.dal.Field'>"
p5671
sS'BODY'
p5672
S"<class 'gluon.html.BODY'>"
p5673
sS'IS_DATE_IN_RANGE'
p5674
S"<class 'gluon.validators.IS_DATE_IN_RANGE'>"
p5675
sS'IFRAME'
p5676
S"<class 'gluon.html.IFRAME'>"
p5677
sS'URL'
p5678
S'<function URL at 0x403abf0>'
p5679
sS'__file__'
p5680
S"'/Users/abaric/Downloads/web2py/web2py.app/Conten...al_Impulse/views/default/show_image_comments.html'"
p5681
sS'db'
p5682
S'<DAL uri="sqlite://storage.sqlite">'
p5683
sS'auth'
p5684
S'<gluon.tools.Auth object at 0x8e93110>'
p5685
sS'P'
S"<class 'gluon.html.P'>"
p5686
sS'TFOOT'
p5687
S"<class 'gluon.html.TFOOT'>"
p5688
sS'XHTML'
p5689
S"<class 'gluon.html.XHTML'>"
p5690
sS'ON'
p5691
g1699
sS'OL'
p5692
S"<class 'gluon.html.OL'>"
p5693
sS'd'
S"{1: [('Andrea Baric', '1st image (1st comment)'), ('Suzie Smith', '1st image (2nd comment)')], 2: [('Suzie Smith', '2nd image, 1st comment')]}"
p5694
sS'TEXTAREA'
p5695
S"<class 'gluon.html.TEXTAREA'>"
p5696
sS'MENU'
p5697
S"<class 'gluon.html.MENU'>"
p5698
sS't'
S"('Suzie Smith', '1st image (2nd comment)')"
p5699
sS'EM'
p5700
S"<class 'gluon.html.EM'>"
p5701
sS'CODE'
p5702
S"<class 'gluon.html.CODE'>"
p5703
sS'HTTP'
p5704
S"<class 'gluon.http.HTTP'>"
p5705
sS'HR'
p5706
S"<class 'gluon.html.HR'>"
p5707
sS'IS_DATETIME'
p5708
S"<class 'gluon.validators.IS_DATETIME'>"
p5709
sS'HEAD'
p5710
S"<class 'gluon.html.HEAD'>"
p5711
sS'LABEL'
p5712
S"<class 'gluon.html.LABEL'>"
p5713
sS'CLEANUP'
p5714
S"<class 'gluon.validators.CLEANUP'>"
p5715
sS'images'
p5716
S'<Rows (2)>'
p5717
sS'SELECT'
p5718
S"<class 'gluon.html.SELECT'>"
p5719
sS'CENTER'
p5720
S"<class 'gluon.html.CENTER'>"
p5721
sS'Crud'
p5722
S"<class 'gluon.tools.Crud'>"
p5723
sS'Auth'
p5724
S"<class 'gluon.tools.Auth'>"
p5725
sS'__builtins__'
p5726
S"{'ArithmeticError': <type 'exceptions.ArithmeticError'>, 'AssertionError': <type 'exceptions.AssertionError'>, 'AttributeError': <type 'exceptions.AttributeError'>, 'BaseException': <type 'exceptions.BaseException'>, 'DeprecationWarning': <type 'exceptions.DeprecationWarning'>, 'EOFError': <type 'exceptions.EOFError'>, 'Ellipsis': Ellipsis, 'EnvironmentError': <type 'exceptions.EnvironmentError'>, 'Exception': <type 'exceptions.Exception'>, 'False': False, ...}"
p5727
sS'HTML'
p5728
S"<class 'gluon.html.HTML'>"
p5729
sS'SQLFORM'
p5730
S"<class 'gluon.sqlhtml.SQLFORM'>"
p5731
sS'LOAD'
p5732
S'<function LOAD at 0x42de970>'
p5733
sS'redirect'
p5734
S'<function redirect at 0x3bd0530>'
p5735
sS'FIELDSET'
p5736
S"<class 'gluon.html.FIELDSET'>"
p5737
sS'IS_EQUAL_TO'
p5738
S"<class 'gluon.validators.IS_EQUAL_TO'>"
p5739
sS'embed64'
p5740
S'<function embed64 at 0x4050830>'
p5741
sS'IS_LIST_OF'
p5742
S"<class 'gluon.validators.IS_LIST_OF'>"
p5743
sS'__name__'
p5744
S"'__restricted__'"
p5745
sS'EMBED'
p5746
S"<class 'gluon.html.EMBED'>"
p5747
sS'_'
S'<function _ at 0x8e86370>'
p5748
sS'FORM'
p5749
S"<class 'gluon.html.FORM'>"
p5750
sS'H2'
p5751
S"<class 'gluon.html.H2'>"
p5752
sS'H3'
p5753
S"<class 'gluon.html.H3'>"
p5754
sS'BUTTON'
p5755
S"<class 'gluon.html.BUTTON'>"
p5756
sS'H1'
p5757
S"<class 'gluon.html.H1'>"
p5758
sS'H6'
p5759
S"<class 'gluon.html.H6'>"
p5760
sS'H4'
p5761
S"<class 'gluon.html.H4'>"
p5762
sS'H5'
p5763
S"<class 'gluon.html.H5'>"
p5764
sS'UL'
p5765
S"<class 'gluon.html.UL'>"
p5766
sS'IS_UPPER'
p5767
S"<class 'gluon.validators.IS_UPPER'>"
p5768
sS'xmlescape'
p5769
S'<function xmlescape at 0x403a7b0>'
p5770
sS'IS_TIME'
p5771
S"<class 'gluon.validators.IS_TIME'>"
p5772
sg286
S"<Row {'auth_user': {'first_name': 'Suzie', 'last...uthor_id': 2, 'email': 'ssmith@agnesirwin.org'}}>"
p5773
sS'OPTION'
p5774
S"<class 'gluon.html.OPTION'>"
p5775
sS'TITLE'
p5776
S"<class 'gluon.html.TITLE'>"
p5777
sS'CRYPT'
p5778
S"<class 'gluon.validators.CRYPT'>"
p5779
sS'image'
p5780
S"<Row {'title': '1st Image Title', 'file': 'image...2bdf68b6.70686f746f2d33372e4a5047.JPG', 'id': 1}>"
p5781
sS'IS_EMPTY_OR'
p5782
S"<class 'gluon.validators.IS_EMPTY_OR'>"
p5783
sS'MARKMIN'
p5784
S"<class 'gluon.html.MARKMIN'>"
p5785
sS'INPUT'
p5786
S"<class 'gluon.html.INPUT'>"
p5787
sS'STRONG'
p5788
S"<class 'gluon.html.STRONG'>"
p5789
sS'COL'
p5790
S"<class 'gluon.html.COL'>"
p5791
sS'SCRIPT'
p5792
S"<class 'gluon.html.SCRIPT'>"
p5793
sS'is_mobile'
p5794
g92
sS'TABLE'
p5795
S"<class 'gluon.html.TABLE'>"
p5796
sS'IS_IPV4'
p5797
S"<class 'gluon.validators.IS_IPV4'>"
p5798
sS'IS_LENGTH'
p5799
S"<class 'gluon.validators.IS_LENGTH'>"
p5800
sS'XML'
p5801
S"<class 'gluon.html.XML'>"
p5802
sS'B'
S"<class 'gluon.html.B'>"
p5803
sS'form'
p5804
S'<gluon.sqlhtml.SQLFORM object at 0x8e80390>'
p5805
sS'SQLTABLE'
p5806
S"<class 'gluon.sqlhtml.SQLTABLE'>"
p5807
sS'IS_MATCH'
p5808
S"<class 'gluon.validators.IS_MATCH'>"
p5809
sS'tuple_list'
p5810
S"[('Suzie Smith', '2nd image, 1st comment')]"
p5811
sg147
S"'2nd image, 1st comment'"
p5812
sS'IS_ALPHANUMERIC'
p5813
S"<class 'gluon.validators.IS_ALPHANUMERIC'>"
p5814
sS'SPAN'
p5815
S"<class 'gluon.html.SPAN'>"
p5816
sS'IS_SLUG'
p5817
S"<class 'gluon.validators.IS_SLUG'>"
p5818
sS'BEAUTIFY'
p5819
S"<class 'gluon.html.BEAUTIFY'>"
p5820
sS'META'
p5821
S"<class 'gluon.html.META'>"
p5822
sS'IS_DATE'
p5823
S"<class 'gluon.validators.IS_DATE'>"
p5824
sS'IS_EMAIL'
p5825
S"<class 'gluon.validators.IS_EMAIL'>"
p5826
sS'IS_NOT_EMPTY'
p5827
S"<class 'gluon.validators.IS_NOT_EMPTY'>"
p5828
sS'IS_FLOAT_IN_RANGE'
p5829
S"<class 'gluon.validators.IS_FLOAT_IN_RANGE'>"
p5830
sS'TBODY'
p5831
S"<class 'gluon.html.TBODY'>"
p5832
sS'CAT'
p5833
S"<class 'gluon.html.CAT'>"
p5834
sS'Field'
p5835
S"<class 'gluon.dal.Field'>"
p5836
sS'middle_columns'
p5837
S"'span12'"
p5838
sS'DIV'
p5839
S"<class 'gluon.html.DIV'>"
p5840
sS'LEGEND'
p5841
S"<class 'gluon.html.LEGEND'>"
p5842
sS'IMG'
p5843
S"<class 'gluon.html.IMG'>"
p5844
sS'COLGROUP'
p5845
S"<class 'gluon.html.COLGROUP'>"
p5846
sS'DAL'
p5847
S"<class 'gluon.dal.DAL'>"
p5848
sS'TT'
p5849
S"<class 'gluon.html.TT'>"
p5850
sS'TR'
p5851
S"<class 'gluon.html.TR'>"
p5852
sS'LI'
p5853
S"<class 'gluon.html.LI'>"
p5854
sS'right_sidebar_enabled'
p5855
g92
sS'TH'
p5856
S"<class 'gluon.html.TH'>"
p5857
sS'TD'
p5858
S"<class 'gluon.html.TD'>"
p5859
sS'IS_URL'
p5860
S"<class 'gluon.validators.IS_URL'>"
p5861
sS'A'
S"<class 'gluon.html.A'>"
p5862
sS'STYLE'
p5863
S"<class 'gluon.html.STYLE'>"
p5864
sS'IS_DATETIME_IN_RANGE'
p5865
S"<class 'gluon.validators.IS_DATETIME_IN_RANGE'>"
p5866
sS'IS_IMAGE'
p5867
S"<class 'gluon.validators.IS_IMAGE'>"
p5868
sS'I'
S"<class 'gluon.html.I'>"
p5869
sS'crud'
p5870
S'<gluon.tools.Crud object at 0x8e934b0>'
p5871
sS'IS_NOT_IN_DB'
p5872
S"<class 'gluon.validators.IS_NOT_IN_DB'>"
p5873
sg3516
S"<Storage {'body': <cStringIO.StringO object at 0...30>, 'view': 'default/show_image_comments.html'}>"
p5874
sS'THEAD'
p5875
S"<class 'gluon.html.THEAD'>"
p5876
sS'IS_NULL_OR'
p5877
S"<class 'gluon.validators.IS_EMPTY_OR'>"
p5878
sg5188
S"'Suzie Smith'"
p5879
sg48
S"<Storage {'function': 'show_image_comments', 'bo...ions/Final_Impulse/', 'post_vars': <Storage {}>}>"
p5880
sS'IS_EXPR'
p5881
S"<class 'gluon.validators.IS_EXPR'>"
p5882
sS'T'
S'<gluon.languages.translator object at 0x8e931b0>'
p5883
sS'IS_IN_SET'
p5884
S"<class 'gluon.validators.IS_IN_SET'>"
p5885
sS'IS_UPLOAD_FILENAME'
p5886
S"<class 'gluon.validators.IS_UPLOAD_FILENAME'>"
p5887
sS'IS_DECIMAL_IN_RANGE'
p5888
S"<class 'gluon.validators.IS_DECIMAL_IN_RANGE'>"
p5889
sssS'traceback'
p5890
S'Traceback (most recent call last):\n  File "gluon/restricted.py", line 212, in restricted\n  File "/Users/abaric/Downloads/web2py/web2py.app/Contents/Resources/applications/Final_Impulse/views/default/show_image_comments.html", line 91, in <module>\nNameError: name \'writing\' is not defined\n'
p5891
s.