(dp1
S'output'
p2
S"<type 'exceptions.UnboundLocalError'> local variable 'video' referenced before assignment"
p3
sS'layer'
p4
S'/Users/abaric/Downloads/web2py/web2py.app/Contents/Resources/applications/Final_Impulse/controllers/default.py'
p5
sS'code'
p6
S"from gluon.tools import datetime\nfrom gluon.tools import Auth\n        \n\ndef user():\n    return dict(form=auth())\n    \n#def load_roles():\n #  session.user_name=auth.user.first_name\n  # session.roles=[]\n   #     \n    #    if auth.has_membership('teacher'):\n     #       session.user_teacher_id=db(db.teacher.email==auth.user.email).select().first().id\n      #      t=('teacher','load_courses',session.user_teacher_id)\n       #     session.roles.append(t)\n        #    \n        #if auth.has_membership('advisor'):\n          #  session.user_advisor_id=db(db.advisor.email==auth.user.email).select().first().id\n           # a=('advisor','load_advisees',session.user_advisor_id)\n            #session.roles.append(a)\n            #\n        #if auth.has_membership('division_level'):\n         #   session.user_division_level_id=db(db.division_level.email==auth.user.email).select().first().id\n          #  divl=('division level','load_departments',session.user_division_level_id)\n           # session.roles.append(divl)\n                                      \ndef index():\n    return locals()\n\ndef download():\n    return response.download(request, db)\n\ndef show_image_comments():\n    image_form=SQLFORM(db.image,fields=['title','file'],labels={'file':'Your Image'})\n    image_form.vars.author_id=auth.user.id\n    if image_form.process().accepted:\n        response.flash='image post submitted!'\n    images=db(db.image).select(db.image.ALL, orderby=db.image.id)\n    \n    d={}\n    for image in images:\n        comments=db((db.image_comment.image_id==image.id) &\\\n                   (db.auth_user.id==db.image_comment.author_id)).select() \n        tuple_list=[]       \n        for comment in comments:\n            author=('%s %s')%(comment.auth_user.first_name,comment.auth_user.last_name)\n            body=('%s')%(comment.image_comment.body)\n            t=(author,body)\n            tuple_list.append(t)\n        d[image.id]=tuple_list\n  \n    form = SQLFORM(db.writing_comment)\n    if form.process().accepted:\n        response.flash = 'your comment is posted'\n    #images = db(db.image_comment.image_id==image.id).select()\n    return locals()\n    \ndef show_writing_comments():\n    writing_form=SQLFORM(db.writing,fields=['title','body'],labels={'body':'Insert your post'})\n    writing_form.vars.author_id=auth.user.id\n    if writing_form.process().accepted:\n        response.flash='writing post submitted!'\n   \n    writings=db(db.writing).select(db.writing.ALL, orderby=db.writing.id)\n    d={}\n    for writing in writings:\n        comments=db((db.writing_comment.writing_id==writing.id) &\\\n                   (db.auth_user.id==db.writing_comment.author_id)).select() \n        tuple_list=[]       \n        for comment in comments:\n            author=('%s %s')%(comment.auth_user.first_name,comment.auth_user.last_name)\n            body=('%s')%(comment.writing_comment.body)\n            t=(author,body)\n            tuple_list.append(t)\n        d[writing.id]=tuple_list\n  \n    form = SQLFORM(db.writing_comment)\n    if form.process().accepted:\n        response.flash = 'your comment is posted'\n    #comments = db(db.writing_comment.writing_id==writing.id).select()\n    return locals()\n\ndef show_video_comments():\n    video_form=SQLFORM(db.video,fields=['title','url_str'],labels={'url_str':'Insert url string per above directions'})\n    video.vars.author_id=auth.user.id\n    if video.process().accepted:\n        response.flash='video post submitted!'\n    \n    videos=db(db.video).select(db.video.ALL, orderby=db.video.id)\n    d={}\n    for video in videos:\n        comments=db((db.video_comment.video_id==video.id) &\\\n                   (db.auth_user.id==db.video_comment.author_id)).select() \n        tuple_list=[]       \n        for comment in comments:\n            author=('%s %s')%(comment.auth_user.first_name,comment.auth_user.last_name)\n            body=('%s')%(comment.video_comment.body)\n            t=(author,body)\n            tuple_list.append(t)\n        d[video.id]=tuple_list\n    form = SQLFORM(db.video_comment)\n    if form.process().accepted:\n        response.flash = 'your comment is posted'\n    return locals()  \n\ndef insert_writing_comment():\n    if auth.user:\n        writing_comment=request.post_vars.writing_comment\n       # db.writing_comment.insert(video_id=video_id,video_comment_id=video_comment_id, author_id=author_id,email=email,body=body)\n        writing_id=request.args(0)\n        db.writing_comment.insert(author_id=auth.user.id,\n                                  writing_id=writing_id,\n                                  email=None,\n                                  body=writing_comment,\n                                  date_of_entry=datetime.datetime.today())\n        db.commit()\n       \n    else:\n        session.flash='You must log in to post a comment.'\n    redirect(URL('show_writing_comments'))\n    return locals()\n\n\ndef insert_image_comment():\n    if auth.user:\n        image_comment=request.post_vars.image_comment\n       # db.writing_comment.insert(video_id=video_id,video_comment_id=video_comment_id, author_id=author_id,email=email,body=body)\n        image_id=request.args(0)\n        db.image_comment.insert(author_id=auth.user.id,\n                                  image_id=image_id,\n                                  email=None,\n                                  body=image_comment,\n                                  date_of_entry=datetime.datetime.today())\n        db.commit()\n       \n    else:\n        session.flash='You must log in to post a comment.'\n    redirect(URL('show_image_comments'))\n    return locals()\n    \ndef insert_video_comment():\n    if auth.user:\n        video_comment=request.post_vars.video_comment\n        video_id=request.args(0)\n        db.video_comment.insert(author_id=auth.user.id,\n                                  video_id=video_id,\n                                  email=None,\n                                  body=video_comment,\n                                  date_of_entry=datetime.datetime.today())\n        db.commit()\n       \n    else:\n        session.flash='You must log in to post a comment.'\n    redirect(URL('show_video_comments'))\n    return locals()\n\nresponse._vars=response._caller(show_video_comments)\n"
p7
sS'snapshot'
p8
(dp9
S'exception'
p10
(dp11
S'__hash__'
p12
S"<method-wrapper '__hash__' of exceptions.UnboundLocalError object at 0x8e81bc0>"
p13
sS'__setattr__'
p14
S"<method-wrapper '__setattr__' of exceptions.UnboundLocalError object at 0x8e81bc0>"
p15
sS'__reduce_ex__'
p16
S'<built-in method __reduce_ex__ of exceptions.UnboundLocalError object at 0x8e81bc0>'
p17
sS'__getslice__'
p18
S"<method-wrapper '__getslice__' of exceptions.UnboundLocalError object at 0x8e81bc0>"
p19
sS'__getitem__'
p20
S"<method-wrapper '__getitem__' of exceptions.UnboundLocalError object at 0x8e81bc0>"
p21
sS'__setstate__'
p22
S'<built-in method __setstate__ of exceptions.UnboundLocalError object at 0x8e81bc0>'
p23
sS'__reduce__'
p24
S'<built-in method __reduce__ of exceptions.UnboundLocalError object at 0x8e81bc0>'
p25
sS'__str__'
p26
S"<method-wrapper '__str__' of exceptions.UnboundLocalError object at 0x8e81bc0>"
p27
sS'args'
p28
S'("local variable \'video\' referenced before assignment",)'
p29
sS'__getattribute__'
p30
S"<method-wrapper '__getattribute__' of exceptions.UnboundLocalError object at 0x8e81bc0>"
p31
sS'__class__'
p32
S"<type 'exceptions.UnboundLocalError'>"
p33
sS'__delattr__'
p34
S"<method-wrapper '__delattr__' of exceptions.UnboundLocalError object at 0x8e81bc0>"
p35
sS'__repr__'
p36
S"<method-wrapper '__repr__' of exceptions.UnboundLocalError object at 0x8e81bc0>"
p37
sS'__dict__'
p38
S'{}'
p39
sS'__doc__'
p40
S"'Local name referenced but not bound to a value.'"
p41
sS'__init__'
p42
S"<method-wrapper '__init__' of exceptions.UnboundLocalError object at 0x8e81bc0>"
p43
sS'__new__'
p44
S'<built-in method __new__ of type object at 0x5f9580>'
p45
ssS'evalue'
p46
S"local variable 'video' referenced before assignment"
p47
sS'request'
p48
ccopy_reg
_reconstructor
p49
(cgluon.html
BEAUTIFY
p50
c__builtin__
object
p51
NtRp52
(dp53
S'attributes'
p54
(dp55
sS'components'
p56
(lp57
g49
(cgluon.html
TABLE
p58
g51
NtRp59
(dp60
g54
(dp61
S'level'
p62
I5
ssS'parent'
p63
Nsg56
(lp64
g49
(cgluon.html
TR
p65
g51
NtRp66
(dp67
g54
(dp68
sg63
g59
sg56
(lp69
g49
(cgluon.html
TD
p70
g51
NtRp71
(dp72
g54
(dp73
S'_style'
p74
S'font-weight:bold;vertical-align:top'
p75
ssg63
g66
sg56
(lp76
S'ajax'
p77
asbag49
(g70
g51
NtRp78
(dp79
g54
(dp80
S'_valign'
p81
S'top'
p82
ssg63
g66
sg56
(lp83
S':'
asbag49
(g70
g51
NtRp84
(dp85
g54
(dp86
sg63
g66
sg56
(lp87
g49
(g50
g51
NtRp88
(dp89
g54
(dp90
g62
I5
ssg63
g84
sg56
(lp91
S'False'
p92
asbasbasbag49
(g65
g51
NtRp93
(dp94
g54
(dp95
sg63
g59
sg56
(lp96
g49
(g70
g51
NtRp97
(dp98
g54
(dp99
g74
g75
ssg63
g93
sg56
(lp100
S'application'
p101
asbag49
(g70
g51
NtRp102
(dp103
g54
(dp104
g81
g82
ssg63
g93
sg56
(lp105
S':'
asbag49
(g70
g51
NtRp106
(dp107
g54
(dp108
sg63
g93
sg56
(lp109
g49
(g50
g51
NtRp110
(dp111
g54
(dp112
g62
I5
ssg63
g106
sg56
(lp113
S'Final_Impulse'
p114
asbasbasbag49
(g65
g51
NtRp115
(dp116
g54
(dp117
sg63
g59
sg56
(lp118
g49
(g70
g51
NtRp119
(dp120
g54
(dp121
g74
g75
ssg63
g115
sg56
(lp122
g28
asbag49
(g70
g51
NtRp123
(dp124
g54
(dp125
g81
g82
ssg63
g115
sg56
(lp126
S':'
asbag49
(g70
g51
NtRp127
(dp128
g54
(dp129
sg63
g115
sg56
(lp130
g49
(g50
g51
NtRp131
(dp132
g54
(dp133
g62
I5
ssg63
g127
sg56
(lp134
g49
(g58
g51
NtRp135
(dp136
g54
(dp137
g62
I4
ssg63
Nsg56
(lp138
sbasbasbasbag49
(g65
g51
NtRp139
(dp140
g54
(dp141
sg63
g59
sg56
(lp142
g49
(g70
g51
NtRp143
(dp144
g54
(dp145
g74
g75
ssg63
g139
sg56
(lp146
S'body'
p147
asbag49
(g70
g51
NtRp148
(dp149
g54
(dp150
g81
g82
ssg63
g139
sg56
(lp151
S':'
asbag49
(g70
g51
NtRp152
(dp153
g54
(dp154
sg63
g139
sg56
(lp155
g49
(g50
g51
NtRp156
(dp157
g54
(dp158
g62
I5
ssg63
g152
sg56
(lp159
S'<cStringIO.StringO object at 0x8e25e00>'
p160
asbasbasbag49
(g65
g51
NtRp161
(dp162
g54
(dp163
sg63
g59
sg56
(lp164
g49
(g70
g51
NtRp165
(dp166
g54
(dp167
g74
g75
ssg63
g161
sg56
(lp168
S'cid'
p169
asbag49
(g70
g51
NtRp170
(dp171
g54
(dp172
g81
g82
ssg63
g161
sg56
(lp173
S':'
asbag49
(g70
g51
NtRp174
(dp175
g54
(dp176
sg63
g161
sg56
(lp177
g49
(g50
g51
NtRp178
(dp179
g54
(dp180
g62
I5
ssg63
g174
sg56
(lp181
S'None'
p182
asbasbasbag49
(g65
g51
NtRp183
(dp184
g54
(dp185
sg63
g59
sg56
(lp186
g49
(g70
g51
NtRp187
(dp188
g54
(dp189
g74
g75
ssg63
g183
sg56
(lp190
S'client'
p191
asbag49
(g70
g51
NtRp192
(dp193
g54
(dp194
g81
g82
ssg63
g183
sg56
(lp195
S':'
asbag49
(g70
g51
NtRp196
(dp197
g54
(dp198
sg63
g183
sg56
(lp199
g49
(g50
g51
NtRp200
(dp201
g54
(dp202
g62
I5
ssg63
g196
sg56
(lp203
S'127.0.0.1'
p204
asbasbasbag49
(g65
g51
NtRp205
(dp206
g54
(dp207
sg63
g59
sg56
(lp208
g49
(g70
g51
NtRp209
(dp210
g54
(dp211
g74
g75
ssg63
g205
sg56
(lp212
S'controller'
p213
asbag49
(g70
g51
NtRp214
(dp215
g54
(dp216
g81
g82
ssg63
g205
sg56
(lp217
S':'
asbag49
(g70
g51
NtRp218
(dp219
g54
(dp220
sg63
g205
sg56
(lp221
g49
(g50
g51
NtRp222
(dp223
g54
(dp224
g62
I5
ssg63
g218
sg56
(lp225
S'default'
p226
asbasbasbag49
(g65
g51
NtRp227
(dp228
g54
(dp229
sg63
g59
sg56
(lp230
g49
(g70
g51
NtRp231
(dp232
g54
(dp233
g74
g75
ssg63
g227
sg56
(lp234
S'cookies'
p235
asbag49
(g70
g51
NtRp236
(dp237
g54
(dp238
g81
g82
ssg63
g227
sg56
(lp239
S':'
asbag49
(g70
g51
NtRp240
(dp241
g54
(dp242
sg63
g227
sg56
(lp243
g49
(g50
g51
NtRp244
(dp245
g54
(dp246
g62
I5
ssg63
g240
sg56
(lp247
g49
(g58
g51
NtRp248
(dp249
g54
(dp250
g62
I4
ssg63
Nsg56
(lp251
g49
(g65
g51
NtRp252
(dp253
g54
(dp254
sg63
g248
sg56
(lp255
g49
(g70
g51
NtRp256
(dp257
g54
(dp258
g74
g75
ssg63
g252
sg56
(lp259
S'session_id_admin'
p260
asbag49
(g70
g51
NtRp261
(dp262
g54
(dp263
g81
g82
ssg63
g252
sg56
(lp264
S':'
asbag49
(g70
g51
NtRp265
(dp266
g54
(dp267
sg63
g252
sg56
(lp268
g49
(g50
g51
NtRp269
(dp270
g54
(dp271
g62
I4
ssg63
g265
sg56
(lp272
S'127.0.0.1-78422ea9-f684-495a-9e76-2db5117c417f'
p273
ag49
(g58
g51
NtRp274
(dp275
g54
(dp276
g62
I3
ssg63
Nsg56
(lp277
g49
(g65
g51
NtRp278
(dp279
g54
(dp280
sg63
g274
sg56
(lp281
g49
(g70
g51
NtRp282
(dp283
g54
(dp284
g74
g75
ssg63
g278
sg56
(lp285
S'comment'
p286
asbag49
(g70
g51
NtRp287
(dp288
g54
(dp289
g81
g82
ssg63
g278
sg56
(lp290
S':'
asbag49
(g70
g51
NtRp291
(dp292
g54
(dp293
sg63
g278
sg56
(lp294
g49
(g50
g51
NtRp295
(dp296
g54
(dp297
g62
I3
ssg63
g291
sg56
(lp298
S''
asbasbasbag49
(g65
g51
NtRp299
(dp300
g54
(dp301
sg63
g274
sg56
(lp302
g49
(g70
g51
NtRp303
(dp304
g54
(dp305
g74
g75
ssg63
g299
sg56
(lp306
S'domain'
p307
asbag49
(g70
g51
NtRp308
(dp309
g54
(dp310
g81
g82
ssg63
g299
sg56
(lp311
S':'
asbag49
(g70
g51
NtRp312
(dp313
g54
(dp314
sg63
g299
sg56
(lp315
g49
(g50
g51
NtRp316
(dp317
g54
(dp318
g62
I3
ssg63
g312
sg56
(lp319
S''
asbasbasbag49
(g65
g51
NtRp320
(dp321
g54
(dp322
sg63
g274
sg56
(lp323
g49
(g70
g51
NtRp324
(dp325
g54
(dp326
g74
g75
ssg63
g320
sg56
(lp327
S'expires'
p328
asbag49
(g70
g51
NtRp329
(dp330
g54
(dp331
g81
g82
ssg63
g320
sg56
(lp332
S':'
asbag49
(g70
g51
NtRp333
(dp334
g54
(dp335
sg63
g320
sg56
(lp336
g49
(g50
g51
NtRp337
(dp338
g54
(dp339
g62
I3
ssg63
g333
sg56
(lp340
S''
asbasbasbag49
(g65
g51
NtRp341
(dp342
g54
(dp343
sg63
g274
sg56
(lp344
g49
(g70
g51
NtRp345
(dp346
g54
(dp347
g74
g75
ssg63
g341
sg56
(lp348
S'max-age'
p349
asbag49
(g70
g51
NtRp350
(dp351
g54
(dp352
g81
g82
ssg63
g341
sg56
(lp353
S':'
asbag49
(g70
g51
NtRp354
(dp355
g54
(dp356
sg63
g341
sg56
(lp357
g49
(g50
g51
NtRp358
(dp359
g54
(dp360
g62
I3
ssg63
g354
sg56
(lp361
S''
asbasbasbag49
(g65
g51
NtRp362
(dp363
g54
(dp364
sg63
g274
sg56
(lp365
g49
(g70
g51
NtRp366
(dp367
g54
(dp368
g74
g75
ssg63
g362
sg56
(lp369
S'path'
p370
asbag49
(g70
g51
NtRp371
(dp372
g54
(dp373
g81
g82
ssg63
g362
sg56
(lp374
S':'
asbag49
(g70
g51
NtRp375
(dp376
g54
(dp377
sg63
g362
sg56
(lp378
g49
(g50
g51
NtRp379
(dp380
g54
(dp381
g62
I3
ssg63
g375
sg56
(lp382
S''
asbasbasbag49
(g65
g51
NtRp383
(dp384
g54
(dp385
sg63
g274
sg56
(lp386
g49
(g70
g51
NtRp387
(dp388
g54
(dp389
g74
g75
ssg63
g383
sg56
(lp390
S'secure'
p391
asbag49
(g70
g51
NtRp392
(dp393
g54
(dp394
g81
g82
ssg63
g383
sg56
(lp395
S':'
asbag49
(g70
g51
NtRp396
(dp397
g54
(dp398
sg63
g383
sg56
(lp399
g49
(g50
g51
NtRp400
(dp401
g54
(dp402
g62
I3
ssg63
g396
sg56
(lp403
S''
asbasbasbag49
(g65
g51
NtRp404
(dp405
g54
(dp406
sg63
g274
sg56
(lp407
g49
(g70
g51
NtRp408
(dp409
g54
(dp410
g74
g75
ssg63
g404
sg56
(lp411
S'version'
p412
asbag49
(g70
g51
NtRp413
(dp414
g54
(dp415
g81
g82
ssg63
g404
sg56
(lp416
S':'
asbag49
(g70
g51
NtRp417
(dp418
g54
(dp419
sg63
g404
sg56
(lp420
g49
(g50
g51
NtRp421
(dp422
g54
(dp423
g62
I3
ssg63
g417
sg56
(lp424
S''
asbasbasbasbasbasbasbag49
(g65
g51
NtRp425
(dp426
g54
(dp427
sg63
g248
sg56
(lp428
g49
(g70
g51
NtRp429
(dp430
g54
(dp431
g74
g75
ssg63
g425
sg56
(lp432
S'session_id_final_impulse'
p433
asbag49
(g70
g51
NtRp434
(dp435
g54
(dp436
g81
g82
ssg63
g425
sg56
(lp437
S':'
asbag49
(g70
g51
NtRp438
(dp439
g54
(dp440
sg63
g425
sg56
(lp441
g49
(g50
g51
NtRp442
(dp443
g54
(dp444
g62
I4
ssg63
g438
sg56
(lp445
S'127.0.0.1-196d16f0-df2a-4177-8038-20bcfac6a099'
p446
ag49
(g58
g51
NtRp447
(dp448
g54
(dp449
g62
I3
ssg63
Nsg56
(lp450
g49
(g65
g51
NtRp451
(dp452
g54
(dp453
sg63
g447
sg56
(lp454
g49
(g70
g51
NtRp455
(dp456
g54
(dp457
g74
g75
ssg63
g451
sg56
(lp458
g286
asbag49
(g70
g51
NtRp459
(dp460
g54
(dp461
g81
g82
ssg63
g451
sg56
(lp462
S':'
asbag49
(g70
g51
NtRp463
(dp464
g54
(dp465
sg63
g451
sg56
(lp466
g49
(g50
g51
NtRp467
(dp468
g54
(dp469
g62
I3
ssg63
g463
sg56
(lp470
S''
asbasbasbag49
(g65
g51
NtRp471
(dp472
g54
(dp473
sg63
g447
sg56
(lp474
g49
(g70
g51
NtRp475
(dp476
g54
(dp477
g74
g75
ssg63
g471
sg56
(lp478
g307
asbag49
(g70
g51
NtRp479
(dp480
g54
(dp481
g81
g82
ssg63
g471
sg56
(lp482
S':'
asbag49
(g70
g51
NtRp483
(dp484
g54
(dp485
sg63
g471
sg56
(lp486
g49
(g50
g51
NtRp487
(dp488
g54
(dp489
g62
I3
ssg63
g483
sg56
(lp490
S''
asbasbasbag49
(g65
g51
NtRp491
(dp492
g54
(dp493
sg63
g447
sg56
(lp494
g49
(g70
g51
NtRp495
(dp496
g54
(dp497
g74
g75
ssg63
g491
sg56
(lp498
g328
asbag49
(g70
g51
NtRp499
(dp500
g54
(dp501
g81
g82
ssg63
g491
sg56
(lp502
S':'
asbag49
(g70
g51
NtRp503
(dp504
g54
(dp505
sg63
g491
sg56
(lp506
g49
(g50
g51
NtRp507
(dp508
g54
(dp509
g62
I3
ssg63
g503
sg56
(lp510
S''
asbasbasbag49
(g65
g51
NtRp511
(dp512
g54
(dp513
sg63
g447
sg56
(lp514
g49
(g70
g51
NtRp515
(dp516
g54
(dp517
g74
g75
ssg63
g511
sg56
(lp518
g349
asbag49
(g70
g51
NtRp519
(dp520
g54
(dp521
g81
g82
ssg63
g511
sg56
(lp522
S':'
asbag49
(g70
g51
NtRp523
(dp524
g54
(dp525
sg63
g511
sg56
(lp526
g49
(g50
g51
NtRp527
(dp528
g54
(dp529
g62
I3
ssg63
g523
sg56
(lp530
S''
asbasbasbag49
(g65
g51
NtRp531
(dp532
g54
(dp533
sg63
g447
sg56
(lp534
g49
(g70
g51
NtRp535
(dp536
g54
(dp537
g74
g75
ssg63
g531
sg56
(lp538
g370
asbag49
(g70
g51
NtRp539
(dp540
g54
(dp541
g81
g82
ssg63
g531
sg56
(lp542
S':'
asbag49
(g70
g51
NtRp543
(dp544
g54
(dp545
sg63
g531
sg56
(lp546
g49
(g50
g51
NtRp547
(dp548
g54
(dp549
g62
I3
ssg63
g543
sg56
(lp550
S''
asbasbasbag49
(g65
g51
NtRp551
(dp552
g54
(dp553
sg63
g447
sg56
(lp554
g49
(g70
g51
NtRp555
(dp556
g54
(dp557
g74
g75
ssg63
g551
sg56
(lp558
g391
asbag49
(g70
g51
NtRp559
(dp560
g54
(dp561
g81
g82
ssg63
g551
sg56
(lp562
S':'
asbag49
(g70
g51
NtRp563
(dp564
g54
(dp565
sg63
g551
sg56
(lp566
g49
(g50
g51
NtRp567
(dp568
g54
(dp569
g62
I3
ssg63
g563
sg56
(lp570
S''
asbasbasbag49
(g65
g51
NtRp571
(dp572
g54
(dp573
sg63
g447
sg56
(lp574
g49
(g70
g51
NtRp575
(dp576
g54
(dp577
g74
g75
ssg63
g571
sg56
(lp578
g412
asbag49
(g70
g51
NtRp579
(dp580
g54
(dp581
g81
g82
ssg63
g571
sg56
(lp582
S':'
asbag49
(g70
g51
NtRp583
(dp584
g54
(dp585
sg63
g571
sg56
(lp586
g49
(g50
g51
NtRp587
(dp588
g54
(dp589
g62
I3
ssg63
g583
sg56
(lp590
S''
asbasbasbasbasbasbasbag49
(g65
g51
NtRp591
(dp592
g54
(dp593
sg63
g248
sg56
(lp594
g49
(g70
g51
NtRp595
(dp596
g54
(dp597
g74
g75
ssg63
g591
sg56
(lp598
S'session_id_welcome'
p599
asbag49
(g70
g51
NtRp600
(dp601
g54
(dp602
g81
g82
ssg63
g591
sg56
(lp603
S':'
asbag49
(g70
g51
NtRp604
(dp605
g54
(dp606
sg63
g591
sg56
(lp607
g49
(g50
g51
NtRp608
(dp609
g54
(dp610
g62
I4
ssg63
g604
sg56
(lp611
S'127.0.0.1-2aa03a6c-1012-4eea-98a7-98c4cb6a077c'
p612
ag49
(g58
g51
NtRp613
(dp614
g54
(dp615
g62
I3
ssg63
Nsg56
(lp616
g49
(g65
g51
NtRp617
(dp618
g54
(dp619
sg63
g613
sg56
(lp620
g49
(g70
g51
NtRp621
(dp622
g54
(dp623
g74
g75
ssg63
g617
sg56
(lp624
g286
asbag49
(g70
g51
NtRp625
(dp626
g54
(dp627
g81
g82
ssg63
g617
sg56
(lp628
S':'
asbag49
(g70
g51
NtRp629
(dp630
g54
(dp631
sg63
g617
sg56
(lp632
g49
(g50
g51
NtRp633
(dp634
g54
(dp635
g62
I3
ssg63
g629
sg56
(lp636
S''
asbasbasbag49
(g65
g51
NtRp637
(dp638
g54
(dp639
sg63
g613
sg56
(lp640
g49
(g70
g51
NtRp641
(dp642
g54
(dp643
g74
g75
ssg63
g637
sg56
(lp644
g307
asbag49
(g70
g51
NtRp645
(dp646
g54
(dp647
g81
g82
ssg63
g637
sg56
(lp648
S':'
asbag49
(g70
g51
NtRp649
(dp650
g54
(dp651
sg63
g637
sg56
(lp652
g49
(g50
g51
NtRp653
(dp654
g54
(dp655
g62
I3
ssg63
g649
sg56
(lp656
S''
asbasbasbag49
(g65
g51
NtRp657
(dp658
g54
(dp659
sg63
g613
sg56
(lp660
g49
(g70
g51
NtRp661
(dp662
g54
(dp663
g74
g75
ssg63
g657
sg56
(lp664
g328
asbag49
(g70
g51
NtRp665
(dp666
g54
(dp667
g81
g82
ssg63
g657
sg56
(lp668
S':'
asbag49
(g70
g51
NtRp669
(dp670
g54
(dp671
sg63
g657
sg56
(lp672
g49
(g50
g51
NtRp673
(dp674
g54
(dp675
g62
I3
ssg63
g669
sg56
(lp676
S''
asbasbasbag49
(g65
g51
NtRp677
(dp678
g54
(dp679
sg63
g613
sg56
(lp680
g49
(g70
g51
NtRp681
(dp682
g54
(dp683
g74
g75
ssg63
g677
sg56
(lp684
g349
asbag49
(g70
g51
NtRp685
(dp686
g54
(dp687
g81
g82
ssg63
g677
sg56
(lp688
S':'
asbag49
(g70
g51
NtRp689
(dp690
g54
(dp691
sg63
g677
sg56
(lp692
g49
(g50
g51
NtRp693
(dp694
g54
(dp695
g62
I3
ssg63
g689
sg56
(lp696
S''
asbasbasbag49
(g65
g51
NtRp697
(dp698
g54
(dp699
sg63
g613
sg56
(lp700
g49
(g70
g51
NtRp701
(dp702
g54
(dp703
g74
g75
ssg63
g697
sg56
(lp704
g370
asbag49
(g70
g51
NtRp705
(dp706
g54
(dp707
g81
g82
ssg63
g697
sg56
(lp708
S':'
asbag49
(g70
g51
NtRp709
(dp710
g54
(dp711
sg63
g697
sg56
(lp712
g49
(g50
g51
NtRp713
(dp714
g54
(dp715
g62
I3
ssg63
g709
sg56
(lp716
S''
asbasbasbag49
(g65
g51
NtRp717
(dp718
g54
(dp719
sg63
g613
sg56
(lp720
g49
(g70
g51
NtRp721
(dp722
g54
(dp723
g74
g75
ssg63
g717
sg56
(lp724
g391
asbag49
(g70
g51
NtRp725
(dp726
g54
(dp727
g81
g82
ssg63
g717
sg56
(lp728
S':'
asbag49
(g70
g51
NtRp729
(dp730
g54
(dp731
sg63
g717
sg56
(lp732
g49
(g50
g51
NtRp733
(dp734
g54
(dp735
g62
I3
ssg63
g729
sg56
(lp736
S''
asbasbasbag49
(g65
g51
NtRp737
(dp738
g54
(dp739
sg63
g613
sg56
(lp740
g49
(g70
g51
NtRp741
(dp742
g54
(dp743
g74
g75
ssg63
g737
sg56
(lp744
g412
asbag49
(g70
g51
NtRp745
(dp746
g54
(dp747
g81
g82
ssg63
g737
sg56
(lp748
S':'
asbag49
(g70
g51
NtRp749
(dp750
g54
(dp751
sg63
g737
sg56
(lp752
g49
(g50
g51
NtRp753
(dp754
g54
(dp755
g62
I3
ssg63
g749
sg56
(lp756
S''
asbasbasbasbasbasbasbasbasbasbasbag49
(g65
g51
NtRp757
(dp758
g54
(dp759
sg63
g59
sg56
(lp760
g49
(g70
g51
NtRp761
(dp762
g54
(dp763
g74
g75
ssg63
g757
sg56
(lp764
S'env'
p765
asbag49
(g70
g51
NtRp766
(dp767
g54
(dp768
g81
g82
ssg63
g757
sg56
(lp769
S':'
asbag49
(g70
g51
NtRp770
(dp771
g54
(dp772
sg63
g757
sg56
(lp773
g49
(g50
g51
NtRp774
(dp775
g54
(dp776
g62
I5
ssg63
g770
sg56
(lp777
g49
(g58
g51
NtRp778
(dp779
g54
(dp780
g62
I4
ssg63
Nsg56
(lp781
g49
(g65
g51
NtRp782
(dp783
g54
(dp784
sg63
g778
sg56
(lp785
g49
(g70
g51
NtRp786
(dp787
g54
(dp788
g74
g75
ssg63
g782
sg56
(lp789
S'app_folders'
p790
asbag49
(g70
g51
NtRp791
(dp792
g54
(dp793
g81
g82
ssg63
g782
sg56
(lp794
S':'
asbag49
(g70
g51
NtRp795
(dp796
g54
(dp797
sg63
g782
sg56
(lp798
g49
(g50
g51
NtRp799
(dp800
g54
(dp801
g62
I4
ssg63
g795
sg56
(lp802
S"set(['/Users/abaric/Downloads/web2py/web2py.app/Contents/Resources/applications/examples/', '/Users/abaric/Downloads/web2py/web2py.app/Contents/Resources/applications/Final_Impulse/', '/Users/abaric/Downloads/web2py/web2py.app/Contents/Resources/applications/welcome/', '/Users/abaric/Downloads/web2py/web2py.app/Contents/Resources/applications/admin/'])"
p803
asbasbasbag49
(g65
g51
NtRp804
(dp805
g54
(dp806
sg63
g778
sg56
(lp807
g49
(g70
g51
NtRp808
(dp809
g54
(dp810
g74
g75
ssg63
g804
sg56
(lp811
S'applications_parent'
p812
asbag49
(g70
g51
NtRp813
(dp814
g54
(dp815
g81
g82
ssg63
g804
sg56
(lp816
S':'
asbag49
(g70
g51
NtRp817
(dp818
g54
(dp819
sg63
g804
sg56
(lp820
g49
(g50
g51
NtRp821
(dp822
g54
(dp823
g62
I4
ssg63
g817
sg56
(lp824
S'/Users/abaric/Downloads/web2py/web2py.app/Contents/Resources'
p825
asbasbasbag49
(g65
g51
NtRp826
(dp827
g54
(dp828
sg63
g778
sg56
(lp829
g49
(g70
g51
NtRp830
(dp831
g54
(dp832
g74
g75
ssg63
g826
sg56
(lp833
S'cmd_args'
p834
asbag49
(g70
g51
NtRp835
(dp836
g54
(dp837
g81
g82
ssg63
g826
sg56
(lp838
S':'
asbag49
(g70
g51
NtRp839
(dp840
g54
(dp841
sg63
g826
sg56
(lp842
g49
(g50
g51
NtRp843
(dp844
g54
(dp845
g62
I4
ssg63
g839
sg56
(lp846
g49
(g58
g51
NtRp847
(dp848
g54
(dp849
g62
I3
ssg63
Nsg56
(lp850
sbasbasbasbag49
(g65
g51
NtRp851
(dp852
g54
(dp853
sg63
g778
sg56
(lp854
g49
(g70
g51
NtRp855
(dp856
g54
(dp857
g74
g75
ssg63
g851
sg56
(lp858
S'cmd_options'
p859
asbag49
(g70
g51
NtRp860
(dp861
g54
(dp862
g81
g82
ssg63
g851
sg56
(lp863
S':'
asbag49
(g70
g51
NtRp864
(dp865
g54
(dp866
sg63
g851
sg56
(lp867
g49
(g50
g51
NtRp868
(dp869
g54
(dp870
g62
I4
ssg63
g864
sg56
(lp871
S"<Values at 0x43bc1c0: {'verbose': False, 'ip': '127.0.0.1', 'with_scheduler': False, 'ips': [], 'shutdown_timeout': 5, 'taskbar': False, 'port': 8000, 'maxthreads': None, 'softcron': False, 'server_name': 'Andrea-Barics-MacBook-Pro.local', 'bpython': False, 'nogui': False, 'pid_filename': 'httpserver.pid', 'extcron': False, 'runcron': False, 'run_system_tests': False, 'test': None, 'folder': '/Users/abaric/Downloads/web2py/web2py.app/Contents/Resources', 'config': '', 'import_models': False, 'winservice': '', 'shell': None, 'run': '', 'log_filename': 'httpserver.log', 'debuglevel': 30, 'args': [''], 'socket_timeout': 5, 'ssl_ca_certificate': None, 'scheduler': None, 'profiler_filename': None, 'ssl_private_key': '', 'scheduler_groups': None, 'password': '<ask>', 'request_queue_size': 5, 'ssl_certificate': '', 'cronjob': False, 'numthreads': None, 'quiet': False, 'interfaces': None, 'minthreads': None, 'timeout': 10, 'plain': False, 'nobanner': False}>"
p872
asbasbasbag49
(g65
g51
NtRp873
(dp874
g54
(dp875
sg63
g778
sg56
(lp876
g49
(g70
g51
NtRp877
(dp878
g54
(dp879
g74
g75
ssg63
g873
sg56
(lp880
S'db_sessions'
p881
asbag49
(g70
g51
NtRp882
(dp883
g54
(dp884
g81
g82
ssg63
g873
sg56
(lp885
S':'
asbag49
(g70
g51
NtRp886
(dp887
g54
(dp888
sg63
g873
sg56
(lp889
g49
(g50
g51
NtRp890
(dp891
g54
(dp892
g62
I4
ssg63
g886
sg56
(lp893
S'set([])'
p894
asbasbasbag49
(g65
g51
NtRp895
(dp896
g54
(dp897
sg63
g778
sg56
(lp898
g49
(g70
g51
NtRp899
(dp900
g54
(dp901
g74
g75
ssg63
g895
sg56
(lp902
S'debugging'
p903
asbag49
(g70
g51
NtRp904
(dp905
g54
(dp906
g81
g82
ssg63
g895
sg56
(lp907
S':'
asbag49
(g70
g51
NtRp908
(dp909
g54
(dp910
sg63
g895
sg56
(lp911
g49
(g50
g51
NtRp912
(dp913
g54
(dp914
g62
I4
ssg63
g908
sg56
(lp915
g92
asbasbasbag49
(g65
g51
NtRp916
(dp917
g54
(dp918
sg63
g778
sg56
(lp919
g49
(g70
g51
NtRp920
(dp921
g54
(dp922
g74
g75
ssg63
g916
sg56
(lp923
S'gluon_parent'
p924
asbag49
(g70
g51
NtRp925
(dp926
g54
(dp927
g81
g82
ssg63
g916
sg56
(lp928
S':'
asbag49
(g70
g51
NtRp929
(dp930
g54
(dp931
sg63
g916
sg56
(lp932
g49
(g50
g51
NtRp933
(dp934
g54
(dp935
g62
I4
ssg63
g929
sg56
(lp936
S'/Users/abaric/Downloads/web2py/web2py.app/Contents/Resources'
p937
asbasbasbag49
(g65
g51
NtRp938
(dp939
g54
(dp940
sg63
g778
sg56
(lp941
g49
(g70
g51
NtRp942
(dp943
g54
(dp944
g74
g75
ssg63
g938
sg56
(lp945
S'http_accept'
p946
asbag49
(g70
g51
NtRp947
(dp948
g54
(dp949
g81
g82
ssg63
g938
sg56
(lp950
S':'
asbag49
(g70
g51
NtRp951
(dp952
g54
(dp953
sg63
g938
sg56
(lp954
g49
(g50
g51
NtRp955
(dp956
g54
(dp957
g62
I4
ssg63
g951
sg56
(lp958
S'text/html,application/xhtml+xml,application/xml;q=0.9,*/*;q=0.8'
p959
asbasbasbag49
(g65
g51
NtRp960
(dp961
g54
(dp962
sg63
g778
sg56
(lp963
g49
(g70
g51
NtRp964
(dp965
g54
(dp966
g74
g75
ssg63
g960
sg56
(lp967
S'http_accept_encoding'
p968
asbag49
(g70
g51
NtRp969
(dp970
g54
(dp971
g81
g82
ssg63
g960
sg56
(lp972
S':'
asbag49
(g70
g51
NtRp973
(dp974
g54
(dp975
sg63
g960
sg56
(lp976
g49
(g50
g51
NtRp977
(dp978
g54
(dp979
g62
I4
ssg63
g973
sg56
(lp980
S'gzip, deflate'
p981
asbasbasbag49
(g65
g51
NtRp982
(dp983
g54
(dp984
sg63
g778
sg56
(lp985
g49
(g70
g51
NtRp986
(dp987
g54
(dp988
g74
g75
ssg63
g982
sg56
(lp989
S'http_accept_language'
p990
asbag49
(g70
g51
NtRp991
(dp992
g54
(dp993
g81
g82
ssg63
g982
sg56
(lp994
S':'
asbag49
(g70
g51
NtRp995
(dp996
g54
(dp997
sg63
g982
sg56
(lp998
g49
(g50
g51
NtRp999
(dp1000
g54
(dp1001
g62
I4
ssg63
g995
sg56
(lp1002
S'en-us'
p1003
asbasbasbag49
(g65
g51
NtRp1004
(dp1005
g54
(dp1006
sg63
g778
sg56
(lp1007
g49
(g70
g51
NtRp1008
(dp1009
g54
(dp1010
g74
g75
ssg63
g1004
sg56
(lp1011
S'http_connection'
p1012
asbag49
(g70
g51
NtRp1013
(dp1014
g54
(dp1015
g81
g82
ssg63
g1004
sg56
(lp1016
S':'
asbag49
(g70
g51
NtRp1017
(dp1018
g54
(dp1019
sg63
g1004
sg56
(lp1020
g49
(g50
g51
NtRp1021
(dp1022
g54
(dp1023
g62
I4
ssg63
g1017
sg56
(lp1024
S'keep-alive'
p1025
asbasbasbag49
(g65
g51
NtRp1026
(dp1027
g54
(dp1028
sg63
g778
sg56
(lp1029
g49
(g70
g51
NtRp1030
(dp1031
g54
(dp1032
g74
g75
ssg63
g1026
sg56
(lp1033
S'http_cookie'
p1034
asbag49
(g70
g51
NtRp1035
(dp1036
g54
(dp1037
g81
g82
ssg63
g1026
sg56
(lp1038
S':'
asbag49
(g70
g51
NtRp1039
(dp1040
g54
(dp1041
sg63
g1026
sg56
(lp1042
g49
(g50
g51
NtRp1043
(dp1044
g54
(dp1045
g62
I4
ssg63
g1039
sg56
(lp1046
S'session_id_final_impulse=127.0.0.1-196d16f0-df2a-4177-8038-20bcfac6a099; session_id_admin=127.0.0.1-78422ea9-f684-495a-9e76-2db5117c417f; session_id_welcome=127.0.0.1-2aa03a6c-1012-4eea-98a7-98c4cb6a077c'
p1047
asbasbasbag49
(g65
g51
NtRp1048
(dp1049
g54
(dp1050
sg63
g778
sg56
(lp1051
g49
(g70
g51
NtRp1052
(dp1053
g54
(dp1054
g74
g75
ssg63
g1048
sg56
(lp1055
S'http_host'
p1056
asbag49
(g70
g51
NtRp1057
(dp1058
g54
(dp1059
g81
g82
ssg63
g1048
sg56
(lp1060
S':'
asbag49
(g70
g51
NtRp1061
(dp1062
g54
(dp1063
sg63
g1048
sg56
(lp1064
g49
(g50
g51
NtRp1065
(dp1066
g54
(dp1067
g62
I4
ssg63
g1061
sg56
(lp1068
S'127.0.0.1:8000'
p1069
asbasbasbag49
(g65
g51
NtRp1070
(dp1071
g54
(dp1072
sg63
g778
sg56
(lp1073
g49
(g70
g51
NtRp1074
(dp1075
g54
(dp1076
g74
g75
ssg63
g1070
sg56
(lp1077
S'http_referer'
p1078
asbag49
(g70
g51
NtRp1079
(dp1080
g54
(dp1081
g81
g82
ssg63
g1070
sg56
(lp1082
S':'
asbag49
(g70
g51
NtRp1083
(dp1084
g54
(dp1085
sg63
g1070
sg56
(lp1086
g49
(g50
g51
NtRp1087
(dp1088
g54
(dp1089
g62
I4
ssg63
g1083
sg56
(lp1090
S'http://127.0.0.1:8000/Final_Impulse/default/index'
p1091
asbasbasbag49
(g65
g51
NtRp1092
(dp1093
g54
(dp1094
sg63
g778
sg56
(lp1095
g49
(g70
g51
NtRp1096
(dp1097
g54
(dp1098
g74
g75
ssg63
g1092
sg56
(lp1099
S'http_user_agent'
p1100
asbag49
(g70
g51
NtRp1101
(dp1102
g54
(dp1103
g81
g82
ssg63
g1092
sg56
(lp1104
S':'
asbag49
(g70
g51
NtRp1105
(dp1106
g54
(dp1107
sg63
g1092
sg56
(lp1108
g49
(g50
g51
NtRp1109
(dp1110
g54
(dp1111
g62
I4
ssg63
g1105
sg56
(lp1112
S'Mozilla/5.0 (Macintosh; Intel Mac OS X 10_8_4) AppleWebKit/536.30.1 (KHTML, like Gecko) Version/6.0.5 Safari/536.30.1'
p1113
asbasbasbag49
(g65
g51
NtRp1114
(dp1115
g54
(dp1116
sg63
g778
sg56
(lp1117
g49
(g70
g51
NtRp1118
(dp1119
g54
(dp1120
g74
g75
ssg63
g1114
sg56
(lp1121
S'is_jython'
p1122
asbag49
(g70
g51
NtRp1123
(dp1124
g54
(dp1125
g81
g82
ssg63
g1114
sg56
(lp1126
S':'
asbag49
(g70
g51
NtRp1127
(dp1128
g54
(dp1129
sg63
g1114
sg56
(lp1130
g49
(g50
g51
NtRp1131
(dp1132
g54
(dp1133
g62
I4
ssg63
g1127
sg56
(lp1134
g92
asbasbasbag49
(g65
g51
NtRp1135
(dp1136
g54
(dp1137
sg63
g778
sg56
(lp1138
g49
(g70
g51
NtRp1139
(dp1140
g54
(dp1141
g74
g75
ssg63
g1135
sg56
(lp1142
S'is_pypy'
p1143
asbag49
(g70
g51
NtRp1144
(dp1145
g54
(dp1146
g81
g82
ssg63
g1135
sg56
(lp1147
S':'
asbag49
(g70
g51
NtRp1148
(dp1149
g54
(dp1150
sg63
g1135
sg56
(lp1151
g49
(g50
g51
NtRp1152
(dp1153
g54
(dp1154
g62
I4
ssg63
g1148
sg56
(lp1155
g92
asbasbasbag49
(g65
g51
NtRp1156
(dp1157
g54
(dp1158
sg63
g778
sg56
(lp1159
g49
(g70
g51
NtRp1160
(dp1161
g54
(dp1162
g74
g75
ssg63
g1156
sg56
(lp1163
S'local_hosts'
p1164
asbag49
(g70
g51
NtRp1165
(dp1166
g54
(dp1167
g81
g82
ssg63
g1156
sg56
(lp1168
S':'
asbag49
(g70
g51
NtRp1169
(dp1170
g54
(dp1171
sg63
g1156
sg56
(lp1172
g49
(g50
g51
NtRp1173
(dp1174
g54
(dp1175
g62
I4
ssg63
g1169
sg56
(lp1176
g49
(g58
g51
NtRp1177
(dp1178
g54
(dp1179
g62
I3
ssg63
Nsg56
(lp1180
g49
(g65
g51
NtRp1181
(dp1182
g54
(dp1183
sg63
g1177
sg56
(lp1184
g49
(g70
g51
NtRp1185
(dp1186
g54
(dp1187
sg63
g1181
sg56
(lp1188
g49
(g50
g51
NtRp1189
(dp1190
g54
(dp1191
g62
I3
ssg63
g1185
sg56
(lp1192
S'127.0.0.1'
p1193
asbasbasbag49
(g65
g51
NtRp1194
(dp1195
g54
(dp1196
sg63
g1177
sg56
(lp1197
g49
(g70
g51
NtRp1198
(dp1199
g54
(dp1200
sg63
g1194
sg56
(lp1201
g49
(g50
g51
NtRp1202
(dp1203
g54
(dp1204
g62
I3
ssg63
g1198
sg56
(lp1205
S'::ffff:127.0.0.1'
p1206
asbasbasbag49
(g65
g51
NtRp1207
(dp1208
g54
(dp1209
sg63
g1177
sg56
(lp1210
g49
(g70
g51
NtRp1211
(dp1212
g54
(dp1213
sg63
g1207
sg56
(lp1214
g49
(g50
g51
NtRp1215
(dp1216
g54
(dp1217
g62
I3
ssg63
g1211
sg56
(lp1218
S'Andrea-Barics-MacBook-Pro.local'
p1219
asbasbasbag49
(g65
g51
NtRp1220
(dp1221
g54
(dp1222
sg63
g1177
sg56
(lp1223
g49
(g70
g51
NtRp1224
(dp1225
g54
(dp1226
sg63
g1220
sg56
(lp1227
g49
(g50
g51
NtRp1228
(dp1229
g54
(dp1230
g62
I3
ssg63
g1224
sg56
(lp1231
S'Andrea-Barics-MacBook-Pro.local'
p1232
asbasbasbag49
(g65
g51
NtRp1233
(dp1234
g54
(dp1235
sg63
g1177
sg56
(lp1236
g49
(g70
g51
NtRp1237
(dp1238
g54
(dp1239
sg63
g1233
sg56
(lp1240
g49
(g50
g51
NtRp1241
(dp1242
g54
(dp1243
g62
I3
ssg63
g1237
sg56
(lp1244
S'127.0.0.1'
p1245
asbasbasbasbasbasbasbag49
(g65
g51
NtRp1246
(dp1247
g54
(dp1248
sg63
g778
sg56
(lp1249
g49
(g70
g51
NtRp1250
(dp1251
g54
(dp1252
g74
g75
ssg63
g1246
sg56
(lp1253
S'path_info'
p1254
asbag49
(g70
g51
NtRp1255
(dp1256
g54
(dp1257
g81
g82
ssg63
g1246
sg56
(lp1258
S':'
asbag49
(g70
g51
NtRp1259
(dp1260
g54
(dp1261
sg63
g1246
sg56
(lp1262
g49
(g50
g51
NtRp1263
(dp1264
g54
(dp1265
g62
I4
ssg63
g1259
sg56
(lp1266
S'/Final_Impulse/default/show_video_comments'
p1267
asbasbasbag49
(g65
g51
NtRp1268
(dp1269
g54
(dp1270
sg63
g778
sg56
(lp1271
g49
(g70
g51
NtRp1272
(dp1273
g54
(dp1274
g74
g75
ssg63
g1268
sg56
(lp1275
S'query_string'
p1276
asbag49
(g70
g51
NtRp1277
(dp1278
g54
(dp1279
g81
g82
ssg63
g1268
sg56
(lp1280
S':'
asbag49
(g70
g51
NtRp1281
(dp1282
g54
(dp1283
sg63
g1268
sg56
(lp1284
g49
(g50
g51
NtRp1285
(dp1286
g54
(dp1287
g62
I4
ssg63
g1281
sg56
(lp1288
S''
asbasbasbag49
(g65
g51
NtRp1289
(dp1290
g54
(dp1291
sg63
g778
sg56
(lp1292
g49
(g70
g51
NtRp1293
(dp1294
g54
(dp1295
g74
g75
ssg63
g1289
sg56
(lp1296
S'remote_addr'
p1297
asbag49
(g70
g51
NtRp1298
(dp1299
g54
(dp1300
g81
g82
ssg63
g1289
sg56
(lp1301
S':'
asbag49
(g70
g51
NtRp1302
(dp1303
g54
(dp1304
sg63
g1289
sg56
(lp1305
g49
(g50
g51
NtRp1306
(dp1307
g54
(dp1308
g62
I4
ssg63
g1302
sg56
(lp1309
g204
asbasbasbag49
(g65
g51
NtRp1310
(dp1311
g54
(dp1312
sg63
g778
sg56
(lp1313
g49
(g70
g51
NtRp1314
(dp1315
g54
(dp1316
g74
g75
ssg63
g1310
sg56
(lp1317
S'remote_port'
p1318
asbag49
(g70
g51
NtRp1319
(dp1320
g54
(dp1321
g81
g82
ssg63
g1310
sg56
(lp1322
S':'
asbag49
(g70
g51
NtRp1323
(dp1324
g54
(dp1325
sg63
g1310
sg56
(lp1326
g49
(g50
g51
NtRp1327
(dp1328
g54
(dp1329
g62
I4
ssg63
g1323
sg56
(lp1330
S'54291'
p1331
asbasbasbag49
(g65
g51
NtRp1332
(dp1333
g54
(dp1334
sg63
g778
sg56
(lp1335
g49
(g70
g51
NtRp1336
(dp1337
g54
(dp1338
g74
g75
ssg63
g1332
sg56
(lp1339
S'request_method'
p1340
asbag49
(g70
g51
NtRp1341
(dp1342
g54
(dp1343
g81
g82
ssg63
g1332
sg56
(lp1344
S':'
asbag49
(g70
g51
NtRp1345
(dp1346
g54
(dp1347
sg63
g1332
sg56
(lp1348
g49
(g50
g51
NtRp1349
(dp1350
g54
(dp1351
g62
I4
ssg63
g1345
sg56
(lp1352
S'GET'
p1353
asbasbasbag49
(g65
g51
NtRp1354
(dp1355
g54
(dp1356
sg63
g778
sg56
(lp1357
g49
(g70
g51
NtRp1358
(dp1359
g54
(dp1360
g74
g75
ssg63
g1354
sg56
(lp1361
S'request_uri'
p1362
asbag49
(g70
g51
NtRp1363
(dp1364
g54
(dp1365
g81
g82
ssg63
g1354
sg56
(lp1366
S':'
asbag49
(g70
g51
NtRp1367
(dp1368
g54
(dp1369
sg63
g1354
sg56
(lp1370
g49
(g50
g51
NtRp1371
(dp1372
g54
(dp1373
g62
I4
ssg63
g1367
sg56
(lp1374
g1267
asbasbasbag49
(g65
g51
NtRp1375
(dp1376
g54
(dp1377
sg63
g778
sg56
(lp1378
g49
(g70
g51
NtRp1379
(dp1380
g54
(dp1381
g74
g75
ssg63
g1375
sg56
(lp1382
S'script_name'
p1383
asbag49
(g70
g51
NtRp1384
(dp1385
g54
(dp1386
g81
g82
ssg63
g1375
sg56
(lp1387
S':'
asbag49
(g70
g51
NtRp1388
(dp1389
g54
(dp1390
sg63
g1375
sg56
(lp1391
g49
(g50
g51
NtRp1392
(dp1393
g54
(dp1394
g62
I4
ssg63
g1388
sg56
(lp1395
S''
asbasbasbag49
(g65
g51
NtRp1396
(dp1397
g54
(dp1398
sg63
g778
sg56
(lp1399
g49
(g70
g51
NtRp1400
(dp1401
g54
(dp1402
g74
g75
ssg63
g1396
sg56
(lp1403
S'server_name'
p1404
asbag49
(g70
g51
NtRp1405
(dp1406
g54
(dp1407
g81
g82
ssg63
g1396
sg56
(lp1408
S':'
asbag49
(g70
g51
NtRp1409
(dp1410
g54
(dp1411
sg63
g1396
sg56
(lp1412
g49
(g50
g51
NtRp1413
(dp1414
g54
(dp1415
g62
I4
ssg63
g1409
sg56
(lp1416
g1232
asbasbasbag49
(g65
g51
NtRp1417
(dp1418
g54
(dp1419
sg63
g778
sg56
(lp1420
g49
(g70
g51
NtRp1421
(dp1422
g54
(dp1423
g74
g75
ssg63
g1417
sg56
(lp1424
S'server_port'
p1425
asbag49
(g70
g51
NtRp1426
(dp1427
g54
(dp1428
g81
g82
ssg63
g1417
sg56
(lp1429
S':'
asbag49
(g70
g51
NtRp1430
(dp1431
g54
(dp1432
sg63
g1417
sg56
(lp1433
g49
(g50
g51
NtRp1434
(dp1435
g54
(dp1436
g62
I4
ssg63
g1430
sg56
(lp1437
S'8000'
p1438
asbasbasbag49
(g65
g51
NtRp1439
(dp1440
g54
(dp1441
sg63
g778
sg56
(lp1442
g49
(g70
g51
NtRp1443
(dp1444
g54
(dp1445
g74
g75
ssg63
g1439
sg56
(lp1446
S'server_protocol'
p1447
asbag49
(g70
g51
NtRp1448
(dp1449
g54
(dp1450
g81
g82
ssg63
g1439
sg56
(lp1451
S':'
asbag49
(g70
g51
NtRp1452
(dp1453
g54
(dp1454
sg63
g1439
sg56
(lp1455
g49
(g50
g51
NtRp1456
(dp1457
g54
(dp1458
g62
I4
ssg63
g1452
sg56
(lp1459
S'HTTP/1.1'
p1460
asbasbasbag49
(g65
g51
NtRp1461
(dp1462
g54
(dp1463
sg63
g778
sg56
(lp1464
g49
(g70
g51
NtRp1465
(dp1466
g54
(dp1467
g74
g75
ssg63
g1461
sg56
(lp1468
S'server_software'
p1469
asbag49
(g70
g51
NtRp1470
(dp1471
g54
(dp1472
g81
g82
ssg63
g1461
sg56
(lp1473
S':'
asbag49
(g70
g51
NtRp1474
(dp1475
g54
(dp1476
sg63
g1461
sg56
(lp1477
g49
(g50
g51
NtRp1478
(dp1479
g54
(dp1480
g62
I4
ssg63
g1474
sg56
(lp1481
S'Rocket 1.2.5'
p1482
asbasbasbag49
(g65
g51
NtRp1483
(dp1484
g54
(dp1485
sg63
g778
sg56
(lp1486
g49
(g70
g51
NtRp1487
(dp1488
g54
(dp1489
g74
g75
ssg63
g1483
sg56
(lp1490
S'web2py_path'
p1491
asbag49
(g70
g51
NtRp1492
(dp1493
g54
(dp1494
g81
g82
ssg63
g1483
sg56
(lp1495
S':'
asbag49
(g70
g51
NtRp1496
(dp1497
g54
(dp1498
sg63
g1483
sg56
(lp1499
g49
(g50
g51
NtRp1500
(dp1501
g54
(dp1502
g62
I4
ssg63
g1496
sg56
(lp1503
g825
asbasbasbag49
(g65
g51
NtRp1504
(dp1505
g54
(dp1506
sg63
g778
sg56
(lp1507
g49
(g70
g51
NtRp1508
(dp1509
g54
(dp1510
g74
g75
ssg63
g1504
sg56
(lp1511
S'web2py_version'
p1512
asbag49
(g70
g51
NtRp1513
(dp1514
g54
(dp1515
g81
g82
ssg63
g1504
sg56
(lp1516
S':'
asbag49
(g70
g51
NtRp1517
(dp1518
g54
(dp1519
sg63
g1504
sg56
(lp1520
g49
(g50
g51
NtRp1521
(dp1522
g54
(dp1523
g62
I4
ssg63
g1517
sg56
(lp1524
g49
(g58
g51
NtRp1525
(dp1526
g54
(dp1527
g62
I3
ssg63
Nsg56
(lp1528
g49
(g65
g51
NtRp1529
(dp1530
g54
(dp1531
sg63
g1525
sg56
(lp1532
g49
(g70
g51
NtRp1533
(dp1534
g54
(dp1535
sg63
g1529
sg56
(lp1536
g49
(g50
g51
NtRp1537
(dp1538
g54
(dp1539
g62
I3
ssg63
g1533
sg56
(lp1540
S'2'
asbasbasbag49
(g65
g51
NtRp1541
(dp1542
g54
(dp1543
sg63
g1525
sg56
(lp1544
g49
(g70
g51
NtRp1545
(dp1546
g54
(dp1547
sg63
g1541
sg56
(lp1548
g49
(g50
g51
NtRp1549
(dp1550
g54
(dp1551
g62
I3
ssg63
g1545
sg56
(lp1552
S'2'
asbasbasbag49
(g65
g51
NtRp1553
(dp1554
g54
(dp1555
sg63
g1525
sg56
(lp1556
g49
(g70
g51
NtRp1557
(dp1558
g54
(dp1559
sg63
g1553
sg56
(lp1560
g49
(g50
g51
NtRp1561
(dp1562
g54
(dp1563
g62
I3
ssg63
g1557
sg56
(lp1564
S'1'
asbasbasbag49
(g65
g51
NtRp1565
(dp1566
g54
(dp1567
sg63
g1525
sg56
(lp1568
g49
(g70
g51
NtRp1569
(dp1570
g54
(dp1571
sg63
g1565
sg56
(lp1572
g49
(g50
g51
NtRp1573
(dp1574
g54
(dp1575
g62
I3
ssg63
g1569
sg56
(lp1576
S'datetime.datetime(2012, 10, 21, 16, 57, 4)'
p1577
asbasbasbag49
(g65
g51
NtRp1578
(dp1579
g54
(dp1580
sg63
g1525
sg56
(lp1581
g49
(g70
g51
NtRp1582
(dp1583
g54
(dp1584
sg63
g1578
sg56
(lp1585
g49
(g50
g51
NtRp1586
(dp1587
g54
(dp1588
g62
I3
ssg63
g1582
sg56
(lp1589
S'stable'
p1590
asbasbasbasbasbasbasbag49
(g65
g51
NtRp1591
(dp1592
g54
(dp1593
sg63
g778
sg56
(lp1594
g49
(g70
g51
NtRp1595
(dp1596
g54
(dp1597
g74
g75
ssg63
g1591
sg56
(lp1598
S'wsgi_errors'
p1599
asbag49
(g70
g51
NtRp1600
(dp1601
g54
(dp1602
g81
g82
ssg63
g1591
sg56
(lp1603
S':'
asbag49
(g70
g51
NtRp1604
(dp1605
g54
(dp1606
sg63
g1591
sg56
(lp1607
g49
(g50
g51
NtRp1608
(dp1609
g54
(dp1610
g62
I4
ssg63
g1604
sg56
(lp1611
S"<open file '<stderr>', mode 'w' at 0x540b0>"
p1612
asbasbasbag49
(g65
g51
NtRp1613
(dp1614
g54
(dp1615
sg63
g778
sg56
(lp1616
g49
(g70
g51
NtRp1617
(dp1618
g54
(dp1619
g74
g75
ssg63
g1613
sg56
(lp1620
S'wsgi_file_wrapper'
p1621
asbag49
(g70
g51
NtRp1622
(dp1623
g54
(dp1624
g81
g82
ssg63
g1613
sg56
(lp1625
S':'
asbag49
(g70
g51
NtRp1626
(dp1627
g54
(dp1628
sg63
g1613
sg56
(lp1629
g49
(g50
g51
NtRp1630
(dp1631
g54
(dp1632
g62
I4
ssg63
g1626
sg56
(lp1633
S'<class wsgiref.util.FileWrapper at 0x45782d0>'
p1634
asbasbasbag49
(g65
g51
NtRp1635
(dp1636
g54
(dp1637
sg63
g778
sg56
(lp1638
g49
(g70
g51
NtRp1639
(dp1640
g54
(dp1641
g74
g75
ssg63
g1635
sg56
(lp1642
S'wsgi_input'
p1643
asbag49
(g70
g51
NtRp1644
(dp1645
g54
(dp1646
g81
g82
ssg63
g1635
sg56
(lp1647
S':'
asbag49
(g70
g51
NtRp1648
(dp1649
g54
(dp1650
sg63
g1635
sg56
(lp1651
g49
(g50
g51
NtRp1652
(dp1653
g54
(dp1654
g62
I4
ssg63
g1648
sg56
(lp1655
S'<socket._fileobject object at 0x89d70f0>'
p1656
asbasbasbag49
(g65
g51
NtRp1657
(dp1658
g54
(dp1659
sg63
g778
sg56
(lp1660
g49
(g70
g51
NtRp1661
(dp1662
g54
(dp1663
g74
g75
ssg63
g1657
sg56
(lp1664
S'wsgi_multiprocess'
p1665
asbag49
(g70
g51
NtRp1666
(dp1667
g54
(dp1668
g81
g82
ssg63
g1657
sg56
(lp1669
S':'
asbag49
(g70
g51
NtRp1670
(dp1671
g54
(dp1672
sg63
g1657
sg56
(lp1673
g49
(g50
g51
NtRp1674
(dp1675
g54
(dp1676
g62
I4
ssg63
g1670
sg56
(lp1677
g92
asbasbasbag49
(g65
g51
NtRp1678
(dp1679
g54
(dp1680
sg63
g778
sg56
(lp1681
g49
(g70
g51
NtRp1682
(dp1683
g54
(dp1684
g74
g75
ssg63
g1678
sg56
(lp1685
S'wsgi_multithread'
p1686
asbag49
(g70
g51
NtRp1687
(dp1688
g54
(dp1689
g81
g82
ssg63
g1678
sg56
(lp1690
S':'
asbag49
(g70
g51
NtRp1691
(dp1692
g54
(dp1693
sg63
g1678
sg56
(lp1694
g49
(g50
g51
NtRp1695
(dp1696
g54
(dp1697
g62
I4
ssg63
g1691
sg56
(lp1698
S'True'
p1699
asbasbasbag49
(g65
g51
NtRp1700
(dp1701
g54
(dp1702
sg63
g778
sg56
(lp1703
g49
(g70
g51
NtRp1704
(dp1705
g54
(dp1706
g74
g75
ssg63
g1700
sg56
(lp1707
S'wsgi_run_once'
p1708
asbag49
(g70
g51
NtRp1709
(dp1710
g54
(dp1711
g81
g82
ssg63
g1700
sg56
(lp1712
S':'
asbag49
(g70
g51
NtRp1713
(dp1714
g54
(dp1715
sg63
g1700
sg56
(lp1716
g49
(g50
g51
NtRp1717
(dp1718
g54
(dp1719
g62
I4
ssg63
g1713
sg56
(lp1720
g92
asbasbasbag49
(g65
g51
NtRp1721
(dp1722
g54
(dp1723
sg63
g778
sg56
(lp1724
g49
(g70
g51
NtRp1725
(dp1726
g54
(dp1727
g74
g75
ssg63
g1721
sg56
(lp1728
S'wsgi_url_scheme'
p1729
asbag49
(g70
g51
NtRp1730
(dp1731
g54
(dp1732
g81
g82
ssg63
g1721
sg56
(lp1733
S':'
asbag49
(g70
g51
NtRp1734
(dp1735
g54
(dp1736
sg63
g1721
sg56
(lp1737
g49
(g50
g51
NtRp1738
(dp1739
g54
(dp1740
g62
I4
ssg63
g1734
sg56
(lp1741
S'http'
p1742
asbasbasbag49
(g65
g51
NtRp1743
(dp1744
g54
(dp1745
sg63
g778
sg56
(lp1746
g49
(g70
g51
NtRp1747
(dp1748
g54
(dp1749
g74
g75
ssg63
g1743
sg56
(lp1750
S'wsgi_version'
p1751
asbag49
(g70
g51
NtRp1752
(dp1753
g54
(dp1754
g81
g82
ssg63
g1743
sg56
(lp1755
S':'
asbag49
(g70
g51
NtRp1756
(dp1757
g54
(dp1758
sg63
g1743
sg56
(lp1759
g49
(g50
g51
NtRp1760
(dp1761
g54
(dp1762
g62
I4
ssg63
g1756
sg56
(lp1763
g49
(g58
g51
NtRp1764
(dp1765
g54
(dp1766
g62
I3
ssg63
Nsg56
(lp1767
g49
(g65
g51
NtRp1768
(dp1769
g54
(dp1770
sg63
g1764
sg56
(lp1771
g49
(g70
g51
NtRp1772
(dp1773
g54
(dp1774
sg63
g1768
sg56
(lp1775
g49
(g50
g51
NtRp1776
(dp1777
g54
(dp1778
g62
I3
ssg63
g1772
sg56
(lp1779
S'1'
asbasbasbag49
(g65
g51
NtRp1780
(dp1781
g54
(dp1782
sg63
g1764
sg56
(lp1783
g49
(g70
g51
NtRp1784
(dp1785
g54
(dp1786
sg63
g1780
sg56
(lp1787
g49
(g50
g51
NtRp1788
(dp1789
g54
(dp1790
g62
I3
ssg63
g1784
sg56
(lp1791
S'0'
asbasbasbasbasbasbasbasbasbasbasbag49
(g65
g51
NtRp1792
(dp1793
g54
(dp1794
sg63
g59
sg56
(lp1795
g49
(g70
g51
NtRp1796
(dp1797
g54
(dp1798
g74
g75
ssg63
g1792
sg56
(lp1799
S'extension'
p1800
asbag49
(g70
g51
NtRp1801
(dp1802
g54
(dp1803
g81
g82
ssg63
g1792
sg56
(lp1804
S':'
asbag49
(g70
g51
NtRp1805
(dp1806
g54
(dp1807
sg63
g1792
sg56
(lp1808
g49
(g50
g51
NtRp1809
(dp1810
g54
(dp1811
g62
I5
ssg63
g1805
sg56
(lp1812
S'html'
p1813
asbasbasbag49
(g65
g51
NtRp1814
(dp1815
g54
(dp1816
sg63
g59
sg56
(lp1817
g49
(g70
g51
NtRp1818
(dp1819
g54
(dp1820
g74
g75
ssg63
g1814
sg56
(lp1821
S'folder'
p1822
asbag49
(g70
g51
NtRp1823
(dp1824
g54
(dp1825
g81
g82
ssg63
g1814
sg56
(lp1826
S':'
asbag49
(g70
g51
NtRp1827
(dp1828
g54
(dp1829
sg63
g1814
sg56
(lp1830
g49
(g50
g51
NtRp1831
(dp1832
g54
(dp1833
g62
I5
ssg63
g1827
sg56
(lp1834
S'/Users/abaric/Downloads/web2py/web2py.app/Contents/Resources/applications/Final_Impulse/'
p1835
asbasbasbag49
(g65
g51
NtRp1836
(dp1837
g54
(dp1838
sg63
g59
sg56
(lp1839
g49
(g70
g51
NtRp1840
(dp1841
g54
(dp1842
g74
g75
ssg63
g1836
sg56
(lp1843
S'function'
p1844
asbag49
(g70
g51
NtRp1845
(dp1846
g54
(dp1847
g81
g82
ssg63
g1836
sg56
(lp1848
S':'
asbag49
(g70
g51
NtRp1849
(dp1850
g54
(dp1851
sg63
g1836
sg56
(lp1852
g49
(g50
g51
NtRp1853
(dp1854
g54
(dp1855
g62
I5
ssg63
g1849
sg56
(lp1856
S'show_video_comments'
p1857
asbasbasbag49
(g65
g51
NtRp1858
(dp1859
g54
(dp1860
sg63
g59
sg56
(lp1861
g49
(g70
g51
NtRp1862
(dp1863
g54
(dp1864
g74
g75
ssg63
g1858
sg56
(lp1865
S'get_vars'
p1866
asbag49
(g70
g51
NtRp1867
(dp1868
g54
(dp1869
g81
g82
ssg63
g1858
sg56
(lp1870
S':'
asbag49
(g70
g51
NtRp1871
(dp1872
g54
(dp1873
sg63
g1858
sg56
(lp1874
g49
(g50
g51
NtRp1875
(dp1876
g54
(dp1877
g62
I5
ssg63
g1871
sg56
(lp1878
g49
(g58
g51
NtRp1879
(dp1880
g54
(dp1881
g62
I4
ssg63
Nsg56
(lp1882
sbasbasbasbag49
(g65
g51
NtRp1883
(dp1884
g54
(dp1885
sg63
g59
sg56
(lp1886
g49
(g70
g51
NtRp1887
(dp1888
g54
(dp1889
g74
g75
ssg63
g1883
sg56
(lp1890
S'global_settings'
p1891
asbag49
(g70
g51
NtRp1892
(dp1893
g54
(dp1894
g81
g82
ssg63
g1883
sg56
(lp1895
S':'
asbag49
(g70
g51
NtRp1896
(dp1897
g54
(dp1898
sg63
g1883
sg56
(lp1899
g49
(g50
g51
NtRp1900
(dp1901
g54
(dp1902
g62
I5
ssg63
g1896
sg56
(lp1903
g49
(g58
g51
NtRp1904
(dp1905
g54
(dp1906
g62
I4
ssg63
Nsg56
(lp1907
g49
(g65
g51
NtRp1908
(dp1909
g54
(dp1910
sg63
g1904
sg56
(lp1911
g49
(g70
g51
NtRp1912
(dp1913
g54
(dp1914
g74
g75
ssg63
g1908
sg56
(lp1915
g790
asbag49
(g70
g51
NtRp1916
(dp1917
g54
(dp1918
g81
g82
ssg63
g1908
sg56
(lp1919
S':'
asbag49
(g70
g51
NtRp1920
(dp1921
g54
(dp1922
sg63
g1908
sg56
(lp1923
g49
(g50
g51
NtRp1924
(dp1925
g54
(dp1926
g62
I4
ssg63
g1920
sg56
(lp1927
S"set(['/Users/abaric/Downloads/web2py/web2py.app/Contents/Resources/applications/examples/', '/Users/abaric/Downloads/web2py/web2py.app/Contents/Resources/applications/Final_Impulse/', '/Users/abaric/Downloads/web2py/web2py.app/Contents/Resources/applications/welcome/', '/Users/abaric/Downloads/web2py/web2py.app/Contents/Resources/applications/admin/'])"
p1928
asbasbasbag49
(g65
g51
NtRp1929
(dp1930
g54
(dp1931
sg63
g1904
sg56
(lp1932
g49
(g70
g51
NtRp1933
(dp1934
g54
(dp1935
g74
g75
ssg63
g1929
sg56
(lp1936
g812
asbag49
(g70
g51
NtRp1937
(dp1938
g54
(dp1939
g81
g82
ssg63
g1929
sg56
(lp1940
S':'
asbag49
(g70
g51
NtRp1941
(dp1942
g54
(dp1943
sg63
g1929
sg56
(lp1944
g49
(g50
g51
NtRp1945
(dp1946
g54
(dp1947
g62
I4
ssg63
g1941
sg56
(lp1948
g825
asbasbasbag49
(g65
g51
NtRp1949
(dp1950
g54
(dp1951
sg63
g1904
sg56
(lp1952
g49
(g70
g51
NtRp1953
(dp1954
g54
(dp1955
g74
g75
ssg63
g1949
sg56
(lp1956
g834
asbag49
(g70
g51
NtRp1957
(dp1958
g54
(dp1959
g81
g82
ssg63
g1949
sg56
(lp1960
S':'
asbag49
(g70
g51
NtRp1961
(dp1962
g54
(dp1963
sg63
g1949
sg56
(lp1964
g49
(g50
g51
NtRp1965
(dp1966
g54
(dp1967
g62
I4
ssg63
g1961
sg56
(lp1968
g49
(g58
g51
NtRp1969
(dp1970
g54
(dp1971
g62
I3
ssg63
Nsg56
(lp1972
sbasbasbasbag49
(g65
g51
NtRp1973
(dp1974
g54
(dp1975
sg63
g1904
sg56
(lp1976
g49
(g70
g51
NtRp1977
(dp1978
g54
(dp1979
g74
g75
ssg63
g1973
sg56
(lp1980
g859
asbag49
(g70
g51
NtRp1981
(dp1982
g54
(dp1983
g81
g82
ssg63
g1973
sg56
(lp1984
S':'
asbag49
(g70
g51
NtRp1985
(dp1986
g54
(dp1987
sg63
g1973
sg56
(lp1988
g49
(g50
g51
NtRp1989
(dp1990
g54
(dp1991
g62
I4
ssg63
g1985
sg56
(lp1992
S"<Values at 0x43bc1c0: {'verbose': False, 'ip': '127.0.0.1', 'with_scheduler': False, 'ips': [], 'shutdown_timeout': 5, 'taskbar': False, 'port': 8000, 'maxthreads': None, 'softcron': False, 'server_name': 'Andrea-Barics-MacBook-Pro.local', 'bpython': False, 'nogui': False, 'pid_filename': 'httpserver.pid', 'extcron': False, 'runcron': False, 'run_system_tests': False, 'test': None, 'folder': '/Users/abaric/Downloads/web2py/web2py.app/Contents/Resources', 'config': '', 'import_models': False, 'winservice': '', 'shell': None, 'run': '', 'log_filename': 'httpserver.log', 'debuglevel': 30, 'args': [''], 'socket_timeout': 5, 'ssl_ca_certificate': None, 'scheduler': None, 'profiler_filename': None, 'ssl_private_key': '', 'scheduler_groups': None, 'password': '<ask>', 'request_queue_size': 5, 'ssl_certificate': '', 'cronjob': False, 'numthreads': None, 'quiet': False, 'interfaces': None, 'minthreads': None, 'timeout': 10, 'plain': False, 'nobanner': False}>"
p1993
asbasbasbag49
(g65
g51
NtRp1994
(dp1995
g54
(dp1996
sg63
g1904
sg56
(lp1997
g49
(g70
g51
NtRp1998
(dp1999
g54
(dp2000
g74
g75
ssg63
g1994
sg56
(lp2001
g881
asbag49
(g70
g51
NtRp2002
(dp2003
g54
(dp2004
g81
g82
ssg63
g1994
sg56
(lp2005
S':'
asbag49
(g70
g51
NtRp2006
(dp2007
g54
(dp2008
sg63
g1994
sg56
(lp2009
g49
(g50
g51
NtRp2010
(dp2011
g54
(dp2012
g62
I4
ssg63
g2006
sg56
(lp2013
S'set([])'
p2014
asbasbasbag49
(g65
g51
NtRp2015
(dp2016
g54
(dp2017
sg63
g1904
sg56
(lp2018
g49
(g70
g51
NtRp2019
(dp2020
g54
(dp2021
g74
g75
ssg63
g2015
sg56
(lp2022
g903
asbag49
(g70
g51
NtRp2023
(dp2024
g54
(dp2025
g81
g82
ssg63
g2015
sg56
(lp2026
S':'
asbag49
(g70
g51
NtRp2027
(dp2028
g54
(dp2029
sg63
g2015
sg56
(lp2030
g49
(g50
g51
NtRp2031
(dp2032
g54
(dp2033
g62
I4
ssg63
g2027
sg56
(lp2034
g92
asbasbasbag49
(g65
g51
NtRp2035
(dp2036
g54
(dp2037
sg63
g1904
sg56
(lp2038
g49
(g70
g51
NtRp2039
(dp2040
g54
(dp2041
g74
g75
ssg63
g2035
sg56
(lp2042
g924
asbag49
(g70
g51
NtRp2043
(dp2044
g54
(dp2045
g81
g82
ssg63
g2035
sg56
(lp2046
S':'
asbag49
(g70
g51
NtRp2047
(dp2048
g54
(dp2049
sg63
g2035
sg56
(lp2050
g49
(g50
g51
NtRp2051
(dp2052
g54
(dp2053
g62
I4
ssg63
g2047
sg56
(lp2054
g937
asbasbasbag49
(g65
g51
NtRp2055
(dp2056
g54
(dp2057
sg63
g1904
sg56
(lp2058
g49
(g70
g51
NtRp2059
(dp2060
g54
(dp2061
g74
g75
ssg63
g2055
sg56
(lp2062
g1122
asbag49
(g70
g51
NtRp2063
(dp2064
g54
(dp2065
g81
g82
ssg63
g2055
sg56
(lp2066
S':'
asbag49
(g70
g51
NtRp2067
(dp2068
g54
(dp2069
sg63
g2055
sg56
(lp2070
g49
(g50
g51
NtRp2071
(dp2072
g54
(dp2073
g62
I4
ssg63
g2067
sg56
(lp2074
g92
asbasbasbag49
(g65
g51
NtRp2075
(dp2076
g54
(dp2077
sg63
g1904
sg56
(lp2078
g49
(g70
g51
NtRp2079
(dp2080
g54
(dp2081
g74
g75
ssg63
g2075
sg56
(lp2082
g1143
asbag49
(g70
g51
NtRp2083
(dp2084
g54
(dp2085
g81
g82
ssg63
g2075
sg56
(lp2086
S':'
asbag49
(g70
g51
NtRp2087
(dp2088
g54
(dp2089
sg63
g2075
sg56
(lp2090
g49
(g50
g51
NtRp2091
(dp2092
g54
(dp2093
g62
I4
ssg63
g2087
sg56
(lp2094
g92
asbasbasbag49
(g65
g51
NtRp2095
(dp2096
g54
(dp2097
sg63
g1904
sg56
(lp2098
g49
(g70
g51
NtRp2099
(dp2100
g54
(dp2101
g74
g75
ssg63
g2095
sg56
(lp2102
g1164
asbag49
(g70
g51
NtRp2103
(dp2104
g54
(dp2105
g81
g82
ssg63
g2095
sg56
(lp2106
S':'
asbag49
(g70
g51
NtRp2107
(dp2108
g54
(dp2109
sg63
g2095
sg56
(lp2110
g49
(g50
g51
NtRp2111
(dp2112
g54
(dp2113
g62
I4
ssg63
g2107
sg56
(lp2114
g49
(g58
g51
NtRp2115
(dp2116
g54
(dp2117
g62
I3
ssg63
Nsg56
(lp2118
g49
(g65
g51
NtRp2119
(dp2120
g54
(dp2121
sg63
g2115
sg56
(lp2122
g49
(g70
g51
NtRp2123
(dp2124
g54
(dp2125
sg63
g2119
sg56
(lp2126
g49
(g50
g51
NtRp2127
(dp2128
g54
(dp2129
g62
I3
ssg63
g2123
sg56
(lp2130
g1193
asbasbasbag49
(g65
g51
NtRp2131
(dp2132
g54
(dp2133
sg63
g2115
sg56
(lp2134
g49
(g70
g51
NtRp2135
(dp2136
g54
(dp2137
sg63
g2131
sg56
(lp2138
g49
(g50
g51
NtRp2139
(dp2140
g54
(dp2141
g62
I3
ssg63
g2135
sg56
(lp2142
g1206
asbasbasbag49
(g65
g51
NtRp2143
(dp2144
g54
(dp2145
sg63
g2115
sg56
(lp2146
g49
(g70
g51
NtRp2147
(dp2148
g54
(dp2149
sg63
g2143
sg56
(lp2150
g49
(g50
g51
NtRp2151
(dp2152
g54
(dp2153
g62
I3
ssg63
g2147
sg56
(lp2154
g1219
asbasbasbag49
(g65
g51
NtRp2155
(dp2156
g54
(dp2157
sg63
g2115
sg56
(lp2158
g49
(g70
g51
NtRp2159
(dp2160
g54
(dp2161
sg63
g2155
sg56
(lp2162
g49
(g50
g51
NtRp2163
(dp2164
g54
(dp2165
g62
I3
ssg63
g2159
sg56
(lp2166
g1232
asbasbasbag49
(g65
g51
NtRp2167
(dp2168
g54
(dp2169
sg63
g2115
sg56
(lp2170
g49
(g70
g51
NtRp2171
(dp2172
g54
(dp2173
sg63
g2167
sg56
(lp2174
g49
(g50
g51
NtRp2175
(dp2176
g54
(dp2177
g62
I3
ssg63
g2171
sg56
(lp2178
g1245
asbasbasbasbasbasbasbag49
(g65
g51
NtRp2179
(dp2180
g54
(dp2181
sg63
g1904
sg56
(lp2182
g49
(g70
g51
NtRp2183
(dp2184
g54
(dp2185
g74
g75
ssg63
g2179
sg56
(lp2186
g1512
asbag49
(g70
g51
NtRp2187
(dp2188
g54
(dp2189
g81
g82
ssg63
g2179
sg56
(lp2190
S':'
asbag49
(g70
g51
NtRp2191
(dp2192
g54
(dp2193
sg63
g2179
sg56
(lp2194
g49
(g50
g51
NtRp2195
(dp2196
g54
(dp2197
g62
I4
ssg63
g2191
sg56
(lp2198
g49
(g58
g51
NtRp2199
(dp2200
g54
(dp2201
g62
I3
ssg63
Nsg56
(lp2202
g49
(g65
g51
NtRp2203
(dp2204
g54
(dp2205
sg63
g2199
sg56
(lp2206
g49
(g70
g51
NtRp2207
(dp2208
g54
(dp2209
sg63
g2203
sg56
(lp2210
g49
(g50
g51
NtRp2211
(dp2212
g54
(dp2213
g62
I3
ssg63
g2207
sg56
(lp2214
S'2'
asbasbasbag49
(g65
g51
NtRp2215
(dp2216
g54
(dp2217
sg63
g2199
sg56
(lp2218
g49
(g70
g51
NtRp2219
(dp2220
g54
(dp2221
sg63
g2215
sg56
(lp2222
g49
(g50
g51
NtRp2223
(dp2224
g54
(dp2225
g62
I3
ssg63
g2219
sg56
(lp2226
S'2'
asbasbasbag49
(g65
g51
NtRp2227
(dp2228
g54
(dp2229
sg63
g2199
sg56
(lp2230
g49
(g70
g51
NtRp2231
(dp2232
g54
(dp2233
sg63
g2227
sg56
(lp2234
g49
(g50
g51
NtRp2235
(dp2236
g54
(dp2237
g62
I3
ssg63
g2231
sg56
(lp2238
S'1'
asbasbasbag49
(g65
g51
NtRp2239
(dp2240
g54
(dp2241
sg63
g2199
sg56
(lp2242
g49
(g70
g51
NtRp2243
(dp2244
g54
(dp2245
sg63
g2239
sg56
(lp2246
g49
(g50
g51
NtRp2247
(dp2248
g54
(dp2249
g62
I3
ssg63
g2243
sg56
(lp2250
S'datetime.datetime(2012, 10, 21, 16, 57, 4)'
p2251
asbasbasbag49
(g65
g51
NtRp2252
(dp2253
g54
(dp2254
sg63
g2199
sg56
(lp2255
g49
(g70
g51
NtRp2256
(dp2257
g54
(dp2258
sg63
g2252
sg56
(lp2259
g49
(g50
g51
NtRp2260
(dp2261
g54
(dp2262
g62
I3
ssg63
g2256
sg56
(lp2263
g1590
asbasbasbasbasbasbasbasbasbasbasbag49
(g65
g51
NtRp2264
(dp2265
g54
(dp2266
sg63
g59
sg56
(lp2267
g49
(g70
g51
NtRp2268
(dp2269
g54
(dp2270
g74
g75
ssg63
g2264
sg56
(lp2271
S'is_https'
p2272
asbag49
(g70
g51
NtRp2273
(dp2274
g54
(dp2275
g81
g82
ssg63
g2264
sg56
(lp2276
S':'
asbag49
(g70
g51
NtRp2277
(dp2278
g54
(dp2279
sg63
g2264
sg56
(lp2280
g49
(g50
g51
NtRp2281
(dp2282
g54
(dp2283
g62
I5
ssg63
g2277
sg56
(lp2284
g92
asbasbasbag49
(g65
g51
NtRp2285
(dp2286
g54
(dp2287
sg63
g59
sg56
(lp2288
g49
(g70
g51
NtRp2289
(dp2290
g54
(dp2291
g74
g75
ssg63
g2285
sg56
(lp2292
S'is_local'
p2293
asbag49
(g70
g51
NtRp2294
(dp2295
g54
(dp2296
g81
g82
ssg63
g2285
sg56
(lp2297
S':'
asbag49
(g70
g51
NtRp2298
(dp2299
g54
(dp2300
sg63
g2285
sg56
(lp2301
g49
(g50
g51
NtRp2302
(dp2303
g54
(dp2304
g62
I5
ssg63
g2298
sg56
(lp2305
g1699
asbasbasbag49
(g65
g51
NtRp2306
(dp2307
g54
(dp2308
sg63
g59
sg56
(lp2309
g49
(g70
g51
NtRp2310
(dp2311
g54
(dp2312
g74
g75
ssg63
g2306
sg56
(lp2313
S'is_restful'
p2314
asbag49
(g70
g51
NtRp2315
(dp2316
g54
(dp2317
g81
g82
ssg63
g2306
sg56
(lp2318
S':'
asbag49
(g70
g51
NtRp2319
(dp2320
g54
(dp2321
sg63
g2306
sg56
(lp2322
g49
(g50
g51
NtRp2323
(dp2324
g54
(dp2325
g62
I5
ssg63
g2319
sg56
(lp2326
g92
asbasbasbag49
(g65
g51
NtRp2327
(dp2328
g54
(dp2329
sg63
g59
sg56
(lp2330
g49
(g70
g51
NtRp2331
(dp2332
g54
(dp2333
g74
g75
ssg63
g2327
sg56
(lp2334
S'now'
p2335
asbag49
(g70
g51
NtRp2336
(dp2337
g54
(dp2338
g81
g82
ssg63
g2327
sg56
(lp2339
S':'
asbag49
(g70
g51
NtRp2340
(dp2341
g54
(dp2342
sg63
g2327
sg56
(lp2343
g49
(g50
g51
NtRp2344
(dp2345
g54
(dp2346
g62
I5
ssg63
g2340
sg56
(lp2347
S'datetime.datetime(2014, 6, 8, 18, 19, 4, 430608)'
p2348
asbasbasbag49
(g65
g51
NtRp2349
(dp2350
g54
(dp2351
sg63
g59
sg56
(lp2352
g49
(g70
g51
NtRp2353
(dp2354
g54
(dp2355
g74
g75
ssg63
g2349
sg56
(lp2356
S'post_vars'
p2357
asbag49
(g70
g51
NtRp2358
(dp2359
g54
(dp2360
g81
g82
ssg63
g2349
sg56
(lp2361
S':'
asbag49
(g70
g51
NtRp2362
(dp2363
g54
(dp2364
sg63
g2349
sg56
(lp2365
g49
(g50
g51
NtRp2366
(dp2367
g54
(dp2368
g62
I5
ssg63
g2362
sg56
(lp2369
g49
(g58
g51
NtRp2370
(dp2371
g54
(dp2372
g62
I4
ssg63
Nsg56
(lp2373
sbasbasbasbag49
(g65
g51
NtRp2374
(dp2375
g54
(dp2376
sg63
g59
sg56
(lp2377
g49
(g70
g51
NtRp2378
(dp2379
g54
(dp2380
g74
g75
ssg63
g2374
sg56
(lp2381
S'raw_args'
p2382
asbag49
(g70
g51
NtRp2383
(dp2384
g54
(dp2385
g81
g82
ssg63
g2374
sg56
(lp2386
S':'
asbag49
(g70
g51
NtRp2387
(dp2388
g54
(dp2389
sg63
g2374
sg56
(lp2390
g49
(g50
g51
NtRp2391
(dp2392
g54
(dp2393
g62
I5
ssg63
g2387
sg56
(lp2394
S''
asbasbasbag49
(g65
g51
NtRp2395
(dp2396
g54
(dp2397
sg63
g59
sg56
(lp2398
g49
(g70
g51
NtRp2399
(dp2400
g54
(dp2401
g74
g75
ssg63
g2395
sg56
(lp2402
S'raw_extension'
p2403
asbag49
(g70
g51
NtRp2404
(dp2405
g54
(dp2406
g81
g82
ssg63
g2395
sg56
(lp2407
S':'
asbag49
(g70
g51
NtRp2408
(dp2409
g54
(dp2410
sg63
g2395
sg56
(lp2411
g49
(g50
g51
NtRp2412
(dp2413
g54
(dp2414
g62
I5
ssg63
g2408
sg56
(lp2415
S'None'
p2416
asbasbasbag49
(g65
g51
NtRp2417
(dp2418
g54
(dp2419
sg63
g59
sg56
(lp2420
g49
(g70
g51
NtRp2421
(dp2422
g54
(dp2423
g74
g75
ssg63
g2417
sg56
(lp2424
S'url'
p2425
asbag49
(g70
g51
NtRp2426
(dp2427
g54
(dp2428
g81
g82
ssg63
g2417
sg56
(lp2429
S':'
asbag49
(g70
g51
NtRp2430
(dp2431
g54
(dp2432
sg63
g2417
sg56
(lp2433
g49
(g50
g51
NtRp2434
(dp2435
g54
(dp2436
g62
I5
ssg63
g2430
sg56
(lp2437
g1267
asbasbasbag49
(g65
g51
NtRp2438
(dp2439
g54
(dp2440
sg63
g59
sg56
(lp2441
g49
(g70
g51
NtRp2442
(dp2443
g54
(dp2444
g74
g75
ssg63
g2438
sg56
(lp2445
S'utcnow'
p2446
asbag49
(g70
g51
NtRp2447
(dp2448
g54
(dp2449
g81
g82
ssg63
g2438
sg56
(lp2450
S':'
asbag49
(g70
g51
NtRp2451
(dp2452
g54
(dp2453
sg63
g2438
sg56
(lp2454
g49
(g50
g51
NtRp2455
(dp2456
g54
(dp2457
g62
I5
ssg63
g2451
sg56
(lp2458
S'datetime.datetime(2014, 6, 8, 22, 19, 4, 430620)'
p2459
asbasbasbag49
(g65
g51
NtRp2460
(dp2461
g54
(dp2462
sg63
g59
sg56
(lp2463
g49
(g70
g51
NtRp2464
(dp2465
g54
(dp2466
g74
g75
ssg63
g2460
sg56
(lp2467
S'uuid'
p2468
asbag49
(g70
g51
NtRp2469
(dp2470
g54
(dp2471
g81
g82
ssg63
g2460
sg56
(lp2472
S':'
asbag49
(g70
g51
NtRp2473
(dp2474
g54
(dp2475
sg63
g2460
sg56
(lp2476
g49
(g50
g51
NtRp2477
(dp2478
g54
(dp2479
g62
I5
ssg63
g2473
sg56
(lp2480
S'Final_Impulse/127.0.0.1.2014-06-08.18-19-04.b7f49126-220b-40d5-9a72-68a79dbbfb22'
p2481
asbasbasbag49
(g65
g51
NtRp2482
(dp2483
g54
(dp2484
sg63
g59
sg56
(lp2485
g49
(g70
g51
NtRp2486
(dp2487
g54
(dp2488
g74
g75
ssg63
g2482
sg56
(lp2489
S'vars'
p2490
asbag49
(g70
g51
NtRp2491
(dp2492
g54
(dp2493
g81
g82
ssg63
g2482
sg56
(lp2494
S':'
asbag49
(g70
g51
NtRp2495
(dp2496
g54
(dp2497
sg63
g2482
sg56
(lp2498
g49
(g50
g51
NtRp2499
(dp2500
g54
(dp2501
g62
I5
ssg63
g2495
sg56
(lp2502
g49
(g58
g51
NtRp2503
(dp2504
g54
(dp2505
g62
I4
ssg63
Nsg56
(lp2506
sbasbasbasbag49
(g65
g51
NtRp2507
(dp2508
g54
(dp2509
sg63
g59
sg56
(lp2510
g49
(g70
g51
NtRp2511
(dp2512
g54
(dp2513
g74
g75
ssg63
g2507
sg56
(lp2514
S'wsgi'
p2515
asbag49
(g70
g51
NtRp2516
(dp2517
g54
(dp2518
g81
g82
ssg63
g2507
sg56
(lp2519
S':'
asbag49
(g70
g51
NtRp2520
(dp2521
g54
(dp2522
sg63
g2507
sg56
(lp2523
g49
(g50
g51
NtRp2524
(dp2525
g54
(dp2526
g62
I5
ssg63
g2520
sg56
(lp2527
g49
(g58
g51
NtRp2528
(dp2529
g54
(dp2530
g62
I4
ssg63
Nsg56
(lp2531
g49
(g65
g51
NtRp2532
(dp2533
g54
(dp2534
sg63
g2528
sg56
(lp2535
g49
(g70
g51
NtRp2536
(dp2537
g54
(dp2538
g74
g75
ssg63
g2532
sg56
(lp2539
S'environ'
p2540
asbag49
(g70
g51
NtRp2541
(dp2542
g54
(dp2543
g81
g82
ssg63
g2532
sg56
(lp2544
S':'
asbag49
(g70
g51
NtRp2545
(dp2546
g54
(dp2547
sg63
g2532
sg56
(lp2548
g49
(g50
g51
NtRp2549
(dp2550
g54
(dp2551
g62
I4
ssg63
g2545
sg56
(lp2552
g49
(g58
g51
NtRp2553
(dp2554
g54
(dp2555
g62
I3
ssg63
Nsg56
(lp2556
g49
(g65
g51
NtRp2557
(dp2558
g54
(dp2559
sg63
g2553
sg56
(lp2560
g49
(g70
g51
NtRp2561
(dp2562
g54
(dp2563
g74
g75
ssg63
g2557
sg56
(lp2564
S'HTTP_ACCEPT'
p2565
asbag49
(g70
g51
NtRp2566
(dp2567
g54
(dp2568
g81
g82
ssg63
g2557
sg56
(lp2569
S':'
asbag49
(g70
g51
NtRp2570
(dp2571
g54
(dp2572
sg63
g2557
sg56
(lp2573
g49
(g50
g51
NtRp2574
(dp2575
g54
(dp2576
g62
I3
ssg63
g2570
sg56
(lp2577
g959
asbasbasbag49
(g65
g51
NtRp2578
(dp2579
g54
(dp2580
sg63
g2553
sg56
(lp2581
g49
(g70
g51
NtRp2582
(dp2583
g54
(dp2584
g74
g75
ssg63
g2578
sg56
(lp2585
S'HTTP_ACCEPT_ENCODING'
p2586
asbag49
(g70
g51
NtRp2587
(dp2588
g54
(dp2589
g81
g82
ssg63
g2578
sg56
(lp2590
S':'
asbag49
(g70
g51
NtRp2591
(dp2592
g54
(dp2593
sg63
g2578
sg56
(lp2594
g49
(g50
g51
NtRp2595
(dp2596
g54
(dp2597
g62
I3
ssg63
g2591
sg56
(lp2598
g981
asbasbasbag49
(g65
g51
NtRp2599
(dp2600
g54
(dp2601
sg63
g2553
sg56
(lp2602
g49
(g70
g51
NtRp2603
(dp2604
g54
(dp2605
g74
g75
ssg63
g2599
sg56
(lp2606
S'HTTP_ACCEPT_LANGUAGE'
p2607
asbag49
(g70
g51
NtRp2608
(dp2609
g54
(dp2610
g81
g82
ssg63
g2599
sg56
(lp2611
S':'
asbag49
(g70
g51
NtRp2612
(dp2613
g54
(dp2614
sg63
g2599
sg56
(lp2615
g49
(g50
g51
NtRp2616
(dp2617
g54
(dp2618
g62
I3
ssg63
g2612
sg56
(lp2619
g1003
asbasbasbag49
(g65
g51
NtRp2620
(dp2621
g54
(dp2622
sg63
g2553
sg56
(lp2623
g49
(g70
g51
NtRp2624
(dp2625
g54
(dp2626
g74
g75
ssg63
g2620
sg56
(lp2627
S'HTTP_CONNECTION'
p2628
asbag49
(g70
g51
NtRp2629
(dp2630
g54
(dp2631
g81
g82
ssg63
g2620
sg56
(lp2632
S':'
asbag49
(g70
g51
NtRp2633
(dp2634
g54
(dp2635
sg63
g2620
sg56
(lp2636
g49
(g50
g51
NtRp2637
(dp2638
g54
(dp2639
g62
I3
ssg63
g2633
sg56
(lp2640
g1025
asbasbasbag49
(g65
g51
NtRp2641
(dp2642
g54
(dp2643
sg63
g2553
sg56
(lp2644
g49
(g70
g51
NtRp2645
(dp2646
g54
(dp2647
g74
g75
ssg63
g2641
sg56
(lp2648
S'HTTP_COOKIE'
p2649
asbag49
(g70
g51
NtRp2650
(dp2651
g54
(dp2652
g81
g82
ssg63
g2641
sg56
(lp2653
S':'
asbag49
(g70
g51
NtRp2654
(dp2655
g54
(dp2656
sg63
g2641
sg56
(lp2657
g49
(g50
g51
NtRp2658
(dp2659
g54
(dp2660
g62
I3
ssg63
g2654
sg56
(lp2661
g1047
asbasbasbag49
(g65
g51
NtRp2662
(dp2663
g54
(dp2664
sg63
g2553
sg56
(lp2665
g49
(g70
g51
NtRp2666
(dp2667
g54
(dp2668
g74
g75
ssg63
g2662
sg56
(lp2669
S'HTTP_HOST'
p2670
asbag49
(g70
g51
NtRp2671
(dp2672
g54
(dp2673
g81
g82
ssg63
g2662
sg56
(lp2674
S':'
asbag49
(g70
g51
NtRp2675
(dp2676
g54
(dp2677
sg63
g2662
sg56
(lp2678
g49
(g50
g51
NtRp2679
(dp2680
g54
(dp2681
g62
I3
ssg63
g2675
sg56
(lp2682
g1069
asbasbasbag49
(g65
g51
NtRp2683
(dp2684
g54
(dp2685
sg63
g2553
sg56
(lp2686
g49
(g70
g51
NtRp2687
(dp2688
g54
(dp2689
g74
g75
ssg63
g2683
sg56
(lp2690
S'HTTP_REFERER'
p2691
asbag49
(g70
g51
NtRp2692
(dp2693
g54
(dp2694
g81
g82
ssg63
g2683
sg56
(lp2695
S':'
asbag49
(g70
g51
NtRp2696
(dp2697
g54
(dp2698
sg63
g2683
sg56
(lp2699
g49
(g50
g51
NtRp2700
(dp2701
g54
(dp2702
g62
I3
ssg63
g2696
sg56
(lp2703
g1091
asbasbasbag49
(g65
g51
NtRp2704
(dp2705
g54
(dp2706
sg63
g2553
sg56
(lp2707
g49
(g70
g51
NtRp2708
(dp2709
g54
(dp2710
g74
g75
ssg63
g2704
sg56
(lp2711
S'HTTP_USER_AGENT'
p2712
asbag49
(g70
g51
NtRp2713
(dp2714
g54
(dp2715
g81
g82
ssg63
g2704
sg56
(lp2716
S':'
asbag49
(g70
g51
NtRp2717
(dp2718
g54
(dp2719
sg63
g2704
sg56
(lp2720
g49
(g50
g51
NtRp2721
(dp2722
g54
(dp2723
g62
I3
ssg63
g2717
sg56
(lp2724
g1113
asbasbasbag49
(g65
g51
NtRp2725
(dp2726
g54
(dp2727
sg63
g2553
sg56
(lp2728
g49
(g70
g51
NtRp2729
(dp2730
g54
(dp2731
g74
g75
ssg63
g2725
sg56
(lp2732
S'PATH_INFO'
p2733
asbag49
(g70
g51
NtRp2734
(dp2735
g54
(dp2736
g81
g82
ssg63
g2725
sg56
(lp2737
S':'
asbag49
(g70
g51
NtRp2738
(dp2739
g54
(dp2740
sg63
g2725
sg56
(lp2741
g49
(g50
g51
NtRp2742
(dp2743
g54
(dp2744
g62
I3
ssg63
g2738
sg56
(lp2745
g1267
asbasbasbag49
(g65
g51
NtRp2746
(dp2747
g54
(dp2748
sg63
g2553
sg56
(lp2749
g49
(g70
g51
NtRp2750
(dp2751
g54
(dp2752
g74
g75
ssg63
g2746
sg56
(lp2753
S'QUERY_STRING'
p2754
asbag49
(g70
g51
NtRp2755
(dp2756
g54
(dp2757
g81
g82
ssg63
g2746
sg56
(lp2758
S':'
asbag49
(g70
g51
NtRp2759
(dp2760
g54
(dp2761
sg63
g2746
sg56
(lp2762
g49
(g50
g51
NtRp2763
(dp2764
g54
(dp2765
g62
I3
ssg63
g2759
sg56
(lp2766
S''
asbasbasbag49
(g65
g51
NtRp2767
(dp2768
g54
(dp2769
sg63
g2553
sg56
(lp2770
g49
(g70
g51
NtRp2771
(dp2772
g54
(dp2773
g74
g75
ssg63
g2767
sg56
(lp2774
S'REMOTE_ADDR'
p2775
asbag49
(g70
g51
NtRp2776
(dp2777
g54
(dp2778
g81
g82
ssg63
g2767
sg56
(lp2779
S':'
asbag49
(g70
g51
NtRp2780
(dp2781
g54
(dp2782
sg63
g2767
sg56
(lp2783
g49
(g50
g51
NtRp2784
(dp2785
g54
(dp2786
g62
I3
ssg63
g2780
sg56
(lp2787
g204
asbasbasbag49
(g65
g51
NtRp2788
(dp2789
g54
(dp2790
sg63
g2553
sg56
(lp2791
g49
(g70
g51
NtRp2792
(dp2793
g54
(dp2794
g74
g75
ssg63
g2788
sg56
(lp2795
S'REMOTE_PORT'
p2796
asbag49
(g70
g51
NtRp2797
(dp2798
g54
(dp2799
g81
g82
ssg63
g2788
sg56
(lp2800
S':'
asbag49
(g70
g51
NtRp2801
(dp2802
g54
(dp2803
sg63
g2788
sg56
(lp2804
g49
(g50
g51
NtRp2805
(dp2806
g54
(dp2807
g62
I3
ssg63
g2801
sg56
(lp2808
g1331
asbasbasbag49
(g65
g51
NtRp2809
(dp2810
g54
(dp2811
sg63
g2553
sg56
(lp2812
g49
(g70
g51
NtRp2813
(dp2814
g54
(dp2815
g74
g75
ssg63
g2809
sg56
(lp2816
S'REQUEST_METHOD'
p2817
asbag49
(g70
g51
NtRp2818
(dp2819
g54
(dp2820
g81
g82
ssg63
g2809
sg56
(lp2821
S':'
asbag49
(g70
g51
NtRp2822
(dp2823
g54
(dp2824
sg63
g2809
sg56
(lp2825
g49
(g50
g51
NtRp2826
(dp2827
g54
(dp2828
g62
I3
ssg63
g2822
sg56
(lp2829
g1353
asbasbasbag49
(g65
g51
NtRp2830
(dp2831
g54
(dp2832
sg63
g2553
sg56
(lp2833
g49
(g70
g51
NtRp2834
(dp2835
g54
(dp2836
g74
g75
ssg63
g2830
sg56
(lp2837
S'REQUEST_URI'
p2838
asbag49
(g70
g51
NtRp2839
(dp2840
g54
(dp2841
g81
g82
ssg63
g2830
sg56
(lp2842
S':'
asbag49
(g70
g51
NtRp2843
(dp2844
g54
(dp2845
sg63
g2830
sg56
(lp2846
g49
(g50
g51
NtRp2847
(dp2848
g54
(dp2849
g62
I3
ssg63
g2843
sg56
(lp2850
g1267
asbasbasbag49
(g65
g51
NtRp2851
(dp2852
g54
(dp2853
sg63
g2553
sg56
(lp2854
g49
(g70
g51
NtRp2855
(dp2856
g54
(dp2857
g74
g75
ssg63
g2851
sg56
(lp2858
S'SCRIPT_NAME'
p2859
asbag49
(g70
g51
NtRp2860
(dp2861
g54
(dp2862
g81
g82
ssg63
g2851
sg56
(lp2863
S':'
asbag49
(g70
g51
NtRp2864
(dp2865
g54
(dp2866
sg63
g2851
sg56
(lp2867
g49
(g50
g51
NtRp2868
(dp2869
g54
(dp2870
g62
I3
ssg63
g2864
sg56
(lp2871
S''
asbasbasbag49
(g65
g51
NtRp2872
(dp2873
g54
(dp2874
sg63
g2553
sg56
(lp2875
g49
(g70
g51
NtRp2876
(dp2877
g54
(dp2878
g74
g75
ssg63
g2872
sg56
(lp2879
S'SERVER_NAME'
p2880
asbag49
(g70
g51
NtRp2881
(dp2882
g54
(dp2883
g81
g82
ssg63
g2872
sg56
(lp2884
S':'
asbag49
(g70
g51
NtRp2885
(dp2886
g54
(dp2887
sg63
g2872
sg56
(lp2888
g49
(g50
g51
NtRp2889
(dp2890
g54
(dp2891
g62
I3
ssg63
g2885
sg56
(lp2892
g1232
asbasbasbag49
(g65
g51
NtRp2893
(dp2894
g54
(dp2895
sg63
g2553
sg56
(lp2896
g49
(g70
g51
NtRp2897
(dp2898
g54
(dp2899
g74
g75
ssg63
g2893
sg56
(lp2900
S'SERVER_PORT'
p2901
asbag49
(g70
g51
NtRp2902
(dp2903
g54
(dp2904
g81
g82
ssg63
g2893
sg56
(lp2905
S':'
asbag49
(g70
g51
NtRp2906
(dp2907
g54
(dp2908
sg63
g2893
sg56
(lp2909
g49
(g50
g51
NtRp2910
(dp2911
g54
(dp2912
g62
I3
ssg63
g2906
sg56
(lp2913
g1438
asbasbasbag49
(g65
g51
NtRp2914
(dp2915
g54
(dp2916
sg63
g2553
sg56
(lp2917
g49
(g70
g51
NtRp2918
(dp2919
g54
(dp2920
g74
g75
ssg63
g2914
sg56
(lp2921
S'SERVER_PROTOCOL'
p2922
asbag49
(g70
g51
NtRp2923
(dp2924
g54
(dp2925
g81
g82
ssg63
g2914
sg56
(lp2926
S':'
asbag49
(g70
g51
NtRp2927
(dp2928
g54
(dp2929
sg63
g2914
sg56
(lp2930
g49
(g50
g51
NtRp2931
(dp2932
g54
(dp2933
g62
I3
ssg63
g2927
sg56
(lp2934
g1460
asbasbasbag49
(g65
g51
NtRp2935
(dp2936
g54
(dp2937
sg63
g2553
sg56
(lp2938
g49
(g70
g51
NtRp2939
(dp2940
g54
(dp2941
g74
g75
ssg63
g2935
sg56
(lp2942
S'SERVER_SOFTWARE'
p2943
asbag49
(g70
g51
NtRp2944
(dp2945
g54
(dp2946
g81
g82
ssg63
g2935
sg56
(lp2947
S':'
asbag49
(g70
g51
NtRp2948
(dp2949
g54
(dp2950
sg63
g2935
sg56
(lp2951
g49
(g50
g51
NtRp2952
(dp2953
g54
(dp2954
g62
I3
ssg63
g2948
sg56
(lp2955
g1482
asbasbasbag49
(g65
g51
NtRp2956
(dp2957
g54
(dp2958
sg63
g2553
sg56
(lp2959
g49
(g70
g51
NtRp2960
(dp2961
g54
(dp2962
g74
g75
ssg63
g2956
sg56
(lp2963
S'wsgi.errors'
p2964
asbag49
(g70
g51
NtRp2965
(dp2966
g54
(dp2967
g81
g82
ssg63
g2956
sg56
(lp2968
S':'
asbag49
(g70
g51
NtRp2969
(dp2970
g54
(dp2971
sg63
g2956
sg56
(lp2972
g49
(g50
g51
NtRp2973
(dp2974
g54
(dp2975
g62
I3
ssg63
g2969
sg56
(lp2976
S"<open file '<stderr>', mode 'w' at 0x540b0>"
p2977
asbasbasbag49
(g65
g51
NtRp2978
(dp2979
g54
(dp2980
sg63
g2553
sg56
(lp2981
g49
(g70
g51
NtRp2982
(dp2983
g54
(dp2984
g74
g75
ssg63
g2978
sg56
(lp2985
S'wsgi.file_wrapper'
p2986
asbag49
(g70
g51
NtRp2987
(dp2988
g54
(dp2989
g81
g82
ssg63
g2978
sg56
(lp2990
S':'
asbag49
(g70
g51
NtRp2991
(dp2992
g54
(dp2993
sg63
g2978
sg56
(lp2994
g49
(g50
g51
NtRp2995
(dp2996
g54
(dp2997
g62
I3
ssg63
g2991
sg56
(lp2998
S'<class wsgiref.util.FileWrapper at 0x45782d0>'
p2999
asbasbasbag49
(g65
g51
NtRp3000
(dp3001
g54
(dp3002
sg63
g2553
sg56
(lp3003
g49
(g70
g51
NtRp3004
(dp3005
g54
(dp3006
g74
g75
ssg63
g3000
sg56
(lp3007
S'wsgi.input'
p3008
asbag49
(g70
g51
NtRp3009
(dp3010
g54
(dp3011
g81
g82
ssg63
g3000
sg56
(lp3012
S':'
asbag49
(g70
g51
NtRp3013
(dp3014
g54
(dp3015
sg63
g3000
sg56
(lp3016
g49
(g50
g51
NtRp3017
(dp3018
g54
(dp3019
g62
I3
ssg63
g3013
sg56
(lp3020
S'<cStringIO.StringO object at 0x8e25e00>'
p3021
asbasbasbag49
(g65
g51
NtRp3022
(dp3023
g54
(dp3024
sg63
g2553
sg56
(lp3025
g49
(g70
g51
NtRp3026
(dp3027
g54
(dp3028
g74
g75
ssg63
g3022
sg56
(lp3029
S'wsgi.multiprocess'
p3030
asbag49
(g70
g51
NtRp3031
(dp3032
g54
(dp3033
g81
g82
ssg63
g3022
sg56
(lp3034
S':'
asbag49
(g70
g51
NtRp3035
(dp3036
g54
(dp3037
sg63
g3022
sg56
(lp3038
g49
(g50
g51
NtRp3039
(dp3040
g54
(dp3041
g62
I3
ssg63
g3035
sg56
(lp3042
g92
asbasbasbag49
(g65
g51
NtRp3043
(dp3044
g54
(dp3045
sg63
g2553
sg56
(lp3046
g49
(g70
g51
NtRp3047
(dp3048
g54
(dp3049
g74
g75
ssg63
g3043
sg56
(lp3050
S'wsgi.multithread'
p3051
asbag49
(g70
g51
NtRp3052
(dp3053
g54
(dp3054
g81
g82
ssg63
g3043
sg56
(lp3055
S':'
asbag49
(g70
g51
NtRp3056
(dp3057
g54
(dp3058
sg63
g3043
sg56
(lp3059
g49
(g50
g51
NtRp3060
(dp3061
g54
(dp3062
g62
I3
ssg63
g3056
sg56
(lp3063
g1699
asbasbasbag49
(g65
g51
NtRp3064
(dp3065
g54
(dp3066
sg63
g2553
sg56
(lp3067
g49
(g70
g51
NtRp3068
(dp3069
g54
(dp3070
g74
g75
ssg63
g3064
sg56
(lp3071
S'wsgi.run_once'
p3072
asbag49
(g70
g51
NtRp3073
(dp3074
g54
(dp3075
g81
g82
ssg63
g3064
sg56
(lp3076
S':'
asbag49
(g70
g51
NtRp3077
(dp3078
g54
(dp3079
sg63
g3064
sg56
(lp3080
g49
(g50
g51
NtRp3081
(dp3082
g54
(dp3083
g62
I3
ssg63
g3077
sg56
(lp3084
g92
asbasbasbag49
(g65
g51
NtRp3085
(dp3086
g54
(dp3087
sg63
g2553
sg56
(lp3088
g49
(g70
g51
NtRp3089
(dp3090
g54
(dp3091
g74
g75
ssg63
g3085
sg56
(lp3092
S'wsgi.url_scheme'
p3093
asbag49
(g70
g51
NtRp3094
(dp3095
g54
(dp3096
g81
g82
ssg63
g3085
sg56
(lp3097
S':'
asbag49
(g70
g51
NtRp3098
(dp3099
g54
(dp3100
sg63
g3085
sg56
(lp3101
g49
(g50
g51
NtRp3102
(dp3103
g54
(dp3104
g62
I3
ssg63
g3098
sg56
(lp3105
g1742
asbasbasbag49
(g65
g51
NtRp3106
(dp3107
g54
(dp3108
sg63
g2553
sg56
(lp3109
g49
(g70
g51
NtRp3110
(dp3111
g54
(dp3112
g74
g75
ssg63
g3106
sg56
(lp3113
S'wsgi.version'
p3114
asbag49
(g70
g51
NtRp3115
(dp3116
g54
(dp3117
g81
g82
ssg63
g3106
sg56
(lp3118
S':'
asbag49
(g70
g51
NtRp3119
(dp3120
g54
(dp3121
sg63
g3106
sg56
(lp3122
g49
(g50
g51
NtRp3123
(dp3124
g54
(dp3125
g62
I3
ssg63
g3119
sg56
(lp3126
S'1'
asbasbasbasbasbasbasbasbasbasbasbasbasbsS'frames'
p3127
(lp3128
(dp3129
S'file'
p3130
S'/Users/abaric/Downloads/web2py/web2py.app/Contents/Resources/gluon/restricted.py'
p3131
sS'dump'
p3132
(dp3133
sS'lnum'
p3134
I212
sS'lines'
p3135
(dp3136
sS'call'
p3137
S"(code='from gluon.tools import datetime\\nfrom gluon.tool...onse._vars=response._caller(show_video_comments)\\n', environment={'A': <class 'gluon.html.A'>, 'Auth': <class 'gluon.tools.Auth'>, 'B': <class 'gluon.html.B'>, 'BEAUTIFY': <class 'gluon.html.BEAUTIFY'>, 'BODY': <class 'gluon.html.BODY'>, 'BR': <class 'gluon.html.BR'>, 'BUTTON': <class 'gluon.html.BUTTON'>, 'CAT': <class 'gluon.html.CAT'>, 'CENTER': <class 'gluon.html.CENTER'>, 'CLEANUP': <class 'gluon.validators.CLEANUP'>, ...}, layer='/Users/abaric/Downloads/web2py/web2py.app/Conten...applications/Final_Impulse/controllers/default.py')"
p3138
sS'func'
p3139
S'restricted'
p3140
sa(dp3141
g3130
S'/Users/abaric/Downloads/web2py/web2py.app/Contents/Resources/applications/Final_Impulse/controllers/default.py'
p3142
sg3132
(dp3143
sg3134
I157
sg3135
(dp3144
I146
S'                                  video_id=video_id,'
p3145
sI147
S'                                  email=None,'
p3146
sI148
S'                                  body=video_comment,'
p3147
sI149
S'                                  date_of_entry=datetime.datetime.today())'
p3148
sI150
S'        db.commit()'
p3149
sI151
S''
sI152
S'    else:'
p3150
sI153
S"        session.flash='You must log in to post a comment.'"
p3151
sI154
S"    redirect(URL('show_video_comments'))"
p3152
sI155
S'    return locals()'
p3153
ssg3137
S'()'
p3154
sg3139
S'<module>'
p3155
sa(dp3156
g3130
S'/Users/abaric/Downloads/web2py/web2py.app/Contents/Resources/gluon/globals.py'
p3157
sg3132
(dp3158
sg3134
I188
sg3135
(dp3159
sg3137
S'(f=<function show_video_comments at 0x89a91f0>)'
p3160
sg3139
S'<lambda>'
p3161
sa(dp3162
g3130
S'/Users/abaric/Downloads/web2py/web2py.app/Contents/Resources/applications/Final_Impulse/controllers/default.py'
p3163
sg3132
(dp3164
sg3134
I85
sg3135
(dp3165
I80
S'    #comments = db(db.writing_comment.writing_id==writing.id).select()'
p3166
sI81
S'    return locals()'
p3167
sI82
S''
sI83
S'def show_video_comments():'
p3168
sI84
S"    video_form=SQLFORM(db.video,fields=['title','url_str'],labels={'url_str':'Insert url string per above directions'})"
p3169
sI85
S'    video.vars.author_id=auth.user.id'
p3170
sI86
S'    if video.process().accepted:'
p3171
sI87
S"        response.flash='video post submitted!'"
p3172
sI88
S''
sI89
S'    videos=db(db.video).select(db.video.ALL, orderby=db.video.id)'
p3173
ssg3137
S'()'
p3174
sg3139
S'show_video_comments'
p3175
sasS'pyver'
p3176
S'Python 2.5.1: /Users/abaric/Downloads/web2py/web2py.app/Contents/MacOS/python'
p3177
sS'session'
p3178
g49
(g50
g51
NtRp3179
(dp3180
g54
(dp3181
sg56
(lp3182
g49
(g58
g51
NtRp3183
(dp3184
g54
(dp3185
g62
I5
ssg63
Nsg56
(lp3186
g49
(g65
g51
NtRp3187
(dp3188
g54
(dp3189
sg63
g3183
sg56
(lp3190
g49
(g70
g51
NtRp3191
(dp3192
g54
(dp3193
g74
g75
ssg63
g3187
sg56
(lp3194
S'auth'
p3195
asbag49
(g70
g51
NtRp3196
(dp3197
g54
(dp3198
g81
g82
ssg63
g3187
sg56
(lp3199
S':'
asbag49
(g70
g51
NtRp3200
(dp3201
g54
(dp3202
sg63
g3187
sg56
(lp3203
g49
(g50
g51
NtRp3204
(dp3205
g54
(dp3206
g62
I5
ssg63
g3200
sg56
(lp3207
g49
(g58
g51
NtRp3208
(dp3209
g54
(dp3210
g62
I4
ssg63
Nsg56
(lp3211
g49
(g65
g51
NtRp3212
(dp3213
g54
(dp3214
sg63
g3208
sg56
(lp3215
g49
(g70
g51
NtRp3216
(dp3217
g54
(dp3218
g74
g75
ssg63
g3212
sg56
(lp3219
S'expiration'
p3220
asbag49
(g70
g51
NtRp3221
(dp3222
g54
(dp3223
g81
g82
ssg63
g3212
sg56
(lp3224
S':'
asbag49
(g70
g51
NtRp3225
(dp3226
g54
(dp3227
sg63
g3212
sg56
(lp3228
g49
(g50
g51
NtRp3229
(dp3230
g54
(dp3231
g62
I4
ssg63
g3225
sg56
(lp3232
S'3600'
p3233
asbasbasbag49
(g65
g51
NtRp3234
(dp3235
g54
(dp3236
sg63
g3208
sg56
(lp3237
g49
(g70
g51
NtRp3238
(dp3239
g54
(dp3240
g74
g75
ssg63
g3234
sg56
(lp3241
S'hmac_key'
p3242
asbag49
(g70
g51
NtRp3243
(dp3244
g54
(dp3245
g81
g82
ssg63
g3234
sg56
(lp3246
S':'
asbag49
(g70
g51
NtRp3247
(dp3248
g54
(dp3249
sg63
g3234
sg56
(lp3250
g49
(g50
g51
NtRp3251
(dp3252
g54
(dp3253
g62
I4
ssg63
g3247
sg56
(lp3254
S'4cdcfc95-fcaf-4b9f-b1d5-9dd34f26809e'
p3255
asbasbasbag49
(g65
g51
NtRp3256
(dp3257
g54
(dp3258
sg63
g3208
sg56
(lp3259
g49
(g70
g51
NtRp3260
(dp3261
g54
(dp3262
g74
g75
ssg63
g3256
sg56
(lp3263
S'last_visit'
p3264
asbag49
(g70
g51
NtRp3265
(dp3266
g54
(dp3267
g81
g82
ssg63
g3256
sg56
(lp3268
S':'
asbag49
(g70
g51
NtRp3269
(dp3270
g54
(dp3271
sg63
g3256
sg56
(lp3272
g49
(g50
g51
NtRp3273
(dp3274
g54
(dp3275
g62
I4
ssg63
g3269
sg56
(lp3276
S'datetime.datetime(2014, 6, 8, 18, 15, 11, 975443)'
p3277
asbasbasbag49
(g65
g51
NtRp3278
(dp3279
g54
(dp3280
sg63
g3208
sg56
(lp3281
g49
(g70
g51
NtRp3282
(dp3283
g54
(dp3284
g74
g75
ssg63
g3278
sg56
(lp3285
S'remember'
p3286
asbag49
(g70
g51
NtRp3287
(dp3288
g54
(dp3289
g81
g82
ssg63
g3278
sg56
(lp3290
S':'
asbag49
(g70
g51
NtRp3291
(dp3292
g54
(dp3293
sg63
g3278
sg56
(lp3294
g49
(g50
g51
NtRp3295
(dp3296
g54
(dp3297
g62
I4
ssg63
g3291
sg56
(lp3298
g92
asbasbasbag49
(g65
g51
NtRp3299
(dp3300
g54
(dp3301
sg63
g3208
sg56
(lp3302
g49
(g70
g51
NtRp3303
(dp3304
g54
(dp3305
g74
g75
ssg63
g3299
sg56
(lp3306
S'user'
p3307
asbag49
(g70
g51
NtRp3308
(dp3309
g54
(dp3310
g81
g82
ssg63
g3299
sg56
(lp3311
S':'
asbag49
(g70
g51
NtRp3312
(dp3313
g54
(dp3314
sg63
g3299
sg56
(lp3315
g49
(g50
g51
NtRp3316
(dp3317
g54
(dp3318
g62
I4
ssg63
g3312
sg56
(lp3319
g49
(g58
g51
NtRp3320
(dp3321
g54
(dp3322
g62
I3
ssg63
Nsg56
(lp3323
g49
(g65
g51
NtRp3324
(dp3325
g54
(dp3326
sg63
g3320
sg56
(lp3327
g49
(g70
g51
NtRp3328
(dp3329
g54
(dp3330
g74
g75
ssg63
g3324
sg56
(lp3331
S'email'
p3332
asbag49
(g70
g51
NtRp3333
(dp3334
g54
(dp3335
g81
g82
ssg63
g3324
sg56
(lp3336
S':'
asbag49
(g70
g51
NtRp3337
(dp3338
g54
(dp3339
sg63
g3324
sg56
(lp3340
g49
(g50
g51
NtRp3341
(dp3342
g54
(dp3343
g62
I3
ssg63
g3337
sg56
(lp3344
S'abaric@agnesirwin.org'
p3345
asbasbasbag49
(g65
g51
NtRp3346
(dp3347
g54
(dp3348
sg63
g3320
sg56
(lp3349
g49
(g70
g51
NtRp3350
(dp3351
g54
(dp3352
g74
g75
ssg63
g3346
sg56
(lp3353
S'first_name'
p3354
asbag49
(g70
g51
NtRp3355
(dp3356
g54
(dp3357
g81
g82
ssg63
g3346
sg56
(lp3358
S':'
asbag49
(g70
g51
NtRp3359
(dp3360
g54
(dp3361
sg63
g3346
sg56
(lp3362
g49
(g50
g51
NtRp3363
(dp3364
g54
(dp3365
g62
I3
ssg63
g3359
sg56
(lp3366
S'Andrea'
p3367
asbasbasbag49
(g65
g51
NtRp3368
(dp3369
g54
(dp3370
sg63
g3320
sg56
(lp3371
g49
(g70
g51
NtRp3372
(dp3373
g54
(dp3374
g74
g75
ssg63
g3368
sg56
(lp3375
S'id'
p3376
asbag49
(g70
g51
NtRp3377
(dp3378
g54
(dp3379
g81
g82
ssg63
g3368
sg56
(lp3380
S':'
asbag49
(g70
g51
NtRp3381
(dp3382
g54
(dp3383
sg63
g3368
sg56
(lp3384
g49
(g50
g51
NtRp3385
(dp3386
g54
(dp3387
g62
I3
ssg63
g3381
sg56
(lp3388
S'1'
asbasbasbag49
(g65
g51
NtRp3389
(dp3390
g54
(dp3391
sg63
g3320
sg56
(lp3392
g49
(g70
g51
NtRp3393
(dp3394
g54
(dp3395
g74
g75
ssg63
g3389
sg56
(lp3396
S'last_name'
p3397
asbag49
(g70
g51
NtRp3398
(dp3399
g54
(dp3400
g81
g82
ssg63
g3389
sg56
(lp3401
S':'
asbag49
(g70
g51
NtRp3402
(dp3403
g54
(dp3404
sg63
g3389
sg56
(lp3405
g49
(g50
g51
NtRp3406
(dp3407
g54
(dp3408
g62
I3
ssg63
g3402
sg56
(lp3409
S'Baric'
p3410
asbasbasbag49
(g65
g51
NtRp3411
(dp3412
g54
(dp3413
sg63
g3320
sg56
(lp3414
g49
(g70
g51
NtRp3415
(dp3416
g54
(dp3417
g74
g75
ssg63
g3411
sg56
(lp3418
S'registration_id'
p3419
asbag49
(g70
g51
NtRp3420
(dp3421
g54
(dp3422
g81
g82
ssg63
g3411
sg56
(lp3423
S':'
asbag49
(g70
g51
NtRp3424
(dp3425
g54
(dp3426
sg63
g3411
sg56
(lp3427
g49
(g50
g51
NtRp3428
(dp3429
g54
(dp3430
g62
I3
ssg63
g3424
sg56
(lp3431
S''
asbasbasbag49
(g65
g51
NtRp3432
(dp3433
g54
(dp3434
sg63
g3320
sg56
(lp3435
g49
(g70
g51
NtRp3436
(dp3437
g54
(dp3438
g74
g75
ssg63
g3432
sg56
(lp3439
S'registration_key'
p3440
asbag49
(g70
g51
NtRp3441
(dp3442
g54
(dp3443
g81
g82
ssg63
g3432
sg56
(lp3444
S':'
asbag49
(g70
g51
NtRp3445
(dp3446
g54
(dp3447
sg63
g3432
sg56
(lp3448
g49
(g50
g51
NtRp3449
(dp3450
g54
(dp3451
g62
I3
ssg63
g3445
sg56
(lp3452
S''
asbasbasbag49
(g65
g51
NtRp3453
(dp3454
g54
(dp3455
sg63
g3320
sg56
(lp3456
g49
(g70
g51
NtRp3457
(dp3458
g54
(dp3459
g74
g75
ssg63
g3453
sg56
(lp3460
S'reset_password_key'
p3461
asbag49
(g70
g51
NtRp3462
(dp3463
g54
(dp3464
g81
g82
ssg63
g3453
sg56
(lp3465
S':'
asbag49
(g70
g51
NtRp3466
(dp3467
g54
(dp3468
sg63
g3453
sg56
(lp3469
g49
(g50
g51
NtRp3470
(dp3471
g54
(dp3472
g62
I3
ssg63
g3466
sg56
(lp3473
S''
asbasbasbasbasbasbasbag49
(g65
g51
NtRp3474
(dp3475
g54
(dp3476
sg63
g3208
sg56
(lp3477
g49
(g70
g51
NtRp3478
(dp3479
g54
(dp3480
g74
g75
ssg63
g3474
sg56
(lp3481
S'user_groups'
p3482
asbag49
(g70
g51
NtRp3483
(dp3484
g54
(dp3485
g81
g82
ssg63
g3474
sg56
(lp3486
S':'
asbag49
(g70
g51
NtRp3487
(dp3488
g54
(dp3489
sg63
g3474
sg56
(lp3490
g49
(g50
g51
NtRp3491
(dp3492
g54
(dp3493
g62
I4
ssg63
g3487
sg56
(lp3494
g49
(g58
g51
NtRp3495
(dp3496
g54
(dp3497
g62
I3
ssg63
Nsg56
(lp3498
sbasbasbasbasbasbasbasbag49
(g65
g51
NtRp3499
(dp3500
g54
(dp3501
sg63
g3183
sg56
(lp3502
g49
(g70
g51
NtRp3503
(dp3504
g54
(dp3505
g74
g75
ssg63
g3499
sg56
(lp3506
S'flash'
p3507
asbag49
(g70
g51
NtRp3508
(dp3509
g54
(dp3510
g81
g82
ssg63
g3499
sg56
(lp3511
S':'
asbag49
(g70
g51
NtRp3512
(dp3513
g54
(dp3514
sg63
g3499
sg56
(lp3515
g49
(g50
g51
NtRp3516
(dp3517
g54
(dp3518
g62
I5
ssg63
g3512
sg56
(lp3519
S'None'
p3520
asbasbasbag49
(g65
g51
NtRp3521
(dp3522
g54
(dp3523
sg63
g3183
sg56
(lp3524
g49
(g70
g51
NtRp3525
(dp3526
g54
(dp3527
g74
g75
ssg63
g3521
sg56
(lp3528
S'last_orderby'
p3529
asbag49
(g70
g51
NtRp3530
(dp3531
g54
(dp3532
g81
g82
ssg63
g3521
sg56
(lp3533
S':'
asbag49
(g70
g51
NtRp3534
(dp3535
g54
(dp3536
sg63
g3521
sg56
(lp3537
g49
(g50
g51
NtRp3538
(dp3539
g54
(dp3540
g62
I5
ssg63
g3534
sg56
(lp3541
S'None'
p3542
asbasbasbag49
(g65
g51
NtRp3543
(dp3544
g54
(dp3545
sg63
g3183
sg56
(lp3546
g49
(g70
g51
NtRp3547
(dp3548
g54
(dp3549
g74
g75
ssg63
g3543
sg56
(lp3550
S'last_query'
p3551
asbag49
(g70
g51
NtRp3552
(dp3553
g54
(dp3554
g81
g82
ssg63
g3543
sg56
(lp3555
S':'
asbag49
(g70
g51
NtRp3556
(dp3557
g54
(dp3558
sg63
g3543
sg56
(lp3559
g49
(g50
g51
NtRp3560
(dp3561
g54
(dp3562
g62
I5
ssg63
g3556
sg56
(lp3563
S'db.video.id>0'
p3564
asbasbasbasbasbsS'etype'
p3565
S"<type 'exceptions.UnboundLocalError'>"
p3566
sS'date'
p3567
S'Sun Jun  8 18:19:04 2014'
p3568
sS'response'
p3569
g49
(g50
g51
NtRp3570
(dp3571
g54
(dp3572
sg56
(lp3573
g49
(g58
g51
NtRp3574
(dp3575
g54
(dp3576
g62
I5
ssg63
Nsg56
(lp3577
g49
(g65
g51
NtRp3578
(dp3579
g54
(dp3580
sg63
g3574
sg56
(lp3581
g49
(g70
g51
NtRp3582
(dp3583
g54
(dp3584
g74
g75
ssg63
g3578
sg56
(lp3585
g147
asbag49
(g70
g51
NtRp3586
(dp3587
g54
(dp3588
g81
g82
ssg63
g3578
sg56
(lp3589
S':'
asbag49
(g70
g51
NtRp3590
(dp3591
g54
(dp3592
sg63
g3578
sg56
(lp3593
g49
(g50
g51
NtRp3594
(dp3595
g54
(dp3596
g62
I5
ssg63
g3590
sg56
(lp3597
S'<cStringIO.StringO object at 0x8e25a00>'
p3598
asbasbasbag49
(g65
g51
NtRp3599
(dp3600
g54
(dp3601
sg63
g3574
sg56
(lp3602
g49
(g70
g51
NtRp3603
(dp3604
g54
(dp3605
g74
g75
ssg63
g3599
sg56
(lp3606
g235
asbag49
(g70
g51
NtRp3607
(dp3608
g54
(dp3609
g81
g82
ssg63
g3599
sg56
(lp3610
S':'
asbag49
(g70
g51
NtRp3611
(dp3612
g54
(dp3613
sg63
g3599
sg56
(lp3614
g49
(g50
g51
NtRp3615
(dp3616
g54
(dp3617
g62
I5
ssg63
g3611
sg56
(lp3618
g49
(g58
g51
NtRp3619
(dp3620
g54
(dp3621
g62
I4
ssg63
Nsg56
(lp3622
g49
(g65
g51
NtRp3623
(dp3624
g54
(dp3625
sg63
g3619
sg56
(lp3626
g49
(g70
g51
NtRp3627
(dp3628
g54
(dp3629
g74
g75
ssg63
g3623
sg56
(lp3630
S'session_id_final_impulse'
p3631
asbag49
(g70
g51
NtRp3632
(dp3633
g54
(dp3634
g81
g82
ssg63
g3623
sg56
(lp3635
S':'
asbag49
(g70
g51
NtRp3636
(dp3637
g54
(dp3638
sg63
g3623
sg56
(lp3639
g49
(g50
g51
NtRp3640
(dp3641
g54
(dp3642
g62
I4
ssg63
g3636
sg56
(lp3643
g446
ag49
(g58
g51
NtRp3644
(dp3645
g54
(dp3646
g62
I3
ssg63
Nsg56
(lp3647
g49
(g65
g51
NtRp3648
(dp3649
g54
(dp3650
sg63
g3644
sg56
(lp3651
g49
(g70
g51
NtRp3652
(dp3653
g54
(dp3654
g74
g75
ssg63
g3648
sg56
(lp3655
g286
asbag49
(g70
g51
NtRp3656
(dp3657
g54
(dp3658
g81
g82
ssg63
g3648
sg56
(lp3659
S':'
asbag49
(g70
g51
NtRp3660
(dp3661
g54
(dp3662
sg63
g3648
sg56
(lp3663
g49
(g50
g51
NtRp3664
(dp3665
g54
(dp3666
g62
I3
ssg63
g3660
sg56
(lp3667
S''
asbasbasbag49
(g65
g51
NtRp3668
(dp3669
g54
(dp3670
sg63
g3644
sg56
(lp3671
g49
(g70
g51
NtRp3672
(dp3673
g54
(dp3674
g74
g75
ssg63
g3668
sg56
(lp3675
g307
asbag49
(g70
g51
NtRp3676
(dp3677
g54
(dp3678
g81
g82
ssg63
g3668
sg56
(lp3679
S':'
asbag49
(g70
g51
NtRp3680
(dp3681
g54
(dp3682
sg63
g3668
sg56
(lp3683
g49
(g50
g51
NtRp3684
(dp3685
g54
(dp3686
g62
I3
ssg63
g3680
sg56
(lp3687
S''
asbasbasbag49
(g65
g51
NtRp3688
(dp3689
g54
(dp3690
sg63
g3644
sg56
(lp3691
g49
(g70
g51
NtRp3692
(dp3693
g54
(dp3694
g74
g75
ssg63
g3688
sg56
(lp3695
g328
asbag49
(g70
g51
NtRp3696
(dp3697
g54
(dp3698
g81
g82
ssg63
g3688
sg56
(lp3699
S':'
asbag49
(g70
g51
NtRp3700
(dp3701
g54
(dp3702
sg63
g3688
sg56
(lp3703
g49
(g50
g51
NtRp3704
(dp3705
g54
(dp3706
g62
I3
ssg63
g3700
sg56
(lp3707
S''
asbasbasbag49
(g65
g51
NtRp3708
(dp3709
g54
(dp3710
sg63
g3644
sg56
(lp3711
g49
(g70
g51
NtRp3712
(dp3713
g54
(dp3714
g74
g75
ssg63
g3708
sg56
(lp3715
g349
asbag49
(g70
g51
NtRp3716
(dp3717
g54
(dp3718
g81
g82
ssg63
g3708
sg56
(lp3719
S':'
asbag49
(g70
g51
NtRp3720
(dp3721
g54
(dp3722
sg63
g3708
sg56
(lp3723
g49
(g50
g51
NtRp3724
(dp3725
g54
(dp3726
g62
I3
ssg63
g3720
sg56
(lp3727
S''
asbasbasbag49
(g65
g51
NtRp3728
(dp3729
g54
(dp3730
sg63
g3644
sg56
(lp3731
g49
(g70
g51
NtRp3732
(dp3733
g54
(dp3734
g74
g75
ssg63
g3728
sg56
(lp3735
g370
asbag49
(g70
g51
NtRp3736
(dp3737
g54
(dp3738
g81
g82
ssg63
g3728
sg56
(lp3739
S':'
asbag49
(g70
g51
NtRp3740
(dp3741
g54
(dp3742
sg63
g3728
sg56
(lp3743
g49
(g50
g51
NtRp3744
(dp3745
g54
(dp3746
g62
I3
ssg63
g3740
sg56
(lp3747
S'/'
asbasbasbag49
(g65
g51
NtRp3748
(dp3749
g54
(dp3750
sg63
g3644
sg56
(lp3751
g49
(g70
g51
NtRp3752
(dp3753
g54
(dp3754
g74
g75
ssg63
g3748
sg56
(lp3755
g391
asbag49
(g70
g51
NtRp3756
(dp3757
g54
(dp3758
g81
g82
ssg63
g3748
sg56
(lp3759
S':'
asbag49
(g70
g51
NtRp3760
(dp3761
g54
(dp3762
sg63
g3748
sg56
(lp3763
g49
(g50
g51
NtRp3764
(dp3765
g54
(dp3766
g62
I3
ssg63
g3760
sg56
(lp3767
S''
asbasbasbag49
(g65
g51
NtRp3768
(dp3769
g54
(dp3770
sg63
g3644
sg56
(lp3771
g49
(g70
g51
NtRp3772
(dp3773
g54
(dp3774
g74
g75
ssg63
g3768
sg56
(lp3775
g412
asbag49
(g70
g51
NtRp3776
(dp3777
g54
(dp3778
g81
g82
ssg63
g3768
sg56
(lp3779
S':'
asbag49
(g70
g51
NtRp3780
(dp3781
g54
(dp3782
sg63
g3768
sg56
(lp3783
g49
(g50
g51
NtRp3784
(dp3785
g54
(dp3786
g62
I3
ssg63
g3780
sg56
(lp3787
S''
asbasbasbasbasbasbasbasbasbasbasbag49
(g65
g51
NtRp3788
(dp3789
g54
(dp3790
sg63
g3574
sg56
(lp3791
g49
(g70
g51
NtRp3792
(dp3793
g54
(dp3794
g74
g75
ssg63
g3788
sg56
(lp3795
S'delimiters'
p3796
asbag49
(g70
g51
NtRp3797
(dp3798
g54
(dp3799
g81
g82
ssg63
g3788
sg56
(lp3800
S':'
asbag49
(g70
g51
NtRp3801
(dp3802
g54
(dp3803
sg63
g3788
sg56
(lp3804
g49
(g50
g51
NtRp3805
(dp3806
g54
(dp3807
g62
I5
ssg63
g3801
sg56
(lp3808
g49
(g58
g51
NtRp3809
(dp3810
g54
(dp3811
g62
I4
ssg63
Nsg56
(lp3812
g49
(g65
g51
NtRp3813
(dp3814
g54
(dp3815
sg63
g3809
sg56
(lp3816
g49
(g70
g51
NtRp3817
(dp3818
g54
(dp3819
sg63
g3813
sg56
(lp3820
g49
(g50
g51
NtRp3821
(dp3822
g54
(dp3823
g62
I4
ssg63
g3817
sg56
(lp3824
S'{{'
p3825
asbasbasbag49
(g65
g51
NtRp3826
(dp3827
g54
(dp3828
sg63
g3809
sg56
(lp3829
g49
(g70
g51
NtRp3830
(dp3831
g54
(dp3832
sg63
g3826
sg56
(lp3833
g49
(g50
g51
NtRp3834
(dp3835
g54
(dp3836
g62
I4
ssg63
g3830
sg56
(lp3837
S'}}'
p3838
asbasbasbasbasbasbasbag49
(g65
g51
NtRp3839
(dp3840
g54
(dp3841
sg63
g3574
sg56
(lp3842
g49
(g70
g51
NtRp3843
(dp3844
g54
(dp3845
g74
g75
ssg63
g3839
sg56
(lp3846
S'files'
p3847
asbag49
(g70
g51
NtRp3848
(dp3849
g54
(dp3850
g81
g82
ssg63
g3839
sg56
(lp3851
S':'
asbag49
(g70
g51
NtRp3852
(dp3853
g54
(dp3854
sg63
g3839
sg56
(lp3855
g49
(g50
g51
NtRp3856
(dp3857
g54
(dp3858
g62
I5
ssg63
g3852
sg56
(lp3859
g49
(g58
g51
NtRp3860
(dp3861
g54
(dp3862
g62
I4
ssg63
Nsg56
(lp3863
sbasbasbasbag49
(g65
g51
NtRp3864
(dp3865
g54
(dp3866
sg63
g3574
sg56
(lp3867
g49
(g70
g51
NtRp3868
(dp3869
g54
(dp3870
g74
g75
ssg63
g3864
sg56
(lp3871
S'flash'
p3872
asbag49
(g70
g51
NtRp3873
(dp3874
g54
(dp3875
g81
g82
ssg63
g3864
sg56
(lp3876
S':'
asbag49
(g70
g51
NtRp3877
(dp3878
g54
(dp3879
sg63
g3864
sg56
(lp3880
g49
(g50
g51
NtRp3881
(dp3882
g54
(dp3883
g62
I5
ssg63
g3877
sg56
(lp3884
S''
asbasbasbag49
(g65
g51
NtRp3885
(dp3886
g54
(dp3887
sg63
g3574
sg56
(lp3888
g49
(g70
g51
NtRp3889
(dp3890
g54
(dp3891
g74
g75
ssg63
g3885
sg56
(lp3892
S'generic_patterns'
p3893
asbag49
(g70
g51
NtRp3894
(dp3895
g54
(dp3896
g81
g82
ssg63
g3885
sg56
(lp3897
S':'
asbag49
(g70
g51
NtRp3898
(dp3899
g54
(dp3900
sg63
g3885
sg56
(lp3901
g49
(g50
g51
NtRp3902
(dp3903
g54
(dp3904
g62
I5
ssg63
g3898
sg56
(lp3905
g49
(g58
g51
NtRp3906
(dp3907
g54
(dp3908
g62
I4
ssg63
Nsg56
(lp3909
sbasbasbasbag49
(g65
g51
NtRp3910
(dp3911
g54
(dp3912
sg63
g3574
sg56
(lp3913
g49
(g70
g51
NtRp3914
(dp3915
g54
(dp3916
g74
g75
ssg63
g3910
sg56
(lp3917
S'google_analytics_id'
p3918
asbag49
(g70
g51
NtRp3919
(dp3920
g54
(dp3921
g81
g82
ssg63
g3910
sg56
(lp3922
S':'
asbag49
(g70
g51
NtRp3923
(dp3924
g54
(dp3925
sg63
g3910
sg56
(lp3926
g49
(g50
g51
NtRp3927
(dp3928
g54
(dp3929
g62
I5
ssg63
g3923
sg56
(lp3930
S'None'
p3931
asbasbasbag49
(g65
g51
NtRp3932
(dp3933
g54
(dp3934
sg63
g3574
sg56
(lp3935
g49
(g70
g51
NtRp3936
(dp3937
g54
(dp3938
g74
g75
ssg63
g3932
sg56
(lp3939
S'headers'
p3940
asbag49
(g70
g51
NtRp3941
(dp3942
g54
(dp3943
g81
g82
ssg63
g3932
sg56
(lp3944
S':'
asbag49
(g70
g51
NtRp3945
(dp3946
g54
(dp3947
sg63
g3932
sg56
(lp3948
g49
(g50
g51
NtRp3949
(dp3950
g54
(dp3951
g62
I5
ssg63
g3945
sg56
(lp3952
g49
(g58
g51
NtRp3953
(dp3954
g54
(dp3955
g62
I4
ssg63
Nsg56
(lp3956
g49
(g65
g51
NtRp3957
(dp3958
g54
(dp3959
sg63
g3953
sg56
(lp3960
g49
(g70
g51
NtRp3961
(dp3962
g54
(dp3963
g74
g75
ssg63
g3957
sg56
(lp3964
S'X-Powered-By'
p3965
asbag49
(g70
g51
NtRp3966
(dp3967
g54
(dp3968
g81
g82
ssg63
g3957
sg56
(lp3969
S':'
asbag49
(g70
g51
NtRp3970
(dp3971
g54
(dp3972
sg63
g3957
sg56
(lp3973
g49
(g50
g51
NtRp3974
(dp3975
g54
(dp3976
g62
I4
ssg63
g3970
sg56
(lp3977
S'web2py'
p3978
asbasbasbasbasbasbasbag49
(g65
g51
NtRp3979
(dp3980
g54
(dp3981
sg63
g3574
sg56
(lp3982
g49
(g70
g51
NtRp3983
(dp3984
g54
(dp3985
g74
g75
ssg63
g3979
sg56
(lp3986
S'menu'
p3987
asbag49
(g70
g51
NtRp3988
(dp3989
g54
(dp3990
g81
g82
ssg63
g3979
sg56
(lp3991
S':'
asbag49
(g70
g51
NtRp3992
(dp3993
g54
(dp3994
sg63
g3979
sg56
(lp3995
g49
(g50
g51
NtRp3996
(dp3997
g54
(dp3998
g62
I5
ssg63
g3992
sg56
(lp3999
g49
(g58
g51
NtRp4000
(dp4001
g54
(dp4002
g62
I4
ssg63
Nsg56
(lp4003
g49
(g65
g51
NtRp4004
(dp4005
g54
(dp4006
sg63
g4000
sg56
(lp4007
g49
(g70
g51
NtRp4008
(dp4009
g54
(dp4010
sg63
g4004
sg56
(lp4011
g49
(g50
g51
NtRp4012
(dp4013
g54
(dp4014
g62
I4
ssg63
g4008
sg56
(lp4015
g49
(g58
g51
NtRp4016
(dp4017
g54
(dp4018
g62
I3
ssg63
Nsg56
(lp4019
g49
(g65
g51
NtRp4020
(dp4021
g54
(dp4022
sg63
g4016
sg56
(lp4023
g49
(g70
g51
NtRp4024
(dp4025
g54
(dp4026
sg63
g4020
sg56
(lp4027
g49
(g50
g51
NtRp4028
(dp4029
g54
(dp4030
g62
I3
ssg63
g4024
sg56
(lp4031
cgluon.languages
lazyT_unpickle
p4032
(S't\x04\x00\x00\x00Home'
tRp4033
asbasbasbag49
(g65
g51
NtRp4034
(dp4035
g54
(dp4036
sg63
g4016
sg56
(lp4037
g49
(g70
g51
NtRp4038
(dp4039
g54
(dp4040
sg63
g4034
sg56
(lp4041
g49
(g50
g51
NtRp4042
(dp4043
g54
(dp4044
g62
I3
ssg63
g4038
sg56
(lp4045
g92
asbasbasbag49
(g65
g51
NtRp4046
(dp4047
g54
(dp4048
sg63
g4016
sg56
(lp4049
g49
(g70
g51
NtRp4050
(dp4051
g54
(dp4052
sg63
g4046
sg56
(lp4053
g49
(g50
g51
NtRp4054
(dp4055
g54
(dp4056
g62
I3
ssg63
g4050
sg56
(lp4057
S'/Final_Impulse/default/index'
p4058
asbasbasbag49
(g65
g51
NtRp4059
(dp4060
g54
(dp4061
sg63
g4016
sg56
(lp4062
g49
(g70
g51
NtRp4063
(dp4064
g54
(dp4065
sg63
g4059
sg56
(lp4066
g49
(g50
g51
NtRp4067
(dp4068
g54
(dp4069
g62
I3
ssg63
g4063
sg56
(lp4070
g49
(g58
g51
NtRp4071
(dp4072
g54
(dp4073
g62
I2
ssg63
Nsg56
(lp4074
sbasbasbasbasbasbasbasbag49
(g65
g51
NtRp4075
(dp4076
g54
(dp4077
sg63
g4000
sg56
(lp4078
g49
(g70
g51
NtRp4079
(dp4080
g54
(dp4081
sg63
g4075
sg56
(lp4082
g49
(g50
g51
NtRp4083
(dp4084
g54
(dp4085
g62
I4
ssg63
g4079
sg56
(lp4086
g49
(g58
g51
NtRp4087
(dp4088
g54
(dp4089
g62
I3
ssg63
Nsg56
(lp4090
g49
(g65
g51
NtRp4091
(dp4092
g54
(dp4093
sg63
g4087
sg56
(lp4094
g49
(g70
g51
NtRp4095
(dp4096
g54
(dp4097
sg63
g4091
sg56
(lp4098
g49
(g50
g51
NtRp4099
(dp4100
g54
(dp4101
g62
I3
ssg63
g4095
sg56
(lp4102
g49
(cgluon.html
SPAN
p4103
g51
NtRp4104
(dp4105
g54
(dp4106
S'_class'
p4107
S'highlighted'
p4108
ssg63
Nsg56
(lp4109
g3978
asbasbasbasbag49
(g65
g51
NtRp4110
(dp4111
g54
(dp4112
sg63
g4087
sg56
(lp4113
g49
(g70
g51
NtRp4114
(dp4115
g54
(dp4116
sg63
g4110
sg56
(lp4117
g49
(g50
g51
NtRp4118
(dp4119
g54
(dp4120
g62
I3
ssg63
g4114
sg56
(lp4121
g92
asbasbasbag49
(g65
g51
NtRp4122
(dp4123
g54
(dp4124
sg63
g4087
sg56
(lp4125
g49
(g70
g51
NtRp4126
(dp4127
g54
(dp4128
sg63
g4122
sg56
(lp4129
g49
(g50
g51
NtRp4130
(dp4131
g54
(dp4132
g62
I3
ssg63
g4126
sg56
(lp4133
S'http://web2py.com'
p4134
asbasbasbag49
(g65
g51
NtRp4135
(dp4136
g54
(dp4137
sg63
g4087
sg56
(lp4138
g49
(g70
g51
NtRp4139
(dp4140
g54
(dp4141
sg63
g4135
sg56
(lp4142
g49
(g50
g51
NtRp4143
(dp4144
g54
(dp4145
g62
I3
ssg63
g4139
sg56
(lp4146
g49
(g58
g51
NtRp4147
(dp4148
g54
(dp4149
g62
I2
ssg63
Nsg56
(lp4150
g49
(g65
g51
NtRp4151
(dp4152
g54
(dp4153
sg63
g4147
sg56
(lp4154
g49
(g70
g51
NtRp4155
(dp4156
g54
(dp4157
sg63
g4151
sg56
(lp4158
g49
(g50
g51
NtRp4159
(dp4160
g54
(dp4161
g62
I2
ssg63
g4155
sg56
(lp4162
g49
(g58
g51
NtRp4163
(dp4164
g54
(dp4165
g62
I1
ssg63
Nsg56
(lp4166
g49
(g65
g51
NtRp4167
(dp4168
g54
(dp4169
sg63
g4163
sg56
(lp4170
g49
(g70
g51
NtRp4171
(dp4172
g54
(dp4173
sg63
g4167
sg56
(lp4174
g49
(g50
g51
NtRp4175
(dp4176
g54
(dp4177
g62
I1
ssg63
g4171
sg56
(lp4178
g4032
(S's\x08\x00\x00\x00My Sites'
tRp4179
asbasbasbag49
(g65
g51
NtRp4180
(dp4181
g54
(dp4182
sg63
g4163
sg56
(lp4183
g49
(g70
g51
NtRp4184
(dp4185
g54
(dp4186
sg63
g4180
sg56
(lp4187
g49
(g50
g51
NtRp4188
(dp4189
g54
(dp4190
g62
I1
ssg63
g4184
sg56
(lp4191
I00
asbasbasbag49
(g65
g51
NtRp4192
(dp4193
g54
(dp4194
sg63
g4163
sg56
(lp4195
g49
(g70
g51
NtRp4196
(dp4197
g54
(dp4198
sg63
g4192
sg56
(lp4199
g49
(g50
g51
NtRp4200
(dp4201
g54
(dp4202
g62
I1
ssg63
g4196
sg56
(lp4203
S'/admin/default/site'
p4204
asbasbasbasbasbasbasbag49
(g65
g51
NtRp4205
(dp4206
g54
(dp4207
sg63
g4147
sg56
(lp4208
g49
(g70
g51
NtRp4209
(dp4210
g54
(dp4211
sg63
g4205
sg56
(lp4212
g49
(g50
g51
NtRp4213
(dp4214
g54
(dp4215
g62
I2
ssg63
g4209
sg56
(lp4216
g49
(g58
g51
NtRp4217
(dp4218
g54
(dp4219
g62
I1
ssg63
Nsg56
(lp4220
g49
(g65
g51
NtRp4221
(dp4222
g54
(dp4223
sg63
g4217
sg56
(lp4224
g49
(g70
g51
NtRp4225
(dp4226
g54
(dp4227
sg63
g4221
sg56
(lp4228
g49
(g50
g51
NtRp4229
(dp4230
g54
(dp4231
g62
I1
ssg63
g4225
sg56
(lp4232
g4032
(S's\x08\x00\x00\x00This App'
tRp4233
asbasbasbag49
(g65
g51
NtRp4234
(dp4235
g54
(dp4236
sg63
g4217
sg56
(lp4237
g49
(g70
g51
NtRp4238
(dp4239
g54
(dp4240
sg63
g4234
sg56
(lp4241
g49
(g50
g51
NtRp4242
(dp4243
g54
(dp4244
g62
I1
ssg63
g4238
sg56
(lp4245
I00
asbasbasbag49
(g65
g51
NtRp4246
(dp4247
g54
(dp4248
sg63
g4217
sg56
(lp4249
g49
(g70
g51
NtRp4250
(dp4251
g54
(dp4252
sg63
g4246
sg56
(lp4253
g49
(g50
g51
NtRp4254
(dp4255
g54
(dp4256
g62
I1
ssg63
g4250
sg56
(lp4257
S'/admin/default/design/Final_Impulse'
p4258
asbasbasbag49
(g65
g51
NtRp4259
(dp4260
g54
(dp4261
sg63
g4217
sg56
(lp4262
g49
(g70
g51
NtRp4263
(dp4264
g54
(dp4265
sg63
g4259
sg56
(lp4266
g49
(g50
g51
NtRp4267
(dp4268
g54
(dp4269
g62
I1
ssg63
g4263
sg56
(lp4270
(lp4271
(g4032
(S't\n\x00\x00\x00Controller'
tRp4272
I00
S'/admin/default/edit/Final_Impulse/controllers/default.py'
tp4273
a(g4032
(S't\x04\x00\x00\x00View'
tRp4274
I00
S'/admin/default/edit/Final_Impulse/views/default/show_video_comments.html'
tp4275
a(g4032
(S't\x06\x00\x00\x00Layout'
tRp4276
I00
S'/admin/default/edit/Final_Impulse/views/layout.html'
tp4277
a(g4032
(S't\n\x00\x00\x00Stylesheet'
tRp4278
I00
S'/admin/default/edit/Final_Impulse/static/css/web2py.css'
tp4279
a(g4032
(S's\x08\x00\x00\x00DB Model'
tRp4280
I00
S'/admin/default/edit/Final_Impulse/models/db.py'
tp4281
a(g4032
(S's\n\x00\x00\x00Menu Model'
tRp4282
I00
S'/admin/default/edit/Final_Impulse/models/menu.py'
tp4283
a(g4032
(S't\x08\x00\x00\x00Database'
tRp4284
I00
S'/Final_Impulse/appadmin/index'
tp4285
a(g4032
(S't\x06\x00\x00\x00Errors'
tRp4286
I00
S'/admin/default/errors/Final_Impulse'
tp4287
a(g4032
(S't\x05\x00\x00\x00About'
tRp4288
I00
S'/admin/default/about/Final_Impulse'
tp4289
aasbasbasbasbasbasbasbag49
(g65
g51
NtRp4290
(dp4291
g54
(dp4292
sg63
g4147
sg56
(lp4293
g49
(g70
g51
NtRp4294
(dp4295
g54
(dp4296
sg63
g4290
sg56
(lp4297
g49
(g50
g51
NtRp4298
(dp4299
g54
(dp4300
g62
I2
ssg63
g4294
sg56
(lp4301
g49
(g58
g51
NtRp4302
(dp4303
g54
(dp4304
g62
I1
ssg63
Nsg56
(lp4305
g49
(g65
g51
NtRp4306
(dp4307
g54
(dp4308
sg63
g4302
sg56
(lp4309
g49
(g70
g51
NtRp4310
(dp4311
g54
(dp4312
sg63
g4306
sg56
(lp4313
g49
(g50
g51
NtRp4314
(dp4315
g54
(dp4316
g62
I1
ssg63
g4310
sg56
(lp4317
S'web2py.com'
p4318
asbasbasbag49
(g65
g51
NtRp4319
(dp4320
g54
(dp4321
sg63
g4302
sg56
(lp4322
g49
(g70
g51
NtRp4323
(dp4324
g54
(dp4325
sg63
g4319
sg56
(lp4326
g49
(g50
g51
NtRp4327
(dp4328
g54
(dp4329
g62
I1
ssg63
g4323
sg56
(lp4330
I00
asbasbasbag49
(g65
g51
NtRp4331
(dp4332
g54
(dp4333
sg63
g4302
sg56
(lp4334
g49
(g70
g51
NtRp4335
(dp4336
g54
(dp4337
sg63
g4331
sg56
(lp4338
g49
(g50
g51
NtRp4339
(dp4340
g54
(dp4341
g62
I1
ssg63
g4335
sg56
(lp4342
S'http://www.web2py.com'
p4343
asbasbasbag49
(g65
g51
NtRp4344
(dp4345
g54
(dp4346
sg63
g4302
sg56
(lp4347
g49
(g70
g51
NtRp4348
(dp4349
g54
(dp4350
sg63
g4344
sg56
(lp4351
g49
(g50
g51
NtRp4352
(dp4353
g54
(dp4354
g62
I1
ssg63
g4348
sg56
(lp4355
(lp4356
(g4032
(S't\x08\x00\x00\x00Download'
tRp4357
I00
S'http://www.web2py.com/examples/default/download'
p4358
tp4359
a(g4032
(S't\x07\x00\x00\x00Support'
tRp4360
I00
S'http://www.web2py.com/examples/default/support'
p4361
tp4362
a(g4032
(S't\x04\x00\x00\x00Demo'
tRp4363
I00
S'http://web2py.com/demo_admin'
p4364
tp4365
a(g4032
(S's\x0e\x00\x00\x00Quick Examples'
tRp4366
I00
S'http://web2py.com/examples/default/examples'
p4367
tp4368
a(g4032
(S't\x03\x00\x00\x00FAQ'
tRp4369
I00
S'http://web2py.com/AlterEgo'
p4370
tp4371
a(g4032
(S't\x06\x00\x00\x00Videos'
tRp4372
I00
S'http://www.web2py.com/examples/default/videos/'
p4373
tp4374
a(g4032
(S's\x11\x00\x00\x00Free Applications'
tRp4375
I00
S'http://web2py.com/appliances'
p4376
tp4377
a(g4032
(S't\x07\x00\x00\x00Plugins'
tRp4378
I00
S'http://web2py.com/plugins'
p4379
tp4380
a(g4032
(S't\x07\x00\x00\x00Layouts'
tRp4381
I00
S'http://web2py.com/layouts'
p4382
tp4383
a(g4032
(S't\x07\x00\x00\x00Recipes'
tRp4384
I00
S'http://web2pyslices.com/'
p4385
tp4386
a(g4032
(S't\x08\x00\x00\x00Semantic'
tRp4387
I00
S'http://web2py.com/semantic'
p4388
tp4389
aasbasbasbasbasbasbasbag49
(g65
g51
NtRp4390
(dp4391
g54
(dp4392
sg63
g4147
sg56
(lp4393
g49
(g70
g51
NtRp4394
(dp4395
g54
(dp4396
sg63
g4390
sg56
(lp4397
g49
(g50
g51
NtRp4398
(dp4399
g54
(dp4400
g62
I2
ssg63
g4394
sg56
(lp4401
g49
(g58
g51
NtRp4402
(dp4403
g54
(dp4404
g62
I1
ssg63
Nsg56
(lp4405
g49
(g65
g51
NtRp4406
(dp4407
g54
(dp4408
sg63
g4402
sg56
(lp4409
g49
(g70
g51
NtRp4410
(dp4411
g54
(dp4412
sg63
g4406
sg56
(lp4413
g49
(g50
g51
NtRp4414
(dp4415
g54
(dp4416
g62
I1
ssg63
g4410
sg56
(lp4417
g4032
(S't\r\x00\x00\x00Documentation'
tRp4418
asbasbasbag49
(g65
g51
NtRp4419
(dp4420
g54
(dp4421
sg63
g4402
sg56
(lp4422
g49
(g70
g51
NtRp4423
(dp4424
g54
(dp4425
sg63
g4419
sg56
(lp4426
g49
(g50
g51
NtRp4427
(dp4428
g54
(dp4429
g62
I1
ssg63
g4423
sg56
(lp4430
I00
asbasbasbag49
(g65
g51
NtRp4431
(dp4432
g54
(dp4433
sg63
g4402
sg56
(lp4434
g49
(g70
g51
NtRp4435
(dp4436
g54
(dp4437
sg63
g4431
sg56
(lp4438
g49
(g50
g51
NtRp4439
(dp4440
g54
(dp4441
g62
I1
ssg63
g4435
sg56
(lp4442
S'http://www.web2py.com/book'
p4443
asbasbasbag49
(g65
g51
NtRp4444
(dp4445
g54
(dp4446
sg63
g4402
sg56
(lp4447
g49
(g70
g51
NtRp4448
(dp4449
g54
(dp4450
sg63
g4444
sg56
(lp4451
g49
(g50
g51
NtRp4452
(dp4453
g54
(dp4454
g62
I1
ssg63
g4448
sg56
(lp4455
(lp4456
(g4032
(S't\x07\x00\x00\x00Preface'
tRp4457
I00
S'http://www.web2py.com/book/default/chapter/00'
p4458
tp4459
a(g4032
(S't\x0c\x00\x00\x00Introduction'
tRp4460
I00
S'http://www.web2py.com/book/default/chapter/01'
p4461
tp4462
a(g4032
(S't\x06\x00\x00\x00Python'
tRp4463
I00
S'http://www.web2py.com/book/default/chapter/02'
p4464
tp4465
a(g4032
(S't\x08\x00\x00\x00Overview'
tRp4466
I00
S'http://www.web2py.com/book/default/chapter/03'
p4467
tp4468
a(g4032
(S's\x08\x00\x00\x00The Core'
tRp4469
I00
S'http://www.web2py.com/book/default/chapter/04'
p4470
tp4471
a(g4032
(S's\t\x00\x00\x00The Views'
tRp4472
I00
S'http://www.web2py.com/book/default/chapter/05'
p4473
tp4474
a(g4032
(S't\x08\x00\x00\x00Database'
tRp4475
I00
S'http://www.web2py.com/book/default/chapter/06'
p4476
tp4477
a(g4032
(S's\x14\x00\x00\x00Forms and Validators'
tRp4478
I00
S'http://www.web2py.com/book/default/chapter/07'
p4479
tp4480
a(g4032
(S's\r\x00\x00\x00Email and SMS'
tRp4481
I00
S'http://www.web2py.com/book/default/chapter/08'
p4482
tp4483
a(g4032
(S's\x0e\x00\x00\x00Access Control'
tRp4484
I00
S'http://www.web2py.com/book/default/chapter/09'
p4485
tp4486
a(g4032
(S't\x08\x00\x00\x00Services'
tRp4487
I00
S'http://www.web2py.com/book/default/chapter/10'
p4488
tp4489
a(g4032
(S's\x0c\x00\x00\x00Ajax Recipes'
tRp4490
I00
S'http://www.web2py.com/book/default/chapter/11'
p4491
tp4492
a(g4032
(S's\x16\x00\x00\x00Components and Plugins'
tRp4493
I00
S'http://www.web2py.com/book/default/chapter/12'
p4494
tp4495
a(g4032
(S's\x12\x00\x00\x00Deployment Recipes'
tRp4496
I00
S'http://www.web2py.com/book/default/chapter/13'
p4497
tp4498
a(g4032
(S's\r\x00\x00\x00Other Recipes'
tRp4499
I00
S'http://www.web2py.com/book/default/chapter/14'
p4500
tp4501
a(g4032
(S's\r\x00\x00\x00Buy this book'
tRp4502
I00
S'http://stores.lulu.com/web2py'
p4503
tp4504
aasbasbasbasbasbasbasbag49
(g65
g51
NtRp4505
(dp4506
g54
(dp4507
sg63
g4147
sg56
(lp4508
g49
(g70
g51
NtRp4509
(dp4510
g54
(dp4511
sg63
g4505
sg56
(lp4512
g49
(g50
g51
NtRp4513
(dp4514
g54
(dp4515
g62
I2
ssg63
g4509
sg56
(lp4516
g49
(g58
g51
NtRp4517
(dp4518
g54
(dp4519
g62
I1
ssg63
Nsg56
(lp4520
g49
(g65
g51
NtRp4521
(dp4522
g54
(dp4523
sg63
g4517
sg56
(lp4524
g49
(g70
g51
NtRp4525
(dp4526
g54
(dp4527
sg63
g4521
sg56
(lp4528
g49
(g50
g51
NtRp4529
(dp4530
g54
(dp4531
g62
I1
ssg63
g4525
sg56
(lp4532
g4032
(S't\t\x00\x00\x00Community'
tRp4533
asbasbasbag49
(g65
g51
NtRp4534
(dp4535
g54
(dp4536
sg63
g4517
sg56
(lp4537
g49
(g70
g51
NtRp4538
(dp4539
g54
(dp4540
sg63
g4534
sg56
(lp4541
g49
(g50
g51
NtRp4542
(dp4543
g54
(dp4544
g62
I1
ssg63
g4538
sg56
(lp4545
I00
asbasbasbag49
(g65
g51
NtRp4546
(dp4547
g54
(dp4548
sg63
g4517
sg56
(lp4549
g49
(g70
g51
NtRp4550
(dp4551
g54
(dp4552
sg63
g4546
sg56
(lp4553
g49
(g50
g51
NtRp4554
(dp4555
g54
(dp4556
g62
I1
ssg63
g4550
sg56
(lp4557
Nasbasbasbag49
(g65
g51
NtRp4558
(dp4559
g54
(dp4560
sg63
g4517
sg56
(lp4561
g49
(g70
g51
NtRp4562
(dp4563
g54
(dp4564
sg63
g4558
sg56
(lp4565
g49
(g50
g51
NtRp4566
(dp4567
g54
(dp4568
g62
I1
ssg63
g4562
sg56
(lp4569
(lp4570
(g4032
(S't\x06\x00\x00\x00Groups'
tRp4571
I00
S'http://www.web2py.com/examples/default/usergroups'
p4572
tp4573
a(g4032
(S't\x07\x00\x00\x00Twitter'
tRp4574
I00
S'http://twitter.com/web2py'
p4575
tp4576
a(g4032
(S's\t\x00\x00\x00Live Chat'
tRp4577
I00
S'http://webchat.freenode.net/?channels=web2py'
p4578
tp4579
aasbasbasbasbasbasbasbag49
(g65
g51
NtRp4580
(dp4581
g54
(dp4582
sg63
g4147
sg56
(lp4583
g49
(g70
g51
NtRp4584
(dp4585
g54
(dp4586
sg63
g4580
sg56
(lp4587
g49
(g50
g51
NtRp4588
(dp4589
g54
(dp4590
g62
I2
ssg63
g4584
sg56
(lp4591
g49
(g58
g51
NtRp4592
(dp4593
g54
(dp4594
g62
I1
ssg63
Nsg56
(lp4595
g49
(g65
g51
NtRp4596
(dp4597
g54
(dp4598
sg63
g4592
sg56
(lp4599
g49
(g70
g51
NtRp4600
(dp4601
g54
(dp4602
sg63
g4596
sg56
(lp4603
g49
(g50
g51
NtRp4604
(dp4605
g54
(dp4606
g62
I1
ssg63
g4600
sg56
(lp4607
g4032
(S't\x07\x00\x00\x00Plugins'
tRp4608
asbasbasbag49
(g65
g51
NtRp4609
(dp4610
g54
(dp4611
sg63
g4592
sg56
(lp4612
g49
(g70
g51
NtRp4613
(dp4614
g54
(dp4615
sg63
g4609
sg56
(lp4616
g49
(g50
g51
NtRp4617
(dp4618
g54
(dp4619
g62
I1
ssg63
g4613
sg56
(lp4620
I00
asbasbasbag49
(g65
g51
NtRp4621
(dp4622
g54
(dp4623
sg63
g4592
sg56
(lp4624
g49
(g70
g51
NtRp4625
(dp4626
g54
(dp4627
sg63
g4621
sg56
(lp4628
g49
(g50
g51
NtRp4629
(dp4630
g54
(dp4631
g62
I1
ssg63
g4625
sg56
(lp4632
Nasbasbasbag49
(g65
g51
NtRp4633
(dp4634
g54
(dp4635
sg63
g4592
sg56
(lp4636
g49
(g70
g51
NtRp4637
(dp4638
g54
(dp4639
sg63
g4633
sg56
(lp4640
g49
(g50
g51
NtRp4641
(dp4642
g54
(dp4643
g62
I1
ssg63
g4637
sg56
(lp4644
(lp4645
(S'plugin_wiki'
p4646
I00
S'http://web2py.com/examples/default/download'
p4647
tp4648
a(g4032
(S's\r\x00\x00\x00Other Plugins'
tRp4649
I00
g4379
tp4650
a(g4032
(S's\x0e\x00\x00\x00Layout Plugins'
tRp4651
I00
g4382
tp4652
aasbasbasbasbasbasbasbasbasbasbasbasbasbasbasbasbasbasbasbag49
(g65
g51
NtRp4653
(dp4654
g54
(dp4655
sg63
g3574
sg56
(lp4656
g49
(g70
g51
NtRp4657
(dp4658
g54
(dp4659
g74
g75
ssg63
g4653
sg56
(lp4660
S'meta'
p4661
asbag49
(g70
g51
NtRp4662
(dp4663
g54
(dp4664
g81
g82
ssg63
g4653
sg56
(lp4665
S':'
asbag49
(g70
g51
NtRp4666
(dp4667
g54
(dp4668
sg63
g4653
sg56
(lp4669
g49
(g50
g51
NtRp4670
(dp4671
g54
(dp4672
g62
I5
ssg63
g4666
sg56
(lp4673
g49
(g58
g51
NtRp4674
(dp4675
g54
(dp4676
g62
I4
ssg63
Nsg56
(lp4677
g49
(g65
g51
NtRp4678
(dp4679
g54
(dp4680
sg63
g4674
sg56
(lp4681
g49
(g70
g51
NtRp4682
(dp4683
g54
(dp4684
g74
g75
ssg63
g4678
sg56
(lp4685
S'author'
p4686
asbag49
(g70
g51
NtRp4687
(dp4688
g54
(dp4689
g81
g82
ssg63
g4678
sg56
(lp4690
S':'
asbag49
(g70
g51
NtRp4691
(dp4692
g54
(dp4693
sg63
g4678
sg56
(lp4694
g49
(g50
g51
NtRp4695
(dp4696
g54
(dp4697
g62
I4
ssg63
g4691
sg56
(lp4698
S'Your Name <you@example.com>'
p4699
asbasbasbag49
(g65
g51
NtRp4700
(dp4701
g54
(dp4702
sg63
g4674
sg56
(lp4703
g49
(g70
g51
NtRp4704
(dp4705
g54
(dp4706
g74
g75
ssg63
g4700
sg56
(lp4707
S'description'
p4708
asbag49
(g70
g51
NtRp4709
(dp4710
g54
(dp4711
g81
g82
ssg63
g4700
sg56
(lp4712
S':'
asbag49
(g70
g51
NtRp4713
(dp4714
g54
(dp4715
sg63
g4700
sg56
(lp4716
g49
(g50
g51
NtRp4717
(dp4718
g54
(dp4719
g62
I4
ssg63
g4713
sg56
(lp4720
S'a cool new app'
p4721
asbasbasbag49
(g65
g51
NtRp4722
(dp4723
g54
(dp4724
sg63
g4674
sg56
(lp4725
g49
(g70
g51
NtRp4726
(dp4727
g54
(dp4728
g74
g75
ssg63
g4722
sg56
(lp4729
S'generator'
p4730
asbag49
(g70
g51
NtRp4731
(dp4732
g54
(dp4733
g81
g82
ssg63
g4722
sg56
(lp4734
S':'
asbag49
(g70
g51
NtRp4735
(dp4736
g54
(dp4737
sg63
g4722
sg56
(lp4738
g49
(g50
g51
NtRp4739
(dp4740
g54
(dp4741
g62
I4
ssg63
g4735
sg56
(lp4742
S'Web2py Web Framework'
p4743
asbasbasbag49
(g65
g51
NtRp4744
(dp4745
g54
(dp4746
sg63
g4674
sg56
(lp4747
g49
(g70
g51
NtRp4748
(dp4749
g54
(dp4750
g74
g75
ssg63
g4744
sg56
(lp4751
S'keywords'
p4752
asbag49
(g70
g51
NtRp4753
(dp4754
g54
(dp4755
g81
g82
ssg63
g4744
sg56
(lp4756
S':'
asbag49
(g70
g51
NtRp4757
(dp4758
g54
(dp4759
sg63
g4744
sg56
(lp4760
g49
(g50
g51
NtRp4761
(dp4762
g54
(dp4763
g62
I4
ssg63
g4757
sg56
(lp4764
S'web2py, python, framework'
p4765
asbasbasbasbasbasbasbag49
(g65
g51
NtRp4766
(dp4767
g54
(dp4768
sg63
g3574
sg56
(lp4769
g49
(g70
g51
NtRp4770
(dp4771
g54
(dp4772
g74
g75
ssg63
g4766
sg56
(lp4773
S'models_to_run'
p4774
asbag49
(g70
g51
NtRp4775
(dp4776
g54
(dp4777
g81
g82
ssg63
g4766
sg56
(lp4778
S':'
asbag49
(g70
g51
NtRp4779
(dp4780
g54
(dp4781
sg63
g4766
sg56
(lp4782
g49
(g50
g51
NtRp4783
(dp4784
g54
(dp4785
g62
I5
ssg63
g4779
sg56
(lp4786
g49
(g58
g51
NtRp4787
(dp4788
g54
(dp4789
g62
I4
ssg63
Nsg56
(lp4790
g49
(g65
g51
NtRp4791
(dp4792
g54
(dp4793
sg63
g4787
sg56
(lp4794
g49
(g70
g51
NtRp4795
(dp4796
g54
(dp4797
sg63
g4791
sg56
(lp4798
g49
(g50
g51
NtRp4799
(dp4800
g54
(dp4801
g62
I4
ssg63
g4795
sg56
(lp4802
S'^\\w+\\.py$'
p4803
asbasbasbag49
(g65
g51
NtRp4804
(dp4805
g54
(dp4806
sg63
g4787
sg56
(lp4807
g49
(g70
g51
NtRp4808
(dp4809
g54
(dp4810
sg63
g4804
sg56
(lp4811
g49
(g50
g51
NtRp4812
(dp4813
g54
(dp4814
g62
I4
ssg63
g4808
sg56
(lp4815
S'^default/\\w+\\.py$'
p4816
asbasbasbag49
(g65
g51
NtRp4817
(dp4818
g54
(dp4819
sg63
g4787
sg56
(lp4820
g49
(g70
g51
NtRp4821
(dp4822
g54
(dp4823
sg63
g4817
sg56
(lp4824
g49
(g50
g51
NtRp4825
(dp4826
g54
(dp4827
g62
I4
ssg63
g4821
sg56
(lp4828
S'^default/show_video_comments/\\w+\\.py$'
p4829
asbasbasbasbasbasbasbag49
(g65
g51
NtRp4830
(dp4831
g54
(dp4832
sg63
g3574
sg56
(lp4833
g49
(g70
g51
NtRp4834
(dp4835
g54
(dp4836
g74
g75
ssg63
g4830
sg56
(lp4837
S'postprocessing'
p4838
asbag49
(g70
g51
NtRp4839
(dp4840
g54
(dp4841
g81
g82
ssg63
g4830
sg56
(lp4842
S':'
asbag49
(g70
g51
NtRp4843
(dp4844
g54
(dp4845
sg63
g4830
sg56
(lp4846
g49
(g50
g51
NtRp4847
(dp4848
g54
(dp4849
g62
I5
ssg63
g4843
sg56
(lp4850
g49
(g58
g51
NtRp4851
(dp4852
g54
(dp4853
g62
I4
ssg63
Nsg56
(lp4854
sbasbasbasbag49
(g65
g51
NtRp4855
(dp4856
g54
(dp4857
sg63
g3574
sg56
(lp4858
g49
(g70
g51
NtRp4859
(dp4860
g54
(dp4861
g74
g75
ssg63
g4855
sg56
(lp4862
S'session_cookie_expires'
p4863
asbag49
(g70
g51
NtRp4864
(dp4865
g54
(dp4866
g81
g82
ssg63
g4855
sg56
(lp4867
S':'
asbag49
(g70
g51
NtRp4868
(dp4869
g54
(dp4870
sg63
g4855
sg56
(lp4871
g49
(g50
g51
NtRp4872
(dp4873
g54
(dp4874
g62
I5
ssg63
g4868
sg56
(lp4875
S'None'
p4876
asbasbasbag49
(g65
g51
NtRp4877
(dp4878
g54
(dp4879
sg63
g3574
sg56
(lp4880
g49
(g70
g51
NtRp4881
(dp4882
g54
(dp4883
g74
g75
ssg63
g4877
sg56
(lp4884
S'session_data_name'
p4885
asbag49
(g70
g51
NtRp4886
(dp4887
g54
(dp4888
g81
g82
ssg63
g4877
sg56
(lp4889
S':'
asbag49
(g70
g51
NtRp4890
(dp4891
g54
(dp4892
sg63
g4877
sg56
(lp4893
g49
(g50
g51
NtRp4894
(dp4895
g54
(dp4896
g62
I5
ssg63
g4890
sg56
(lp4897
S'session_data_final_impulse'
p4898
asbasbasbag49
(g65
g51
NtRp4899
(dp4900
g54
(dp4901
sg63
g3574
sg56
(lp4902
g49
(g70
g51
NtRp4903
(dp4904
g54
(dp4905
g74
g75
ssg63
g4899
sg56
(lp4906
S'session_file'
p4907
asbag49
(g70
g51
NtRp4908
(dp4909
g54
(dp4910
g81
g82
ssg63
g4899
sg56
(lp4911
S':'
asbag49
(g70
g51
NtRp4912
(dp4913
g54
(dp4914
sg63
g4899
sg56
(lp4915
g49
(g50
g51
NtRp4916
(dp4917
g54
(dp4918
g62
I5
ssg63
g4912
sg56
(lp4919
S"<open file '/Users/abaric/Downloads/web2py/web2py.app/Contents/Resources/applications/Final_Impulse/sessions/127.0.0.1-196d16f0-df2a-4177-8038-20bcfac6a099', mode 'rb+' at 0x8b14650>"
p4920
asbasbasbag49
(g65
g51
NtRp4921
(dp4922
g54
(dp4923
sg63
g3574
sg56
(lp4924
g49
(g70
g51
NtRp4925
(dp4926
g54
(dp4927
g74
g75
ssg63
g4921
sg56
(lp4928
S'session_filename'
p4929
asbag49
(g70
g51
NtRp4930
(dp4931
g54
(dp4932
g81
g82
ssg63
g4921
sg56
(lp4933
S':'
asbag49
(g70
g51
NtRp4934
(dp4935
g54
(dp4936
sg63
g4921
sg56
(lp4937
g49
(g50
g51
NtRp4938
(dp4939
g54
(dp4940
g62
I5
ssg63
g4934
sg56
(lp4941
S'/Users/abaric/Downloads/web2py/web2py.app/Contents/Resources/applications/Final_Impulse/sessions/127.0.0.1-196d16f0-df2a-4177-8038-20bcfac6a099'
p4942
asbasbasbag49
(g65
g51
NtRp4943
(dp4944
g54
(dp4945
sg63
g3574
sg56
(lp4946
g49
(g70
g51
NtRp4947
(dp4948
g54
(dp4949
g74
g75
ssg63
g4943
sg56
(lp4950
S'session_id'
p4951
asbag49
(g70
g51
NtRp4952
(dp4953
g54
(dp4954
g81
g82
ssg63
g4943
sg56
(lp4955
S':'
asbag49
(g70
g51
NtRp4956
(dp4957
g54
(dp4958
sg63
g4943
sg56
(lp4959
g49
(g50
g51
NtRp4960
(dp4961
g54
(dp4962
g62
I5
ssg63
g4956
sg56
(lp4963
g446
asbasbasbag49
(g65
g51
NtRp4964
(dp4965
g54
(dp4966
sg63
g3574
sg56
(lp4967
g49
(g70
g51
NtRp4968
(dp4969
g54
(dp4970
g74
g75
ssg63
g4964
sg56
(lp4971
S'session_id_name'
p4972
asbag49
(g70
g51
NtRp4973
(dp4974
g54
(dp4975
g81
g82
ssg63
g4964
sg56
(lp4976
S':'
asbag49
(g70
g51
NtRp4977
(dp4978
g54
(dp4979
sg63
g4964
sg56
(lp4980
g49
(g50
g51
NtRp4981
(dp4982
g54
(dp4983
g62
I5
ssg63
g4977
sg56
(lp4984
g3631
asbasbasbag49
(g65
g51
NtRp4985
(dp4986
g54
(dp4987
sg63
g3574
sg56
(lp4988
g49
(g70
g51
NtRp4989
(dp4990
g54
(dp4991
g74
g75
ssg63
g4985
sg56
(lp4992
S'session_locked'
p4993
asbag49
(g70
g51
NtRp4994
(dp4995
g54
(dp4996
g81
g82
ssg63
g4985
sg56
(lp4997
S':'
asbag49
(g70
g51
NtRp4998
(dp4999
g54
(dp5000
sg63
g4985
sg56
(lp5001
g49
(g50
g51
NtRp5002
(dp5003
g54
(dp5004
g62
I5
ssg63
g4998
sg56
(lp5005
g1699
asbasbasbag49
(g65
g51
NtRp5006
(dp5007
g54
(dp5008
sg63
g3574
sg56
(lp5009
g49
(g70
g51
NtRp5010
(dp5011
g54
(dp5012
g74
g75
ssg63
g5006
sg56
(lp5013
S'session_new'
p5014
asbag49
(g70
g51
NtRp5015
(dp5016
g54
(dp5017
g81
g82
ssg63
g5006
sg56
(lp5018
S':'
asbag49
(g70
g51
NtRp5019
(dp5020
g54
(dp5021
sg63
g5006
sg56
(lp5022
g49
(g50
g51
NtRp5023
(dp5024
g54
(dp5025
g62
I5
ssg63
g5019
sg56
(lp5026
g92
asbasbasbag49
(g65
g51
NtRp5027
(dp5028
g54
(dp5029
sg63
g3574
sg56
(lp5030
g49
(g70
g51
NtRp5031
(dp5032
g54
(dp5033
g74
g75
ssg63
g5027
sg56
(lp5034
S'session_storage_type'
p5035
asbag49
(g70
g51
NtRp5036
(dp5037
g54
(dp5038
g81
g82
ssg63
g5027
sg56
(lp5039
S':'
asbag49
(g70
g51
NtRp5040
(dp5041
g54
(dp5042
sg63
g5027
sg56
(lp5043
g49
(g50
g51
NtRp5044
(dp5045
g54
(dp5046
g62
I5
ssg63
g5040
sg56
(lp5047
g3130
asbasbasbag49
(g65
g51
NtRp5048
(dp5049
g54
(dp5050
sg63
g3574
sg56
(lp5051
g49
(g70
g51
NtRp5052
(dp5053
g54
(dp5054
g74
g75
ssg63
g5048
sg56
(lp5055
S'status'
p5056
asbag49
(g70
g51
NtRp5057
(dp5058
g54
(dp5059
g81
g82
ssg63
g5048
sg56
(lp5060
S':'
asbag49
(g70
g51
NtRp5061
(dp5062
g54
(dp5063
sg63
g5048
sg56
(lp5064
g49
(g50
g51
NtRp5065
(dp5066
g54
(dp5067
g62
I5
ssg63
g5061
sg56
(lp5068
S'200'
p5069
asbasbasbag49
(g65
g51
NtRp5070
(dp5071
g54
(dp5072
sg63
g3574
sg56
(lp5073
g49
(g70
g51
NtRp5074
(dp5075
g54
(dp5076
g74
g75
ssg63
g5070
sg56
(lp5077
S'subtitle'
p5078
asbag49
(g70
g51
NtRp5079
(dp5080
g54
(dp5081
g81
g82
ssg63
g5070
sg56
(lp5082
S':'
asbag49
(g70
g51
NtRp5083
(dp5084
g54
(dp5085
sg63
g5070
sg56
(lp5086
g49
(g50
g51
NtRp5087
(dp5088
g54
(dp5089
g62
I5
ssg63
g5083
sg56
(lp5090
g4032
(S's\r\x00\x00\x00customize me!'
tRp5091
asbasbasbag49
(g65
g51
NtRp5092
(dp5093
g54
(dp5094
sg63
g3574
sg56
(lp5095
g49
(g70
g51
NtRp5096
(dp5097
g54
(dp5098
g74
g75
ssg63
g5092
sg56
(lp5099
S'title'
p5100
asbag49
(g70
g51
NtRp5101
(dp5102
g54
(dp5103
g81
g82
ssg63
g5092
sg56
(lp5104
S':'
asbag49
(g70
g51
NtRp5105
(dp5106
g54
(dp5107
sg63
g5092
sg56
(lp5108
g49
(g50
g51
NtRp5109
(dp5110
g54
(dp5111
g62
I5
ssg63
g5105
sg56
(lp5112
S'Final Impulse'
p5113
asbasbasbag49
(g65
g51
NtRp5114
(dp5115
g54
(dp5116
sg63
g3574
sg56
(lp5117
g49
(g70
g51
NtRp5118
(dp5119
g54
(dp5120
g74
g75
ssg63
g5114
sg56
(lp5121
S'view'
p5122
asbag49
(g70
g51
NtRp5123
(dp5124
g54
(dp5125
g81
g82
ssg63
g5114
sg56
(lp5126
S':'
asbag49
(g70
g51
NtRp5127
(dp5128
g54
(dp5129
sg63
g5114
sg56
(lp5130
g49
(g50
g51
NtRp5131
(dp5132
g54
(dp5133
g62
I5
ssg63
g5127
sg56
(lp5134
S'default/show_video_comments.html'
p5135
asbasbasbasbasbsS'locals'
p5136
(dp5137
S'video_form'
p5138
S'<gluon.sqlhtml.SQLFORM object at 0x8dfbdd0>'
p5139
sssS'traceback'
p5140
S'Traceback (most recent call last):\n  File "gluon/restricted.py", line 212, in restricted\n  File "/Users/abaric/Downloads/web2py/web2py.app/Contents/Resources/applications/Final_Impulse/controllers/default.py", line 157, in <module>\n  File "gluon/globals.py", line 188, in <lambda>\n  File "/Users/abaric/Downloads/web2py/web2py.app/Contents/Resources/applications/Final_Impulse/controllers/default.py", line 85, in show_video_comments\nUnboundLocalError: local variable \'video\' referenced before assignment\n'
p5141
s.