(dp1
S'output'
p2
S"<type 'exceptions.SyntaxError'> invalid syntax (show_image_comments.html, line 89)"
p3
sS'layer'
p4
S'/Users/abaric/Downloads/web2py/web2py.app/Contents/Resources/applications/Final_Impulse/views/default/show_image_comments.html'
p5
sS'code'
p6
S'response.write(\'<!DOCTYPE html>\\n<!-- paulirish.com/2008/conditional-stylesheets-vs-css-hacks-answer-neither/ -->\\n<!--[if lt IE 7]><html class="ie ie6 ie-lte9 ie-lte8 ie-lte7 no-js" lang="\', escape=False)\nresponse.write(T.accepted_language or \'en\')\nresponse.write(\'"> <![endif]-->\\n<!--[if IE 7]><html class="ie ie7 ie-lte9 ie-lte8 ie-lte7 no-js" lang="\', escape=False)\nresponse.write(T.accepted_language or \'en\')\nresponse.write(\'"> <![endif]-->\\n<!--[if IE 8]><html class="ie ie8 ie-lte9 ie-lte8 no-js" lang="\', escape=False)\nresponse.write(T.accepted_language or \'en\')\nresponse.write(\'"> <![endif]-->\\n<!--[if IE 9]><html class="ie9 ie-lte9 no-js" lang="\', escape=False)\nresponse.write(T.accepted_language or \'en\')\nresponse.write(\'"> <![endif]-->\\n<!--[if (gt IE 9)|!(IE)]><!--> <html class="no-js" lang="\', escape=False)\nresponse.write(T.accepted_language or \'en\')\nresponse.write(\'"> <!--<![endif]-->\\n<head>\\n  <meta charset="utf-8" />\\n  <!-- www.phpied.com/conditional-comments-block-downloads/ -->\\n  <!-- Always force latest IE rendering engine\\n       (even in intranet) & Chrome Frame\\n       Remove this if you use the .htaccess -->\\n  <!--[if IE]>\\n      <meta http-equiv="X-UA-Compatible" content="IE=edge\', escape=False)\nresponse.write(not request.is_local and \',chrome=1\' or \'\')\nresponse.write(\'">\\n      <![endif]-->\\n\\n  <title>\', escape=False)\nresponse.write(response.title or request.application)\nresponse.write(\'</title>\\n\\n  <!-- http://dev.w3.org/html5/markup/meta.name.html -->\\n  <meta name="application-name" content="\', escape=False)\nresponse.write(request.application)\nresponse.write(\'" />\\n\\n  <!-- Speaking of Google, don\\\'t forget to set your site up:\\n       http://google.com/webmasters -->\\n  <meta name="google-site-verification" content="" />\\n\\n  <!--  Mobile Viewport Fix\\n        j.mp/mobileviewport & davidbcalhoun.com/2010/viewport-metatag\\n        device-width: Occupy full width of the screen in its current orientation\\n        initial-scale = 1.0 retains dimensions instead of zooming out if page height > device height\\n        user-scalable = yes allows the user to zoom in -->\\n  <meta name="viewport" content="width=device-width, initial-scale=1.0">\\n\\n  <link rel="shortcut icon" href="\', escape=False)\nresponse.write(URL(\'static\',\'images/favicon.ico\'))\nresponse.write(\'" type="image/x-icon">\\n  <link rel="apple-touch-icon" href="\', escape=False)\nresponse.write(URL(\'static\',\'images/favicon.png\'))\nresponse.write(\'">\\n\\n  <!-- All JavaScript at the bottom, except for Modernizr which enables\\n       HTML5 elements & feature detects -->\\n  <script src="\', escape=False)\nresponse.write(URL(\'static\',\'js/modernizr.custom.js\'))\nresponse.write(\'"></script>\\n\\n  <!-- include stylesheets -->\\n  \', escape=False)\nresponse.files.append(URL(\'static\',\'css/web2py.css\'))\nresponse.files.append(URL(\'static\',\'css/bootstrap.min.css\'))\nresponse.files.append(URL(\'static\',\'css/bootstrap-responsive.min.css\'))\nresponse.files.append(URL(\'static\',\'css/web2py_bootstrap.css\'))\nresponse.write(\'\\n\\n  \', escape=False)\nresponse.write(\'<script type="text/javascript"><!--\\n    // These variables are used by the web2py_ajax_init function in web2py_ajax.js (which is loaded below).\\n    var w2p_ajax_confirm_message = "\', escape=False)\nresponse.write(T(\'Are you sure you want to delete this object?\'))\nresponse.write(\'";\\n    var w2p_ajax_date_format = "\', escape=False)\nresponse.write(T(\'%Y-%m-%d\'))\nresponse.write(\'";\\n    var w2p_ajax_datetime_format = "\', escape=False)\nresponse.write(T(\'%Y-%m-%d %H:%M:%S\'))\nresponse.write(\'";\\n    //--></script>\\n\', escape=False)\nresponse.files.insert(0,URL(\'static\',\'js/jquery.js\'))\nresponse.files.insert(1,URL(\'static\',\'css/calendar.css\'))\nresponse.files.insert(2,URL(\'static\',\'js/calendar.js\'))\nresponse.files.insert(3,URL(\'static\',\'js/web2py.js\'))\nresponse.include_meta()\nresponse.include_files()\nresponse.write(\'\\n\', escape=False)\nresponse.write(\'\\n\\n  \', escape=False)\n# using sidebars need to know what sidebar you want to use\nleft_sidebar_enabled = globals().get(\'left_sidebar_enabled\',False)\nright_sidebar_enabled = globals().get(\'right_sidebar_enabled\',False)\nmiddle_columns = {0:\'span12\',1:\'span9\',2:\'span6\'}[\n(left_sidebar_enabled and 1 or 0)+(right_sidebar_enabled and 1 or 0)]\nresponse.write(\'\\n\\n  <!-- uncomment here to load jquery-ui\\n       <link rel="stylesheet" href="http://ajax.googleapis.com/ajax/libs/jqueryui/1.8.16/themes/base/jquery-ui.css" type="text/css" media="all" />\\n       <script src="http://ajax.googleapis.com/ajax/libs/jqueryui/1.8.16/jquery-ui.min.js" type="text/javascript"></script>\\n       uncomment to load jquery-ui //-->\\n  <noscript><link href="\', escape=False)\nresponse.write(URL(\'static\', \'css/web2py_bootstrap_nojs.css\'))\nresponse.write(\'" rel="stylesheet" type="text/css" /></noscript>\\n  \', escape=False)\nresponse.write(\'\\n</head>\\n\\n<body>\\n  <!-- Navbar ================================================== -->\\n  <div class="navbar navbar-inverse navbar-fixed-top">\\n    <div class="flash">\', escape=False)\nresponse.write(response.flash or \'\')\nresponse.write(\'</div>\\n    <div class="navbar-inner">\\n      <div class="container">\\n        <!-- the next tag is necessary for bootstrap menus, do not remove -->\\n        <button type="button" class="btn btn-navbar" data-toggle="collapse" data-target=".nav-collapse">\\n          <span class="icon-bar"></span>\\n          <span class="icon-bar"></span>\\n          <span class="icon-bar"></span>\\n        </button>\\n        <a class="brand" href="http://www.web2py.com/"><b>web<span>2</span>py</b>&trade;&nbsp;</a>\\n        <ul id="navbar" class="nav pull-right">\', escape=False)\nresponse.write(\'auth\' in globals() and auth.navbar(mode="dropdown") or \'\')\nresponse.write(\'</ul>\\n        <div class="nav-collapse">\\n          \', escape=False)\nis_mobile=request.user_agent().is_mobile\nresponse.write(\'\\n          \', escape=False)\nif response.menu:\n    response.write(\'\\n          \', escape=False)\n    response.write(MENU(response.menu, _class=\'mobile-menu nav\' if is_mobile else \'nav\',mobile=is_mobile,li_class=\'dropdown\',ul_class=\'dropdown-menu\'))\n    response.write(\'\\n          \', escape=False)\n    pass\nresponse.write(\'\\n        </div><!--/.nav-collapse -->\\n      </div>\\n    </div>\\n  </div><!--/top navbar -->\\n\\n  <div class="container">\\n    <!-- Masthead ================================================== -->\\n    <header class="mastheader row" id="header">\\n        <div class="span12">\\n            <div class="page-header">\\n                <h1>\\n                    \', escape=False)\nresponse.write(response.title or request.application)\nresponse.write(\'\\n                    <small>\', escape=False)\nresponse.write(response.subtitle or \'\')\nresponse.write(\'</small>\\n                </h1>\\n            </div>\\n        </div>\\n    </header>\\n\\n    <section id="main" class="main row">\\n        \', escape=False)\nif left_sidebar_enabled:\n    response.write(\'\\n        <div class="span3 left-sidebar">\\n            \', escape=False)\n    response.write(\'\\n            <h3>Left Sidebar</h3>\\n            <p></p>\\n            \', escape=False)\n    response.write(\'\\n        </div>\\n        \', escape=False)\n    pass\nresponse.write(\'\\n\\n        <div class="\', escape=False)\nresponse.write(middle_columns)\nresponse.write(\'">\\n            \', escape=False)\nresponse.write(\'\\n            \', escape=False)\nresponse.write(\'\\n\', escape=False)\nresponse.write(BEAUTIFY(request.vars))\nresponse.write(\'\\n\\n<h1>Da Image Posts</h1>\\n\\n<table>\\n    \', escape=False)\nfor image in images:\n    response.write(\'\\n   \\n    \\n\\t<tr>  \\n      <center>\\n          <td><img width="200px"\\n          \\t\\t\\tsrc="\', escape=False)\n    response.write(URL(\'download\', args=image.file))\n    response.write(\'"/></td>\\n      </center>\\n    </tr>    \\n    \\n        \', escape=False)\n    if len(d[image.id]):\n        response.write(\'\\n        <tr>\\n        <td>\\n        <table>\\n            \', escape=False)\n        for t in d[image.id]:\n            response.write(\'\\n                        <tr>\\n                        <center>\\n                            <td>\', escape=False)\n            response.write(("%s says, "%s"")%(t[0],t[1]))\n            response.write(\'</td>\\n                        </center> \\n                        </tr>\\n            \', escape=False)\n            pass\n        response.write(\'\\n    \\n        </table>\\n        </td>\\n        </tr>\\n\\n         \', escape=False)\n        pass\n    response.write(\'\\n    \', escape=False)\n    pass\nresponse.write(\' \\n    \\n</table>\\n\', escape=False)\nresponse.write(\'\\n            \', escape=False)\nresponse.write(\'\\n        </div>\\n\\n        \', escape=False)\nif right_sidebar_enabled:\n    response.write(\'\\n        <div class="span3">\\n            \', escape=False)\n    response.write(\'\\n            <h3>Right Sidebar</h3>\\n            <p></p>\\n            \', escape=False)\n    response.write(\'\\n        </div>\\n        \', escape=False)\n    pass\nresponse.write(\'\\n    </section><!--/main-->\\n\\n    <!-- Footer ================================================== -->\\n    <div class="row">\\n        <footer class="footer span12" id="footer">\\n            <div class="footer-content">\\n                \', escape=False)\nresponse.write(\' <!-- this is default footer -->\\n                <div class="copyright pull-left">\', escape=False)\nresponse.write(T(\'Copyright\'))\nresponse.write(\' &#169; \', escape=False)\nresponse.write(request.now.year)\nresponse.write(\'</div>\\n                <div id="poweredBy" class="pull-right">\\n                    \', escape=False)\nresponse.write(T(\'Powered by\'))\nresponse.write(\'\\n                    <a href="http://www.web2py.com/">web2py</a>\\n                </div>\\n                \', escape=False)\nresponse.write(\'\\n            </div>\\n        </footer>\\n    </div>\\n\\n  </div> <!-- /container -->\\n\\n  <!-- The javascript =============================================\\n       (Placed at the end of the document so the pages load faster) -->\\n  <script src="\', escape=False)\nresponse.write(URL(\'static\',\'js/bootstrap.min.js\'))\nresponse.write(\'"></script>\\n  <script src="\', escape=False)\nresponse.write(URL(\'static\',\'js/web2py_bootstrap.js\'))\nresponse.write(\'"></script>\\n  <!--[if lt IE 7 ]>\\n      <script src="\', escape=False)\nresponse.write(URL(\'static\',\'js/dd_belatedpng.js\'))\nresponse.write(\'"></script>\\n      <script> DD_belatedPNG.fix(\\\'img, .png_bg\\\'); //fix any <img> or .png_bg background-images </script>\\n      <![endif]-->\\n  \', escape=False)\nif response.google_analytics_id:\n    response.write(\'<script type="text/javascript"> var _gaq = _gaq || []; _gaq.push([\\\'_setAccount\\\', \\\'\', escape=False)\n    response.write(response.google_analytics_id)\n    response.write("\']); _gaq.push([\'_trackPageview\']); (function() { var ga = document.createElement(\'script\'); ga.type = \'text/javascript\'; ga.async = true; ga.src = (\'https:\' == document.location.protocol ? \'https://ssl\' : \'http://www\') + \'.google-analytics.com/ga.js\'; var s = document.getElementsByTagName(\'script\')[0]; s.parentNode.insertBefore(ga, s); })(); </script> ", escape=False)\n    pass\nresponse.write(\'\\n  <script src="\', escape=False)\nresponse.write(URL(\'static\',\'js/share.js\',vars=dict(static=URL(\'static\',\'images\'))))\nresponse.write(\'"></script>\\n</body>\\n</html>\\n\\n\', escape=False)'
p7
sS'snapshot'
p8
(dp9
S'exception'
p10
(dp11
S'__getslice__'
p12
S"<method-wrapper '__getslice__' of exceptions.SyntaxError object at 0x76721b0>"
p13
sS'text'
p14
S'\'            response.write(("%s says, "%s"")%(t[0],t[1]))\\n\''
p15
sS'__str__'
p16
S"<method-wrapper '__str__' of exceptions.SyntaxError object at 0x76721b0>"
p17
sS'__reduce__'
p18
S'<built-in method __reduce__ of exceptions.SyntaxError object at 0x76721b0>'
p19
sS'__dict__'
p20
S'{}'
p21
sS'__init__'
p22
S"<method-wrapper '__init__' of exceptions.SyntaxError object at 0x76721b0>"
p23
sS'__setattr__'
p24
S"<method-wrapper '__setattr__' of exceptions.SyntaxError object at 0x76721b0>"
p25
sS'__reduce_ex__'
p26
S'<built-in method __reduce_ex__ of exceptions.SyntaxError object at 0x76721b0>'
p27
sS'__new__'
p28
S'<built-in method __new__ of type object at 0x5f9320>'
p29
sS'__class__'
p30
S"<type 'exceptions.SyntaxError'>"
p31
sS'filename'
p32
S"'/Users/abaric/Downloads/web2py/web2py.app/Conten...al_Impulse/views/default/show_image_comments.html'"
p33
sS'lineno'
p34
S'89'
p35
sS'msg'
p36
S"'invalid syntax'"
p37
sS'__doc__'
p38
S"'Invalid syntax.'"
p39
sS'__getitem__'
p40
S"<method-wrapper '__getitem__' of exceptions.SyntaxError object at 0x76721b0>"
p41
sS'__setstate__'
p42
S'<built-in method __setstate__ of exceptions.SyntaxError object at 0x76721b0>'
p43
sS'__getattribute__'
p44
S"<method-wrapper '__getattribute__' of exceptions.SyntaxError object at 0x76721b0>"
p45
sS'print_file_and_line'
p46
S'None'
p47
sS'args'
p48
S'(\'invalid syntax\', (\'/Users/abaric/Downloads/web2py/web2py.app/Conten...al_Impulse/views/default/show_image_comments.html\', 89, 43, \'            response.write(("%s says, "%s"")%(t[0],t[1]))\\n\'))'
p49
sS'offset'
p50
S'43'
p51
sS'__delattr__'
p52
S"<method-wrapper '__delattr__' of exceptions.SyntaxError object at 0x76721b0>"
p53
sS'__repr__'
p54
S"<method-wrapper '__repr__' of exceptions.SyntaxError object at 0x76721b0>"
p55
sS'__hash__'
p56
S"<method-wrapper '__hash__' of exceptions.SyntaxError object at 0x76721b0>"
p57
ssS'evalue'
p58
S'invalid syntax (show_image_comments.html, line 89)'
p59
sS'request'
p60
ccopy_reg
_reconstructor
p61
(cgluon.html
BEAUTIFY
p62
c__builtin__
object
p63
NtRp64
(dp65
S'attributes'
p66
(dp67
sS'components'
p68
(lp69
g61
(cgluon.html
TABLE
p70
g63
NtRp71
(dp72
g66
(dp73
S'level'
p74
I5
ssS'parent'
p75
Nsg68
(lp76
g61
(cgluon.html
TR
p77
g63
NtRp78
(dp79
g66
(dp80
sg75
g71
sg68
(lp81
g61
(cgluon.html
TD
p82
g63
NtRp83
(dp84
g66
(dp85
S'_style'
p86
S'font-weight:bold;vertical-align:top'
p87
ssg75
g78
sg68
(lp88
S'ajax'
p89
asbag61
(g82
g63
NtRp90
(dp91
g66
(dp92
S'_valign'
p93
S'top'
p94
ssg75
g78
sg68
(lp95
S':'
asbag61
(g82
g63
NtRp96
(dp97
g66
(dp98
sg75
g78
sg68
(lp99
g61
(g62
g63
NtRp100
(dp101
g66
(dp102
g74
I5
ssg75
g96
sg68
(lp103
S'False'
p104
asbasbasbag61
(g77
g63
NtRp105
(dp106
g66
(dp107
sg75
g71
sg68
(lp108
g61
(g82
g63
NtRp109
(dp110
g66
(dp111
g86
g87
ssg75
g105
sg68
(lp112
S'application'
p113
asbag61
(g82
g63
NtRp114
(dp115
g66
(dp116
g93
g94
ssg75
g105
sg68
(lp117
S':'
asbag61
(g82
g63
NtRp118
(dp119
g66
(dp120
sg75
g105
sg68
(lp121
g61
(g62
g63
NtRp122
(dp123
g66
(dp124
g74
I5
ssg75
g118
sg68
(lp125
S'Final_Impulse'
p126
asbasbasbag61
(g77
g63
NtRp127
(dp128
g66
(dp129
sg75
g71
sg68
(lp130
g61
(g82
g63
NtRp131
(dp132
g66
(dp133
g86
g87
ssg75
g127
sg68
(lp134
g48
asbag61
(g82
g63
NtRp135
(dp136
g66
(dp137
g93
g94
ssg75
g127
sg68
(lp138
S':'
asbag61
(g82
g63
NtRp139
(dp140
g66
(dp141
sg75
g127
sg68
(lp142
g61
(g62
g63
NtRp143
(dp144
g66
(dp145
g74
I5
ssg75
g139
sg68
(lp146
g61
(g70
g63
NtRp147
(dp148
g66
(dp149
g74
I4
ssg75
Nsg68
(lp150
sbasbasbasbag61
(g77
g63
NtRp151
(dp152
g66
(dp153
sg75
g71
sg68
(lp154
g61
(g82
g63
NtRp155
(dp156
g66
(dp157
g86
g87
ssg75
g151
sg68
(lp158
S'body'
p159
asbag61
(g82
g63
NtRp160
(dp161
g66
(dp162
g93
g94
ssg75
g151
sg68
(lp163
S':'
asbag61
(g82
g63
NtRp164
(dp165
g66
(dp166
sg75
g151
sg68
(lp167
g61
(g62
g63
NtRp168
(dp169
g66
(dp170
g74
I5
ssg75
g164
sg68
(lp171
S'<cStringIO.StringO object at 0x8beb220>'
p172
asbasbasbag61
(g77
g63
NtRp173
(dp174
g66
(dp175
sg75
g71
sg68
(lp176
g61
(g82
g63
NtRp177
(dp178
g66
(dp179
g86
g87
ssg75
g173
sg68
(lp180
S'cid'
p181
asbag61
(g82
g63
NtRp182
(dp183
g66
(dp184
g93
g94
ssg75
g173
sg68
(lp185
S':'
asbag61
(g82
g63
NtRp186
(dp187
g66
(dp188
sg75
g173
sg68
(lp189
g61
(g62
g63
NtRp190
(dp191
g66
(dp192
g74
I5
ssg75
g186
sg68
(lp193
S'None'
p194
asbasbasbag61
(g77
g63
NtRp195
(dp196
g66
(dp197
sg75
g71
sg68
(lp198
g61
(g82
g63
NtRp199
(dp200
g66
(dp201
g86
g87
ssg75
g195
sg68
(lp202
S'client'
p203
asbag61
(g82
g63
NtRp204
(dp205
g66
(dp206
g93
g94
ssg75
g195
sg68
(lp207
S':'
asbag61
(g82
g63
NtRp208
(dp209
g66
(dp210
sg75
g195
sg68
(lp211
g61
(g62
g63
NtRp212
(dp213
g66
(dp214
g74
I5
ssg75
g208
sg68
(lp215
S'127.0.0.1'
p216
asbasbasbag61
(g77
g63
NtRp217
(dp218
g66
(dp219
sg75
g71
sg68
(lp220
g61
(g82
g63
NtRp221
(dp222
g66
(dp223
g86
g87
ssg75
g217
sg68
(lp224
S'controller'
p225
asbag61
(g82
g63
NtRp226
(dp227
g66
(dp228
g93
g94
ssg75
g217
sg68
(lp229
S':'
asbag61
(g82
g63
NtRp230
(dp231
g66
(dp232
sg75
g217
sg68
(lp233
g61
(g62
g63
NtRp234
(dp235
g66
(dp236
g74
I5
ssg75
g230
sg68
(lp237
S'default'
p238
asbasbasbag61
(g77
g63
NtRp239
(dp240
g66
(dp241
sg75
g71
sg68
(lp242
g61
(g82
g63
NtRp243
(dp244
g66
(dp245
g86
g87
ssg75
g239
sg68
(lp246
S'cookies'
p247
asbag61
(g82
g63
NtRp248
(dp249
g66
(dp250
g93
g94
ssg75
g239
sg68
(lp251
S':'
asbag61
(g82
g63
NtRp252
(dp253
g66
(dp254
sg75
g239
sg68
(lp255
g61
(g62
g63
NtRp256
(dp257
g66
(dp258
g74
I5
ssg75
g252
sg68
(lp259
g61
(g70
g63
NtRp260
(dp261
g66
(dp262
g74
I4
ssg75
Nsg68
(lp263
g61
(g77
g63
NtRp264
(dp265
g66
(dp266
sg75
g260
sg68
(lp267
g61
(g82
g63
NtRp268
(dp269
g66
(dp270
g86
g87
ssg75
g264
sg68
(lp271
S'session_id_admin'
p272
asbag61
(g82
g63
NtRp273
(dp274
g66
(dp275
g93
g94
ssg75
g264
sg68
(lp276
S':'
asbag61
(g82
g63
NtRp277
(dp278
g66
(dp279
sg75
g264
sg68
(lp280
g61
(g62
g63
NtRp281
(dp282
g66
(dp283
g74
I4
ssg75
g277
sg68
(lp284
S'127.0.0.1-0d99ae75-2c72-4f7d-a978-b2d8d72b42ba'
p285
ag61
(g70
g63
NtRp286
(dp287
g66
(dp288
g74
I3
ssg75
Nsg68
(lp289
g61
(g77
g63
NtRp290
(dp291
g66
(dp292
sg75
g286
sg68
(lp293
g61
(g82
g63
NtRp294
(dp295
g66
(dp296
g86
g87
ssg75
g290
sg68
(lp297
S'comment'
p298
asbag61
(g82
g63
NtRp299
(dp300
g66
(dp301
g93
g94
ssg75
g290
sg68
(lp302
S':'
asbag61
(g82
g63
NtRp303
(dp304
g66
(dp305
sg75
g290
sg68
(lp306
g61
(g62
g63
NtRp307
(dp308
g66
(dp309
g74
I3
ssg75
g303
sg68
(lp310
S''
asbasbasbag61
(g77
g63
NtRp311
(dp312
g66
(dp313
sg75
g286
sg68
(lp314
g61
(g82
g63
NtRp315
(dp316
g66
(dp317
g86
g87
ssg75
g311
sg68
(lp318
S'domain'
p319
asbag61
(g82
g63
NtRp320
(dp321
g66
(dp322
g93
g94
ssg75
g311
sg68
(lp323
S':'
asbag61
(g82
g63
NtRp324
(dp325
g66
(dp326
sg75
g311
sg68
(lp327
g61
(g62
g63
NtRp328
(dp329
g66
(dp330
g74
I3
ssg75
g324
sg68
(lp331
S''
asbasbasbag61
(g77
g63
NtRp332
(dp333
g66
(dp334
sg75
g286
sg68
(lp335
g61
(g82
g63
NtRp336
(dp337
g66
(dp338
g86
g87
ssg75
g332
sg68
(lp339
S'expires'
p340
asbag61
(g82
g63
NtRp341
(dp342
g66
(dp343
g93
g94
ssg75
g332
sg68
(lp344
S':'
asbag61
(g82
g63
NtRp345
(dp346
g66
(dp347
sg75
g332
sg68
(lp348
g61
(g62
g63
NtRp349
(dp350
g66
(dp351
g74
I3
ssg75
g345
sg68
(lp352
S''
asbasbasbag61
(g77
g63
NtRp353
(dp354
g66
(dp355
sg75
g286
sg68
(lp356
g61
(g82
g63
NtRp357
(dp358
g66
(dp359
g86
g87
ssg75
g353
sg68
(lp360
S'max-age'
p361
asbag61
(g82
g63
NtRp362
(dp363
g66
(dp364
g93
g94
ssg75
g353
sg68
(lp365
S':'
asbag61
(g82
g63
NtRp366
(dp367
g66
(dp368
sg75
g353
sg68
(lp369
g61
(g62
g63
NtRp370
(dp371
g66
(dp372
g74
I3
ssg75
g366
sg68
(lp373
S''
asbasbasbag61
(g77
g63
NtRp374
(dp375
g66
(dp376
sg75
g286
sg68
(lp377
g61
(g82
g63
NtRp378
(dp379
g66
(dp380
g86
g87
ssg75
g374
sg68
(lp381
S'path'
p382
asbag61
(g82
g63
NtRp383
(dp384
g66
(dp385
g93
g94
ssg75
g374
sg68
(lp386
S':'
asbag61
(g82
g63
NtRp387
(dp388
g66
(dp389
sg75
g374
sg68
(lp390
g61
(g62
g63
NtRp391
(dp392
g66
(dp393
g74
I3
ssg75
g387
sg68
(lp394
S''
asbasbasbag61
(g77
g63
NtRp395
(dp396
g66
(dp397
sg75
g286
sg68
(lp398
g61
(g82
g63
NtRp399
(dp400
g66
(dp401
g86
g87
ssg75
g395
sg68
(lp402
S'secure'
p403
asbag61
(g82
g63
NtRp404
(dp405
g66
(dp406
g93
g94
ssg75
g395
sg68
(lp407
S':'
asbag61
(g82
g63
NtRp408
(dp409
g66
(dp410
sg75
g395
sg68
(lp411
g61
(g62
g63
NtRp412
(dp413
g66
(dp414
g74
I3
ssg75
g408
sg68
(lp415
S''
asbasbasbag61
(g77
g63
NtRp416
(dp417
g66
(dp418
sg75
g286
sg68
(lp419
g61
(g82
g63
NtRp420
(dp421
g66
(dp422
g86
g87
ssg75
g416
sg68
(lp423
S'version'
p424
asbag61
(g82
g63
NtRp425
(dp426
g66
(dp427
g93
g94
ssg75
g416
sg68
(lp428
S':'
asbag61
(g82
g63
NtRp429
(dp430
g66
(dp431
sg75
g416
sg68
(lp432
g61
(g62
g63
NtRp433
(dp434
g66
(dp435
g74
I3
ssg75
g429
sg68
(lp436
S''
asbasbasbasbasbasbasbag61
(g77
g63
NtRp437
(dp438
g66
(dp439
sg75
g260
sg68
(lp440
g61
(g82
g63
NtRp441
(dp442
g66
(dp443
g86
g87
ssg75
g437
sg68
(lp444
S'session_id_final_impulse'
p445
asbag61
(g82
g63
NtRp446
(dp447
g66
(dp448
g93
g94
ssg75
g437
sg68
(lp449
S':'
asbag61
(g82
g63
NtRp450
(dp451
g66
(dp452
sg75
g437
sg68
(lp453
g61
(g62
g63
NtRp454
(dp455
g66
(dp456
g74
I4
ssg75
g450
sg68
(lp457
S'127.0.0.1-0d5885c8-812a-4164-8aff-e1a4f026de9a'
p458
ag61
(g70
g63
NtRp459
(dp460
g66
(dp461
g74
I3
ssg75
Nsg68
(lp462
g61
(g77
g63
NtRp463
(dp464
g66
(dp465
sg75
g459
sg68
(lp466
g61
(g82
g63
NtRp467
(dp468
g66
(dp469
g86
g87
ssg75
g463
sg68
(lp470
g298
asbag61
(g82
g63
NtRp471
(dp472
g66
(dp473
g93
g94
ssg75
g463
sg68
(lp474
S':'
asbag61
(g82
g63
NtRp475
(dp476
g66
(dp477
sg75
g463
sg68
(lp478
g61
(g62
g63
NtRp479
(dp480
g66
(dp481
g74
I3
ssg75
g475
sg68
(lp482
S''
asbasbasbag61
(g77
g63
NtRp483
(dp484
g66
(dp485
sg75
g459
sg68
(lp486
g61
(g82
g63
NtRp487
(dp488
g66
(dp489
g86
g87
ssg75
g483
sg68
(lp490
g319
asbag61
(g82
g63
NtRp491
(dp492
g66
(dp493
g93
g94
ssg75
g483
sg68
(lp494
S':'
asbag61
(g82
g63
NtRp495
(dp496
g66
(dp497
sg75
g483
sg68
(lp498
g61
(g62
g63
NtRp499
(dp500
g66
(dp501
g74
I3
ssg75
g495
sg68
(lp502
S''
asbasbasbag61
(g77
g63
NtRp503
(dp504
g66
(dp505
sg75
g459
sg68
(lp506
g61
(g82
g63
NtRp507
(dp508
g66
(dp509
g86
g87
ssg75
g503
sg68
(lp510
g340
asbag61
(g82
g63
NtRp511
(dp512
g66
(dp513
g93
g94
ssg75
g503
sg68
(lp514
S':'
asbag61
(g82
g63
NtRp515
(dp516
g66
(dp517
sg75
g503
sg68
(lp518
g61
(g62
g63
NtRp519
(dp520
g66
(dp521
g74
I3
ssg75
g515
sg68
(lp522
S''
asbasbasbag61
(g77
g63
NtRp523
(dp524
g66
(dp525
sg75
g459
sg68
(lp526
g61
(g82
g63
NtRp527
(dp528
g66
(dp529
g86
g87
ssg75
g523
sg68
(lp530
g361
asbag61
(g82
g63
NtRp531
(dp532
g66
(dp533
g93
g94
ssg75
g523
sg68
(lp534
S':'
asbag61
(g82
g63
NtRp535
(dp536
g66
(dp537
sg75
g523
sg68
(lp538
g61
(g62
g63
NtRp539
(dp540
g66
(dp541
g74
I3
ssg75
g535
sg68
(lp542
S''
asbasbasbag61
(g77
g63
NtRp543
(dp544
g66
(dp545
sg75
g459
sg68
(lp546
g61
(g82
g63
NtRp547
(dp548
g66
(dp549
g86
g87
ssg75
g543
sg68
(lp550
g382
asbag61
(g82
g63
NtRp551
(dp552
g66
(dp553
g93
g94
ssg75
g543
sg68
(lp554
S':'
asbag61
(g82
g63
NtRp555
(dp556
g66
(dp557
sg75
g543
sg68
(lp558
g61
(g62
g63
NtRp559
(dp560
g66
(dp561
g74
I3
ssg75
g555
sg68
(lp562
S''
asbasbasbag61
(g77
g63
NtRp563
(dp564
g66
(dp565
sg75
g459
sg68
(lp566
g61
(g82
g63
NtRp567
(dp568
g66
(dp569
g86
g87
ssg75
g563
sg68
(lp570
g403
asbag61
(g82
g63
NtRp571
(dp572
g66
(dp573
g93
g94
ssg75
g563
sg68
(lp574
S':'
asbag61
(g82
g63
NtRp575
(dp576
g66
(dp577
sg75
g563
sg68
(lp578
g61
(g62
g63
NtRp579
(dp580
g66
(dp581
g74
I3
ssg75
g575
sg68
(lp582
S''
asbasbasbag61
(g77
g63
NtRp583
(dp584
g66
(dp585
sg75
g459
sg68
(lp586
g61
(g82
g63
NtRp587
(dp588
g66
(dp589
g86
g87
ssg75
g583
sg68
(lp590
g424
asbag61
(g82
g63
NtRp591
(dp592
g66
(dp593
g93
g94
ssg75
g583
sg68
(lp594
S':'
asbag61
(g82
g63
NtRp595
(dp596
g66
(dp597
sg75
g583
sg68
(lp598
g61
(g62
g63
NtRp599
(dp600
g66
(dp601
g74
I3
ssg75
g595
sg68
(lp602
S''
asbasbasbasbasbasbasbag61
(g77
g63
NtRp603
(dp604
g66
(dp605
sg75
g260
sg68
(lp606
g61
(g82
g63
NtRp607
(dp608
g66
(dp609
g86
g87
ssg75
g603
sg68
(lp610
S'session_id_welcome'
p611
asbag61
(g82
g63
NtRp612
(dp613
g66
(dp614
g93
g94
ssg75
g603
sg68
(lp615
S':'
asbag61
(g82
g63
NtRp616
(dp617
g66
(dp618
sg75
g603
sg68
(lp619
g61
(g62
g63
NtRp620
(dp621
g66
(dp622
g74
I4
ssg75
g616
sg68
(lp623
S'127.0.0.1-8b5418cb-68e2-4e27-8e5b-1936fe080ad8'
p624
ag61
(g70
g63
NtRp625
(dp626
g66
(dp627
g74
I3
ssg75
Nsg68
(lp628
g61
(g77
g63
NtRp629
(dp630
g66
(dp631
sg75
g625
sg68
(lp632
g61
(g82
g63
NtRp633
(dp634
g66
(dp635
g86
g87
ssg75
g629
sg68
(lp636
g298
asbag61
(g82
g63
NtRp637
(dp638
g66
(dp639
g93
g94
ssg75
g629
sg68
(lp640
S':'
asbag61
(g82
g63
NtRp641
(dp642
g66
(dp643
sg75
g629
sg68
(lp644
g61
(g62
g63
NtRp645
(dp646
g66
(dp647
g74
I3
ssg75
g641
sg68
(lp648
S''
asbasbasbag61
(g77
g63
NtRp649
(dp650
g66
(dp651
sg75
g625
sg68
(lp652
g61
(g82
g63
NtRp653
(dp654
g66
(dp655
g86
g87
ssg75
g649
sg68
(lp656
g319
asbag61
(g82
g63
NtRp657
(dp658
g66
(dp659
g93
g94
ssg75
g649
sg68
(lp660
S':'
asbag61
(g82
g63
NtRp661
(dp662
g66
(dp663
sg75
g649
sg68
(lp664
g61
(g62
g63
NtRp665
(dp666
g66
(dp667
g74
I3
ssg75
g661
sg68
(lp668
S''
asbasbasbag61
(g77
g63
NtRp669
(dp670
g66
(dp671
sg75
g625
sg68
(lp672
g61
(g82
g63
NtRp673
(dp674
g66
(dp675
g86
g87
ssg75
g669
sg68
(lp676
g340
asbag61
(g82
g63
NtRp677
(dp678
g66
(dp679
g93
g94
ssg75
g669
sg68
(lp680
S':'
asbag61
(g82
g63
NtRp681
(dp682
g66
(dp683
sg75
g669
sg68
(lp684
g61
(g62
g63
NtRp685
(dp686
g66
(dp687
g74
I3
ssg75
g681
sg68
(lp688
S''
asbasbasbag61
(g77
g63
NtRp689
(dp690
g66
(dp691
sg75
g625
sg68
(lp692
g61
(g82
g63
NtRp693
(dp694
g66
(dp695
g86
g87
ssg75
g689
sg68
(lp696
g361
asbag61
(g82
g63
NtRp697
(dp698
g66
(dp699
g93
g94
ssg75
g689
sg68
(lp700
S':'
asbag61
(g82
g63
NtRp701
(dp702
g66
(dp703
sg75
g689
sg68
(lp704
g61
(g62
g63
NtRp705
(dp706
g66
(dp707
g74
I3
ssg75
g701
sg68
(lp708
S''
asbasbasbag61
(g77
g63
NtRp709
(dp710
g66
(dp711
sg75
g625
sg68
(lp712
g61
(g82
g63
NtRp713
(dp714
g66
(dp715
g86
g87
ssg75
g709
sg68
(lp716
g382
asbag61
(g82
g63
NtRp717
(dp718
g66
(dp719
g93
g94
ssg75
g709
sg68
(lp720
S':'
asbag61
(g82
g63
NtRp721
(dp722
g66
(dp723
sg75
g709
sg68
(lp724
g61
(g62
g63
NtRp725
(dp726
g66
(dp727
g74
I3
ssg75
g721
sg68
(lp728
S''
asbasbasbag61
(g77
g63
NtRp729
(dp730
g66
(dp731
sg75
g625
sg68
(lp732
g61
(g82
g63
NtRp733
(dp734
g66
(dp735
g86
g87
ssg75
g729
sg68
(lp736
g403
asbag61
(g82
g63
NtRp737
(dp738
g66
(dp739
g93
g94
ssg75
g729
sg68
(lp740
S':'
asbag61
(g82
g63
NtRp741
(dp742
g66
(dp743
sg75
g729
sg68
(lp744
g61
(g62
g63
NtRp745
(dp746
g66
(dp747
g74
I3
ssg75
g741
sg68
(lp748
S''
asbasbasbag61
(g77
g63
NtRp749
(dp750
g66
(dp751
sg75
g625
sg68
(lp752
g61
(g82
g63
NtRp753
(dp754
g66
(dp755
g86
g87
ssg75
g749
sg68
(lp756
g424
asbag61
(g82
g63
NtRp757
(dp758
g66
(dp759
g93
g94
ssg75
g749
sg68
(lp760
S':'
asbag61
(g82
g63
NtRp761
(dp762
g66
(dp763
sg75
g749
sg68
(lp764
g61
(g62
g63
NtRp765
(dp766
g66
(dp767
g74
I3
ssg75
g761
sg68
(lp768
S''
asbasbasbasbasbasbasbasbasbasbasbag61
(g77
g63
NtRp769
(dp770
g66
(dp771
sg75
g71
sg68
(lp772
g61
(g82
g63
NtRp773
(dp774
g66
(dp775
g86
g87
ssg75
g769
sg68
(lp776
S'env'
p777
asbag61
(g82
g63
NtRp778
(dp779
g66
(dp780
g93
g94
ssg75
g769
sg68
(lp781
S':'
asbag61
(g82
g63
NtRp782
(dp783
g66
(dp784
sg75
g769
sg68
(lp785
g61
(g62
g63
NtRp786
(dp787
g66
(dp788
g74
I5
ssg75
g782
sg68
(lp789
g61
(g70
g63
NtRp790
(dp791
g66
(dp792
g74
I4
ssg75
Nsg68
(lp793
g61
(g77
g63
NtRp794
(dp795
g66
(dp796
sg75
g790
sg68
(lp797
g61
(g82
g63
NtRp798
(dp799
g66
(dp800
g86
g87
ssg75
g794
sg68
(lp801
S'app_folders'
p802
asbag61
(g82
g63
NtRp803
(dp804
g66
(dp805
g93
g94
ssg75
g794
sg68
(lp806
S':'
asbag61
(g82
g63
NtRp807
(dp808
g66
(dp809
sg75
g794
sg68
(lp810
g61
(g62
g63
NtRp811
(dp812
g66
(dp813
g74
I4
ssg75
g807
sg68
(lp814
S"set(['/Users/abaric/Downloads/web2py/web2py.app/Contents/Resources/applications/Final_Impulse/', '/Users/abaric/Downloads/web2py/web2py.app/Contents/Resources/applications/welcome/', '/Users/abaric/Downloads/web2py/web2py.app/Contents/Resources/applications/admin/'])"
p815
asbasbasbag61
(g77
g63
NtRp816
(dp817
g66
(dp818
sg75
g790
sg68
(lp819
g61
(g82
g63
NtRp820
(dp821
g66
(dp822
g86
g87
ssg75
g816
sg68
(lp823
S'applications_parent'
p824
asbag61
(g82
g63
NtRp825
(dp826
g66
(dp827
g93
g94
ssg75
g816
sg68
(lp828
S':'
asbag61
(g82
g63
NtRp829
(dp830
g66
(dp831
sg75
g816
sg68
(lp832
g61
(g62
g63
NtRp833
(dp834
g66
(dp835
g74
I4
ssg75
g829
sg68
(lp836
S'/Users/abaric/Downloads/web2py/web2py.app/Contents/Resources'
p837
asbasbasbag61
(g77
g63
NtRp838
(dp839
g66
(dp840
sg75
g790
sg68
(lp841
g61
(g82
g63
NtRp842
(dp843
g66
(dp844
g86
g87
ssg75
g838
sg68
(lp845
S'cmd_args'
p846
asbag61
(g82
g63
NtRp847
(dp848
g66
(dp849
g93
g94
ssg75
g838
sg68
(lp850
S':'
asbag61
(g82
g63
NtRp851
(dp852
g66
(dp853
sg75
g838
sg68
(lp854
g61
(g62
g63
NtRp855
(dp856
g66
(dp857
g74
I4
ssg75
g851
sg68
(lp858
g61
(g70
g63
NtRp859
(dp860
g66
(dp861
g74
I3
ssg75
Nsg68
(lp862
sbasbasbasbag61
(g77
g63
NtRp863
(dp864
g66
(dp865
sg75
g790
sg68
(lp866
g61
(g82
g63
NtRp867
(dp868
g66
(dp869
g86
g87
ssg75
g863
sg68
(lp870
S'cmd_options'
p871
asbag61
(g82
g63
NtRp872
(dp873
g66
(dp874
g93
g94
ssg75
g863
sg68
(lp875
S':'
asbag61
(g82
g63
NtRp876
(dp877
g66
(dp878
sg75
g863
sg68
(lp879
g61
(g62
g63
NtRp880
(dp881
g66
(dp882
g74
I4
ssg75
g876
sg68
(lp883
S"<Values at 0x442e238: {'verbose': False, 'ip': '127.0.0.1', 'with_scheduler': False, 'ips': ['192.168.1.5'], 'shutdown_timeout': 5, 'taskbar': False, 'port': 8000, 'maxthreads': None, 'softcron': False, 'server_name': 'new-host.home', 'bpython': False, 'nogui': False, 'pid_filename': 'httpserver.pid', 'extcron': False, 'runcron': False, 'run_system_tests': False, 'test': None, 'folder': '/Users/abaric/Downloads/web2py/web2py.app/Contents/Resources', 'config': '', 'import_models': False, 'winservice': '', 'shell': None, 'run': '', 'log_filename': 'httpserver.log', 'debuglevel': 30, 'args': [''], 'socket_timeout': 5, 'ssl_ca_certificate': None, 'scheduler': None, 'profiler_filename': None, 'ssl_private_key': '', 'scheduler_groups': None, 'password': '<ask>', 'request_queue_size': 5, 'ssl_certificate': '', 'cronjob': False, 'numthreads': None, 'quiet': False, 'interfaces': None, 'minthreads': None, 'timeout': 10, 'plain': False, 'nobanner': False}>"
p884
asbasbasbag61
(g77
g63
NtRp885
(dp886
g66
(dp887
sg75
g790
sg68
(lp888
g61
(g82
g63
NtRp889
(dp890
g66
(dp891
g86
g87
ssg75
g885
sg68
(lp892
S'db_sessions'
p893
asbag61
(g82
g63
NtRp894
(dp895
g66
(dp896
g93
g94
ssg75
g885
sg68
(lp897
S':'
asbag61
(g82
g63
NtRp898
(dp899
g66
(dp900
sg75
g885
sg68
(lp901
g61
(g62
g63
NtRp902
(dp903
g66
(dp904
g74
I4
ssg75
g898
sg68
(lp905
S'set([])'
p906
asbasbasbag61
(g77
g63
NtRp907
(dp908
g66
(dp909
sg75
g790
sg68
(lp910
g61
(g82
g63
NtRp911
(dp912
g66
(dp913
g86
g87
ssg75
g907
sg68
(lp914
S'debugging'
p915
asbag61
(g82
g63
NtRp916
(dp917
g66
(dp918
g93
g94
ssg75
g907
sg68
(lp919
S':'
asbag61
(g82
g63
NtRp920
(dp921
g66
(dp922
sg75
g907
sg68
(lp923
g61
(g62
g63
NtRp924
(dp925
g66
(dp926
g74
I4
ssg75
g920
sg68
(lp927
g104
asbasbasbag61
(g77
g63
NtRp928
(dp929
g66
(dp930
sg75
g790
sg68
(lp931
g61
(g82
g63
NtRp932
(dp933
g66
(dp934
g86
g87
ssg75
g928
sg68
(lp935
S'gluon_parent'
p936
asbag61
(g82
g63
NtRp937
(dp938
g66
(dp939
g93
g94
ssg75
g928
sg68
(lp940
S':'
asbag61
(g82
g63
NtRp941
(dp942
g66
(dp943
sg75
g928
sg68
(lp944
g61
(g62
g63
NtRp945
(dp946
g66
(dp947
g74
I4
ssg75
g941
sg68
(lp948
S'/Users/abaric/Downloads/web2py/web2py.app/Contents/Resources'
p949
asbasbasbag61
(g77
g63
NtRp950
(dp951
g66
(dp952
sg75
g790
sg68
(lp953
g61
(g82
g63
NtRp954
(dp955
g66
(dp956
g86
g87
ssg75
g950
sg68
(lp957
S'http_accept'
p958
asbag61
(g82
g63
NtRp959
(dp960
g66
(dp961
g93
g94
ssg75
g950
sg68
(lp962
S':'
asbag61
(g82
g63
NtRp963
(dp964
g66
(dp965
sg75
g950
sg68
(lp966
g61
(g62
g63
NtRp967
(dp968
g66
(dp969
g74
I4
ssg75
g963
sg68
(lp970
S'text/html,application/xhtml+xml,application/xml;q=0.9,*/*;q=0.8'
p971
asbasbasbag61
(g77
g63
NtRp972
(dp973
g66
(dp974
sg75
g790
sg68
(lp975
g61
(g82
g63
NtRp976
(dp977
g66
(dp978
g86
g87
ssg75
g972
sg68
(lp979
S'http_accept_encoding'
p980
asbag61
(g82
g63
NtRp981
(dp982
g66
(dp983
g93
g94
ssg75
g972
sg68
(lp984
S':'
asbag61
(g82
g63
NtRp985
(dp986
g66
(dp987
sg75
g972
sg68
(lp988
g61
(g62
g63
NtRp989
(dp990
g66
(dp991
g74
I4
ssg75
g985
sg68
(lp992
S'gzip, deflate'
p993
asbasbasbag61
(g77
g63
NtRp994
(dp995
g66
(dp996
sg75
g790
sg68
(lp997
g61
(g82
g63
NtRp998
(dp999
g66
(dp1000
g86
g87
ssg75
g994
sg68
(lp1001
S'http_accept_language'
p1002
asbag61
(g82
g63
NtRp1003
(dp1004
g66
(dp1005
g93
g94
ssg75
g994
sg68
(lp1006
S':'
asbag61
(g82
g63
NtRp1007
(dp1008
g66
(dp1009
sg75
g994
sg68
(lp1010
g61
(g62
g63
NtRp1011
(dp1012
g66
(dp1013
g74
I4
ssg75
g1007
sg68
(lp1014
S'en-us'
p1015
asbasbasbag61
(g77
g63
NtRp1016
(dp1017
g66
(dp1018
sg75
g790
sg68
(lp1019
g61
(g82
g63
NtRp1020
(dp1021
g66
(dp1022
g86
g87
ssg75
g1016
sg68
(lp1023
S'http_connection'
p1024
asbag61
(g82
g63
NtRp1025
(dp1026
g66
(dp1027
g93
g94
ssg75
g1016
sg68
(lp1028
S':'
asbag61
(g82
g63
NtRp1029
(dp1030
g66
(dp1031
sg75
g1016
sg68
(lp1032
g61
(g62
g63
NtRp1033
(dp1034
g66
(dp1035
g74
I4
ssg75
g1029
sg68
(lp1036
S'keep-alive'
p1037
asbasbasbag61
(g77
g63
NtRp1038
(dp1039
g66
(dp1040
sg75
g790
sg68
(lp1041
g61
(g82
g63
NtRp1042
(dp1043
g66
(dp1044
g86
g87
ssg75
g1038
sg68
(lp1045
S'http_cookie'
p1046
asbag61
(g82
g63
NtRp1047
(dp1048
g66
(dp1049
g93
g94
ssg75
g1038
sg68
(lp1050
S':'
asbag61
(g82
g63
NtRp1051
(dp1052
g66
(dp1053
sg75
g1038
sg68
(lp1054
g61
(g62
g63
NtRp1055
(dp1056
g66
(dp1057
g74
I4
ssg75
g1051
sg68
(lp1058
S'session_id_final_impulse=127.0.0.1-0d5885c8-812a-4164-8aff-e1a4f026de9a; session_id_admin=127.0.0.1-0d99ae75-2c72-4f7d-a978-b2d8d72b42ba; session_id_welcome=127.0.0.1-8b5418cb-68e2-4e27-8e5b-1936fe080ad8'
p1059
asbasbasbag61
(g77
g63
NtRp1060
(dp1061
g66
(dp1062
sg75
g790
sg68
(lp1063
g61
(g82
g63
NtRp1064
(dp1065
g66
(dp1066
g86
g87
ssg75
g1060
sg68
(lp1067
S'http_host'
p1068
asbag61
(g82
g63
NtRp1069
(dp1070
g66
(dp1071
g93
g94
ssg75
g1060
sg68
(lp1072
S':'
asbag61
(g82
g63
NtRp1073
(dp1074
g66
(dp1075
sg75
g1060
sg68
(lp1076
g61
(g62
g63
NtRp1077
(dp1078
g66
(dp1079
g74
I4
ssg75
g1073
sg68
(lp1080
S'127.0.0.1:8000'
p1081
asbasbasbag61
(g77
g63
NtRp1082
(dp1083
g66
(dp1084
sg75
g790
sg68
(lp1085
g61
(g82
g63
NtRp1086
(dp1087
g66
(dp1088
g86
g87
ssg75
g1082
sg68
(lp1089
S'http_referer'
p1090
asbag61
(g82
g63
NtRp1091
(dp1092
g66
(dp1093
g93
g94
ssg75
g1082
sg68
(lp1094
S':'
asbag61
(g82
g63
NtRp1095
(dp1096
g66
(dp1097
sg75
g1082
sg68
(lp1098
g61
(g62
g63
NtRp1099
(dp1100
g66
(dp1101
g74
I4
ssg75
g1095
sg68
(lp1102
S'http://127.0.0.1:8000/Final_Impulse/default/index'
p1103
asbasbasbag61
(g77
g63
NtRp1104
(dp1105
g66
(dp1106
sg75
g790
sg68
(lp1107
g61
(g82
g63
NtRp1108
(dp1109
g66
(dp1110
g86
g87
ssg75
g1104
sg68
(lp1111
S'http_user_agent'
p1112
asbag61
(g82
g63
NtRp1113
(dp1114
g66
(dp1115
g93
g94
ssg75
g1104
sg68
(lp1116
S':'
asbag61
(g82
g63
NtRp1117
(dp1118
g66
(dp1119
sg75
g1104
sg68
(lp1120
g61
(g62
g63
NtRp1121
(dp1122
g66
(dp1123
g74
I4
ssg75
g1117
sg68
(lp1124
S'Mozilla/5.0 (Macintosh; Intel Mac OS X 10_8_4) AppleWebKit/536.30.1 (KHTML, like Gecko) Version/6.0.5 Safari/536.30.1'
p1125
asbasbasbag61
(g77
g63
NtRp1126
(dp1127
g66
(dp1128
sg75
g790
sg68
(lp1129
g61
(g82
g63
NtRp1130
(dp1131
g66
(dp1132
g86
g87
ssg75
g1126
sg68
(lp1133
S'is_jython'
p1134
asbag61
(g82
g63
NtRp1135
(dp1136
g66
(dp1137
g93
g94
ssg75
g1126
sg68
(lp1138
S':'
asbag61
(g82
g63
NtRp1139
(dp1140
g66
(dp1141
sg75
g1126
sg68
(lp1142
g61
(g62
g63
NtRp1143
(dp1144
g66
(dp1145
g74
I4
ssg75
g1139
sg68
(lp1146
g104
asbasbasbag61
(g77
g63
NtRp1147
(dp1148
g66
(dp1149
sg75
g790
sg68
(lp1150
g61
(g82
g63
NtRp1151
(dp1152
g66
(dp1153
g86
g87
ssg75
g1147
sg68
(lp1154
S'is_pypy'
p1155
asbag61
(g82
g63
NtRp1156
(dp1157
g66
(dp1158
g93
g94
ssg75
g1147
sg68
(lp1159
S':'
asbag61
(g82
g63
NtRp1160
(dp1161
g66
(dp1162
sg75
g1147
sg68
(lp1163
g61
(g62
g63
NtRp1164
(dp1165
g66
(dp1166
g74
I4
ssg75
g1160
sg68
(lp1167
g104
asbasbasbag61
(g77
g63
NtRp1168
(dp1169
g66
(dp1170
sg75
g790
sg68
(lp1171
g61
(g82
g63
NtRp1172
(dp1173
g66
(dp1174
g86
g87
ssg75
g1168
sg68
(lp1175
S'local_hosts'
p1176
asbag61
(g82
g63
NtRp1177
(dp1178
g66
(dp1179
g93
g94
ssg75
g1168
sg68
(lp1180
S':'
asbag61
(g82
g63
NtRp1181
(dp1182
g66
(dp1183
sg75
g1168
sg68
(lp1184
g61
(g62
g63
NtRp1185
(dp1186
g66
(dp1187
g74
I4
ssg75
g1181
sg68
(lp1188
g61
(g70
g63
NtRp1189
(dp1190
g66
(dp1191
g74
I3
ssg75
Nsg68
(lp1192
g61
(g77
g63
NtRp1193
(dp1194
g66
(dp1195
sg75
g1189
sg68
(lp1196
g61
(g82
g63
NtRp1197
(dp1198
g66
(dp1199
sg75
g1193
sg68
(lp1200
g61
(g62
g63
NtRp1201
(dp1202
g66
(dp1203
g74
I3
ssg75
g1197
sg68
(lp1204
S'127.0.0.1'
p1205
asbasbasbag61
(g77
g63
NtRp1206
(dp1207
g66
(dp1208
sg75
g1189
sg68
(lp1209
g61
(g82
g63
NtRp1210
(dp1211
g66
(dp1212
sg75
g1206
sg68
(lp1213
g61
(g62
g63
NtRp1214
(dp1215
g66
(dp1216
g74
I3
ssg75
g1210
sg68
(lp1217
S'::ffff:127.0.0.1'
p1218
asbasbasbag61
(g77
g63
NtRp1219
(dp1220
g66
(dp1221
sg75
g1189
sg68
(lp1222
g61
(g82
g63
NtRp1223
(dp1224
g66
(dp1225
sg75
g1219
sg68
(lp1226
g61
(g62
g63
NtRp1227
(dp1228
g66
(dp1229
g74
I3
ssg75
g1223
sg68
(lp1230
S'new-host.home'
p1231
asbasbasbag61
(g77
g63
NtRp1232
(dp1233
g66
(dp1234
sg75
g1189
sg68
(lp1235
g61
(g82
g63
NtRp1236
(dp1237
g66
(dp1238
sg75
g1232
sg68
(lp1239
g61
(g62
g63
NtRp1240
(dp1241
g66
(dp1242
g74
I3
ssg75
g1236
sg68
(lp1243
S'new-host.home'
p1244
asbasbasbag61
(g77
g63
NtRp1245
(dp1246
g66
(dp1247
sg75
g1189
sg68
(lp1248
g61
(g82
g63
NtRp1249
(dp1250
g66
(dp1251
sg75
g1245
sg68
(lp1252
g61
(g62
g63
NtRp1253
(dp1254
g66
(dp1255
g74
I3
ssg75
g1249
sg68
(lp1256
S'192.168.1.5'
p1257
asbasbasbasbasbasbasbag61
(g77
g63
NtRp1258
(dp1259
g66
(dp1260
sg75
g790
sg68
(lp1261
g61
(g82
g63
NtRp1262
(dp1263
g66
(dp1264
g86
g87
ssg75
g1258
sg68
(lp1265
S'path_info'
p1266
asbag61
(g82
g63
NtRp1267
(dp1268
g66
(dp1269
g93
g94
ssg75
g1258
sg68
(lp1270
S':'
asbag61
(g82
g63
NtRp1271
(dp1272
g66
(dp1273
sg75
g1258
sg68
(lp1274
g61
(g62
g63
NtRp1275
(dp1276
g66
(dp1277
g74
I4
ssg75
g1271
sg68
(lp1278
S'/Final_Impulse/default/show_image_comments'
p1279
asbasbasbag61
(g77
g63
NtRp1280
(dp1281
g66
(dp1282
sg75
g790
sg68
(lp1283
g61
(g82
g63
NtRp1284
(dp1285
g66
(dp1286
g86
g87
ssg75
g1280
sg68
(lp1287
S'query_string'
p1288
asbag61
(g82
g63
NtRp1289
(dp1290
g66
(dp1291
g93
g94
ssg75
g1280
sg68
(lp1292
S':'
asbag61
(g82
g63
NtRp1293
(dp1294
g66
(dp1295
sg75
g1280
sg68
(lp1296
g61
(g62
g63
NtRp1297
(dp1298
g66
(dp1299
g74
I4
ssg75
g1293
sg68
(lp1300
S''
asbasbasbag61
(g77
g63
NtRp1301
(dp1302
g66
(dp1303
sg75
g790
sg68
(lp1304
g61
(g82
g63
NtRp1305
(dp1306
g66
(dp1307
g86
g87
ssg75
g1301
sg68
(lp1308
S'remote_addr'
p1309
asbag61
(g82
g63
NtRp1310
(dp1311
g66
(dp1312
g93
g94
ssg75
g1301
sg68
(lp1313
S':'
asbag61
(g82
g63
NtRp1314
(dp1315
g66
(dp1316
sg75
g1301
sg68
(lp1317
g61
(g62
g63
NtRp1318
(dp1319
g66
(dp1320
g74
I4
ssg75
g1314
sg68
(lp1321
g216
asbasbasbag61
(g77
g63
NtRp1322
(dp1323
g66
(dp1324
sg75
g790
sg68
(lp1325
g61
(g82
g63
NtRp1326
(dp1327
g66
(dp1328
g86
g87
ssg75
g1322
sg68
(lp1329
S'remote_port'
p1330
asbag61
(g82
g63
NtRp1331
(dp1332
g66
(dp1333
g93
g94
ssg75
g1322
sg68
(lp1334
S':'
asbag61
(g82
g63
NtRp1335
(dp1336
g66
(dp1337
sg75
g1322
sg68
(lp1338
g61
(g62
g63
NtRp1339
(dp1340
g66
(dp1341
g74
I4
ssg75
g1335
sg68
(lp1342
S'50580'
p1343
asbasbasbag61
(g77
g63
NtRp1344
(dp1345
g66
(dp1346
sg75
g790
sg68
(lp1347
g61
(g82
g63
NtRp1348
(dp1349
g66
(dp1350
g86
g87
ssg75
g1344
sg68
(lp1351
S'request_method'
p1352
asbag61
(g82
g63
NtRp1353
(dp1354
g66
(dp1355
g93
g94
ssg75
g1344
sg68
(lp1356
S':'
asbag61
(g82
g63
NtRp1357
(dp1358
g66
(dp1359
sg75
g1344
sg68
(lp1360
g61
(g62
g63
NtRp1361
(dp1362
g66
(dp1363
g74
I4
ssg75
g1357
sg68
(lp1364
S'GET'
p1365
asbasbasbag61
(g77
g63
NtRp1366
(dp1367
g66
(dp1368
sg75
g790
sg68
(lp1369
g61
(g82
g63
NtRp1370
(dp1371
g66
(dp1372
g86
g87
ssg75
g1366
sg68
(lp1373
S'request_uri'
p1374
asbag61
(g82
g63
NtRp1375
(dp1376
g66
(dp1377
g93
g94
ssg75
g1366
sg68
(lp1378
S':'
asbag61
(g82
g63
NtRp1379
(dp1380
g66
(dp1381
sg75
g1366
sg68
(lp1382
g61
(g62
g63
NtRp1383
(dp1384
g66
(dp1385
g74
I4
ssg75
g1379
sg68
(lp1386
g1279
asbasbasbag61
(g77
g63
NtRp1387
(dp1388
g66
(dp1389
sg75
g790
sg68
(lp1390
g61
(g82
g63
NtRp1391
(dp1392
g66
(dp1393
g86
g87
ssg75
g1387
sg68
(lp1394
S'script_name'
p1395
asbag61
(g82
g63
NtRp1396
(dp1397
g66
(dp1398
g93
g94
ssg75
g1387
sg68
(lp1399
S':'
asbag61
(g82
g63
NtRp1400
(dp1401
g66
(dp1402
sg75
g1387
sg68
(lp1403
g61
(g62
g63
NtRp1404
(dp1405
g66
(dp1406
g74
I4
ssg75
g1400
sg68
(lp1407
S''
asbasbasbag61
(g77
g63
NtRp1408
(dp1409
g66
(dp1410
sg75
g790
sg68
(lp1411
g61
(g82
g63
NtRp1412
(dp1413
g66
(dp1414
g86
g87
ssg75
g1408
sg68
(lp1415
S'server_name'
p1416
asbag61
(g82
g63
NtRp1417
(dp1418
g66
(dp1419
g93
g94
ssg75
g1408
sg68
(lp1420
S':'
asbag61
(g82
g63
NtRp1421
(dp1422
g66
(dp1423
sg75
g1408
sg68
(lp1424
g61
(g62
g63
NtRp1425
(dp1426
g66
(dp1427
g74
I4
ssg75
g1421
sg68
(lp1428
g1244
asbasbasbag61
(g77
g63
NtRp1429
(dp1430
g66
(dp1431
sg75
g790
sg68
(lp1432
g61
(g82
g63
NtRp1433
(dp1434
g66
(dp1435
g86
g87
ssg75
g1429
sg68
(lp1436
S'server_port'
p1437
asbag61
(g82
g63
NtRp1438
(dp1439
g66
(dp1440
g93
g94
ssg75
g1429
sg68
(lp1441
S':'
asbag61
(g82
g63
NtRp1442
(dp1443
g66
(dp1444
sg75
g1429
sg68
(lp1445
g61
(g62
g63
NtRp1446
(dp1447
g66
(dp1448
g74
I4
ssg75
g1442
sg68
(lp1449
S'8000'
p1450
asbasbasbag61
(g77
g63
NtRp1451
(dp1452
g66
(dp1453
sg75
g790
sg68
(lp1454
g61
(g82
g63
NtRp1455
(dp1456
g66
(dp1457
g86
g87
ssg75
g1451
sg68
(lp1458
S'server_protocol'
p1459
asbag61
(g82
g63
NtRp1460
(dp1461
g66
(dp1462
g93
g94
ssg75
g1451
sg68
(lp1463
S':'
asbag61
(g82
g63
NtRp1464
(dp1465
g66
(dp1466
sg75
g1451
sg68
(lp1467
g61
(g62
g63
NtRp1468
(dp1469
g66
(dp1470
g74
I4
ssg75
g1464
sg68
(lp1471
S'HTTP/1.1'
p1472
asbasbasbag61
(g77
g63
NtRp1473
(dp1474
g66
(dp1475
sg75
g790
sg68
(lp1476
g61
(g82
g63
NtRp1477
(dp1478
g66
(dp1479
g86
g87
ssg75
g1473
sg68
(lp1480
S'server_software'
p1481
asbag61
(g82
g63
NtRp1482
(dp1483
g66
(dp1484
g93
g94
ssg75
g1473
sg68
(lp1485
S':'
asbag61
(g82
g63
NtRp1486
(dp1487
g66
(dp1488
sg75
g1473
sg68
(lp1489
g61
(g62
g63
NtRp1490
(dp1491
g66
(dp1492
g74
I4
ssg75
g1486
sg68
(lp1493
S'Rocket 1.2.5'
p1494
asbasbasbag61
(g77
g63
NtRp1495
(dp1496
g66
(dp1497
sg75
g790
sg68
(lp1498
g61
(g82
g63
NtRp1499
(dp1500
g66
(dp1501
g86
g87
ssg75
g1495
sg68
(lp1502
S'web2py_path'
p1503
asbag61
(g82
g63
NtRp1504
(dp1505
g66
(dp1506
g93
g94
ssg75
g1495
sg68
(lp1507
S':'
asbag61
(g82
g63
NtRp1508
(dp1509
g66
(dp1510
sg75
g1495
sg68
(lp1511
g61
(g62
g63
NtRp1512
(dp1513
g66
(dp1514
g74
I4
ssg75
g1508
sg68
(lp1515
g837
asbasbasbag61
(g77
g63
NtRp1516
(dp1517
g66
(dp1518
sg75
g790
sg68
(lp1519
g61
(g82
g63
NtRp1520
(dp1521
g66
(dp1522
g86
g87
ssg75
g1516
sg68
(lp1523
S'web2py_version'
p1524
asbag61
(g82
g63
NtRp1525
(dp1526
g66
(dp1527
g93
g94
ssg75
g1516
sg68
(lp1528
S':'
asbag61
(g82
g63
NtRp1529
(dp1530
g66
(dp1531
sg75
g1516
sg68
(lp1532
g61
(g62
g63
NtRp1533
(dp1534
g66
(dp1535
g74
I4
ssg75
g1529
sg68
(lp1536
g61
(g70
g63
NtRp1537
(dp1538
g66
(dp1539
g74
I3
ssg75
Nsg68
(lp1540
g61
(g77
g63
NtRp1541
(dp1542
g66
(dp1543
sg75
g1537
sg68
(lp1544
g61
(g82
g63
NtRp1545
(dp1546
g66
(dp1547
sg75
g1541
sg68
(lp1548
g61
(g62
g63
NtRp1549
(dp1550
g66
(dp1551
g74
I3
ssg75
g1545
sg68
(lp1552
S'2'
asbasbasbag61
(g77
g63
NtRp1553
(dp1554
g66
(dp1555
sg75
g1537
sg68
(lp1556
g61
(g82
g63
NtRp1557
(dp1558
g66
(dp1559
sg75
g1553
sg68
(lp1560
g61
(g62
g63
NtRp1561
(dp1562
g66
(dp1563
g74
I3
ssg75
g1557
sg68
(lp1564
S'2'
asbasbasbag61
(g77
g63
NtRp1565
(dp1566
g66
(dp1567
sg75
g1537
sg68
(lp1568
g61
(g82
g63
NtRp1569
(dp1570
g66
(dp1571
sg75
g1565
sg68
(lp1572
g61
(g62
g63
NtRp1573
(dp1574
g66
(dp1575
g74
I3
ssg75
g1569
sg68
(lp1576
S'1'
asbasbasbag61
(g77
g63
NtRp1577
(dp1578
g66
(dp1579
sg75
g1537
sg68
(lp1580
g61
(g82
g63
NtRp1581
(dp1582
g66
(dp1583
sg75
g1577
sg68
(lp1584
g61
(g62
g63
NtRp1585
(dp1586
g66
(dp1587
g74
I3
ssg75
g1581
sg68
(lp1588
S'datetime.datetime(2012, 10, 21, 16, 57, 4)'
p1589
asbasbasbag61
(g77
g63
NtRp1590
(dp1591
g66
(dp1592
sg75
g1537
sg68
(lp1593
g61
(g82
g63
NtRp1594
(dp1595
g66
(dp1596
sg75
g1590
sg68
(lp1597
g61
(g62
g63
NtRp1598
(dp1599
g66
(dp1600
g74
I3
ssg75
g1594
sg68
(lp1601
S'stable'
p1602
asbasbasbasbasbasbasbag61
(g77
g63
NtRp1603
(dp1604
g66
(dp1605
sg75
g790
sg68
(lp1606
g61
(g82
g63
NtRp1607
(dp1608
g66
(dp1609
g86
g87
ssg75
g1603
sg68
(lp1610
S'wsgi_errors'
p1611
asbag61
(g82
g63
NtRp1612
(dp1613
g66
(dp1614
g93
g94
ssg75
g1603
sg68
(lp1615
S':'
asbag61
(g82
g63
NtRp1616
(dp1617
g66
(dp1618
sg75
g1603
sg68
(lp1619
g61
(g62
g63
NtRp1620
(dp1621
g66
(dp1622
g74
I4
ssg75
g1616
sg68
(lp1623
S"<open file '<stderr>', mode 'w' at 0x540b0>"
p1624
asbasbasbag61
(g77
g63
NtRp1625
(dp1626
g66
(dp1627
sg75
g790
sg68
(lp1628
g61
(g82
g63
NtRp1629
(dp1630
g66
(dp1631
g86
g87
ssg75
g1625
sg68
(lp1632
S'wsgi_file_wrapper'
p1633
asbag61
(g82
g63
NtRp1634
(dp1635
g66
(dp1636
g93
g94
ssg75
g1625
sg68
(lp1637
S':'
asbag61
(g82
g63
NtRp1638
(dp1639
g66
(dp1640
sg75
g1625
sg68
(lp1641
g61
(g62
g63
NtRp1642
(dp1643
g66
(dp1644
g74
I4
ssg75
g1638
sg68
(lp1645
S'<class wsgiref.util.FileWrapper at 0x44002d0>'
p1646
asbasbasbag61
(g77
g63
NtRp1647
(dp1648
g66
(dp1649
sg75
g790
sg68
(lp1650
g61
(g82
g63
NtRp1651
(dp1652
g66
(dp1653
g86
g87
ssg75
g1647
sg68
(lp1654
S'wsgi_input'
p1655
asbag61
(g82
g63
NtRp1656
(dp1657
g66
(dp1658
g93
g94
ssg75
g1647
sg68
(lp1659
S':'
asbag61
(g82
g63
NtRp1660
(dp1661
g66
(dp1662
sg75
g1647
sg68
(lp1663
g61
(g62
g63
NtRp1664
(dp1665
g66
(dp1666
g74
I4
ssg75
g1660
sg68
(lp1667
S'<socket._fileobject object at 0x8b27f30>'
p1668
asbasbasbag61
(g77
g63
NtRp1669
(dp1670
g66
(dp1671
sg75
g790
sg68
(lp1672
g61
(g82
g63
NtRp1673
(dp1674
g66
(dp1675
g86
g87
ssg75
g1669
sg68
(lp1676
S'wsgi_multiprocess'
p1677
asbag61
(g82
g63
NtRp1678
(dp1679
g66
(dp1680
g93
g94
ssg75
g1669
sg68
(lp1681
S':'
asbag61
(g82
g63
NtRp1682
(dp1683
g66
(dp1684
sg75
g1669
sg68
(lp1685
g61
(g62
g63
NtRp1686
(dp1687
g66
(dp1688
g74
I4
ssg75
g1682
sg68
(lp1689
g104
asbasbasbag61
(g77
g63
NtRp1690
(dp1691
g66
(dp1692
sg75
g790
sg68
(lp1693
g61
(g82
g63
NtRp1694
(dp1695
g66
(dp1696
g86
g87
ssg75
g1690
sg68
(lp1697
S'wsgi_multithread'
p1698
asbag61
(g82
g63
NtRp1699
(dp1700
g66
(dp1701
g93
g94
ssg75
g1690
sg68
(lp1702
S':'
asbag61
(g82
g63
NtRp1703
(dp1704
g66
(dp1705
sg75
g1690
sg68
(lp1706
g61
(g62
g63
NtRp1707
(dp1708
g66
(dp1709
g74
I4
ssg75
g1703
sg68
(lp1710
S'True'
p1711
asbasbasbag61
(g77
g63
NtRp1712
(dp1713
g66
(dp1714
sg75
g790
sg68
(lp1715
g61
(g82
g63
NtRp1716
(dp1717
g66
(dp1718
g86
g87
ssg75
g1712
sg68
(lp1719
S'wsgi_run_once'
p1720
asbag61
(g82
g63
NtRp1721
(dp1722
g66
(dp1723
g93
g94
ssg75
g1712
sg68
(lp1724
S':'
asbag61
(g82
g63
NtRp1725
(dp1726
g66
(dp1727
sg75
g1712
sg68
(lp1728
g61
(g62
g63
NtRp1729
(dp1730
g66
(dp1731
g74
I4
ssg75
g1725
sg68
(lp1732
g104
asbasbasbag61
(g77
g63
NtRp1733
(dp1734
g66
(dp1735
sg75
g790
sg68
(lp1736
g61
(g82
g63
NtRp1737
(dp1738
g66
(dp1739
g86
g87
ssg75
g1733
sg68
(lp1740
S'wsgi_url_scheme'
p1741
asbag61
(g82
g63
NtRp1742
(dp1743
g66
(dp1744
g93
g94
ssg75
g1733
sg68
(lp1745
S':'
asbag61
(g82
g63
NtRp1746
(dp1747
g66
(dp1748
sg75
g1733
sg68
(lp1749
g61
(g62
g63
NtRp1750
(dp1751
g66
(dp1752
g74
I4
ssg75
g1746
sg68
(lp1753
S'http'
p1754
asbasbasbag61
(g77
g63
NtRp1755
(dp1756
g66
(dp1757
sg75
g790
sg68
(lp1758
g61
(g82
g63
NtRp1759
(dp1760
g66
(dp1761
g86
g87
ssg75
g1755
sg68
(lp1762
S'wsgi_version'
p1763
asbag61
(g82
g63
NtRp1764
(dp1765
g66
(dp1766
g93
g94
ssg75
g1755
sg68
(lp1767
S':'
asbag61
(g82
g63
NtRp1768
(dp1769
g66
(dp1770
sg75
g1755
sg68
(lp1771
g61
(g62
g63
NtRp1772
(dp1773
g66
(dp1774
g74
I4
ssg75
g1768
sg68
(lp1775
g61
(g70
g63
NtRp1776
(dp1777
g66
(dp1778
g74
I3
ssg75
Nsg68
(lp1779
g61
(g77
g63
NtRp1780
(dp1781
g66
(dp1782
sg75
g1776
sg68
(lp1783
g61
(g82
g63
NtRp1784
(dp1785
g66
(dp1786
sg75
g1780
sg68
(lp1787
g61
(g62
g63
NtRp1788
(dp1789
g66
(dp1790
g74
I3
ssg75
g1784
sg68
(lp1791
S'1'
asbasbasbag61
(g77
g63
NtRp1792
(dp1793
g66
(dp1794
sg75
g1776
sg68
(lp1795
g61
(g82
g63
NtRp1796
(dp1797
g66
(dp1798
sg75
g1792
sg68
(lp1799
g61
(g62
g63
NtRp1800
(dp1801
g66
(dp1802
g74
I3
ssg75
g1796
sg68
(lp1803
S'0'
asbasbasbasbasbasbasbasbasbasbasbag61
(g77
g63
NtRp1804
(dp1805
g66
(dp1806
sg75
g71
sg68
(lp1807
g61
(g82
g63
NtRp1808
(dp1809
g66
(dp1810
g86
g87
ssg75
g1804
sg68
(lp1811
S'extension'
p1812
asbag61
(g82
g63
NtRp1813
(dp1814
g66
(dp1815
g93
g94
ssg75
g1804
sg68
(lp1816
S':'
asbag61
(g82
g63
NtRp1817
(dp1818
g66
(dp1819
sg75
g1804
sg68
(lp1820
g61
(g62
g63
NtRp1821
(dp1822
g66
(dp1823
g74
I5
ssg75
g1817
sg68
(lp1824
S'html'
p1825
asbasbasbag61
(g77
g63
NtRp1826
(dp1827
g66
(dp1828
sg75
g71
sg68
(lp1829
g61
(g82
g63
NtRp1830
(dp1831
g66
(dp1832
g86
g87
ssg75
g1826
sg68
(lp1833
S'folder'
p1834
asbag61
(g82
g63
NtRp1835
(dp1836
g66
(dp1837
g93
g94
ssg75
g1826
sg68
(lp1838
S':'
asbag61
(g82
g63
NtRp1839
(dp1840
g66
(dp1841
sg75
g1826
sg68
(lp1842
g61
(g62
g63
NtRp1843
(dp1844
g66
(dp1845
g74
I5
ssg75
g1839
sg68
(lp1846
S'/Users/abaric/Downloads/web2py/web2py.app/Contents/Resources/applications/Final_Impulse/'
p1847
asbasbasbag61
(g77
g63
NtRp1848
(dp1849
g66
(dp1850
sg75
g71
sg68
(lp1851
g61
(g82
g63
NtRp1852
(dp1853
g66
(dp1854
g86
g87
ssg75
g1848
sg68
(lp1855
S'function'
p1856
asbag61
(g82
g63
NtRp1857
(dp1858
g66
(dp1859
g93
g94
ssg75
g1848
sg68
(lp1860
S':'
asbag61
(g82
g63
NtRp1861
(dp1862
g66
(dp1863
sg75
g1848
sg68
(lp1864
g61
(g62
g63
NtRp1865
(dp1866
g66
(dp1867
g74
I5
ssg75
g1861
sg68
(lp1868
S'show_image_comments'
p1869
asbasbasbag61
(g77
g63
NtRp1870
(dp1871
g66
(dp1872
sg75
g71
sg68
(lp1873
g61
(g82
g63
NtRp1874
(dp1875
g66
(dp1876
g86
g87
ssg75
g1870
sg68
(lp1877
S'get_vars'
p1878
asbag61
(g82
g63
NtRp1879
(dp1880
g66
(dp1881
g93
g94
ssg75
g1870
sg68
(lp1882
S':'
asbag61
(g82
g63
NtRp1883
(dp1884
g66
(dp1885
sg75
g1870
sg68
(lp1886
g61
(g62
g63
NtRp1887
(dp1888
g66
(dp1889
g74
I5
ssg75
g1883
sg68
(lp1890
g61
(g70
g63
NtRp1891
(dp1892
g66
(dp1893
g74
I4
ssg75
Nsg68
(lp1894
sbasbasbasbag61
(g77
g63
NtRp1895
(dp1896
g66
(dp1897
sg75
g71
sg68
(lp1898
g61
(g82
g63
NtRp1899
(dp1900
g66
(dp1901
g86
g87
ssg75
g1895
sg68
(lp1902
S'global_settings'
p1903
asbag61
(g82
g63
NtRp1904
(dp1905
g66
(dp1906
g93
g94
ssg75
g1895
sg68
(lp1907
S':'
asbag61
(g82
g63
NtRp1908
(dp1909
g66
(dp1910
sg75
g1895
sg68
(lp1911
g61
(g62
g63
NtRp1912
(dp1913
g66
(dp1914
g74
I5
ssg75
g1908
sg68
(lp1915
g61
(g70
g63
NtRp1916
(dp1917
g66
(dp1918
g74
I4
ssg75
Nsg68
(lp1919
g61
(g77
g63
NtRp1920
(dp1921
g66
(dp1922
sg75
g1916
sg68
(lp1923
g61
(g82
g63
NtRp1924
(dp1925
g66
(dp1926
g86
g87
ssg75
g1920
sg68
(lp1927
g802
asbag61
(g82
g63
NtRp1928
(dp1929
g66
(dp1930
g93
g94
ssg75
g1920
sg68
(lp1931
S':'
asbag61
(g82
g63
NtRp1932
(dp1933
g66
(dp1934
sg75
g1920
sg68
(lp1935
g61
(g62
g63
NtRp1936
(dp1937
g66
(dp1938
g74
I4
ssg75
g1932
sg68
(lp1939
S"set(['/Users/abaric/Downloads/web2py/web2py.app/Contents/Resources/applications/Final_Impulse/', '/Users/abaric/Downloads/web2py/web2py.app/Contents/Resources/applications/welcome/', '/Users/abaric/Downloads/web2py/web2py.app/Contents/Resources/applications/admin/'])"
p1940
asbasbasbag61
(g77
g63
NtRp1941
(dp1942
g66
(dp1943
sg75
g1916
sg68
(lp1944
g61
(g82
g63
NtRp1945
(dp1946
g66
(dp1947
g86
g87
ssg75
g1941
sg68
(lp1948
g824
asbag61
(g82
g63
NtRp1949
(dp1950
g66
(dp1951
g93
g94
ssg75
g1941
sg68
(lp1952
S':'
asbag61
(g82
g63
NtRp1953
(dp1954
g66
(dp1955
sg75
g1941
sg68
(lp1956
g61
(g62
g63
NtRp1957
(dp1958
g66
(dp1959
g74
I4
ssg75
g1953
sg68
(lp1960
g837
asbasbasbag61
(g77
g63
NtRp1961
(dp1962
g66
(dp1963
sg75
g1916
sg68
(lp1964
g61
(g82
g63
NtRp1965
(dp1966
g66
(dp1967
g86
g87
ssg75
g1961
sg68
(lp1968
g846
asbag61
(g82
g63
NtRp1969
(dp1970
g66
(dp1971
g93
g94
ssg75
g1961
sg68
(lp1972
S':'
asbag61
(g82
g63
NtRp1973
(dp1974
g66
(dp1975
sg75
g1961
sg68
(lp1976
g61
(g62
g63
NtRp1977
(dp1978
g66
(dp1979
g74
I4
ssg75
g1973
sg68
(lp1980
g61
(g70
g63
NtRp1981
(dp1982
g66
(dp1983
g74
I3
ssg75
Nsg68
(lp1984
sbasbasbasbag61
(g77
g63
NtRp1985
(dp1986
g66
(dp1987
sg75
g1916
sg68
(lp1988
g61
(g82
g63
NtRp1989
(dp1990
g66
(dp1991
g86
g87
ssg75
g1985
sg68
(lp1992
g871
asbag61
(g82
g63
NtRp1993
(dp1994
g66
(dp1995
g93
g94
ssg75
g1985
sg68
(lp1996
S':'
asbag61
(g82
g63
NtRp1997
(dp1998
g66
(dp1999
sg75
g1985
sg68
(lp2000
g61
(g62
g63
NtRp2001
(dp2002
g66
(dp2003
g74
I4
ssg75
g1997
sg68
(lp2004
S"<Values at 0x442e238: {'verbose': False, 'ip': '127.0.0.1', 'with_scheduler': False, 'ips': ['192.168.1.5'], 'shutdown_timeout': 5, 'taskbar': False, 'port': 8000, 'maxthreads': None, 'softcron': False, 'server_name': 'new-host.home', 'bpython': False, 'nogui': False, 'pid_filename': 'httpserver.pid', 'extcron': False, 'runcron': False, 'run_system_tests': False, 'test': None, 'folder': '/Users/abaric/Downloads/web2py/web2py.app/Contents/Resources', 'config': '', 'import_models': False, 'winservice': '', 'shell': None, 'run': '', 'log_filename': 'httpserver.log', 'debuglevel': 30, 'args': [''], 'socket_timeout': 5, 'ssl_ca_certificate': None, 'scheduler': None, 'profiler_filename': None, 'ssl_private_key': '', 'scheduler_groups': None, 'password': '<ask>', 'request_queue_size': 5, 'ssl_certificate': '', 'cronjob': False, 'numthreads': None, 'quiet': False, 'interfaces': None, 'minthreads': None, 'timeout': 10, 'plain': False, 'nobanner': False}>"
p2005
asbasbasbag61
(g77
g63
NtRp2006
(dp2007
g66
(dp2008
sg75
g1916
sg68
(lp2009
g61
(g82
g63
NtRp2010
(dp2011
g66
(dp2012
g86
g87
ssg75
g2006
sg68
(lp2013
g893
asbag61
(g82
g63
NtRp2014
(dp2015
g66
(dp2016
g93
g94
ssg75
g2006
sg68
(lp2017
S':'
asbag61
(g82
g63
NtRp2018
(dp2019
g66
(dp2020
sg75
g2006
sg68
(lp2021
g61
(g62
g63
NtRp2022
(dp2023
g66
(dp2024
g74
I4
ssg75
g2018
sg68
(lp2025
S'set([])'
p2026
asbasbasbag61
(g77
g63
NtRp2027
(dp2028
g66
(dp2029
sg75
g1916
sg68
(lp2030
g61
(g82
g63
NtRp2031
(dp2032
g66
(dp2033
g86
g87
ssg75
g2027
sg68
(lp2034
g915
asbag61
(g82
g63
NtRp2035
(dp2036
g66
(dp2037
g93
g94
ssg75
g2027
sg68
(lp2038
S':'
asbag61
(g82
g63
NtRp2039
(dp2040
g66
(dp2041
sg75
g2027
sg68
(lp2042
g61
(g62
g63
NtRp2043
(dp2044
g66
(dp2045
g74
I4
ssg75
g2039
sg68
(lp2046
g104
asbasbasbag61
(g77
g63
NtRp2047
(dp2048
g66
(dp2049
sg75
g1916
sg68
(lp2050
g61
(g82
g63
NtRp2051
(dp2052
g66
(dp2053
g86
g87
ssg75
g2047
sg68
(lp2054
g936
asbag61
(g82
g63
NtRp2055
(dp2056
g66
(dp2057
g93
g94
ssg75
g2047
sg68
(lp2058
S':'
asbag61
(g82
g63
NtRp2059
(dp2060
g66
(dp2061
sg75
g2047
sg68
(lp2062
g61
(g62
g63
NtRp2063
(dp2064
g66
(dp2065
g74
I4
ssg75
g2059
sg68
(lp2066
g949
asbasbasbag61
(g77
g63
NtRp2067
(dp2068
g66
(dp2069
sg75
g1916
sg68
(lp2070
g61
(g82
g63
NtRp2071
(dp2072
g66
(dp2073
g86
g87
ssg75
g2067
sg68
(lp2074
g1134
asbag61
(g82
g63
NtRp2075
(dp2076
g66
(dp2077
g93
g94
ssg75
g2067
sg68
(lp2078
S':'
asbag61
(g82
g63
NtRp2079
(dp2080
g66
(dp2081
sg75
g2067
sg68
(lp2082
g61
(g62
g63
NtRp2083
(dp2084
g66
(dp2085
g74
I4
ssg75
g2079
sg68
(lp2086
g104
asbasbasbag61
(g77
g63
NtRp2087
(dp2088
g66
(dp2089
sg75
g1916
sg68
(lp2090
g61
(g82
g63
NtRp2091
(dp2092
g66
(dp2093
g86
g87
ssg75
g2087
sg68
(lp2094
g1155
asbag61
(g82
g63
NtRp2095
(dp2096
g66
(dp2097
g93
g94
ssg75
g2087
sg68
(lp2098
S':'
asbag61
(g82
g63
NtRp2099
(dp2100
g66
(dp2101
sg75
g2087
sg68
(lp2102
g61
(g62
g63
NtRp2103
(dp2104
g66
(dp2105
g74
I4
ssg75
g2099
sg68
(lp2106
g104
asbasbasbag61
(g77
g63
NtRp2107
(dp2108
g66
(dp2109
sg75
g1916
sg68
(lp2110
g61
(g82
g63
NtRp2111
(dp2112
g66
(dp2113
g86
g87
ssg75
g2107
sg68
(lp2114
g1176
asbag61
(g82
g63
NtRp2115
(dp2116
g66
(dp2117
g93
g94
ssg75
g2107
sg68
(lp2118
S':'
asbag61
(g82
g63
NtRp2119
(dp2120
g66
(dp2121
sg75
g2107
sg68
(lp2122
g61
(g62
g63
NtRp2123
(dp2124
g66
(dp2125
g74
I4
ssg75
g2119
sg68
(lp2126
g61
(g70
g63
NtRp2127
(dp2128
g66
(dp2129
g74
I3
ssg75
Nsg68
(lp2130
g61
(g77
g63
NtRp2131
(dp2132
g66
(dp2133
sg75
g2127
sg68
(lp2134
g61
(g82
g63
NtRp2135
(dp2136
g66
(dp2137
sg75
g2131
sg68
(lp2138
g61
(g62
g63
NtRp2139
(dp2140
g66
(dp2141
g74
I3
ssg75
g2135
sg68
(lp2142
g1205
asbasbasbag61
(g77
g63
NtRp2143
(dp2144
g66
(dp2145
sg75
g2127
sg68
(lp2146
g61
(g82
g63
NtRp2147
(dp2148
g66
(dp2149
sg75
g2143
sg68
(lp2150
g61
(g62
g63
NtRp2151
(dp2152
g66
(dp2153
g74
I3
ssg75
g2147
sg68
(lp2154
g1218
asbasbasbag61
(g77
g63
NtRp2155
(dp2156
g66
(dp2157
sg75
g2127
sg68
(lp2158
g61
(g82
g63
NtRp2159
(dp2160
g66
(dp2161
sg75
g2155
sg68
(lp2162
g61
(g62
g63
NtRp2163
(dp2164
g66
(dp2165
g74
I3
ssg75
g2159
sg68
(lp2166
g1231
asbasbasbag61
(g77
g63
NtRp2167
(dp2168
g66
(dp2169
sg75
g2127
sg68
(lp2170
g61
(g82
g63
NtRp2171
(dp2172
g66
(dp2173
sg75
g2167
sg68
(lp2174
g61
(g62
g63
NtRp2175
(dp2176
g66
(dp2177
g74
I3
ssg75
g2171
sg68
(lp2178
g1244
asbasbasbag61
(g77
g63
NtRp2179
(dp2180
g66
(dp2181
sg75
g2127
sg68
(lp2182
g61
(g82
g63
NtRp2183
(dp2184
g66
(dp2185
sg75
g2179
sg68
(lp2186
g61
(g62
g63
NtRp2187
(dp2188
g66
(dp2189
g74
I3
ssg75
g2183
sg68
(lp2190
g1257
asbasbasbasbasbasbasbag61
(g77
g63
NtRp2191
(dp2192
g66
(dp2193
sg75
g1916
sg68
(lp2194
g61
(g82
g63
NtRp2195
(dp2196
g66
(dp2197
g86
g87
ssg75
g2191
sg68
(lp2198
g1524
asbag61
(g82
g63
NtRp2199
(dp2200
g66
(dp2201
g93
g94
ssg75
g2191
sg68
(lp2202
S':'
asbag61
(g82
g63
NtRp2203
(dp2204
g66
(dp2205
sg75
g2191
sg68
(lp2206
g61
(g62
g63
NtRp2207
(dp2208
g66
(dp2209
g74
I4
ssg75
g2203
sg68
(lp2210
g61
(g70
g63
NtRp2211
(dp2212
g66
(dp2213
g74
I3
ssg75
Nsg68
(lp2214
g61
(g77
g63
NtRp2215
(dp2216
g66
(dp2217
sg75
g2211
sg68
(lp2218
g61
(g82
g63
NtRp2219
(dp2220
g66
(dp2221
sg75
g2215
sg68
(lp2222
g61
(g62
g63
NtRp2223
(dp2224
g66
(dp2225
g74
I3
ssg75
g2219
sg68
(lp2226
S'2'
asbasbasbag61
(g77
g63
NtRp2227
(dp2228
g66
(dp2229
sg75
g2211
sg68
(lp2230
g61
(g82
g63
NtRp2231
(dp2232
g66
(dp2233
sg75
g2227
sg68
(lp2234
g61
(g62
g63
NtRp2235
(dp2236
g66
(dp2237
g74
I3
ssg75
g2231
sg68
(lp2238
S'2'
asbasbasbag61
(g77
g63
NtRp2239
(dp2240
g66
(dp2241
sg75
g2211
sg68
(lp2242
g61
(g82
g63
NtRp2243
(dp2244
g66
(dp2245
sg75
g2239
sg68
(lp2246
g61
(g62
g63
NtRp2247
(dp2248
g66
(dp2249
g74
I3
ssg75
g2243
sg68
(lp2250
S'1'
asbasbasbag61
(g77
g63
NtRp2251
(dp2252
g66
(dp2253
sg75
g2211
sg68
(lp2254
g61
(g82
g63
NtRp2255
(dp2256
g66
(dp2257
sg75
g2251
sg68
(lp2258
g61
(g62
g63
NtRp2259
(dp2260
g66
(dp2261
g74
I3
ssg75
g2255
sg68
(lp2262
S'datetime.datetime(2012, 10, 21, 16, 57, 4)'
p2263
asbasbasbag61
(g77
g63
NtRp2264
(dp2265
g66
(dp2266
sg75
g2211
sg68
(lp2267
g61
(g82
g63
NtRp2268
(dp2269
g66
(dp2270
sg75
g2264
sg68
(lp2271
g61
(g62
g63
NtRp2272
(dp2273
g66
(dp2274
g74
I3
ssg75
g2268
sg68
(lp2275
g1602
asbasbasbasbasbasbasbasbasbasbasbag61
(g77
g63
NtRp2276
(dp2277
g66
(dp2278
sg75
g71
sg68
(lp2279
g61
(g82
g63
NtRp2280
(dp2281
g66
(dp2282
g86
g87
ssg75
g2276
sg68
(lp2283
S'is_https'
p2284
asbag61
(g82
g63
NtRp2285
(dp2286
g66
(dp2287
g93
g94
ssg75
g2276
sg68
(lp2288
S':'
asbag61
(g82
g63
NtRp2289
(dp2290
g66
(dp2291
sg75
g2276
sg68
(lp2292
g61
(g62
g63
NtRp2293
(dp2294
g66
(dp2295
g74
I5
ssg75
g2289
sg68
(lp2296
g104
asbasbasbag61
(g77
g63
NtRp2297
(dp2298
g66
(dp2299
sg75
g71
sg68
(lp2300
g61
(g82
g63
NtRp2301
(dp2302
g66
(dp2303
g86
g87
ssg75
g2297
sg68
(lp2304
S'is_local'
p2305
asbag61
(g82
g63
NtRp2306
(dp2307
g66
(dp2308
g93
g94
ssg75
g2297
sg68
(lp2309
S':'
asbag61
(g82
g63
NtRp2310
(dp2311
g66
(dp2312
sg75
g2297
sg68
(lp2313
g61
(g62
g63
NtRp2314
(dp2315
g66
(dp2316
g74
I5
ssg75
g2310
sg68
(lp2317
g1711
asbasbasbag61
(g77
g63
NtRp2318
(dp2319
g66
(dp2320
sg75
g71
sg68
(lp2321
g61
(g82
g63
NtRp2322
(dp2323
g66
(dp2324
g86
g87
ssg75
g2318
sg68
(lp2325
S'is_restful'
p2326
asbag61
(g82
g63
NtRp2327
(dp2328
g66
(dp2329
g93
g94
ssg75
g2318
sg68
(lp2330
S':'
asbag61
(g82
g63
NtRp2331
(dp2332
g66
(dp2333
sg75
g2318
sg68
(lp2334
g61
(g62
g63
NtRp2335
(dp2336
g66
(dp2337
g74
I5
ssg75
g2331
sg68
(lp2338
g104
asbasbasbag61
(g77
g63
NtRp2339
(dp2340
g66
(dp2341
sg75
g71
sg68
(lp2342
g61
(g82
g63
NtRp2343
(dp2344
g66
(dp2345
g86
g87
ssg75
g2339
sg68
(lp2346
S'now'
p2347
asbag61
(g82
g63
NtRp2348
(dp2349
g66
(dp2350
g93
g94
ssg75
g2339
sg68
(lp2351
S':'
asbag61
(g82
g63
NtRp2352
(dp2353
g66
(dp2354
sg75
g2339
sg68
(lp2355
g61
(g62
g63
NtRp2356
(dp2357
g66
(dp2358
g74
I5
ssg75
g2352
sg68
(lp2359
S'datetime.datetime(2014, 3, 30, 14, 41, 22, 524344)'
p2360
asbasbasbag61
(g77
g63
NtRp2361
(dp2362
g66
(dp2363
sg75
g71
sg68
(lp2364
g61
(g82
g63
NtRp2365
(dp2366
g66
(dp2367
g86
g87
ssg75
g2361
sg68
(lp2368
S'post_vars'
p2369
asbag61
(g82
g63
NtRp2370
(dp2371
g66
(dp2372
g93
g94
ssg75
g2361
sg68
(lp2373
S':'
asbag61
(g82
g63
NtRp2374
(dp2375
g66
(dp2376
sg75
g2361
sg68
(lp2377
g61
(g62
g63
NtRp2378
(dp2379
g66
(dp2380
g74
I5
ssg75
g2374
sg68
(lp2381
g61
(g70
g63
NtRp2382
(dp2383
g66
(dp2384
g74
I4
ssg75
Nsg68
(lp2385
sbasbasbasbag61
(g77
g63
NtRp2386
(dp2387
g66
(dp2388
sg75
g71
sg68
(lp2389
g61
(g82
g63
NtRp2390
(dp2391
g66
(dp2392
g86
g87
ssg75
g2386
sg68
(lp2393
S'raw_args'
p2394
asbag61
(g82
g63
NtRp2395
(dp2396
g66
(dp2397
g93
g94
ssg75
g2386
sg68
(lp2398
S':'
asbag61
(g82
g63
NtRp2399
(dp2400
g66
(dp2401
sg75
g2386
sg68
(lp2402
g61
(g62
g63
NtRp2403
(dp2404
g66
(dp2405
g74
I5
ssg75
g2399
sg68
(lp2406
S''
asbasbasbag61
(g77
g63
NtRp2407
(dp2408
g66
(dp2409
sg75
g71
sg68
(lp2410
g61
(g82
g63
NtRp2411
(dp2412
g66
(dp2413
g86
g87
ssg75
g2407
sg68
(lp2414
S'raw_extension'
p2415
asbag61
(g82
g63
NtRp2416
(dp2417
g66
(dp2418
g93
g94
ssg75
g2407
sg68
(lp2419
S':'
asbag61
(g82
g63
NtRp2420
(dp2421
g66
(dp2422
sg75
g2407
sg68
(lp2423
g61
(g62
g63
NtRp2424
(dp2425
g66
(dp2426
g74
I5
ssg75
g2420
sg68
(lp2427
S'None'
p2428
asbasbasbag61
(g77
g63
NtRp2429
(dp2430
g66
(dp2431
sg75
g71
sg68
(lp2432
g61
(g82
g63
NtRp2433
(dp2434
g66
(dp2435
g86
g87
ssg75
g2429
sg68
(lp2436
S'url'
p2437
asbag61
(g82
g63
NtRp2438
(dp2439
g66
(dp2440
g93
g94
ssg75
g2429
sg68
(lp2441
S':'
asbag61
(g82
g63
NtRp2442
(dp2443
g66
(dp2444
sg75
g2429
sg68
(lp2445
g61
(g62
g63
NtRp2446
(dp2447
g66
(dp2448
g74
I5
ssg75
g2442
sg68
(lp2449
g1279
asbasbasbag61
(g77
g63
NtRp2450
(dp2451
g66
(dp2452
sg75
g71
sg68
(lp2453
g61
(g82
g63
NtRp2454
(dp2455
g66
(dp2456
g86
g87
ssg75
g2450
sg68
(lp2457
S'utcnow'
p2458
asbag61
(g82
g63
NtRp2459
(dp2460
g66
(dp2461
g93
g94
ssg75
g2450
sg68
(lp2462
S':'
asbag61
(g82
g63
NtRp2463
(dp2464
g66
(dp2465
sg75
g2450
sg68
(lp2466
g61
(g62
g63
NtRp2467
(dp2468
g66
(dp2469
g74
I5
ssg75
g2463
sg68
(lp2470
S'datetime.datetime(2014, 3, 30, 18, 41, 22, 524358)'
p2471
asbasbasbag61
(g77
g63
NtRp2472
(dp2473
g66
(dp2474
sg75
g71
sg68
(lp2475
g61
(g82
g63
NtRp2476
(dp2477
g66
(dp2478
g86
g87
ssg75
g2472
sg68
(lp2479
S'uuid'
p2480
asbag61
(g82
g63
NtRp2481
(dp2482
g66
(dp2483
g93
g94
ssg75
g2472
sg68
(lp2484
S':'
asbag61
(g82
g63
NtRp2485
(dp2486
g66
(dp2487
sg75
g2472
sg68
(lp2488
g61
(g62
g63
NtRp2489
(dp2490
g66
(dp2491
g74
I5
ssg75
g2485
sg68
(lp2492
S'Final_Impulse/127.0.0.1.2014-03-30.14-41-22.522fef57-5358-42fb-9056-657bd1178fea'
p2493
asbasbasbag61
(g77
g63
NtRp2494
(dp2495
g66
(dp2496
sg75
g71
sg68
(lp2497
g61
(g82
g63
NtRp2498
(dp2499
g66
(dp2500
g86
g87
ssg75
g2494
sg68
(lp2501
S'vars'
p2502
asbag61
(g82
g63
NtRp2503
(dp2504
g66
(dp2505
g93
g94
ssg75
g2494
sg68
(lp2506
S':'
asbag61
(g82
g63
NtRp2507
(dp2508
g66
(dp2509
sg75
g2494
sg68
(lp2510
g61
(g62
g63
NtRp2511
(dp2512
g66
(dp2513
g74
I5
ssg75
g2507
sg68
(lp2514
g61
(g70
g63
NtRp2515
(dp2516
g66
(dp2517
g74
I4
ssg75
Nsg68
(lp2518
sbasbasbasbag61
(g77
g63
NtRp2519
(dp2520
g66
(dp2521
sg75
g71
sg68
(lp2522
g61
(g82
g63
NtRp2523
(dp2524
g66
(dp2525
g86
g87
ssg75
g2519
sg68
(lp2526
S'wsgi'
p2527
asbag61
(g82
g63
NtRp2528
(dp2529
g66
(dp2530
g93
g94
ssg75
g2519
sg68
(lp2531
S':'
asbag61
(g82
g63
NtRp2532
(dp2533
g66
(dp2534
sg75
g2519
sg68
(lp2535
g61
(g62
g63
NtRp2536
(dp2537
g66
(dp2538
g74
I5
ssg75
g2532
sg68
(lp2539
g61
(g70
g63
NtRp2540
(dp2541
g66
(dp2542
g74
I4
ssg75
Nsg68
(lp2543
g61
(g77
g63
NtRp2544
(dp2545
g66
(dp2546
sg75
g2540
sg68
(lp2547
g61
(g82
g63
NtRp2548
(dp2549
g66
(dp2550
g86
g87
ssg75
g2544
sg68
(lp2551
S'environ'
p2552
asbag61
(g82
g63
NtRp2553
(dp2554
g66
(dp2555
g93
g94
ssg75
g2544
sg68
(lp2556
S':'
asbag61
(g82
g63
NtRp2557
(dp2558
g66
(dp2559
sg75
g2544
sg68
(lp2560
g61
(g62
g63
NtRp2561
(dp2562
g66
(dp2563
g74
I4
ssg75
g2557
sg68
(lp2564
g61
(g70
g63
NtRp2565
(dp2566
g66
(dp2567
g74
I3
ssg75
Nsg68
(lp2568
g61
(g77
g63
NtRp2569
(dp2570
g66
(dp2571
sg75
g2565
sg68
(lp2572
g61
(g82
g63
NtRp2573
(dp2574
g66
(dp2575
g86
g87
ssg75
g2569
sg68
(lp2576
S'HTTP_ACCEPT'
p2577
asbag61
(g82
g63
NtRp2578
(dp2579
g66
(dp2580
g93
g94
ssg75
g2569
sg68
(lp2581
S':'
asbag61
(g82
g63
NtRp2582
(dp2583
g66
(dp2584
sg75
g2569
sg68
(lp2585
g61
(g62
g63
NtRp2586
(dp2587
g66
(dp2588
g74
I3
ssg75
g2582
sg68
(lp2589
g971
asbasbasbag61
(g77
g63
NtRp2590
(dp2591
g66
(dp2592
sg75
g2565
sg68
(lp2593
g61
(g82
g63
NtRp2594
(dp2595
g66
(dp2596
g86
g87
ssg75
g2590
sg68
(lp2597
S'HTTP_ACCEPT_ENCODING'
p2598
asbag61
(g82
g63
NtRp2599
(dp2600
g66
(dp2601
g93
g94
ssg75
g2590
sg68
(lp2602
S':'
asbag61
(g82
g63
NtRp2603
(dp2604
g66
(dp2605
sg75
g2590
sg68
(lp2606
g61
(g62
g63
NtRp2607
(dp2608
g66
(dp2609
g74
I3
ssg75
g2603
sg68
(lp2610
g993
asbasbasbag61
(g77
g63
NtRp2611
(dp2612
g66
(dp2613
sg75
g2565
sg68
(lp2614
g61
(g82
g63
NtRp2615
(dp2616
g66
(dp2617
g86
g87
ssg75
g2611
sg68
(lp2618
S'HTTP_ACCEPT_LANGUAGE'
p2619
asbag61
(g82
g63
NtRp2620
(dp2621
g66
(dp2622
g93
g94
ssg75
g2611
sg68
(lp2623
S':'
asbag61
(g82
g63
NtRp2624
(dp2625
g66
(dp2626
sg75
g2611
sg68
(lp2627
g61
(g62
g63
NtRp2628
(dp2629
g66
(dp2630
g74
I3
ssg75
g2624
sg68
(lp2631
g1015
asbasbasbag61
(g77
g63
NtRp2632
(dp2633
g66
(dp2634
sg75
g2565
sg68
(lp2635
g61
(g82
g63
NtRp2636
(dp2637
g66
(dp2638
g86
g87
ssg75
g2632
sg68
(lp2639
S'HTTP_CONNECTION'
p2640
asbag61
(g82
g63
NtRp2641
(dp2642
g66
(dp2643
g93
g94
ssg75
g2632
sg68
(lp2644
S':'
asbag61
(g82
g63
NtRp2645
(dp2646
g66
(dp2647
sg75
g2632
sg68
(lp2648
g61
(g62
g63
NtRp2649
(dp2650
g66
(dp2651
g74
I3
ssg75
g2645
sg68
(lp2652
g1037
asbasbasbag61
(g77
g63
NtRp2653
(dp2654
g66
(dp2655
sg75
g2565
sg68
(lp2656
g61
(g82
g63
NtRp2657
(dp2658
g66
(dp2659
g86
g87
ssg75
g2653
sg68
(lp2660
S'HTTP_COOKIE'
p2661
asbag61
(g82
g63
NtRp2662
(dp2663
g66
(dp2664
g93
g94
ssg75
g2653
sg68
(lp2665
S':'
asbag61
(g82
g63
NtRp2666
(dp2667
g66
(dp2668
sg75
g2653
sg68
(lp2669
g61
(g62
g63
NtRp2670
(dp2671
g66
(dp2672
g74
I3
ssg75
g2666
sg68
(lp2673
g1059
asbasbasbag61
(g77
g63
NtRp2674
(dp2675
g66
(dp2676
sg75
g2565
sg68
(lp2677
g61
(g82
g63
NtRp2678
(dp2679
g66
(dp2680
g86
g87
ssg75
g2674
sg68
(lp2681
S'HTTP_HOST'
p2682
asbag61
(g82
g63
NtRp2683
(dp2684
g66
(dp2685
g93
g94
ssg75
g2674
sg68
(lp2686
S':'
asbag61
(g82
g63
NtRp2687
(dp2688
g66
(dp2689
sg75
g2674
sg68
(lp2690
g61
(g62
g63
NtRp2691
(dp2692
g66
(dp2693
g74
I3
ssg75
g2687
sg68
(lp2694
g1081
asbasbasbag61
(g77
g63
NtRp2695
(dp2696
g66
(dp2697
sg75
g2565
sg68
(lp2698
g61
(g82
g63
NtRp2699
(dp2700
g66
(dp2701
g86
g87
ssg75
g2695
sg68
(lp2702
S'HTTP_REFERER'
p2703
asbag61
(g82
g63
NtRp2704
(dp2705
g66
(dp2706
g93
g94
ssg75
g2695
sg68
(lp2707
S':'
asbag61
(g82
g63
NtRp2708
(dp2709
g66
(dp2710
sg75
g2695
sg68
(lp2711
g61
(g62
g63
NtRp2712
(dp2713
g66
(dp2714
g74
I3
ssg75
g2708
sg68
(lp2715
g1103
asbasbasbag61
(g77
g63
NtRp2716
(dp2717
g66
(dp2718
sg75
g2565
sg68
(lp2719
g61
(g82
g63
NtRp2720
(dp2721
g66
(dp2722
g86
g87
ssg75
g2716
sg68
(lp2723
S'HTTP_USER_AGENT'
p2724
asbag61
(g82
g63
NtRp2725
(dp2726
g66
(dp2727
g93
g94
ssg75
g2716
sg68
(lp2728
S':'
asbag61
(g82
g63
NtRp2729
(dp2730
g66
(dp2731
sg75
g2716
sg68
(lp2732
g61
(g62
g63
NtRp2733
(dp2734
g66
(dp2735
g74
I3
ssg75
g2729
sg68
(lp2736
g1125
asbasbasbag61
(g77
g63
NtRp2737
(dp2738
g66
(dp2739
sg75
g2565
sg68
(lp2740
g61
(g82
g63
NtRp2741
(dp2742
g66
(dp2743
g86
g87
ssg75
g2737
sg68
(lp2744
S'PATH_INFO'
p2745
asbag61
(g82
g63
NtRp2746
(dp2747
g66
(dp2748
g93
g94
ssg75
g2737
sg68
(lp2749
S':'
asbag61
(g82
g63
NtRp2750
(dp2751
g66
(dp2752
sg75
g2737
sg68
(lp2753
g61
(g62
g63
NtRp2754
(dp2755
g66
(dp2756
g74
I3
ssg75
g2750
sg68
(lp2757
g1279
asbasbasbag61
(g77
g63
NtRp2758
(dp2759
g66
(dp2760
sg75
g2565
sg68
(lp2761
g61
(g82
g63
NtRp2762
(dp2763
g66
(dp2764
g86
g87
ssg75
g2758
sg68
(lp2765
S'QUERY_STRING'
p2766
asbag61
(g82
g63
NtRp2767
(dp2768
g66
(dp2769
g93
g94
ssg75
g2758
sg68
(lp2770
S':'
asbag61
(g82
g63
NtRp2771
(dp2772
g66
(dp2773
sg75
g2758
sg68
(lp2774
g61
(g62
g63
NtRp2775
(dp2776
g66
(dp2777
g74
I3
ssg75
g2771
sg68
(lp2778
S''
asbasbasbag61
(g77
g63
NtRp2779
(dp2780
g66
(dp2781
sg75
g2565
sg68
(lp2782
g61
(g82
g63
NtRp2783
(dp2784
g66
(dp2785
g86
g87
ssg75
g2779
sg68
(lp2786
S'REMOTE_ADDR'
p2787
asbag61
(g82
g63
NtRp2788
(dp2789
g66
(dp2790
g93
g94
ssg75
g2779
sg68
(lp2791
S':'
asbag61
(g82
g63
NtRp2792
(dp2793
g66
(dp2794
sg75
g2779
sg68
(lp2795
g61
(g62
g63
NtRp2796
(dp2797
g66
(dp2798
g74
I3
ssg75
g2792
sg68
(lp2799
g216
asbasbasbag61
(g77
g63
NtRp2800
(dp2801
g66
(dp2802
sg75
g2565
sg68
(lp2803
g61
(g82
g63
NtRp2804
(dp2805
g66
(dp2806
g86
g87
ssg75
g2800
sg68
(lp2807
S'REMOTE_PORT'
p2808
asbag61
(g82
g63
NtRp2809
(dp2810
g66
(dp2811
g93
g94
ssg75
g2800
sg68
(lp2812
S':'
asbag61
(g82
g63
NtRp2813
(dp2814
g66
(dp2815
sg75
g2800
sg68
(lp2816
g61
(g62
g63
NtRp2817
(dp2818
g66
(dp2819
g74
I3
ssg75
g2813
sg68
(lp2820
g1343
asbasbasbag61
(g77
g63
NtRp2821
(dp2822
g66
(dp2823
sg75
g2565
sg68
(lp2824
g61
(g82
g63
NtRp2825
(dp2826
g66
(dp2827
g86
g87
ssg75
g2821
sg68
(lp2828
S'REQUEST_METHOD'
p2829
asbag61
(g82
g63
NtRp2830
(dp2831
g66
(dp2832
g93
g94
ssg75
g2821
sg68
(lp2833
S':'
asbag61
(g82
g63
NtRp2834
(dp2835
g66
(dp2836
sg75
g2821
sg68
(lp2837
g61
(g62
g63
NtRp2838
(dp2839
g66
(dp2840
g74
I3
ssg75
g2834
sg68
(lp2841
g1365
asbasbasbag61
(g77
g63
NtRp2842
(dp2843
g66
(dp2844
sg75
g2565
sg68
(lp2845
g61
(g82
g63
NtRp2846
(dp2847
g66
(dp2848
g86
g87
ssg75
g2842
sg68
(lp2849
S'REQUEST_URI'
p2850
asbag61
(g82
g63
NtRp2851
(dp2852
g66
(dp2853
g93
g94
ssg75
g2842
sg68
(lp2854
S':'
asbag61
(g82
g63
NtRp2855
(dp2856
g66
(dp2857
sg75
g2842
sg68
(lp2858
g61
(g62
g63
NtRp2859
(dp2860
g66
(dp2861
g74
I3
ssg75
g2855
sg68
(lp2862
g1279
asbasbasbag61
(g77
g63
NtRp2863
(dp2864
g66
(dp2865
sg75
g2565
sg68
(lp2866
g61
(g82
g63
NtRp2867
(dp2868
g66
(dp2869
g86
g87
ssg75
g2863
sg68
(lp2870
S'SCRIPT_NAME'
p2871
asbag61
(g82
g63
NtRp2872
(dp2873
g66
(dp2874
g93
g94
ssg75
g2863
sg68
(lp2875
S':'
asbag61
(g82
g63
NtRp2876
(dp2877
g66
(dp2878
sg75
g2863
sg68
(lp2879
g61
(g62
g63
NtRp2880
(dp2881
g66
(dp2882
g74
I3
ssg75
g2876
sg68
(lp2883
S''
asbasbasbag61
(g77
g63
NtRp2884
(dp2885
g66
(dp2886
sg75
g2565
sg68
(lp2887
g61
(g82
g63
NtRp2888
(dp2889
g66
(dp2890
g86
g87
ssg75
g2884
sg68
(lp2891
S'SERVER_NAME'
p2892
asbag61
(g82
g63
NtRp2893
(dp2894
g66
(dp2895
g93
g94
ssg75
g2884
sg68
(lp2896
S':'
asbag61
(g82
g63
NtRp2897
(dp2898
g66
(dp2899
sg75
g2884
sg68
(lp2900
g61
(g62
g63
NtRp2901
(dp2902
g66
(dp2903
g74
I3
ssg75
g2897
sg68
(lp2904
g1244
asbasbasbag61
(g77
g63
NtRp2905
(dp2906
g66
(dp2907
sg75
g2565
sg68
(lp2908
g61
(g82
g63
NtRp2909
(dp2910
g66
(dp2911
g86
g87
ssg75
g2905
sg68
(lp2912
S'SERVER_PORT'
p2913
asbag61
(g82
g63
NtRp2914
(dp2915
g66
(dp2916
g93
g94
ssg75
g2905
sg68
(lp2917
S':'
asbag61
(g82
g63
NtRp2918
(dp2919
g66
(dp2920
sg75
g2905
sg68
(lp2921
g61
(g62
g63
NtRp2922
(dp2923
g66
(dp2924
g74
I3
ssg75
g2918
sg68
(lp2925
g1450
asbasbasbag61
(g77
g63
NtRp2926
(dp2927
g66
(dp2928
sg75
g2565
sg68
(lp2929
g61
(g82
g63
NtRp2930
(dp2931
g66
(dp2932
g86
g87
ssg75
g2926
sg68
(lp2933
S'SERVER_PROTOCOL'
p2934
asbag61
(g82
g63
NtRp2935
(dp2936
g66
(dp2937
g93
g94
ssg75
g2926
sg68
(lp2938
S':'
asbag61
(g82
g63
NtRp2939
(dp2940
g66
(dp2941
sg75
g2926
sg68
(lp2942
g61
(g62
g63
NtRp2943
(dp2944
g66
(dp2945
g74
I3
ssg75
g2939
sg68
(lp2946
g1472
asbasbasbag61
(g77
g63
NtRp2947
(dp2948
g66
(dp2949
sg75
g2565
sg68
(lp2950
g61
(g82
g63
NtRp2951
(dp2952
g66
(dp2953
g86
g87
ssg75
g2947
sg68
(lp2954
S'SERVER_SOFTWARE'
p2955
asbag61
(g82
g63
NtRp2956
(dp2957
g66
(dp2958
g93
g94
ssg75
g2947
sg68
(lp2959
S':'
asbag61
(g82
g63
NtRp2960
(dp2961
g66
(dp2962
sg75
g2947
sg68
(lp2963
g61
(g62
g63
NtRp2964
(dp2965
g66
(dp2966
g74
I3
ssg75
g2960
sg68
(lp2967
g1494
asbasbasbag61
(g77
g63
NtRp2968
(dp2969
g66
(dp2970
sg75
g2565
sg68
(lp2971
g61
(g82
g63
NtRp2972
(dp2973
g66
(dp2974
g86
g87
ssg75
g2968
sg68
(lp2975
S'wsgi.errors'
p2976
asbag61
(g82
g63
NtRp2977
(dp2978
g66
(dp2979
g93
g94
ssg75
g2968
sg68
(lp2980
S':'
asbag61
(g82
g63
NtRp2981
(dp2982
g66
(dp2983
sg75
g2968
sg68
(lp2984
g61
(g62
g63
NtRp2985
(dp2986
g66
(dp2987
g74
I3
ssg75
g2981
sg68
(lp2988
S"<open file '<stderr>', mode 'w' at 0x540b0>"
p2989
asbasbasbag61
(g77
g63
NtRp2990
(dp2991
g66
(dp2992
sg75
g2565
sg68
(lp2993
g61
(g82
g63
NtRp2994
(dp2995
g66
(dp2996
g86
g87
ssg75
g2990
sg68
(lp2997
S'wsgi.file_wrapper'
p2998
asbag61
(g82
g63
NtRp2999
(dp3000
g66
(dp3001
g93
g94
ssg75
g2990
sg68
(lp3002
S':'
asbag61
(g82
g63
NtRp3003
(dp3004
g66
(dp3005
sg75
g2990
sg68
(lp3006
g61
(g62
g63
NtRp3007
(dp3008
g66
(dp3009
g74
I3
ssg75
g3003
sg68
(lp3010
S'<class wsgiref.util.FileWrapper at 0x44002d0>'
p3011
asbasbasbag61
(g77
g63
NtRp3012
(dp3013
g66
(dp3014
sg75
g2565
sg68
(lp3015
g61
(g82
g63
NtRp3016
(dp3017
g66
(dp3018
g86
g87
ssg75
g3012
sg68
(lp3019
S'wsgi.input'
p3020
asbag61
(g82
g63
NtRp3021
(dp3022
g66
(dp3023
g93
g94
ssg75
g3012
sg68
(lp3024
S':'
asbag61
(g82
g63
NtRp3025
(dp3026
g66
(dp3027
sg75
g3012
sg68
(lp3028
g61
(g62
g63
NtRp3029
(dp3030
g66
(dp3031
g74
I3
ssg75
g3025
sg68
(lp3032
S'<cStringIO.StringO object at 0x8beb220>'
p3033
asbasbasbag61
(g77
g63
NtRp3034
(dp3035
g66
(dp3036
sg75
g2565
sg68
(lp3037
g61
(g82
g63
NtRp3038
(dp3039
g66
(dp3040
g86
g87
ssg75
g3034
sg68
(lp3041
S'wsgi.multiprocess'
p3042
asbag61
(g82
g63
NtRp3043
(dp3044
g66
(dp3045
g93
g94
ssg75
g3034
sg68
(lp3046
S':'
asbag61
(g82
g63
NtRp3047
(dp3048
g66
(dp3049
sg75
g3034
sg68
(lp3050
g61
(g62
g63
NtRp3051
(dp3052
g66
(dp3053
g74
I3
ssg75
g3047
sg68
(lp3054
g104
asbasbasbag61
(g77
g63
NtRp3055
(dp3056
g66
(dp3057
sg75
g2565
sg68
(lp3058
g61
(g82
g63
NtRp3059
(dp3060
g66
(dp3061
g86
g87
ssg75
g3055
sg68
(lp3062
S'wsgi.multithread'
p3063
asbag61
(g82
g63
NtRp3064
(dp3065
g66
(dp3066
g93
g94
ssg75
g3055
sg68
(lp3067
S':'
asbag61
(g82
g63
NtRp3068
(dp3069
g66
(dp3070
sg75
g3055
sg68
(lp3071
g61
(g62
g63
NtRp3072
(dp3073
g66
(dp3074
g74
I3
ssg75
g3068
sg68
(lp3075
g1711
asbasbasbag61
(g77
g63
NtRp3076
(dp3077
g66
(dp3078
sg75
g2565
sg68
(lp3079
g61
(g82
g63
NtRp3080
(dp3081
g66
(dp3082
g86
g87
ssg75
g3076
sg68
(lp3083
S'wsgi.run_once'
p3084
asbag61
(g82
g63
NtRp3085
(dp3086
g66
(dp3087
g93
g94
ssg75
g3076
sg68
(lp3088
S':'
asbag61
(g82
g63
NtRp3089
(dp3090
g66
(dp3091
sg75
g3076
sg68
(lp3092
g61
(g62
g63
NtRp3093
(dp3094
g66
(dp3095
g74
I3
ssg75
g3089
sg68
(lp3096
g104
asbasbasbag61
(g77
g63
NtRp3097
(dp3098
g66
(dp3099
sg75
g2565
sg68
(lp3100
g61
(g82
g63
NtRp3101
(dp3102
g66
(dp3103
g86
g87
ssg75
g3097
sg68
(lp3104
S'wsgi.url_scheme'
p3105
asbag61
(g82
g63
NtRp3106
(dp3107
g66
(dp3108
g93
g94
ssg75
g3097
sg68
(lp3109
S':'
asbag61
(g82
g63
NtRp3110
(dp3111
g66
(dp3112
sg75
g3097
sg68
(lp3113
g61
(g62
g63
NtRp3114
(dp3115
g66
(dp3116
g74
I3
ssg75
g3110
sg68
(lp3117
g1754
asbasbasbag61
(g77
g63
NtRp3118
(dp3119
g66
(dp3120
sg75
g2565
sg68
(lp3121
g61
(g82
g63
NtRp3122
(dp3123
g66
(dp3124
g86
g87
ssg75
g3118
sg68
(lp3125
S'wsgi.version'
p3126
asbag61
(g82
g63
NtRp3127
(dp3128
g66
(dp3129
g93
g94
ssg75
g3118
sg68
(lp3130
S':'
asbag61
(g82
g63
NtRp3131
(dp3132
g66
(dp3133
sg75
g3118
sg68
(lp3134
g61
(g62
g63
NtRp3135
(dp3136
g66
(dp3137
g74
I3
ssg75
g3131
sg68
(lp3138
S'1'
asbasbasbasbasbasbasbasbasbasbasbasbasbsS'frames'
p3139
(lp3140
(dp3141
S'file'
p3142
S'/Users/abaric/Downloads/web2py/web2py.app/Contents/Resources/gluon/restricted.py'
p3143
sS'dump'
p3144
(dp3145
sS'lnum'
p3146
I211
sS'lines'
p3147
(dp3148
sS'call'
p3149
S'(code=\'response.write(\\\'<!DOCTYPE html>\\\\n<!-- paulirish...."></script>\\\\n</body>\\\\n</html>\\\\n\\\\n\\\', escape=False)\', environment={\'A\': <class \'gluon.html.A\'>, \'Auth\': <class \'gluon.tools.Auth\'>, \'B\': <class \'gluon.html.B\'>, \'BEAUTIFY\': <class \'gluon.html.BEAUTIFY\'>, \'BODY\': <class \'gluon.html.BODY\'>, \'BR\': <class \'gluon.html.BR\'>, \'BUTTON\': <class \'gluon.html.BUTTON\'>, \'CAT\': <class \'gluon.html.CAT\'>, \'CENTER\': <class \'gluon.html.CENTER\'>, \'CLEANUP\': <class \'gluon.validators.CLEANUP\'>, ...}, layer=\'/Users/abaric/Downloads/web2py/web2py.app/Conten...al_Impulse/views/default/show_image_comments.html\')'
p3150
sS'func'
p3151
S'restricted'
p3152
sa(dp3153
g3142
S'/Users/abaric/Downloads/web2py/web2py.app/Contents/Resources/gluon/restricted.py'
p3154
sg3144
(dp3155
sg3146
I194
sg3147
(dp3156
sg3149
S'(code=\'response.write(\\\'<!DOCTYPE html>\\\\n<!-- paulirish...."></script>\\\\n</body>\\\\n</html>\\\\n\\\\n\\\', escape=False)\', layer=\'/Users/abaric/Downloads/web2py/web2py.app/Conten...al_Impulse/views/default/show_image_comments.html\')'
p3157
sg3151
S'compile2'
p3158
sasS'pyver'
p3159
S'Python 2.5.1: /Users/abaric/Downloads/web2py/web2py.app/Contents/MacOS/python'
p3160
sS'session'
p3161
g61
(g62
g63
NtRp3162
(dp3163
g66
(dp3164
sg68
(lp3165
g61
(g70
g63
NtRp3166
(dp3167
g66
(dp3168
g74
I5
ssg75
Nsg68
(lp3169
sbasbsS'etype'
p3170
S"<type 'exceptions.SyntaxError'>"
p3171
sS'date'
p3172
S'Sun Mar 30 14:41:22 2014'
p3173
sS'response'
p3174
g61
(g62
g63
NtRp3175
(dp3176
g66
(dp3177
sg68
(lp3178
g61
(g70
g63
NtRp3179
(dp3180
g66
(dp3181
g74
I5
ssg75
Nsg68
(lp3182
g61
(g77
g63
NtRp3183
(dp3184
g66
(dp3185
sg75
g3179
sg68
(lp3186
g61
(g82
g63
NtRp3187
(dp3188
g66
(dp3189
g86
g87
ssg75
g3183
sg68
(lp3190
g159
asbag61
(g82
g63
NtRp3191
(dp3192
g66
(dp3193
g93
g94
ssg75
g3183
sg68
(lp3194
S':'
asbag61
(g82
g63
NtRp3195
(dp3196
g66
(dp3197
sg75
g3183
sg68
(lp3198
g61
(g62
g63
NtRp3199
(dp3200
g66
(dp3201
g74
I5
ssg75
g3195
sg68
(lp3202
S'<cStringIO.StringO object at 0x8beb560>'
p3203
asbasbasbag61
(g77
g63
NtRp3204
(dp3205
g66
(dp3206
sg75
g3179
sg68
(lp3207
g61
(g82
g63
NtRp3208
(dp3209
g66
(dp3210
g86
g87
ssg75
g3204
sg68
(lp3211
g247
asbag61
(g82
g63
NtRp3212
(dp3213
g66
(dp3214
g93
g94
ssg75
g3204
sg68
(lp3215
S':'
asbag61
(g82
g63
NtRp3216
(dp3217
g66
(dp3218
sg75
g3204
sg68
(lp3219
g61
(g62
g63
NtRp3220
(dp3221
g66
(dp3222
g74
I5
ssg75
g3216
sg68
(lp3223
g61
(g70
g63
NtRp3224
(dp3225
g66
(dp3226
g74
I4
ssg75
Nsg68
(lp3227
g61
(g77
g63
NtRp3228
(dp3229
g66
(dp3230
sg75
g3224
sg68
(lp3231
g61
(g82
g63
NtRp3232
(dp3233
g66
(dp3234
g86
g87
ssg75
g3228
sg68
(lp3235
S'session_id_final_impulse'
p3236
asbag61
(g82
g63
NtRp3237
(dp3238
g66
(dp3239
g93
g94
ssg75
g3228
sg68
(lp3240
S':'
asbag61
(g82
g63
NtRp3241
(dp3242
g66
(dp3243
sg75
g3228
sg68
(lp3244
g61
(g62
g63
NtRp3245
(dp3246
g66
(dp3247
g74
I4
ssg75
g3241
sg68
(lp3248
g458
ag61
(g70
g63
NtRp3249
(dp3250
g66
(dp3251
g74
I3
ssg75
Nsg68
(lp3252
g61
(g77
g63
NtRp3253
(dp3254
g66
(dp3255
sg75
g3249
sg68
(lp3256
g61
(g82
g63
NtRp3257
(dp3258
g66
(dp3259
g86
g87
ssg75
g3253
sg68
(lp3260
g298
asbag61
(g82
g63
NtRp3261
(dp3262
g66
(dp3263
g93
g94
ssg75
g3253
sg68
(lp3264
S':'
asbag61
(g82
g63
NtRp3265
(dp3266
g66
(dp3267
sg75
g3253
sg68
(lp3268
g61
(g62
g63
NtRp3269
(dp3270
g66
(dp3271
g74
I3
ssg75
g3265
sg68
(lp3272
S''
asbasbasbag61
(g77
g63
NtRp3273
(dp3274
g66
(dp3275
sg75
g3249
sg68
(lp3276
g61
(g82
g63
NtRp3277
(dp3278
g66
(dp3279
g86
g87
ssg75
g3273
sg68
(lp3280
g319
asbag61
(g82
g63
NtRp3281
(dp3282
g66
(dp3283
g93
g94
ssg75
g3273
sg68
(lp3284
S':'
asbag61
(g82
g63
NtRp3285
(dp3286
g66
(dp3287
sg75
g3273
sg68
(lp3288
g61
(g62
g63
NtRp3289
(dp3290
g66
(dp3291
g74
I3
ssg75
g3285
sg68
(lp3292
S''
asbasbasbag61
(g77
g63
NtRp3293
(dp3294
g66
(dp3295
sg75
g3249
sg68
(lp3296
g61
(g82
g63
NtRp3297
(dp3298
g66
(dp3299
g86
g87
ssg75
g3293
sg68
(lp3300
g340
asbag61
(g82
g63
NtRp3301
(dp3302
g66
(dp3303
g93
g94
ssg75
g3293
sg68
(lp3304
S':'
asbag61
(g82
g63
NtRp3305
(dp3306
g66
(dp3307
sg75
g3293
sg68
(lp3308
g61
(g62
g63
NtRp3309
(dp3310
g66
(dp3311
g74
I3
ssg75
g3305
sg68
(lp3312
S''
asbasbasbag61
(g77
g63
NtRp3313
(dp3314
g66
(dp3315
sg75
g3249
sg68
(lp3316
g61
(g82
g63
NtRp3317
(dp3318
g66
(dp3319
g86
g87
ssg75
g3313
sg68
(lp3320
g361
asbag61
(g82
g63
NtRp3321
(dp3322
g66
(dp3323
g93
g94
ssg75
g3313
sg68
(lp3324
S':'
asbag61
(g82
g63
NtRp3325
(dp3326
g66
(dp3327
sg75
g3313
sg68
(lp3328
g61
(g62
g63
NtRp3329
(dp3330
g66
(dp3331
g74
I3
ssg75
g3325
sg68
(lp3332
S''
asbasbasbag61
(g77
g63
NtRp3333
(dp3334
g66
(dp3335
sg75
g3249
sg68
(lp3336
g61
(g82
g63
NtRp3337
(dp3338
g66
(dp3339
g86
g87
ssg75
g3333
sg68
(lp3340
g382
asbag61
(g82
g63
NtRp3341
(dp3342
g66
(dp3343
g93
g94
ssg75
g3333
sg68
(lp3344
S':'
asbag61
(g82
g63
NtRp3345
(dp3346
g66
(dp3347
sg75
g3333
sg68
(lp3348
g61
(g62
g63
NtRp3349
(dp3350
g66
(dp3351
g74
I3
ssg75
g3345
sg68
(lp3352
S'/'
asbasbasbag61
(g77
g63
NtRp3353
(dp3354
g66
(dp3355
sg75
g3249
sg68
(lp3356
g61
(g82
g63
NtRp3357
(dp3358
g66
(dp3359
g86
g87
ssg75
g3353
sg68
(lp3360
g403
asbag61
(g82
g63
NtRp3361
(dp3362
g66
(dp3363
g93
g94
ssg75
g3353
sg68
(lp3364
S':'
asbag61
(g82
g63
NtRp3365
(dp3366
g66
(dp3367
sg75
g3353
sg68
(lp3368
g61
(g62
g63
NtRp3369
(dp3370
g66
(dp3371
g74
I3
ssg75
g3365
sg68
(lp3372
S''
asbasbasbag61
(g77
g63
NtRp3373
(dp3374
g66
(dp3375
sg75
g3249
sg68
(lp3376
g61
(g82
g63
NtRp3377
(dp3378
g66
(dp3379
g86
g87
ssg75
g3373
sg68
(lp3380
g424
asbag61
(g82
g63
NtRp3381
(dp3382
g66
(dp3383
g93
g94
ssg75
g3373
sg68
(lp3384
S':'
asbag61
(g82
g63
NtRp3385
(dp3386
g66
(dp3387
sg75
g3373
sg68
(lp3388
g61
(g62
g63
NtRp3389
(dp3390
g66
(dp3391
g74
I3
ssg75
g3385
sg68
(lp3392
S''
asbasbasbasbasbasbasbasbasbasbasbag61
(g77
g63
NtRp3393
(dp3394
g66
(dp3395
sg75
g3179
sg68
(lp3396
g61
(g82
g63
NtRp3397
(dp3398
g66
(dp3399
g86
g87
ssg75
g3393
sg68
(lp3400
S'delimiters'
p3401
asbag61
(g82
g63
NtRp3402
(dp3403
g66
(dp3404
g93
g94
ssg75
g3393
sg68
(lp3405
S':'
asbag61
(g82
g63
NtRp3406
(dp3407
g66
(dp3408
sg75
g3393
sg68
(lp3409
g61
(g62
g63
NtRp3410
(dp3411
g66
(dp3412
g74
I5
ssg75
g3406
sg68
(lp3413
g61
(g70
g63
NtRp3414
(dp3415
g66
(dp3416
g74
I4
ssg75
Nsg68
(lp3417
g61
(g77
g63
NtRp3418
(dp3419
g66
(dp3420
sg75
g3414
sg68
(lp3421
g61
(g82
g63
NtRp3422
(dp3423
g66
(dp3424
sg75
g3418
sg68
(lp3425
g61
(g62
g63
NtRp3426
(dp3427
g66
(dp3428
g74
I4
ssg75
g3422
sg68
(lp3429
S'{{'
p3430
asbasbasbag61
(g77
g63
NtRp3431
(dp3432
g66
(dp3433
sg75
g3414
sg68
(lp3434
g61
(g82
g63
NtRp3435
(dp3436
g66
(dp3437
sg75
g3431
sg68
(lp3438
g61
(g62
g63
NtRp3439
(dp3440
g66
(dp3441
g74
I4
ssg75
g3435
sg68
(lp3442
S'}}'
p3443
asbasbasbasbasbasbasbag61
(g77
g63
NtRp3444
(dp3445
g66
(dp3446
sg75
g3179
sg68
(lp3447
g61
(g82
g63
NtRp3448
(dp3449
g66
(dp3450
g86
g87
ssg75
g3444
sg68
(lp3451
S'files'
p3452
asbag61
(g82
g63
NtRp3453
(dp3454
g66
(dp3455
g93
g94
ssg75
g3444
sg68
(lp3456
S':'
asbag61
(g82
g63
NtRp3457
(dp3458
g66
(dp3459
sg75
g3444
sg68
(lp3460
g61
(g62
g63
NtRp3461
(dp3462
g66
(dp3463
g74
I5
ssg75
g3457
sg68
(lp3464
g61
(g70
g63
NtRp3465
(dp3466
g66
(dp3467
g74
I4
ssg75
Nsg68
(lp3468
sbasbasbasbag61
(g77
g63
NtRp3469
(dp3470
g66
(dp3471
sg75
g3179
sg68
(lp3472
g61
(g82
g63
NtRp3473
(dp3474
g66
(dp3475
g86
g87
ssg75
g3469
sg68
(lp3476
S'flash'
p3477
asbag61
(g82
g63
NtRp3478
(dp3479
g66
(dp3480
g93
g94
ssg75
g3469
sg68
(lp3481
S':'
asbag61
(g82
g63
NtRp3482
(dp3483
g66
(dp3484
sg75
g3469
sg68
(lp3485
g61
(g62
g63
NtRp3486
(dp3487
g66
(dp3488
g74
I5
ssg75
g3482
sg68
(lp3489
S''
asbasbasbag61
(g77
g63
NtRp3490
(dp3491
g66
(dp3492
sg75
g3179
sg68
(lp3493
g61
(g82
g63
NtRp3494
(dp3495
g66
(dp3496
g86
g87
ssg75
g3490
sg68
(lp3497
S'generic_patterns'
p3498
asbag61
(g82
g63
NtRp3499
(dp3500
g66
(dp3501
g93
g94
ssg75
g3490
sg68
(lp3502
S':'
asbag61
(g82
g63
NtRp3503
(dp3504
g66
(dp3505
sg75
g3490
sg68
(lp3506
g61
(g62
g63
NtRp3507
(dp3508
g66
(dp3509
g74
I5
ssg75
g3503
sg68
(lp3510
g61
(g70
g63
NtRp3511
(dp3512
g66
(dp3513
g74
I4
ssg75
Nsg68
(lp3514
sbasbasbasbag61
(g77
g63
NtRp3515
(dp3516
g66
(dp3517
sg75
g3179
sg68
(lp3518
g61
(g82
g63
NtRp3519
(dp3520
g66
(dp3521
g86
g87
ssg75
g3515
sg68
(lp3522
S'google_analytics_id'
p3523
asbag61
(g82
g63
NtRp3524
(dp3525
g66
(dp3526
g93
g94
ssg75
g3515
sg68
(lp3527
S':'
asbag61
(g82
g63
NtRp3528
(dp3529
g66
(dp3530
sg75
g3515
sg68
(lp3531
g61
(g62
g63
NtRp3532
(dp3533
g66
(dp3534
g74
I5
ssg75
g3528
sg68
(lp3535
S'None'
p3536
asbasbasbag61
(g77
g63
NtRp3537
(dp3538
g66
(dp3539
sg75
g3179
sg68
(lp3540
g61
(g82
g63
NtRp3541
(dp3542
g66
(dp3543
g86
g87
ssg75
g3537
sg68
(lp3544
S'headers'
p3545
asbag61
(g82
g63
NtRp3546
(dp3547
g66
(dp3548
g93
g94
ssg75
g3537
sg68
(lp3549
S':'
asbag61
(g82
g63
NtRp3550
(dp3551
g66
(dp3552
sg75
g3537
sg68
(lp3553
g61
(g62
g63
NtRp3554
(dp3555
g66
(dp3556
g74
I5
ssg75
g3550
sg68
(lp3557
g61
(g70
g63
NtRp3558
(dp3559
g66
(dp3560
g74
I4
ssg75
Nsg68
(lp3561
g61
(g77
g63
NtRp3562
(dp3563
g66
(dp3564
sg75
g3558
sg68
(lp3565
g61
(g82
g63
NtRp3566
(dp3567
g66
(dp3568
g86
g87
ssg75
g3562
sg68
(lp3569
S'X-Powered-By'
p3570
asbag61
(g82
g63
NtRp3571
(dp3572
g66
(dp3573
g93
g94
ssg75
g3562
sg68
(lp3574
S':'
asbag61
(g82
g63
NtRp3575
(dp3576
g66
(dp3577
sg75
g3562
sg68
(lp3578
g61
(g62
g63
NtRp3579
(dp3580
g66
(dp3581
g74
I4
ssg75
g3575
sg68
(lp3582
S'web2py'
p3583
asbasbasbasbasbasbasbag61
(g77
g63
NtRp3584
(dp3585
g66
(dp3586
sg75
g3179
sg68
(lp3587
g61
(g82
g63
NtRp3588
(dp3589
g66
(dp3590
g86
g87
ssg75
g3584
sg68
(lp3591
S'menu'
p3592
asbag61
(g82
g63
NtRp3593
(dp3594
g66
(dp3595
g93
g94
ssg75
g3584
sg68
(lp3596
S':'
asbag61
(g82
g63
NtRp3597
(dp3598
g66
(dp3599
sg75
g3584
sg68
(lp3600
g61
(g62
g63
NtRp3601
(dp3602
g66
(dp3603
g74
I5
ssg75
g3597
sg68
(lp3604
g61
(g70
g63
NtRp3605
(dp3606
g66
(dp3607
g74
I4
ssg75
Nsg68
(lp3608
g61
(g77
g63
NtRp3609
(dp3610
g66
(dp3611
sg75
g3605
sg68
(lp3612
g61
(g82
g63
NtRp3613
(dp3614
g66
(dp3615
sg75
g3609
sg68
(lp3616
g61
(g62
g63
NtRp3617
(dp3618
g66
(dp3619
g74
I4
ssg75
g3613
sg68
(lp3620
g61
(g70
g63
NtRp3621
(dp3622
g66
(dp3623
g74
I3
ssg75
Nsg68
(lp3624
g61
(g77
g63
NtRp3625
(dp3626
g66
(dp3627
sg75
g3621
sg68
(lp3628
g61
(g82
g63
NtRp3629
(dp3630
g66
(dp3631
sg75
g3625
sg68
(lp3632
g61
(g62
g63
NtRp3633
(dp3634
g66
(dp3635
g74
I3
ssg75
g3629
sg68
(lp3636
cgluon.languages
lazyT_unpickle
p3637
(S't\x04\x00\x00\x00Home'
tRp3638
asbasbasbag61
(g77
g63
NtRp3639
(dp3640
g66
(dp3641
sg75
g3621
sg68
(lp3642
g61
(g82
g63
NtRp3643
(dp3644
g66
(dp3645
sg75
g3639
sg68
(lp3646
g61
(g62
g63
NtRp3647
(dp3648
g66
(dp3649
g74
I3
ssg75
g3643
sg68
(lp3650
g104
asbasbasbag61
(g77
g63
NtRp3651
(dp3652
g66
(dp3653
sg75
g3621
sg68
(lp3654
g61
(g82
g63
NtRp3655
(dp3656
g66
(dp3657
sg75
g3651
sg68
(lp3658
g61
(g62
g63
NtRp3659
(dp3660
g66
(dp3661
g74
I3
ssg75
g3655
sg68
(lp3662
S'/Final_Impulse/default/index'
p3663
asbasbasbag61
(g77
g63
NtRp3664
(dp3665
g66
(dp3666
sg75
g3621
sg68
(lp3667
g61
(g82
g63
NtRp3668
(dp3669
g66
(dp3670
sg75
g3664
sg68
(lp3671
g61
(g62
g63
NtRp3672
(dp3673
g66
(dp3674
g74
I3
ssg75
g3668
sg68
(lp3675
g61
(g70
g63
NtRp3676
(dp3677
g66
(dp3678
g74
I2
ssg75
Nsg68
(lp3679
sbasbasbasbasbasbasbasbag61
(g77
g63
NtRp3680
(dp3681
g66
(dp3682
sg75
g3605
sg68
(lp3683
g61
(g82
g63
NtRp3684
(dp3685
g66
(dp3686
sg75
g3680
sg68
(lp3687
g61
(g62
g63
NtRp3688
(dp3689
g66
(dp3690
g74
I4
ssg75
g3684
sg68
(lp3691
g61
(g70
g63
NtRp3692
(dp3693
g66
(dp3694
g74
I3
ssg75
Nsg68
(lp3695
g61
(g77
g63
NtRp3696
(dp3697
g66
(dp3698
sg75
g3692
sg68
(lp3699
g61
(g82
g63
NtRp3700
(dp3701
g66
(dp3702
sg75
g3696
sg68
(lp3703
g61
(g62
g63
NtRp3704
(dp3705
g66
(dp3706
g74
I3
ssg75
g3700
sg68
(lp3707
g61
(cgluon.html
SPAN
p3708
g63
NtRp3709
(dp3710
g66
(dp3711
S'_class'
p3712
S'highlighted'
p3713
ssg75
Nsg68
(lp3714
g3583
asbasbasbasbag61
(g77
g63
NtRp3715
(dp3716
g66
(dp3717
sg75
g3692
sg68
(lp3718
g61
(g82
g63
NtRp3719
(dp3720
g66
(dp3721
sg75
g3715
sg68
(lp3722
g61
(g62
g63
NtRp3723
(dp3724
g66
(dp3725
g74
I3
ssg75
g3719
sg68
(lp3726
g104
asbasbasbag61
(g77
g63
NtRp3727
(dp3728
g66
(dp3729
sg75
g3692
sg68
(lp3730
g61
(g82
g63
NtRp3731
(dp3732
g66
(dp3733
sg75
g3727
sg68
(lp3734
g61
(g62
g63
NtRp3735
(dp3736
g66
(dp3737
g74
I3
ssg75
g3731
sg68
(lp3738
S'http://web2py.com'
p3739
asbasbasbag61
(g77
g63
NtRp3740
(dp3741
g66
(dp3742
sg75
g3692
sg68
(lp3743
g61
(g82
g63
NtRp3744
(dp3745
g66
(dp3746
sg75
g3740
sg68
(lp3747
g61
(g62
g63
NtRp3748
(dp3749
g66
(dp3750
g74
I3
ssg75
g3744
sg68
(lp3751
g61
(g70
g63
NtRp3752
(dp3753
g66
(dp3754
g74
I2
ssg75
Nsg68
(lp3755
g61
(g77
g63
NtRp3756
(dp3757
g66
(dp3758
sg75
g3752
sg68
(lp3759
g61
(g82
g63
NtRp3760
(dp3761
g66
(dp3762
sg75
g3756
sg68
(lp3763
g61
(g62
g63
NtRp3764
(dp3765
g66
(dp3766
g74
I2
ssg75
g3760
sg68
(lp3767
g61
(g70
g63
NtRp3768
(dp3769
g66
(dp3770
g74
I1
ssg75
Nsg68
(lp3771
g61
(g77
g63
NtRp3772
(dp3773
g66
(dp3774
sg75
g3768
sg68
(lp3775
g61
(g82
g63
NtRp3776
(dp3777
g66
(dp3778
sg75
g3772
sg68
(lp3779
g61
(g62
g63
NtRp3780
(dp3781
g66
(dp3782
g74
I1
ssg75
g3776
sg68
(lp3783
g3637
(S's\x08\x00\x00\x00My Sites'
tRp3784
asbasbasbag61
(g77
g63
NtRp3785
(dp3786
g66
(dp3787
sg75
g3768
sg68
(lp3788
g61
(g82
g63
NtRp3789
(dp3790
g66
(dp3791
sg75
g3785
sg68
(lp3792
g61
(g62
g63
NtRp3793
(dp3794
g66
(dp3795
g74
I1
ssg75
g3789
sg68
(lp3796
I00
asbasbasbag61
(g77
g63
NtRp3797
(dp3798
g66
(dp3799
sg75
g3768
sg68
(lp3800
g61
(g82
g63
NtRp3801
(dp3802
g66
(dp3803
sg75
g3797
sg68
(lp3804
g61
(g62
g63
NtRp3805
(dp3806
g66
(dp3807
g74
I1
ssg75
g3801
sg68
(lp3808
S'/admin/default/site'
p3809
asbasbasbasbasbasbasbag61
(g77
g63
NtRp3810
(dp3811
g66
(dp3812
sg75
g3752
sg68
(lp3813
g61
(g82
g63
NtRp3814
(dp3815
g66
(dp3816
sg75
g3810
sg68
(lp3817
g61
(g62
g63
NtRp3818
(dp3819
g66
(dp3820
g74
I2
ssg75
g3814
sg68
(lp3821
g61
(g70
g63
NtRp3822
(dp3823
g66
(dp3824
g74
I1
ssg75
Nsg68
(lp3825
g61
(g77
g63
NtRp3826
(dp3827
g66
(dp3828
sg75
g3822
sg68
(lp3829
g61
(g82
g63
NtRp3830
(dp3831
g66
(dp3832
sg75
g3826
sg68
(lp3833
g61
(g62
g63
NtRp3834
(dp3835
g66
(dp3836
g74
I1
ssg75
g3830
sg68
(lp3837
g3637
(S's\x08\x00\x00\x00This App'
tRp3838
asbasbasbag61
(g77
g63
NtRp3839
(dp3840
g66
(dp3841
sg75
g3822
sg68
(lp3842
g61
(g82
g63
NtRp3843
(dp3844
g66
(dp3845
sg75
g3839
sg68
(lp3846
g61
(g62
g63
NtRp3847
(dp3848
g66
(dp3849
g74
I1
ssg75
g3843
sg68
(lp3850
I00
asbasbasbag61
(g77
g63
NtRp3851
(dp3852
g66
(dp3853
sg75
g3822
sg68
(lp3854
g61
(g82
g63
NtRp3855
(dp3856
g66
(dp3857
sg75
g3851
sg68
(lp3858
g61
(g62
g63
NtRp3859
(dp3860
g66
(dp3861
g74
I1
ssg75
g3855
sg68
(lp3862
S'/admin/default/design/Final_Impulse'
p3863
asbasbasbag61
(g77
g63
NtRp3864
(dp3865
g66
(dp3866
sg75
g3822
sg68
(lp3867
g61
(g82
g63
NtRp3868
(dp3869
g66
(dp3870
sg75
g3864
sg68
(lp3871
g61
(g62
g63
NtRp3872
(dp3873
g66
(dp3874
g74
I1
ssg75
g3868
sg68
(lp3875
(lp3876
(g3637
(S't\n\x00\x00\x00Controller'
tRp3877
I00
S'/admin/default/edit/Final_Impulse/controllers/default.py'
tp3878
a(g3637
(S't\x04\x00\x00\x00View'
tRp3879
I00
S'/admin/default/edit/Final_Impulse/views/default/show_image_comments.html'
tp3880
a(g3637
(S't\x06\x00\x00\x00Layout'
tRp3881
I00
S'/admin/default/edit/Final_Impulse/views/layout.html'
tp3882
a(g3637
(S't\n\x00\x00\x00Stylesheet'
tRp3883
I00
S'/admin/default/edit/Final_Impulse/static/css/web2py.css'
tp3884
a(g3637
(S's\x08\x00\x00\x00DB Model'
tRp3885
I00
S'/admin/default/edit/Final_Impulse/models/db.py'
tp3886
a(g3637
(S's\n\x00\x00\x00Menu Model'
tRp3887
I00
S'/admin/default/edit/Final_Impulse/models/menu.py'
tp3888
a(g3637
(S't\x08\x00\x00\x00Database'
tRp3889
I00
S'/Final_Impulse/appadmin/index'
tp3890
a(g3637
(S't\x06\x00\x00\x00Errors'
tRp3891
I00
S'/admin/default/errors/Final_Impulse'
tp3892
a(g3637
(S't\x05\x00\x00\x00About'
tRp3893
I00
S'/admin/default/about/Final_Impulse'
tp3894
aasbasbasbasbasbasbasbag61
(g77
g63
NtRp3895
(dp3896
g66
(dp3897
sg75
g3752
sg68
(lp3898
g61
(g82
g63
NtRp3899
(dp3900
g66
(dp3901
sg75
g3895
sg68
(lp3902
g61
(g62
g63
NtRp3903
(dp3904
g66
(dp3905
g74
I2
ssg75
g3899
sg68
(lp3906
g61
(g70
g63
NtRp3907
(dp3908
g66
(dp3909
g74
I1
ssg75
Nsg68
(lp3910
g61
(g77
g63
NtRp3911
(dp3912
g66
(dp3913
sg75
g3907
sg68
(lp3914
g61
(g82
g63
NtRp3915
(dp3916
g66
(dp3917
sg75
g3911
sg68
(lp3918
g61
(g62
g63
NtRp3919
(dp3920
g66
(dp3921
g74
I1
ssg75
g3915
sg68
(lp3922
S'web2py.com'
p3923
asbasbasbag61
(g77
g63
NtRp3924
(dp3925
g66
(dp3926
sg75
g3907
sg68
(lp3927
g61
(g82
g63
NtRp3928
(dp3929
g66
(dp3930
sg75
g3924
sg68
(lp3931
g61
(g62
g63
NtRp3932
(dp3933
g66
(dp3934
g74
I1
ssg75
g3928
sg68
(lp3935
I00
asbasbasbag61
(g77
g63
NtRp3936
(dp3937
g66
(dp3938
sg75
g3907
sg68
(lp3939
g61
(g82
g63
NtRp3940
(dp3941
g66
(dp3942
sg75
g3936
sg68
(lp3943
g61
(g62
g63
NtRp3944
(dp3945
g66
(dp3946
g74
I1
ssg75
g3940
sg68
(lp3947
S'http://www.web2py.com'
p3948
asbasbasbag61
(g77
g63
NtRp3949
(dp3950
g66
(dp3951
sg75
g3907
sg68
(lp3952
g61
(g82
g63
NtRp3953
(dp3954
g66
(dp3955
sg75
g3949
sg68
(lp3956
g61
(g62
g63
NtRp3957
(dp3958
g66
(dp3959
g74
I1
ssg75
g3953
sg68
(lp3960
(lp3961
(g3637
(S't\x08\x00\x00\x00Download'
tRp3962
I00
S'http://www.web2py.com/examples/default/download'
p3963
tp3964
a(g3637
(S't\x07\x00\x00\x00Support'
tRp3965
I00
S'http://www.web2py.com/examples/default/support'
p3966
tp3967
a(g3637
(S't\x04\x00\x00\x00Demo'
tRp3968
I00
S'http://web2py.com/demo_admin'
p3969
tp3970
a(g3637
(S's\x0e\x00\x00\x00Quick Examples'
tRp3971
I00
S'http://web2py.com/examples/default/examples'
p3972
tp3973
a(g3637
(S't\x03\x00\x00\x00FAQ'
tRp3974
I00
S'http://web2py.com/AlterEgo'
p3975
tp3976
a(g3637
(S't\x06\x00\x00\x00Videos'
tRp3977
I00
S'http://www.web2py.com/examples/default/videos/'
p3978
tp3979
a(g3637
(S's\x11\x00\x00\x00Free Applications'
tRp3980
I00
S'http://web2py.com/appliances'
p3981
tp3982
a(g3637
(S't\x07\x00\x00\x00Plugins'
tRp3983
I00
S'http://web2py.com/plugins'
p3984
tp3985
a(g3637
(S't\x07\x00\x00\x00Layouts'
tRp3986
I00
S'http://web2py.com/layouts'
p3987
tp3988
a(g3637
(S't\x07\x00\x00\x00Recipes'
tRp3989
I00
S'http://web2pyslices.com/'
p3990
tp3991
a(g3637
(S't\x08\x00\x00\x00Semantic'
tRp3992
I00
S'http://web2py.com/semantic'
p3993
tp3994
aasbasbasbasbasbasbasbag61
(g77
g63
NtRp3995
(dp3996
g66
(dp3997
sg75
g3752
sg68
(lp3998
g61
(g82
g63
NtRp3999
(dp4000
g66
(dp4001
sg75
g3995
sg68
(lp4002
g61
(g62
g63
NtRp4003
(dp4004
g66
(dp4005
g74
I2
ssg75
g3999
sg68
(lp4006
g61
(g70
g63
NtRp4007
(dp4008
g66
(dp4009
g74
I1
ssg75
Nsg68
(lp4010
g61
(g77
g63
NtRp4011
(dp4012
g66
(dp4013
sg75
g4007
sg68
(lp4014
g61
(g82
g63
NtRp4015
(dp4016
g66
(dp4017
sg75
g4011
sg68
(lp4018
g61
(g62
g63
NtRp4019
(dp4020
g66
(dp4021
g74
I1
ssg75
g4015
sg68
(lp4022
g3637
(S't\r\x00\x00\x00Documentation'
tRp4023
asbasbasbag61
(g77
g63
NtRp4024
(dp4025
g66
(dp4026
sg75
g4007
sg68
(lp4027
g61
(g82
g63
NtRp4028
(dp4029
g66
(dp4030
sg75
g4024
sg68
(lp4031
g61
(g62
g63
NtRp4032
(dp4033
g66
(dp4034
g74
I1
ssg75
g4028
sg68
(lp4035
I00
asbasbasbag61
(g77
g63
NtRp4036
(dp4037
g66
(dp4038
sg75
g4007
sg68
(lp4039
g61
(g82
g63
NtRp4040
(dp4041
g66
(dp4042
sg75
g4036
sg68
(lp4043
g61
(g62
g63
NtRp4044
(dp4045
g66
(dp4046
g74
I1
ssg75
g4040
sg68
(lp4047
S'http://www.web2py.com/book'
p4048
asbasbasbag61
(g77
g63
NtRp4049
(dp4050
g66
(dp4051
sg75
g4007
sg68
(lp4052
g61
(g82
g63
NtRp4053
(dp4054
g66
(dp4055
sg75
g4049
sg68
(lp4056
g61
(g62
g63
NtRp4057
(dp4058
g66
(dp4059
g74
I1
ssg75
g4053
sg68
(lp4060
(lp4061
(g3637
(S't\x07\x00\x00\x00Preface'
tRp4062
I00
S'http://www.web2py.com/book/default/chapter/00'
p4063
tp4064
a(g3637
(S't\x0c\x00\x00\x00Introduction'
tRp4065
I00
S'http://www.web2py.com/book/default/chapter/01'
p4066
tp4067
a(g3637
(S't\x06\x00\x00\x00Python'
tRp4068
I00
S'http://www.web2py.com/book/default/chapter/02'
p4069
tp4070
a(g3637
(S't\x08\x00\x00\x00Overview'
tRp4071
I00
S'http://www.web2py.com/book/default/chapter/03'
p4072
tp4073
a(g3637
(S's\x08\x00\x00\x00The Core'
tRp4074
I00
S'http://www.web2py.com/book/default/chapter/04'
p4075
tp4076
a(g3637
(S's\t\x00\x00\x00The Views'
tRp4077
I00
S'http://www.web2py.com/book/default/chapter/05'
p4078
tp4079
a(g3637
(S't\x08\x00\x00\x00Database'
tRp4080
I00
S'http://www.web2py.com/book/default/chapter/06'
p4081
tp4082
a(g3637
(S's\x14\x00\x00\x00Forms and Validators'
tRp4083
I00
S'http://www.web2py.com/book/default/chapter/07'
p4084
tp4085
a(g3637
(S's\r\x00\x00\x00Email and SMS'
tRp4086
I00
S'http://www.web2py.com/book/default/chapter/08'
p4087
tp4088
a(g3637
(S's\x0e\x00\x00\x00Access Control'
tRp4089
I00
S'http://www.web2py.com/book/default/chapter/09'
p4090
tp4091
a(g3637
(S't\x08\x00\x00\x00Services'
tRp4092
I00
S'http://www.web2py.com/book/default/chapter/10'
p4093
tp4094
a(g3637
(S's\x0c\x00\x00\x00Ajax Recipes'
tRp4095
I00
S'http://www.web2py.com/book/default/chapter/11'
p4096
tp4097
a(g3637
(S's\x16\x00\x00\x00Components and Plugins'
tRp4098
I00
S'http://www.web2py.com/book/default/chapter/12'
p4099
tp4100
a(g3637
(S's\x12\x00\x00\x00Deployment Recipes'
tRp4101
I00
S'http://www.web2py.com/book/default/chapter/13'
p4102
tp4103
a(g3637
(S's\r\x00\x00\x00Other Recipes'
tRp4104
I00
S'http://www.web2py.com/book/default/chapter/14'
p4105
tp4106
a(g3637
(S's\r\x00\x00\x00Buy this book'
tRp4107
I00
S'http://stores.lulu.com/web2py'
p4108
tp4109
aasbasbasbasbasbasbasbag61
(g77
g63
NtRp4110
(dp4111
g66
(dp4112
sg75
g3752
sg68
(lp4113
g61
(g82
g63
NtRp4114
(dp4115
g66
(dp4116
sg75
g4110
sg68
(lp4117
g61
(g62
g63
NtRp4118
(dp4119
g66
(dp4120
g74
I2
ssg75
g4114
sg68
(lp4121
g61
(g70
g63
NtRp4122
(dp4123
g66
(dp4124
g74
I1
ssg75
Nsg68
(lp4125
g61
(g77
g63
NtRp4126
(dp4127
g66
(dp4128
sg75
g4122
sg68
(lp4129
g61
(g82
g63
NtRp4130
(dp4131
g66
(dp4132
sg75
g4126
sg68
(lp4133
g61
(g62
g63
NtRp4134
(dp4135
g66
(dp4136
g74
I1
ssg75
g4130
sg68
(lp4137
g3637
(S't\t\x00\x00\x00Community'
tRp4138
asbasbasbag61
(g77
g63
NtRp4139
(dp4140
g66
(dp4141
sg75
g4122
sg68
(lp4142
g61
(g82
g63
NtRp4143
(dp4144
g66
(dp4145
sg75
g4139
sg68
(lp4146
g61
(g62
g63
NtRp4147
(dp4148
g66
(dp4149
g74
I1
ssg75
g4143
sg68
(lp4150
I00
asbasbasbag61
(g77
g63
NtRp4151
(dp4152
g66
(dp4153
sg75
g4122
sg68
(lp4154
g61
(g82
g63
NtRp4155
(dp4156
g66
(dp4157
sg75
g4151
sg68
(lp4158
g61
(g62
g63
NtRp4159
(dp4160
g66
(dp4161
g74
I1
ssg75
g4155
sg68
(lp4162
Nasbasbasbag61
(g77
g63
NtRp4163
(dp4164
g66
(dp4165
sg75
g4122
sg68
(lp4166
g61
(g82
g63
NtRp4167
(dp4168
g66
(dp4169
sg75
g4163
sg68
(lp4170
g61
(g62
g63
NtRp4171
(dp4172
g66
(dp4173
g74
I1
ssg75
g4167
sg68
(lp4174
(lp4175
(g3637
(S't\x06\x00\x00\x00Groups'
tRp4176
I00
S'http://www.web2py.com/examples/default/usergroups'
p4177
tp4178
a(g3637
(S't\x07\x00\x00\x00Twitter'
tRp4179
I00
S'http://twitter.com/web2py'
p4180
tp4181
a(g3637
(S's\t\x00\x00\x00Live Chat'
tRp4182
I00
S'http://webchat.freenode.net/?channels=web2py'
p4183
tp4184
aasbasbasbasbasbasbasbag61
(g77
g63
NtRp4185
(dp4186
g66
(dp4187
sg75
g3752
sg68
(lp4188
g61
(g82
g63
NtRp4189
(dp4190
g66
(dp4191
sg75
g4185
sg68
(lp4192
g61
(g62
g63
NtRp4193
(dp4194
g66
(dp4195
g74
I2
ssg75
g4189
sg68
(lp4196
g61
(g70
g63
NtRp4197
(dp4198
g66
(dp4199
g74
I1
ssg75
Nsg68
(lp4200
g61
(g77
g63
NtRp4201
(dp4202
g66
(dp4203
sg75
g4197
sg68
(lp4204
g61
(g82
g63
NtRp4205
(dp4206
g66
(dp4207
sg75
g4201
sg68
(lp4208
g61
(g62
g63
NtRp4209
(dp4210
g66
(dp4211
g74
I1
ssg75
g4205
sg68
(lp4212
g3637
(S't\x07\x00\x00\x00Plugins'
tRp4213
asbasbasbag61
(g77
g63
NtRp4214
(dp4215
g66
(dp4216
sg75
g4197
sg68
(lp4217
g61
(g82
g63
NtRp4218
(dp4219
g66
(dp4220
sg75
g4214
sg68
(lp4221
g61
(g62
g63
NtRp4222
(dp4223
g66
(dp4224
g74
I1
ssg75
g4218
sg68
(lp4225
I00
asbasbasbag61
(g77
g63
NtRp4226
(dp4227
g66
(dp4228
sg75
g4197
sg68
(lp4229
g61
(g82
g63
NtRp4230
(dp4231
g66
(dp4232
sg75
g4226
sg68
(lp4233
g61
(g62
g63
NtRp4234
(dp4235
g66
(dp4236
g74
I1
ssg75
g4230
sg68
(lp4237
Nasbasbasbag61
(g77
g63
NtRp4238
(dp4239
g66
(dp4240
sg75
g4197
sg68
(lp4241
g61
(g82
g63
NtRp4242
(dp4243
g66
(dp4244
sg75
g4238
sg68
(lp4245
g61
(g62
g63
NtRp4246
(dp4247
g66
(dp4248
g74
I1
ssg75
g4242
sg68
(lp4249
(lp4250
(S'plugin_wiki'
p4251
I00
S'http://web2py.com/examples/default/download'
p4252
tp4253
a(g3637
(S's\r\x00\x00\x00Other Plugins'
tRp4254
I00
g3984
tp4255
a(g3637
(S's\x0e\x00\x00\x00Layout Plugins'
tRp4256
I00
g3987
tp4257
aasbasbasbasbasbasbasbasbasbasbasbasbasbasbasbasbasbasbasbag61
(g77
g63
NtRp4258
(dp4259
g66
(dp4260
sg75
g3179
sg68
(lp4261
g61
(g82
g63
NtRp4262
(dp4263
g66
(dp4264
g86
g87
ssg75
g4258
sg68
(lp4265
S'meta'
p4266
asbag61
(g82
g63
NtRp4267
(dp4268
g66
(dp4269
g93
g94
ssg75
g4258
sg68
(lp4270
S':'
asbag61
(g82
g63
NtRp4271
(dp4272
g66
(dp4273
sg75
g4258
sg68
(lp4274
g61
(g62
g63
NtRp4275
(dp4276
g66
(dp4277
g74
I5
ssg75
g4271
sg68
(lp4278
g61
(g70
g63
NtRp4279
(dp4280
g66
(dp4281
g74
I4
ssg75
Nsg68
(lp4282
g61
(g77
g63
NtRp4283
(dp4284
g66
(dp4285
sg75
g4279
sg68
(lp4286
g61
(g82
g63
NtRp4287
(dp4288
g66
(dp4289
g86
g87
ssg75
g4283
sg68
(lp4290
S'author'
p4291
asbag61
(g82
g63
NtRp4292
(dp4293
g66
(dp4294
g93
g94
ssg75
g4283
sg68
(lp4295
S':'
asbag61
(g82
g63
NtRp4296
(dp4297
g66
(dp4298
sg75
g4283
sg68
(lp4299
g61
(g62
g63
NtRp4300
(dp4301
g66
(dp4302
g74
I4
ssg75
g4296
sg68
(lp4303
S'Your Name <you@example.com>'
p4304
asbasbasbag61
(g77
g63
NtRp4305
(dp4306
g66
(dp4307
sg75
g4279
sg68
(lp4308
g61
(g82
g63
NtRp4309
(dp4310
g66
(dp4311
g86
g87
ssg75
g4305
sg68
(lp4312
S'description'
p4313
asbag61
(g82
g63
NtRp4314
(dp4315
g66
(dp4316
g93
g94
ssg75
g4305
sg68
(lp4317
S':'
asbag61
(g82
g63
NtRp4318
(dp4319
g66
(dp4320
sg75
g4305
sg68
(lp4321
g61
(g62
g63
NtRp4322
(dp4323
g66
(dp4324
g74
I4
ssg75
g4318
sg68
(lp4325
S'a cool new app'
p4326
asbasbasbag61
(g77
g63
NtRp4327
(dp4328
g66
(dp4329
sg75
g4279
sg68
(lp4330
g61
(g82
g63
NtRp4331
(dp4332
g66
(dp4333
g86
g87
ssg75
g4327
sg68
(lp4334
S'generator'
p4335
asbag61
(g82
g63
NtRp4336
(dp4337
g66
(dp4338
g93
g94
ssg75
g4327
sg68
(lp4339
S':'
asbag61
(g82
g63
NtRp4340
(dp4341
g66
(dp4342
sg75
g4327
sg68
(lp4343
g61
(g62
g63
NtRp4344
(dp4345
g66
(dp4346
g74
I4
ssg75
g4340
sg68
(lp4347
S'Web2py Web Framework'
p4348
asbasbasbag61
(g77
g63
NtRp4349
(dp4350
g66
(dp4351
sg75
g4279
sg68
(lp4352
g61
(g82
g63
NtRp4353
(dp4354
g66
(dp4355
g86
g87
ssg75
g4349
sg68
(lp4356
S'keywords'
p4357
asbag61
(g82
g63
NtRp4358
(dp4359
g66
(dp4360
g93
g94
ssg75
g4349
sg68
(lp4361
S':'
asbag61
(g82
g63
NtRp4362
(dp4363
g66
(dp4364
sg75
g4349
sg68
(lp4365
g61
(g62
g63
NtRp4366
(dp4367
g66
(dp4368
g74
I4
ssg75
g4362
sg68
(lp4369
S'web2py, python, framework'
p4370
asbasbasbasbasbasbasbag61
(g77
g63
NtRp4371
(dp4372
g66
(dp4373
sg75
g3179
sg68
(lp4374
g61
(g82
g63
NtRp4375
(dp4376
g66
(dp4377
g86
g87
ssg75
g4371
sg68
(lp4378
S'models_to_run'
p4379
asbag61
(g82
g63
NtRp4380
(dp4381
g66
(dp4382
g93
g94
ssg75
g4371
sg68
(lp4383
S':'
asbag61
(g82
g63
NtRp4384
(dp4385
g66
(dp4386
sg75
g4371
sg68
(lp4387
g61
(g62
g63
NtRp4388
(dp4389
g66
(dp4390
g74
I5
ssg75
g4384
sg68
(lp4391
g61
(g70
g63
NtRp4392
(dp4393
g66
(dp4394
g74
I4
ssg75
Nsg68
(lp4395
g61
(g77
g63
NtRp4396
(dp4397
g66
(dp4398
sg75
g4392
sg68
(lp4399
g61
(g82
g63
NtRp4400
(dp4401
g66
(dp4402
sg75
g4396
sg68
(lp4403
g61
(g62
g63
NtRp4404
(dp4405
g66
(dp4406
g74
I4
ssg75
g4400
sg68
(lp4407
S'^\\w+\\.py$'
p4408
asbasbasbag61
(g77
g63
NtRp4409
(dp4410
g66
(dp4411
sg75
g4392
sg68
(lp4412
g61
(g82
g63
NtRp4413
(dp4414
g66
(dp4415
sg75
g4409
sg68
(lp4416
g61
(g62
g63
NtRp4417
(dp4418
g66
(dp4419
g74
I4
ssg75
g4413
sg68
(lp4420
S'^default/\\w+\\.py$'
p4421
asbasbasbag61
(g77
g63
NtRp4422
(dp4423
g66
(dp4424
sg75
g4392
sg68
(lp4425
g61
(g82
g63
NtRp4426
(dp4427
g66
(dp4428
sg75
g4422
sg68
(lp4429
g61
(g62
g63
NtRp4430
(dp4431
g66
(dp4432
g74
I4
ssg75
g4426
sg68
(lp4433
S'^default/show_image_comments/\\w+\\.py$'
p4434
asbasbasbasbasbasbasbag61
(g77
g63
NtRp4435
(dp4436
g66
(dp4437
sg75
g3179
sg68
(lp4438
g61
(g82
g63
NtRp4439
(dp4440
g66
(dp4441
g86
g87
ssg75
g4435
sg68
(lp4442
S'postprocessing'
p4443
asbag61
(g82
g63
NtRp4444
(dp4445
g66
(dp4446
g93
g94
ssg75
g4435
sg68
(lp4447
S':'
asbag61
(g82
g63
NtRp4448
(dp4449
g66
(dp4450
sg75
g4435
sg68
(lp4451
g61
(g62
g63
NtRp4452
(dp4453
g66
(dp4454
g74
I5
ssg75
g4448
sg68
(lp4455
g61
(g70
g63
NtRp4456
(dp4457
g66
(dp4458
g74
I4
ssg75
Nsg68
(lp4459
sbasbasbasbag61
(g77
g63
NtRp4460
(dp4461
g66
(dp4462
sg75
g3179
sg68
(lp4463
g61
(g82
g63
NtRp4464
(dp4465
g66
(dp4466
g86
g87
ssg75
g4460
sg68
(lp4467
S'session_cookie_expires'
p4468
asbag61
(g82
g63
NtRp4469
(dp4470
g66
(dp4471
g93
g94
ssg75
g4460
sg68
(lp4472
S':'
asbag61
(g82
g63
NtRp4473
(dp4474
g66
(dp4475
sg75
g4460
sg68
(lp4476
g61
(g62
g63
NtRp4477
(dp4478
g66
(dp4479
g74
I5
ssg75
g4473
sg68
(lp4480
S'None'
p4481
asbasbasbag61
(g77
g63
NtRp4482
(dp4483
g66
(dp4484
sg75
g3179
sg68
(lp4485
g61
(g82
g63
NtRp4486
(dp4487
g66
(dp4488
g86
g87
ssg75
g4482
sg68
(lp4489
S'session_data_name'
p4490
asbag61
(g82
g63
NtRp4491
(dp4492
g66
(dp4493
g93
g94
ssg75
g4482
sg68
(lp4494
S':'
asbag61
(g82
g63
NtRp4495
(dp4496
g66
(dp4497
sg75
g4482
sg68
(lp4498
g61
(g62
g63
NtRp4499
(dp4500
g66
(dp4501
g74
I5
ssg75
g4495
sg68
(lp4502
S'session_data_final_impulse'
p4503
asbasbasbag61
(g77
g63
NtRp4504
(dp4505
g66
(dp4506
sg75
g3179
sg68
(lp4507
g61
(g82
g63
NtRp4508
(dp4509
g66
(dp4510
g86
g87
ssg75
g4504
sg68
(lp4511
S'session_file'
p4512
asbag61
(g82
g63
NtRp4513
(dp4514
g66
(dp4515
g93
g94
ssg75
g4504
sg68
(lp4516
S':'
asbag61
(g82
g63
NtRp4517
(dp4518
g66
(dp4519
sg75
g4504
sg68
(lp4520
g61
(g62
g63
NtRp4521
(dp4522
g66
(dp4523
g74
I5
ssg75
g4517
sg68
(lp4524
S"<open file '/Users/abaric/Downloads/web2py/web2py.app/Contents/Resources/applications/Final_Impulse/sessions/127.0.0.1-0d5885c8-812a-4164-8aff-e1a4f026de9a', mode 'rb+' at 0x766fe78>"
p4525
asbasbasbag61
(g77
g63
NtRp4526
(dp4527
g66
(dp4528
sg75
g3179
sg68
(lp4529
g61
(g82
g63
NtRp4530
(dp4531
g66
(dp4532
g86
g87
ssg75
g4526
sg68
(lp4533
S'session_filename'
p4534
asbag61
(g82
g63
NtRp4535
(dp4536
g66
(dp4537
g93
g94
ssg75
g4526
sg68
(lp4538
S':'
asbag61
(g82
g63
NtRp4539
(dp4540
g66
(dp4541
sg75
g4526
sg68
(lp4542
g61
(g62
g63
NtRp4543
(dp4544
g66
(dp4545
g74
I5
ssg75
g4539
sg68
(lp4546
S'/Users/abaric/Downloads/web2py/web2py.app/Contents/Resources/applications/Final_Impulse/sessions/127.0.0.1-0d5885c8-812a-4164-8aff-e1a4f026de9a'
p4547
asbasbasbag61
(g77
g63
NtRp4548
(dp4549
g66
(dp4550
sg75
g3179
sg68
(lp4551
g61
(g82
g63
NtRp4552
(dp4553
g66
(dp4554
g86
g87
ssg75
g4548
sg68
(lp4555
S'session_id'
p4556
asbag61
(g82
g63
NtRp4557
(dp4558
g66
(dp4559
g93
g94
ssg75
g4548
sg68
(lp4560
S':'
asbag61
(g82
g63
NtRp4561
(dp4562
g66
(dp4563
sg75
g4548
sg68
(lp4564
g61
(g62
g63
NtRp4565
(dp4566
g66
(dp4567
g74
I5
ssg75
g4561
sg68
(lp4568
g458
asbasbasbag61
(g77
g63
NtRp4569
(dp4570
g66
(dp4571
sg75
g3179
sg68
(lp4572
g61
(g82
g63
NtRp4573
(dp4574
g66
(dp4575
g86
g87
ssg75
g4569
sg68
(lp4576
S'session_id_name'
p4577
asbag61
(g82
g63
NtRp4578
(dp4579
g66
(dp4580
g93
g94
ssg75
g4569
sg68
(lp4581
S':'
asbag61
(g82
g63
NtRp4582
(dp4583
g66
(dp4584
sg75
g4569
sg68
(lp4585
g61
(g62
g63
NtRp4586
(dp4587
g66
(dp4588
g74
I5
ssg75
g4582
sg68
(lp4589
g3236
asbasbasbag61
(g77
g63
NtRp4590
(dp4591
g66
(dp4592
sg75
g3179
sg68
(lp4593
g61
(g82
g63
NtRp4594
(dp4595
g66
(dp4596
g86
g87
ssg75
g4590
sg68
(lp4597
S'session_locked'
p4598
asbag61
(g82
g63
NtRp4599
(dp4600
g66
(dp4601
g93
g94
ssg75
g4590
sg68
(lp4602
S':'
asbag61
(g82
g63
NtRp4603
(dp4604
g66
(dp4605
sg75
g4590
sg68
(lp4606
g61
(g62
g63
NtRp4607
(dp4608
g66
(dp4609
g74
I5
ssg75
g4603
sg68
(lp4610
g1711
asbasbasbag61
(g77
g63
NtRp4611
(dp4612
g66
(dp4613
sg75
g3179
sg68
(lp4614
g61
(g82
g63
NtRp4615
(dp4616
g66
(dp4617
g86
g87
ssg75
g4611
sg68
(lp4618
S'session_new'
p4619
asbag61
(g82
g63
NtRp4620
(dp4621
g66
(dp4622
g93
g94
ssg75
g4611
sg68
(lp4623
S':'
asbag61
(g82
g63
NtRp4624
(dp4625
g66
(dp4626
sg75
g4611
sg68
(lp4627
g61
(g62
g63
NtRp4628
(dp4629
g66
(dp4630
g74
I5
ssg75
g4624
sg68
(lp4631
g104
asbasbasbag61
(g77
g63
NtRp4632
(dp4633
g66
(dp4634
sg75
g3179
sg68
(lp4635
g61
(g82
g63
NtRp4636
(dp4637
g66
(dp4638
g86
g87
ssg75
g4632
sg68
(lp4639
S'session_storage_type'
p4640
asbag61
(g82
g63
NtRp4641
(dp4642
g66
(dp4643
g93
g94
ssg75
g4632
sg68
(lp4644
S':'
asbag61
(g82
g63
NtRp4645
(dp4646
g66
(dp4647
sg75
g4632
sg68
(lp4648
g61
(g62
g63
NtRp4649
(dp4650
g66
(dp4651
g74
I5
ssg75
g4645
sg68
(lp4652
g3142
asbasbasbag61
(g77
g63
NtRp4653
(dp4654
g66
(dp4655
sg75
g3179
sg68
(lp4656
g61
(g82
g63
NtRp4657
(dp4658
g66
(dp4659
g86
g87
ssg75
g4653
sg68
(lp4660
S'status'
p4661
asbag61
(g82
g63
NtRp4662
(dp4663
g66
(dp4664
g93
g94
ssg75
g4653
sg68
(lp4665
S':'
asbag61
(g82
g63
NtRp4666
(dp4667
g66
(dp4668
sg75
g4653
sg68
(lp4669
g61
(g62
g63
NtRp4670
(dp4671
g66
(dp4672
g74
I5
ssg75
g4666
sg68
(lp4673
S'200'
p4674
asbasbasbag61
(g77
g63
NtRp4675
(dp4676
g66
(dp4677
sg75
g3179
sg68
(lp4678
g61
(g82
g63
NtRp4679
(dp4680
g66
(dp4681
g86
g87
ssg75
g4675
sg68
(lp4682
S'subtitle'
p4683
asbag61
(g82
g63
NtRp4684
(dp4685
g66
(dp4686
g93
g94
ssg75
g4675
sg68
(lp4687
S':'
asbag61
(g82
g63
NtRp4688
(dp4689
g66
(dp4690
sg75
g4675
sg68
(lp4691
g61
(g62
g63
NtRp4692
(dp4693
g66
(dp4694
g74
I5
ssg75
g4688
sg68
(lp4695
g3637
(S's\r\x00\x00\x00customize me!'
tRp4696
asbasbasbag61
(g77
g63
NtRp4697
(dp4698
g66
(dp4699
sg75
g3179
sg68
(lp4700
g61
(g82
g63
NtRp4701
(dp4702
g66
(dp4703
g86
g87
ssg75
g4697
sg68
(lp4704
S'title'
p4705
asbag61
(g82
g63
NtRp4706
(dp4707
g66
(dp4708
g93
g94
ssg75
g4697
sg68
(lp4709
S':'
asbag61
(g82
g63
NtRp4710
(dp4711
g66
(dp4712
sg75
g4697
sg68
(lp4713
g61
(g62
g63
NtRp4714
(dp4715
g66
(dp4716
g74
I5
ssg75
g4710
sg68
(lp4717
S'Final Impulse'
p4718
asbasbasbag61
(g77
g63
NtRp4719
(dp4720
g66
(dp4721
sg75
g3179
sg68
(lp4722
g61
(g82
g63
NtRp4723
(dp4724
g66
(dp4725
g86
g87
ssg75
g4719
sg68
(lp4726
S'view'
p4727
asbag61
(g82
g63
NtRp4728
(dp4729
g66
(dp4730
g93
g94
ssg75
g4719
sg68
(lp4731
S':'
asbag61
(g82
g63
NtRp4732
(dp4733
g66
(dp4734
sg75
g4719
sg68
(lp4735
g61
(g62
g63
NtRp4736
(dp4737
g66
(dp4738
g74
I5
ssg75
g4732
sg68
(lp4739
S'default/show_image_comments.html'
p4740
asbasbasbasbasbsS'locals'
p4741
(dp4742
g4
S"'/Users/abaric/Downloads/web2py/web2py.app/Conten...al_Impulse/views/default/show_image_comments.html'"
p4743
sg6
S'\'response.write(\\\'<!DOCTYPE html>\\\\n<!-- paulirish...."></script>\\\\n</body>\\\\n</html>\\\\n\\\\n\\\', escape=False)\''
p4744
sssS'traceback'
p4745
S'Traceback (most recent call last):\n  File "gluon/restricted.py", line 211, in restricted\n  File "gluon/restricted.py", line 194, in compile2\n  File "/Users/abaric/Downloads/web2py/web2py.app/Contents/Resources/applications/Final_Impulse/views/default/show_image_comments.html", line 89\n    response.write(("%s says, "%s"")%(t[0],t[1]))\n                                  ^\nSyntaxError: invalid syntax\n'
p4746
s.