(dp1
S'output'
p2
S"<type 'exceptions.AttributeError'> 'NoneType' object has no attribute 'id'"
p3
sS'layer'
p4
S'/Users/abaric/Downloads/web2py/web2py.app/Contents/Resources/applications/Final_Impulse/controllers/default.py'
p5
sS'code'
p6
S"from gluon.tools import datetime\n\ndef user():\n    return dict(form=auth())\n    \n#def load_roles():\n #  session.user_name=auth.user.first_name\n  # session.roles=[]\n   #     \n    #    if auth.has_membership('teacher'):\n     #       session.user_teacher_id=db(db.teacher.email==auth.user.email).select().first().id\n      #      t=('teacher','load_courses',session.user_teacher_id)\n       #     session.roles.append(t)\n        #    \n        #if auth.has_membership('advisor'):\n          #  session.user_advisor_id=db(db.advisor.email==auth.user.email).select().first().id\n           # a=('advisor','load_advisees',session.user_advisor_id)\n            #session.roles.append(a)\n            #\n        #if auth.has_membership('division_level'):\n         #   session.user_division_level_id=db(db.division_level.email==auth.user.email).select().first().id\n          #  divl=('division level','load_departments',session.user_division_level_id)\n           # session.roles.append(divl)\n                                      \ndef index():\n    #images = db().select(db.image.ALL, orderby=db.image.title)\n    #writings = db().select(db.writing.ALL, orderby=db.writing.title)\n    #videos = db().select(db.video.ALL, orderby=db.video.title)\n    return locals()\n\ndef download():\n    return response.download(request, db)\n\ndef show_image_comments():\n    images=db(db.image).select(db.image.ALL, orderby=db.image.id)\n    d={}\n    for image in images:\n        comments=db((db.image_comment.image_id==image.id) &\\\n                   (db.auth_user.id==db.image_comment.author_id)).select() \n        tuple_list=[]       \n        for comment in comments:\n            author=('%s %s')%(comment.auth_user.first_name,comment.auth_user.last_name)\n            body=('%s')%(comment.image_comment.body)\n            t=(author,body)\n            tuple_list.append(t)\n        d[image.id]=tuple_list\n  \n    form = SQLFORM(db.writing_comment)\n    if form.process().accepted:\n        response.flash = 'your comment is posted'\n    #images = db(db.image_comment.image_id==image.id).select()\n    return locals()\n    \ndef show_writing_comments():\n    writings = db().select(db.writing.ALL, orderby=db.writing.id)\n    d={}\n    for writing in writings:\n        comments=db((db.writing_comment.writing_id==writing.id) &\\\n                   (db.auth_user.id==db.writing_comment.author_id)).select() \n        tuple_list=[]       \n        for comment in comments:\n            author=('%s %s')%(comment.auth_user.first_name,comment.auth_user.last_name)\n            body=('%s')%(comment.writing_comment.body)\n            t=(author,body)\n            tuple_list.append(t)\n        d[writing.id]=tuple_list\n  \n    form = SQLFORM(db.writing_comment)\n    if form.process().accepted:\n        response.flash = 'your comment is posted'\n    #comments = db(db.writing_comment.writing_id==writing.id).select()\n    return locals()\n\ndef show_video_comments():\n    video = db.video(request.args(0))\n    videos=db().select(db.video.ALL, orderby=db.video.id)\n    video_comment=db.video_comment(request.args(0))\n    d={}\n    for video in videos:\n        comments=db((db.video_comment.video_id==video.id) &\\\n                   (db.auth_user.id==db.video_comment.author_id)).select() \n        tuple_list=[]       \n        for comment in comments:\n            author=('%s %s')%(comment.auth_user.first_name,comment.auth_user.last_name)\n            body=('%s')%(comment.video_comment.body)\n            t=(author,body)\n            tuple_list.append(t)\n        d[video.id]=tuple_list\n    form = SQLFORM(db.video_comment)\n    if form.process().accepted:\n        response.flash = 'your comment is posted'\n    return locals()  \n\ndef insert_writing_comment():\n\n    writing_comment=request.post_vars.writing_comment\n   # db.writing_comment.insert(video_id=video_id,video_comment_id=video_comment_id, author_id=author_id,email=email,body=body)\n    \n    db.writing_comment.insert(author_id=auth.user.id,\n                               body=writing_comment,\n                               date_of_entry=datetime.datetime.today())\n    db.commit()\n    redirect(URL('show_writing_comments'))\n    return locals()\n\nresponse._vars=response._caller(insert_writing_comment)\n"
p7
sS'snapshot'
p8
(dp9
S'exception'
p10
(dp11
S'__hash__'
p12
S"<method-wrapper '__hash__' of exceptions.AttributeError object at 0x8fdb8a0>"
p13
sS'__setattr__'
p14
S"<method-wrapper '__setattr__' of exceptions.AttributeError object at 0x8fdb8a0>"
p15
sS'__reduce_ex__'
p16
S'<built-in method __reduce_ex__ of exceptions.AttributeError object at 0x8fdb8a0>'
p17
sS'__getslice__'
p18
S"<method-wrapper '__getslice__' of exceptions.AttributeError object at 0x8fdb8a0>"
p19
sS'__getitem__'
p20
S"<method-wrapper '__getitem__' of exceptions.AttributeError object at 0x8fdb8a0>"
p21
sS'__setstate__'
p22
S'<built-in method __setstate__ of exceptions.AttributeError object at 0x8fdb8a0>'
p23
sS'__reduce__'
p24
S'<built-in method __reduce__ of exceptions.AttributeError object at 0x8fdb8a0>'
p25
sS'__str__'
p26
S"<method-wrapper '__str__' of exceptions.AttributeError object at 0x8fdb8a0>"
p27
sS'args'
p28
S'("\'NoneType\' object has no attribute \'id\'",)'
p29
sS'__getattribute__'
p30
S"<method-wrapper '__getattribute__' of exceptions.AttributeError object at 0x8fdb8a0>"
p31
sS'__class__'
p32
S"<type 'exceptions.AttributeError'>"
p33
sS'__delattr__'
p34
S"<method-wrapper '__delattr__' of exceptions.AttributeError object at 0x8fdb8a0>"
p35
sS'__repr__'
p36
S"<method-wrapper '__repr__' of exceptions.AttributeError object at 0x8fdb8a0>"
p37
sS'__dict__'
p38
S'{}'
p39
sS'__doc__'
p40
S"'Attribute not found.'"
p41
sS'__init__'
p42
S"<method-wrapper '__init__' of exceptions.AttributeError object at 0x8fdb8a0>"
p43
sS'__new__'
p44
S'<built-in method __new__ of type object at 0x5f94a0>'
p45
ssS'evalue'
p46
S"'NoneType' object has no attribute 'id'"
p47
sS'request'
p48
ccopy_reg
_reconstructor
p49
(cgluon.html
BEAUTIFY
p50
c__builtin__
object
p51
NtRp52
(dp53
S'attributes'
p54
(dp55
sS'components'
p56
(lp57
g49
(cgluon.html
TABLE
p58
g51
NtRp59
(dp60
g54
(dp61
S'level'
p62
I5
ssS'parent'
p63
Nsg56
(lp64
g49
(cgluon.html
TR
p65
g51
NtRp66
(dp67
g54
(dp68
sg63
g59
sg56
(lp69
g49
(cgluon.html
TD
p70
g51
NtRp71
(dp72
g54
(dp73
S'_style'
p74
S'font-weight:bold;vertical-align:top'
p75
ssg63
g66
sg56
(lp76
S'ajax'
p77
asbag49
(g70
g51
NtRp78
(dp79
g54
(dp80
S'_valign'
p81
S'top'
p82
ssg63
g66
sg56
(lp83
S':'
asbag49
(g70
g51
NtRp84
(dp85
g54
(dp86
sg63
g66
sg56
(lp87
g49
(g50
g51
NtRp88
(dp89
g54
(dp90
g62
I5
ssg63
g84
sg56
(lp91
S'False'
p92
asbasbasbag49
(g65
g51
NtRp93
(dp94
g54
(dp95
sg63
g59
sg56
(lp96
g49
(g70
g51
NtRp97
(dp98
g54
(dp99
g74
g75
ssg63
g93
sg56
(lp100
S'application'
p101
asbag49
(g70
g51
NtRp102
(dp103
g54
(dp104
g81
g82
ssg63
g93
sg56
(lp105
S':'
asbag49
(g70
g51
NtRp106
(dp107
g54
(dp108
sg63
g93
sg56
(lp109
g49
(g50
g51
NtRp110
(dp111
g54
(dp112
g62
I5
ssg63
g106
sg56
(lp113
S'Final_Impulse'
p114
asbasbasbag49
(g65
g51
NtRp115
(dp116
g54
(dp117
sg63
g59
sg56
(lp118
g49
(g70
g51
NtRp119
(dp120
g54
(dp121
g74
g75
ssg63
g115
sg56
(lp122
g28
asbag49
(g70
g51
NtRp123
(dp124
g54
(dp125
g81
g82
ssg63
g115
sg56
(lp126
S':'
asbag49
(g70
g51
NtRp127
(dp128
g54
(dp129
sg63
g115
sg56
(lp130
g49
(g50
g51
NtRp131
(dp132
g54
(dp133
g62
I5
ssg63
g127
sg56
(lp134
g49
(g58
g51
NtRp135
(dp136
g54
(dp137
g62
I4
ssg63
Nsg56
(lp138
sbasbasbasbag49
(g65
g51
NtRp139
(dp140
g54
(dp141
sg63
g59
sg56
(lp142
g49
(g70
g51
NtRp143
(dp144
g54
(dp145
g74
g75
ssg63
g139
sg56
(lp146
S'body'
p147
asbag49
(g70
g51
NtRp148
(dp149
g54
(dp150
g81
g82
ssg63
g139
sg56
(lp151
S':'
asbag49
(g70
g51
NtRp152
(dp153
g54
(dp154
sg63
g139
sg56
(lp155
g49
(g50
g51
NtRp156
(dp157
g54
(dp158
g62
I5
ssg63
g152
sg56
(lp159
S"<open file '<fdopen>', mode 'w+b' at 0x9844260>"
p160
asbasbasbag49
(g65
g51
NtRp161
(dp162
g54
(dp163
sg63
g59
sg56
(lp164
g49
(g70
g51
NtRp165
(dp166
g54
(dp167
g74
g75
ssg63
g161
sg56
(lp168
S'cid'
p169
asbag49
(g70
g51
NtRp170
(dp171
g54
(dp172
g81
g82
ssg63
g161
sg56
(lp173
S':'
asbag49
(g70
g51
NtRp174
(dp175
g54
(dp176
sg63
g161
sg56
(lp177
g49
(g50
g51
NtRp178
(dp179
g54
(dp180
g62
I5
ssg63
g174
sg56
(lp181
S'None'
p182
asbasbasbag49
(g65
g51
NtRp183
(dp184
g54
(dp185
sg63
g59
sg56
(lp186
g49
(g70
g51
NtRp187
(dp188
g54
(dp189
g74
g75
ssg63
g183
sg56
(lp190
S'client'
p191
asbag49
(g70
g51
NtRp192
(dp193
g54
(dp194
g81
g82
ssg63
g183
sg56
(lp195
S':'
asbag49
(g70
g51
NtRp196
(dp197
g54
(dp198
sg63
g183
sg56
(lp199
g49
(g50
g51
NtRp200
(dp201
g54
(dp202
g62
I5
ssg63
g196
sg56
(lp203
S'127.0.0.1'
p204
asbasbasbag49
(g65
g51
NtRp205
(dp206
g54
(dp207
sg63
g59
sg56
(lp208
g49
(g70
g51
NtRp209
(dp210
g54
(dp211
g74
g75
ssg63
g205
sg56
(lp212
S'controller'
p213
asbag49
(g70
g51
NtRp214
(dp215
g54
(dp216
g81
g82
ssg63
g205
sg56
(lp217
S':'
asbag49
(g70
g51
NtRp218
(dp219
g54
(dp220
sg63
g205
sg56
(lp221
g49
(g50
g51
NtRp222
(dp223
g54
(dp224
g62
I5
ssg63
g218
sg56
(lp225
S'default'
p226
asbasbasbag49
(g65
g51
NtRp227
(dp228
g54
(dp229
sg63
g59
sg56
(lp230
g49
(g70
g51
NtRp231
(dp232
g54
(dp233
g74
g75
ssg63
g227
sg56
(lp234
S'cookies'
p235
asbag49
(g70
g51
NtRp236
(dp237
g54
(dp238
g81
g82
ssg63
g227
sg56
(lp239
S':'
asbag49
(g70
g51
NtRp240
(dp241
g54
(dp242
sg63
g227
sg56
(lp243
g49
(g50
g51
NtRp244
(dp245
g54
(dp246
g62
I5
ssg63
g240
sg56
(lp247
g49
(g58
g51
NtRp248
(dp249
g54
(dp250
g62
I4
ssg63
Nsg56
(lp251
g49
(g65
g51
NtRp252
(dp253
g54
(dp254
sg63
g248
sg56
(lp255
g49
(g70
g51
NtRp256
(dp257
g54
(dp258
g74
g75
ssg63
g252
sg56
(lp259
S'session_id_admin'
p260
asbag49
(g70
g51
NtRp261
(dp262
g54
(dp263
g81
g82
ssg63
g252
sg56
(lp264
S':'
asbag49
(g70
g51
NtRp265
(dp266
g54
(dp267
sg63
g252
sg56
(lp268
g49
(g50
g51
NtRp269
(dp270
g54
(dp271
g62
I4
ssg63
g265
sg56
(lp272
S'127.0.0.1-e2ac865f-62ef-4ea6-b78a-22dbce601125'
p273
ag49
(g58
g51
NtRp274
(dp275
g54
(dp276
g62
I3
ssg63
Nsg56
(lp277
g49
(g65
g51
NtRp278
(dp279
g54
(dp280
sg63
g274
sg56
(lp281
g49
(g70
g51
NtRp282
(dp283
g54
(dp284
g74
g75
ssg63
g278
sg56
(lp285
S'comment'
p286
asbag49
(g70
g51
NtRp287
(dp288
g54
(dp289
g81
g82
ssg63
g278
sg56
(lp290
S':'
asbag49
(g70
g51
NtRp291
(dp292
g54
(dp293
sg63
g278
sg56
(lp294
g49
(g50
g51
NtRp295
(dp296
g54
(dp297
g62
I3
ssg63
g291
sg56
(lp298
S''
asbasbasbag49
(g65
g51
NtRp299
(dp300
g54
(dp301
sg63
g274
sg56
(lp302
g49
(g70
g51
NtRp303
(dp304
g54
(dp305
g74
g75
ssg63
g299
sg56
(lp306
S'domain'
p307
asbag49
(g70
g51
NtRp308
(dp309
g54
(dp310
g81
g82
ssg63
g299
sg56
(lp311
S':'
asbag49
(g70
g51
NtRp312
(dp313
g54
(dp314
sg63
g299
sg56
(lp315
g49
(g50
g51
NtRp316
(dp317
g54
(dp318
g62
I3
ssg63
g312
sg56
(lp319
S''
asbasbasbag49
(g65
g51
NtRp320
(dp321
g54
(dp322
sg63
g274
sg56
(lp323
g49
(g70
g51
NtRp324
(dp325
g54
(dp326
g74
g75
ssg63
g320
sg56
(lp327
S'expires'
p328
asbag49
(g70
g51
NtRp329
(dp330
g54
(dp331
g81
g82
ssg63
g320
sg56
(lp332
S':'
asbag49
(g70
g51
NtRp333
(dp334
g54
(dp335
sg63
g320
sg56
(lp336
g49
(g50
g51
NtRp337
(dp338
g54
(dp339
g62
I3
ssg63
g333
sg56
(lp340
S''
asbasbasbag49
(g65
g51
NtRp341
(dp342
g54
(dp343
sg63
g274
sg56
(lp344
g49
(g70
g51
NtRp345
(dp346
g54
(dp347
g74
g75
ssg63
g341
sg56
(lp348
S'max-age'
p349
asbag49
(g70
g51
NtRp350
(dp351
g54
(dp352
g81
g82
ssg63
g341
sg56
(lp353
S':'
asbag49
(g70
g51
NtRp354
(dp355
g54
(dp356
sg63
g341
sg56
(lp357
g49
(g50
g51
NtRp358
(dp359
g54
(dp360
g62
I3
ssg63
g354
sg56
(lp361
S''
asbasbasbag49
(g65
g51
NtRp362
(dp363
g54
(dp364
sg63
g274
sg56
(lp365
g49
(g70
g51
NtRp366
(dp367
g54
(dp368
g74
g75
ssg63
g362
sg56
(lp369
S'path'
p370
asbag49
(g70
g51
NtRp371
(dp372
g54
(dp373
g81
g82
ssg63
g362
sg56
(lp374
S':'
asbag49
(g70
g51
NtRp375
(dp376
g54
(dp377
sg63
g362
sg56
(lp378
g49
(g50
g51
NtRp379
(dp380
g54
(dp381
g62
I3
ssg63
g375
sg56
(lp382
S''
asbasbasbag49
(g65
g51
NtRp383
(dp384
g54
(dp385
sg63
g274
sg56
(lp386
g49
(g70
g51
NtRp387
(dp388
g54
(dp389
g74
g75
ssg63
g383
sg56
(lp390
S'secure'
p391
asbag49
(g70
g51
NtRp392
(dp393
g54
(dp394
g81
g82
ssg63
g383
sg56
(lp395
S':'
asbag49
(g70
g51
NtRp396
(dp397
g54
(dp398
sg63
g383
sg56
(lp399
g49
(g50
g51
NtRp400
(dp401
g54
(dp402
g62
I3
ssg63
g396
sg56
(lp403
S''
asbasbasbag49
(g65
g51
NtRp404
(dp405
g54
(dp406
sg63
g274
sg56
(lp407
g49
(g70
g51
NtRp408
(dp409
g54
(dp410
g74
g75
ssg63
g404
sg56
(lp411
S'version'
p412
asbag49
(g70
g51
NtRp413
(dp414
g54
(dp415
g81
g82
ssg63
g404
sg56
(lp416
S':'
asbag49
(g70
g51
NtRp417
(dp418
g54
(dp419
sg63
g404
sg56
(lp420
g49
(g50
g51
NtRp421
(dp422
g54
(dp423
g62
I3
ssg63
g417
sg56
(lp424
S''
asbasbasbasbasbasbasbag49
(g65
g51
NtRp425
(dp426
g54
(dp427
sg63
g248
sg56
(lp428
g49
(g70
g51
NtRp429
(dp430
g54
(dp431
g74
g75
ssg63
g425
sg56
(lp432
S'session_id_final_impulse'
p433
asbag49
(g70
g51
NtRp434
(dp435
g54
(dp436
g81
g82
ssg63
g425
sg56
(lp437
S':'
asbag49
(g70
g51
NtRp438
(dp439
g54
(dp440
sg63
g425
sg56
(lp441
g49
(g50
g51
NtRp442
(dp443
g54
(dp444
g62
I4
ssg63
g438
sg56
(lp445
S'127.0.0.1-5aceb5e9-2875-4462-b8f1-a71729f93584'
p446
ag49
(g58
g51
NtRp447
(dp448
g54
(dp449
g62
I3
ssg63
Nsg56
(lp450
g49
(g65
g51
NtRp451
(dp452
g54
(dp453
sg63
g447
sg56
(lp454
g49
(g70
g51
NtRp455
(dp456
g54
(dp457
g74
g75
ssg63
g451
sg56
(lp458
g286
asbag49
(g70
g51
NtRp459
(dp460
g54
(dp461
g81
g82
ssg63
g451
sg56
(lp462
S':'
asbag49
(g70
g51
NtRp463
(dp464
g54
(dp465
sg63
g451
sg56
(lp466
g49
(g50
g51
NtRp467
(dp468
g54
(dp469
g62
I3
ssg63
g463
sg56
(lp470
S''
asbasbasbag49
(g65
g51
NtRp471
(dp472
g54
(dp473
sg63
g447
sg56
(lp474
g49
(g70
g51
NtRp475
(dp476
g54
(dp477
g74
g75
ssg63
g471
sg56
(lp478
g307
asbag49
(g70
g51
NtRp479
(dp480
g54
(dp481
g81
g82
ssg63
g471
sg56
(lp482
S':'
asbag49
(g70
g51
NtRp483
(dp484
g54
(dp485
sg63
g471
sg56
(lp486
g49
(g50
g51
NtRp487
(dp488
g54
(dp489
g62
I3
ssg63
g483
sg56
(lp490
S''
asbasbasbag49
(g65
g51
NtRp491
(dp492
g54
(dp493
sg63
g447
sg56
(lp494
g49
(g70
g51
NtRp495
(dp496
g54
(dp497
g74
g75
ssg63
g491
sg56
(lp498
g328
asbag49
(g70
g51
NtRp499
(dp500
g54
(dp501
g81
g82
ssg63
g491
sg56
(lp502
S':'
asbag49
(g70
g51
NtRp503
(dp504
g54
(dp505
sg63
g491
sg56
(lp506
g49
(g50
g51
NtRp507
(dp508
g54
(dp509
g62
I3
ssg63
g503
sg56
(lp510
S''
asbasbasbag49
(g65
g51
NtRp511
(dp512
g54
(dp513
sg63
g447
sg56
(lp514
g49
(g70
g51
NtRp515
(dp516
g54
(dp517
g74
g75
ssg63
g511
sg56
(lp518
g349
asbag49
(g70
g51
NtRp519
(dp520
g54
(dp521
g81
g82
ssg63
g511
sg56
(lp522
S':'
asbag49
(g70
g51
NtRp523
(dp524
g54
(dp525
sg63
g511
sg56
(lp526
g49
(g50
g51
NtRp527
(dp528
g54
(dp529
g62
I3
ssg63
g523
sg56
(lp530
S''
asbasbasbag49
(g65
g51
NtRp531
(dp532
g54
(dp533
sg63
g447
sg56
(lp534
g49
(g70
g51
NtRp535
(dp536
g54
(dp537
g74
g75
ssg63
g531
sg56
(lp538
g370
asbag49
(g70
g51
NtRp539
(dp540
g54
(dp541
g81
g82
ssg63
g531
sg56
(lp542
S':'
asbag49
(g70
g51
NtRp543
(dp544
g54
(dp545
sg63
g531
sg56
(lp546
g49
(g50
g51
NtRp547
(dp548
g54
(dp549
g62
I3
ssg63
g543
sg56
(lp550
S''
asbasbasbag49
(g65
g51
NtRp551
(dp552
g54
(dp553
sg63
g447
sg56
(lp554
g49
(g70
g51
NtRp555
(dp556
g54
(dp557
g74
g75
ssg63
g551
sg56
(lp558
g391
asbag49
(g70
g51
NtRp559
(dp560
g54
(dp561
g81
g82
ssg63
g551
sg56
(lp562
S':'
asbag49
(g70
g51
NtRp563
(dp564
g54
(dp565
sg63
g551
sg56
(lp566
g49
(g50
g51
NtRp567
(dp568
g54
(dp569
g62
I3
ssg63
g563
sg56
(lp570
S''
asbasbasbag49
(g65
g51
NtRp571
(dp572
g54
(dp573
sg63
g447
sg56
(lp574
g49
(g70
g51
NtRp575
(dp576
g54
(dp577
g74
g75
ssg63
g571
sg56
(lp578
g412
asbag49
(g70
g51
NtRp579
(dp580
g54
(dp581
g81
g82
ssg63
g571
sg56
(lp582
S':'
asbag49
(g70
g51
NtRp583
(dp584
g54
(dp585
sg63
g571
sg56
(lp586
g49
(g50
g51
NtRp587
(dp588
g54
(dp589
g62
I3
ssg63
g583
sg56
(lp590
S''
asbasbasbasbasbasbasbag49
(g65
g51
NtRp591
(dp592
g54
(dp593
sg63
g248
sg56
(lp594
g49
(g70
g51
NtRp595
(dp596
g54
(dp597
g74
g75
ssg63
g591
sg56
(lp598
S'session_id_welcome'
p599
asbag49
(g70
g51
NtRp600
(dp601
g54
(dp602
g81
g82
ssg63
g591
sg56
(lp603
S':'
asbag49
(g70
g51
NtRp604
(dp605
g54
(dp606
sg63
g591
sg56
(lp607
g49
(g50
g51
NtRp608
(dp609
g54
(dp610
g62
I4
ssg63
g604
sg56
(lp611
S'127.0.0.1-6e944f2f-f11b-449c-9585-9def07ed3c13'
p612
ag49
(g58
g51
NtRp613
(dp614
g54
(dp615
g62
I3
ssg63
Nsg56
(lp616
g49
(g65
g51
NtRp617
(dp618
g54
(dp619
sg63
g613
sg56
(lp620
g49
(g70
g51
NtRp621
(dp622
g54
(dp623
g74
g75
ssg63
g617
sg56
(lp624
g286
asbag49
(g70
g51
NtRp625
(dp626
g54
(dp627
g81
g82
ssg63
g617
sg56
(lp628
S':'
asbag49
(g70
g51
NtRp629
(dp630
g54
(dp631
sg63
g617
sg56
(lp632
g49
(g50
g51
NtRp633
(dp634
g54
(dp635
g62
I3
ssg63
g629
sg56
(lp636
S''
asbasbasbag49
(g65
g51
NtRp637
(dp638
g54
(dp639
sg63
g613
sg56
(lp640
g49
(g70
g51
NtRp641
(dp642
g54
(dp643
g74
g75
ssg63
g637
sg56
(lp644
g307
asbag49
(g70
g51
NtRp645
(dp646
g54
(dp647
g81
g82
ssg63
g637
sg56
(lp648
S':'
asbag49
(g70
g51
NtRp649
(dp650
g54
(dp651
sg63
g637
sg56
(lp652
g49
(g50
g51
NtRp653
(dp654
g54
(dp655
g62
I3
ssg63
g649
sg56
(lp656
S''
asbasbasbag49
(g65
g51
NtRp657
(dp658
g54
(dp659
sg63
g613
sg56
(lp660
g49
(g70
g51
NtRp661
(dp662
g54
(dp663
g74
g75
ssg63
g657
sg56
(lp664
g328
asbag49
(g70
g51
NtRp665
(dp666
g54
(dp667
g81
g82
ssg63
g657
sg56
(lp668
S':'
asbag49
(g70
g51
NtRp669
(dp670
g54
(dp671
sg63
g657
sg56
(lp672
g49
(g50
g51
NtRp673
(dp674
g54
(dp675
g62
I3
ssg63
g669
sg56
(lp676
S''
asbasbasbag49
(g65
g51
NtRp677
(dp678
g54
(dp679
sg63
g613
sg56
(lp680
g49
(g70
g51
NtRp681
(dp682
g54
(dp683
g74
g75
ssg63
g677
sg56
(lp684
g349
asbag49
(g70
g51
NtRp685
(dp686
g54
(dp687
g81
g82
ssg63
g677
sg56
(lp688
S':'
asbag49
(g70
g51
NtRp689
(dp690
g54
(dp691
sg63
g677
sg56
(lp692
g49
(g50
g51
NtRp693
(dp694
g54
(dp695
g62
I3
ssg63
g689
sg56
(lp696
S''
asbasbasbag49
(g65
g51
NtRp697
(dp698
g54
(dp699
sg63
g613
sg56
(lp700
g49
(g70
g51
NtRp701
(dp702
g54
(dp703
g74
g75
ssg63
g697
sg56
(lp704
g370
asbag49
(g70
g51
NtRp705
(dp706
g54
(dp707
g81
g82
ssg63
g697
sg56
(lp708
S':'
asbag49
(g70
g51
NtRp709
(dp710
g54
(dp711
sg63
g697
sg56
(lp712
g49
(g50
g51
NtRp713
(dp714
g54
(dp715
g62
I3
ssg63
g709
sg56
(lp716
S''
asbasbasbag49
(g65
g51
NtRp717
(dp718
g54
(dp719
sg63
g613
sg56
(lp720
g49
(g70
g51
NtRp721
(dp722
g54
(dp723
g74
g75
ssg63
g717
sg56
(lp724
g391
asbag49
(g70
g51
NtRp725
(dp726
g54
(dp727
g81
g82
ssg63
g717
sg56
(lp728
S':'
asbag49
(g70
g51
NtRp729
(dp730
g54
(dp731
sg63
g717
sg56
(lp732
g49
(g50
g51
NtRp733
(dp734
g54
(dp735
g62
I3
ssg63
g729
sg56
(lp736
S''
asbasbasbag49
(g65
g51
NtRp737
(dp738
g54
(dp739
sg63
g613
sg56
(lp740
g49
(g70
g51
NtRp741
(dp742
g54
(dp743
g74
g75
ssg63
g737
sg56
(lp744
g412
asbag49
(g70
g51
NtRp745
(dp746
g54
(dp747
g81
g82
ssg63
g737
sg56
(lp748
S':'
asbag49
(g70
g51
NtRp749
(dp750
g54
(dp751
sg63
g737
sg56
(lp752
g49
(g50
g51
NtRp753
(dp754
g54
(dp755
g62
I3
ssg63
g749
sg56
(lp756
S''
asbasbasbasbasbasbasbasbasbasbasbag49
(g65
g51
NtRp757
(dp758
g54
(dp759
sg63
g59
sg56
(lp760
g49
(g70
g51
NtRp761
(dp762
g54
(dp763
g74
g75
ssg63
g757
sg56
(lp764
S'env'
p765
asbag49
(g70
g51
NtRp766
(dp767
g54
(dp768
g81
g82
ssg63
g757
sg56
(lp769
S':'
asbag49
(g70
g51
NtRp770
(dp771
g54
(dp772
sg63
g757
sg56
(lp773
g49
(g50
g51
NtRp774
(dp775
g54
(dp776
g62
I5
ssg63
g770
sg56
(lp777
g49
(g58
g51
NtRp778
(dp779
g54
(dp780
g62
I4
ssg63
Nsg56
(lp781
g49
(g65
g51
NtRp782
(dp783
g54
(dp784
sg63
g778
sg56
(lp785
g49
(g70
g51
NtRp786
(dp787
g54
(dp788
g74
g75
ssg63
g782
sg56
(lp789
S'app_folders'
p790
asbag49
(g70
g51
NtRp791
(dp792
g54
(dp793
g81
g82
ssg63
g782
sg56
(lp794
S':'
asbag49
(g70
g51
NtRp795
(dp796
g54
(dp797
sg63
g782
sg56
(lp798
g49
(g50
g51
NtRp799
(dp800
g54
(dp801
g62
I4
ssg63
g795
sg56
(lp802
S"set(['/Users/abaric/Downloads/web2py/web2py.app/Contents/Resources/applications/Final_Impulse/', '/Users/abaric/Downloads/web2py/web2py.app/Contents/Resources/applications/welcome/', '/Users/abaric/Downloads/web2py/web2py.app/Contents/Resources/applications/admin/'])"
p803
asbasbasbag49
(g65
g51
NtRp804
(dp805
g54
(dp806
sg63
g778
sg56
(lp807
g49
(g70
g51
NtRp808
(dp809
g54
(dp810
g74
g75
ssg63
g804
sg56
(lp811
S'applications_parent'
p812
asbag49
(g70
g51
NtRp813
(dp814
g54
(dp815
g81
g82
ssg63
g804
sg56
(lp816
S':'
asbag49
(g70
g51
NtRp817
(dp818
g54
(dp819
sg63
g804
sg56
(lp820
g49
(g50
g51
NtRp821
(dp822
g54
(dp823
g62
I4
ssg63
g817
sg56
(lp824
S'/Users/abaric/Downloads/web2py/web2py.app/Contents/Resources'
p825
asbasbasbag49
(g65
g51
NtRp826
(dp827
g54
(dp828
sg63
g778
sg56
(lp829
g49
(g70
g51
NtRp830
(dp831
g54
(dp832
g74
g75
ssg63
g826
sg56
(lp833
S'cmd_args'
p834
asbag49
(g70
g51
NtRp835
(dp836
g54
(dp837
g81
g82
ssg63
g826
sg56
(lp838
S':'
asbag49
(g70
g51
NtRp839
(dp840
g54
(dp841
sg63
g826
sg56
(lp842
g49
(g50
g51
NtRp843
(dp844
g54
(dp845
g62
I4
ssg63
g839
sg56
(lp846
g49
(g58
g51
NtRp847
(dp848
g54
(dp849
g62
I3
ssg63
Nsg56
(lp850
sbasbasbasbag49
(g65
g51
NtRp851
(dp852
g54
(dp853
sg63
g778
sg56
(lp854
g49
(g70
g51
NtRp855
(dp856
g54
(dp857
g74
g75
ssg63
g851
sg56
(lp858
S'cmd_options'
p859
asbag49
(g70
g51
NtRp860
(dp861
g54
(dp862
g81
g82
ssg63
g851
sg56
(lp863
S':'
asbag49
(g70
g51
NtRp864
(dp865
g54
(dp866
sg63
g851
sg56
(lp867
g49
(g50
g51
NtRp868
(dp869
g54
(dp870
g62
I4
ssg63
g864
sg56
(lp871
S"<Values at 0x442e1c0: {'verbose': False, 'ip': '127.0.0.1', 'with_scheduler': False, 'ips': ['10.1.10.113'], 'shutdown_timeout': 5, 'taskbar': False, 'port': 8000, 'maxthreads': None, 'softcron': False, 'server_name': 'Andrea-Barics-MacBook-Pro.local', 'bpython': False, 'nogui': False, 'pid_filename': 'httpserver.pid', 'extcron': False, 'runcron': False, 'run_system_tests': False, 'test': None, 'folder': '/Users/abaric/Downloads/web2py/web2py.app/Contents/Resources', 'config': '', 'import_models': False, 'winservice': '', 'shell': None, 'run': '', 'log_filename': 'httpserver.log', 'debuglevel': 30, 'args': [''], 'socket_timeout': 5, 'ssl_ca_certificate': None, 'scheduler': None, 'profiler_filename': None, 'ssl_private_key': '', 'scheduler_groups': None, 'password': '<ask>', 'request_queue_size': 5, 'ssl_certificate': '', 'cronjob': False, 'numthreads': None, 'quiet': False, 'interfaces': None, 'minthreads': None, 'timeout': 10, 'plain': False, 'nobanner': False}>"
p872
asbasbasbag49
(g65
g51
NtRp873
(dp874
g54
(dp875
sg63
g778
sg56
(lp876
g49
(g70
g51
NtRp877
(dp878
g54
(dp879
g74
g75
ssg63
g873
sg56
(lp880
S'content_length'
p881
asbag49
(g70
g51
NtRp882
(dp883
g54
(dp884
g81
g82
ssg63
g873
sg56
(lp885
S':'
asbag49
(g70
g51
NtRp886
(dp887
g54
(dp888
sg63
g873
sg56
(lp889
g49
(g50
g51
NtRp890
(dp891
g54
(dp892
g62
I4
ssg63
g886
sg56
(lp893
S'244'
p894
asbasbasbag49
(g65
g51
NtRp895
(dp896
g54
(dp897
sg63
g778
sg56
(lp898
g49
(g70
g51
NtRp899
(dp900
g54
(dp901
g74
g75
ssg63
g895
sg56
(lp902
S'content_type'
p903
asbag49
(g70
g51
NtRp904
(dp905
g54
(dp906
g81
g82
ssg63
g895
sg56
(lp907
S':'
asbag49
(g70
g51
NtRp908
(dp909
g54
(dp910
sg63
g895
sg56
(lp911
g49
(g50
g51
NtRp912
(dp913
g54
(dp914
g62
I4
ssg63
g908
sg56
(lp915
S'multipart/form-data; boundary=----WebKitFormBoundaryaLPzHDcwFM8nVABu'
p916
asbasbasbag49
(g65
g51
NtRp917
(dp918
g54
(dp919
sg63
g778
sg56
(lp920
g49
(g70
g51
NtRp921
(dp922
g54
(dp923
g74
g75
ssg63
g917
sg56
(lp924
S'db_sessions'
p925
asbag49
(g70
g51
NtRp926
(dp927
g54
(dp928
g81
g82
ssg63
g917
sg56
(lp929
S':'
asbag49
(g70
g51
NtRp930
(dp931
g54
(dp932
sg63
g917
sg56
(lp933
g49
(g50
g51
NtRp934
(dp935
g54
(dp936
g62
I4
ssg63
g930
sg56
(lp937
S'set([])'
p938
asbasbasbag49
(g65
g51
NtRp939
(dp940
g54
(dp941
sg63
g778
sg56
(lp942
g49
(g70
g51
NtRp943
(dp944
g54
(dp945
g74
g75
ssg63
g939
sg56
(lp946
S'debugging'
p947
asbag49
(g70
g51
NtRp948
(dp949
g54
(dp950
g81
g82
ssg63
g939
sg56
(lp951
S':'
asbag49
(g70
g51
NtRp952
(dp953
g54
(dp954
sg63
g939
sg56
(lp955
g49
(g50
g51
NtRp956
(dp957
g54
(dp958
g62
I4
ssg63
g952
sg56
(lp959
g92
asbasbasbag49
(g65
g51
NtRp960
(dp961
g54
(dp962
sg63
g778
sg56
(lp963
g49
(g70
g51
NtRp964
(dp965
g54
(dp966
g74
g75
ssg63
g960
sg56
(lp967
S'gluon_parent'
p968
asbag49
(g70
g51
NtRp969
(dp970
g54
(dp971
g81
g82
ssg63
g960
sg56
(lp972
S':'
asbag49
(g70
g51
NtRp973
(dp974
g54
(dp975
sg63
g960
sg56
(lp976
g49
(g50
g51
NtRp977
(dp978
g54
(dp979
g62
I4
ssg63
g973
sg56
(lp980
S'/Users/abaric/Downloads/web2py/web2py.app/Contents/Resources'
p981
asbasbasbag49
(g65
g51
NtRp982
(dp983
g54
(dp984
sg63
g778
sg56
(lp985
g49
(g70
g51
NtRp986
(dp987
g54
(dp988
g74
g75
ssg63
g982
sg56
(lp989
S'http_accept'
p990
asbag49
(g70
g51
NtRp991
(dp992
g54
(dp993
g81
g82
ssg63
g982
sg56
(lp994
S':'
asbag49
(g70
g51
NtRp995
(dp996
g54
(dp997
sg63
g982
sg56
(lp998
g49
(g50
g51
NtRp999
(dp1000
g54
(dp1001
g62
I4
ssg63
g995
sg56
(lp1002
S'text/html,application/xhtml+xml,application/xml;q=0.9,*/*;q=0.8'
p1003
asbasbasbag49
(g65
g51
NtRp1004
(dp1005
g54
(dp1006
sg63
g778
sg56
(lp1007
g49
(g70
g51
NtRp1008
(dp1009
g54
(dp1010
g74
g75
ssg63
g1004
sg56
(lp1011
S'http_accept_encoding'
p1012
asbag49
(g70
g51
NtRp1013
(dp1014
g54
(dp1015
g81
g82
ssg63
g1004
sg56
(lp1016
S':'
asbag49
(g70
g51
NtRp1017
(dp1018
g54
(dp1019
sg63
g1004
sg56
(lp1020
g49
(g50
g51
NtRp1021
(dp1022
g54
(dp1023
g62
I4
ssg63
g1017
sg56
(lp1024
S'gzip, deflate'
p1025
asbasbasbag49
(g65
g51
NtRp1026
(dp1027
g54
(dp1028
sg63
g778
sg56
(lp1029
g49
(g70
g51
NtRp1030
(dp1031
g54
(dp1032
g74
g75
ssg63
g1026
sg56
(lp1033
S'http_accept_language'
p1034
asbag49
(g70
g51
NtRp1035
(dp1036
g54
(dp1037
g81
g82
ssg63
g1026
sg56
(lp1038
S':'
asbag49
(g70
g51
NtRp1039
(dp1040
g54
(dp1041
sg63
g1026
sg56
(lp1042
g49
(g50
g51
NtRp1043
(dp1044
g54
(dp1045
g62
I4
ssg63
g1039
sg56
(lp1046
S'en-us'
p1047
asbasbasbag49
(g65
g51
NtRp1048
(dp1049
g54
(dp1050
sg63
g778
sg56
(lp1051
g49
(g70
g51
NtRp1052
(dp1053
g54
(dp1054
g74
g75
ssg63
g1048
sg56
(lp1055
S'http_connection'
p1056
asbag49
(g70
g51
NtRp1057
(dp1058
g54
(dp1059
g81
g82
ssg63
g1048
sg56
(lp1060
S':'
asbag49
(g70
g51
NtRp1061
(dp1062
g54
(dp1063
sg63
g1048
sg56
(lp1064
g49
(g50
g51
NtRp1065
(dp1066
g54
(dp1067
g62
I4
ssg63
g1061
sg56
(lp1068
S'keep-alive'
p1069
asbasbasbag49
(g65
g51
NtRp1070
(dp1071
g54
(dp1072
sg63
g778
sg56
(lp1073
g49
(g70
g51
NtRp1074
(dp1075
g54
(dp1076
g74
g75
ssg63
g1070
sg56
(lp1077
S'http_content_length'
p1078
asbag49
(g70
g51
NtRp1079
(dp1080
g54
(dp1081
g81
g82
ssg63
g1070
sg56
(lp1082
S':'
asbag49
(g70
g51
NtRp1083
(dp1084
g54
(dp1085
sg63
g1070
sg56
(lp1086
g49
(g50
g51
NtRp1087
(dp1088
g54
(dp1089
g62
I4
ssg63
g1083
sg56
(lp1090
g894
asbasbasbag49
(g65
g51
NtRp1091
(dp1092
g54
(dp1093
sg63
g778
sg56
(lp1094
g49
(g70
g51
NtRp1095
(dp1096
g54
(dp1097
g74
g75
ssg63
g1091
sg56
(lp1098
S'http_content_type'
p1099
asbag49
(g70
g51
NtRp1100
(dp1101
g54
(dp1102
g81
g82
ssg63
g1091
sg56
(lp1103
S':'
asbag49
(g70
g51
NtRp1104
(dp1105
g54
(dp1106
sg63
g1091
sg56
(lp1107
g49
(g50
g51
NtRp1108
(dp1109
g54
(dp1110
g62
I4
ssg63
g1104
sg56
(lp1111
g916
asbasbasbag49
(g65
g51
NtRp1112
(dp1113
g54
(dp1114
sg63
g778
sg56
(lp1115
g49
(g70
g51
NtRp1116
(dp1117
g54
(dp1118
g74
g75
ssg63
g1112
sg56
(lp1119
S'http_cookie'
p1120
asbag49
(g70
g51
NtRp1121
(dp1122
g54
(dp1123
g81
g82
ssg63
g1112
sg56
(lp1124
S':'
asbag49
(g70
g51
NtRp1125
(dp1126
g54
(dp1127
sg63
g1112
sg56
(lp1128
g49
(g50
g51
NtRp1129
(dp1130
g54
(dp1131
g62
I4
ssg63
g1125
sg56
(lp1132
S'session_id_final_impulse=127.0.0.1-5aceb5e9-2875-4462-b8f1-a71729f93584; session_id_admin=127.0.0.1-e2ac865f-62ef-4ea6-b78a-22dbce601125; session_id_welcome=127.0.0.1-6e944f2f-f11b-449c-9585-9def07ed3c13'
p1133
asbasbasbag49
(g65
g51
NtRp1134
(dp1135
g54
(dp1136
sg63
g778
sg56
(lp1137
g49
(g70
g51
NtRp1138
(dp1139
g54
(dp1140
g74
g75
ssg63
g1134
sg56
(lp1141
S'http_host'
p1142
asbag49
(g70
g51
NtRp1143
(dp1144
g54
(dp1145
g81
g82
ssg63
g1134
sg56
(lp1146
S':'
asbag49
(g70
g51
NtRp1147
(dp1148
g54
(dp1149
sg63
g1134
sg56
(lp1150
g49
(g50
g51
NtRp1151
(dp1152
g54
(dp1153
g62
I4
ssg63
g1147
sg56
(lp1154
S'127.0.0.1:8000'
p1155
asbasbasbag49
(g65
g51
NtRp1156
(dp1157
g54
(dp1158
sg63
g778
sg56
(lp1159
g49
(g70
g51
NtRp1160
(dp1161
g54
(dp1162
g74
g75
ssg63
g1156
sg56
(lp1163
S'http_origin'
p1164
asbag49
(g70
g51
NtRp1165
(dp1166
g54
(dp1167
g81
g82
ssg63
g1156
sg56
(lp1168
S':'
asbag49
(g70
g51
NtRp1169
(dp1170
g54
(dp1171
sg63
g1156
sg56
(lp1172
g49
(g50
g51
NtRp1173
(dp1174
g54
(dp1175
g62
I4
ssg63
g1169
sg56
(lp1176
S'http://127.0.0.1:8000'
p1177
asbasbasbag49
(g65
g51
NtRp1178
(dp1179
g54
(dp1180
sg63
g778
sg56
(lp1181
g49
(g70
g51
NtRp1182
(dp1183
g54
(dp1184
g74
g75
ssg63
g1178
sg56
(lp1185
S'http_referer'
p1186
asbag49
(g70
g51
NtRp1187
(dp1188
g54
(dp1189
g81
g82
ssg63
g1178
sg56
(lp1190
S':'
asbag49
(g70
g51
NtRp1191
(dp1192
g54
(dp1193
sg63
g1178
sg56
(lp1194
g49
(g50
g51
NtRp1195
(dp1196
g54
(dp1197
g62
I4
ssg63
g1191
sg56
(lp1198
S'http://127.0.0.1:8000/Final_Impulse/default/show_writing_comments'
p1199
asbasbasbag49
(g65
g51
NtRp1200
(dp1201
g54
(dp1202
sg63
g778
sg56
(lp1203
g49
(g70
g51
NtRp1204
(dp1205
g54
(dp1206
g74
g75
ssg63
g1200
sg56
(lp1207
S'http_user_agent'
p1208
asbag49
(g70
g51
NtRp1209
(dp1210
g54
(dp1211
g81
g82
ssg63
g1200
sg56
(lp1212
S':'
asbag49
(g70
g51
NtRp1213
(dp1214
g54
(dp1215
sg63
g1200
sg56
(lp1216
g49
(g50
g51
NtRp1217
(dp1218
g54
(dp1219
g62
I4
ssg63
g1213
sg56
(lp1220
S'Mozilla/5.0 (Macintosh; Intel Mac OS X 10_8_4) AppleWebKit/536.30.1 (KHTML, like Gecko) Version/6.0.5 Safari/536.30.1'
p1221
asbasbasbag49
(g65
g51
NtRp1222
(dp1223
g54
(dp1224
sg63
g778
sg56
(lp1225
g49
(g70
g51
NtRp1226
(dp1227
g54
(dp1228
g74
g75
ssg63
g1222
sg56
(lp1229
S'is_jython'
p1230
asbag49
(g70
g51
NtRp1231
(dp1232
g54
(dp1233
g81
g82
ssg63
g1222
sg56
(lp1234
S':'
asbag49
(g70
g51
NtRp1235
(dp1236
g54
(dp1237
sg63
g1222
sg56
(lp1238
g49
(g50
g51
NtRp1239
(dp1240
g54
(dp1241
g62
I4
ssg63
g1235
sg56
(lp1242
g92
asbasbasbag49
(g65
g51
NtRp1243
(dp1244
g54
(dp1245
sg63
g778
sg56
(lp1246
g49
(g70
g51
NtRp1247
(dp1248
g54
(dp1249
g74
g75
ssg63
g1243
sg56
(lp1250
S'is_pypy'
p1251
asbag49
(g70
g51
NtRp1252
(dp1253
g54
(dp1254
g81
g82
ssg63
g1243
sg56
(lp1255
S':'
asbag49
(g70
g51
NtRp1256
(dp1257
g54
(dp1258
sg63
g1243
sg56
(lp1259
g49
(g50
g51
NtRp1260
(dp1261
g54
(dp1262
g62
I4
ssg63
g1256
sg56
(lp1263
g92
asbasbasbag49
(g65
g51
NtRp1264
(dp1265
g54
(dp1266
sg63
g778
sg56
(lp1267
g49
(g70
g51
NtRp1268
(dp1269
g54
(dp1270
g74
g75
ssg63
g1264
sg56
(lp1271
S'local_hosts'
p1272
asbag49
(g70
g51
NtRp1273
(dp1274
g54
(dp1275
g81
g82
ssg63
g1264
sg56
(lp1276
S':'
asbag49
(g70
g51
NtRp1277
(dp1278
g54
(dp1279
sg63
g1264
sg56
(lp1280
g49
(g50
g51
NtRp1281
(dp1282
g54
(dp1283
g62
I4
ssg63
g1277
sg56
(lp1284
g49
(g58
g51
NtRp1285
(dp1286
g54
(dp1287
g62
I3
ssg63
Nsg56
(lp1288
g49
(g65
g51
NtRp1289
(dp1290
g54
(dp1291
sg63
g1285
sg56
(lp1292
g49
(g70
g51
NtRp1293
(dp1294
g54
(dp1295
sg63
g1289
sg56
(lp1296
g49
(g50
g51
NtRp1297
(dp1298
g54
(dp1299
g62
I3
ssg63
g1293
sg56
(lp1300
S'127.0.0.1'
p1301
asbasbasbag49
(g65
g51
NtRp1302
(dp1303
g54
(dp1304
sg63
g1285
sg56
(lp1305
g49
(g70
g51
NtRp1306
(dp1307
g54
(dp1308
sg63
g1302
sg56
(lp1309
g49
(g50
g51
NtRp1310
(dp1311
g54
(dp1312
g62
I3
ssg63
g1306
sg56
(lp1313
S'::ffff:127.0.0.1'
p1314
asbasbasbag49
(g65
g51
NtRp1315
(dp1316
g54
(dp1317
sg63
g1285
sg56
(lp1318
g49
(g70
g51
NtRp1319
(dp1320
g54
(dp1321
sg63
g1315
sg56
(lp1322
g49
(g50
g51
NtRp1323
(dp1324
g54
(dp1325
g62
I3
ssg63
g1319
sg56
(lp1326
S'Andrea-Barics-MacBook-Pro.local'
p1327
asbasbasbag49
(g65
g51
NtRp1328
(dp1329
g54
(dp1330
sg63
g1285
sg56
(lp1331
g49
(g70
g51
NtRp1332
(dp1333
g54
(dp1334
sg63
g1328
sg56
(lp1335
g49
(g50
g51
NtRp1336
(dp1337
g54
(dp1338
g62
I3
ssg63
g1332
sg56
(lp1339
S'Andrea-Barics-MacBook-Pro.local'
p1340
asbasbasbag49
(g65
g51
NtRp1341
(dp1342
g54
(dp1343
sg63
g1285
sg56
(lp1344
g49
(g70
g51
NtRp1345
(dp1346
g54
(dp1347
sg63
g1341
sg56
(lp1348
g49
(g50
g51
NtRp1349
(dp1350
g54
(dp1351
g62
I3
ssg63
g1345
sg56
(lp1352
S'10.1.10.113'
p1353
asbasbasbasbasbasbasbag49
(g65
g51
NtRp1354
(dp1355
g54
(dp1356
sg63
g778
sg56
(lp1357
g49
(g70
g51
NtRp1358
(dp1359
g54
(dp1360
g74
g75
ssg63
g1354
sg56
(lp1361
S'path_info'
p1362
asbag49
(g70
g51
NtRp1363
(dp1364
g54
(dp1365
g81
g82
ssg63
g1354
sg56
(lp1366
S':'
asbag49
(g70
g51
NtRp1367
(dp1368
g54
(dp1369
sg63
g1354
sg56
(lp1370
g49
(g50
g51
NtRp1371
(dp1372
g54
(dp1373
g62
I4
ssg63
g1367
sg56
(lp1374
S'/Final_Impulse/default/insert_writing_comment'
p1375
asbasbasbag49
(g65
g51
NtRp1376
(dp1377
g54
(dp1378
sg63
g778
sg56
(lp1379
g49
(g70
g51
NtRp1380
(dp1381
g54
(dp1382
g74
g75
ssg63
g1376
sg56
(lp1383
S'query_string'
p1384
asbag49
(g70
g51
NtRp1385
(dp1386
g54
(dp1387
g81
g82
ssg63
g1376
sg56
(lp1388
S':'
asbag49
(g70
g51
NtRp1389
(dp1390
g54
(dp1391
sg63
g1376
sg56
(lp1392
g49
(g50
g51
NtRp1393
(dp1394
g54
(dp1395
g62
I4
ssg63
g1389
sg56
(lp1396
S''
asbasbasbag49
(g65
g51
NtRp1397
(dp1398
g54
(dp1399
sg63
g778
sg56
(lp1400
g49
(g70
g51
NtRp1401
(dp1402
g54
(dp1403
g74
g75
ssg63
g1397
sg56
(lp1404
S'remote_addr'
p1405
asbag49
(g70
g51
NtRp1406
(dp1407
g54
(dp1408
g81
g82
ssg63
g1397
sg56
(lp1409
S':'
asbag49
(g70
g51
NtRp1410
(dp1411
g54
(dp1412
sg63
g1397
sg56
(lp1413
g49
(g50
g51
NtRp1414
(dp1415
g54
(dp1416
g62
I4
ssg63
g1410
sg56
(lp1417
g204
asbasbasbag49
(g65
g51
NtRp1418
(dp1419
g54
(dp1420
sg63
g778
sg56
(lp1421
g49
(g70
g51
NtRp1422
(dp1423
g54
(dp1424
g74
g75
ssg63
g1418
sg56
(lp1425
S'remote_port'
p1426
asbag49
(g70
g51
NtRp1427
(dp1428
g54
(dp1429
g81
g82
ssg63
g1418
sg56
(lp1430
S':'
asbag49
(g70
g51
NtRp1431
(dp1432
g54
(dp1433
sg63
g1418
sg56
(lp1434
g49
(g50
g51
NtRp1435
(dp1436
g54
(dp1437
g62
I4
ssg63
g1431
sg56
(lp1438
S'52215'
p1439
asbasbasbag49
(g65
g51
NtRp1440
(dp1441
g54
(dp1442
sg63
g778
sg56
(lp1443
g49
(g70
g51
NtRp1444
(dp1445
g54
(dp1446
g74
g75
ssg63
g1440
sg56
(lp1447
S'request_method'
p1448
asbag49
(g70
g51
NtRp1449
(dp1450
g54
(dp1451
g81
g82
ssg63
g1440
sg56
(lp1452
S':'
asbag49
(g70
g51
NtRp1453
(dp1454
g54
(dp1455
sg63
g1440
sg56
(lp1456
g49
(g50
g51
NtRp1457
(dp1458
g54
(dp1459
g62
I4
ssg63
g1453
sg56
(lp1460
S'POST'
p1461
asbasbasbag49
(g65
g51
NtRp1462
(dp1463
g54
(dp1464
sg63
g778
sg56
(lp1465
g49
(g70
g51
NtRp1466
(dp1467
g54
(dp1468
g74
g75
ssg63
g1462
sg56
(lp1469
S'request_uri'
p1470
asbag49
(g70
g51
NtRp1471
(dp1472
g54
(dp1473
g81
g82
ssg63
g1462
sg56
(lp1474
S':'
asbag49
(g70
g51
NtRp1475
(dp1476
g54
(dp1477
sg63
g1462
sg56
(lp1478
g49
(g50
g51
NtRp1479
(dp1480
g54
(dp1481
g62
I4
ssg63
g1475
sg56
(lp1482
g1375
asbasbasbag49
(g65
g51
NtRp1483
(dp1484
g54
(dp1485
sg63
g778
sg56
(lp1486
g49
(g70
g51
NtRp1487
(dp1488
g54
(dp1489
g74
g75
ssg63
g1483
sg56
(lp1490
S'script_name'
p1491
asbag49
(g70
g51
NtRp1492
(dp1493
g54
(dp1494
g81
g82
ssg63
g1483
sg56
(lp1495
S':'
asbag49
(g70
g51
NtRp1496
(dp1497
g54
(dp1498
sg63
g1483
sg56
(lp1499
g49
(g50
g51
NtRp1500
(dp1501
g54
(dp1502
g62
I4
ssg63
g1496
sg56
(lp1503
S''
asbasbasbag49
(g65
g51
NtRp1504
(dp1505
g54
(dp1506
sg63
g778
sg56
(lp1507
g49
(g70
g51
NtRp1508
(dp1509
g54
(dp1510
g74
g75
ssg63
g1504
sg56
(lp1511
S'server_name'
p1512
asbag49
(g70
g51
NtRp1513
(dp1514
g54
(dp1515
g81
g82
ssg63
g1504
sg56
(lp1516
S':'
asbag49
(g70
g51
NtRp1517
(dp1518
g54
(dp1519
sg63
g1504
sg56
(lp1520
g49
(g50
g51
NtRp1521
(dp1522
g54
(dp1523
g62
I4
ssg63
g1517
sg56
(lp1524
g1340
asbasbasbag49
(g65
g51
NtRp1525
(dp1526
g54
(dp1527
sg63
g778
sg56
(lp1528
g49
(g70
g51
NtRp1529
(dp1530
g54
(dp1531
g74
g75
ssg63
g1525
sg56
(lp1532
S'server_port'
p1533
asbag49
(g70
g51
NtRp1534
(dp1535
g54
(dp1536
g81
g82
ssg63
g1525
sg56
(lp1537
S':'
asbag49
(g70
g51
NtRp1538
(dp1539
g54
(dp1540
sg63
g1525
sg56
(lp1541
g49
(g50
g51
NtRp1542
(dp1543
g54
(dp1544
g62
I4
ssg63
g1538
sg56
(lp1545
S'8000'
p1546
asbasbasbag49
(g65
g51
NtRp1547
(dp1548
g54
(dp1549
sg63
g778
sg56
(lp1550
g49
(g70
g51
NtRp1551
(dp1552
g54
(dp1553
g74
g75
ssg63
g1547
sg56
(lp1554
S'server_protocol'
p1555
asbag49
(g70
g51
NtRp1556
(dp1557
g54
(dp1558
g81
g82
ssg63
g1547
sg56
(lp1559
S':'
asbag49
(g70
g51
NtRp1560
(dp1561
g54
(dp1562
sg63
g1547
sg56
(lp1563
g49
(g50
g51
NtRp1564
(dp1565
g54
(dp1566
g62
I4
ssg63
g1560
sg56
(lp1567
S'HTTP/1.1'
p1568
asbasbasbag49
(g65
g51
NtRp1569
(dp1570
g54
(dp1571
sg63
g778
sg56
(lp1572
g49
(g70
g51
NtRp1573
(dp1574
g54
(dp1575
g74
g75
ssg63
g1569
sg56
(lp1576
S'server_software'
p1577
asbag49
(g70
g51
NtRp1578
(dp1579
g54
(dp1580
g81
g82
ssg63
g1569
sg56
(lp1581
S':'
asbag49
(g70
g51
NtRp1582
(dp1583
g54
(dp1584
sg63
g1569
sg56
(lp1585
g49
(g50
g51
NtRp1586
(dp1587
g54
(dp1588
g62
I4
ssg63
g1582
sg56
(lp1589
S'Rocket 1.2.5'
p1590
asbasbasbag49
(g65
g51
NtRp1591
(dp1592
g54
(dp1593
sg63
g778
sg56
(lp1594
g49
(g70
g51
NtRp1595
(dp1596
g54
(dp1597
g74
g75
ssg63
g1591
sg56
(lp1598
S'web2py_path'
p1599
asbag49
(g70
g51
NtRp1600
(dp1601
g54
(dp1602
g81
g82
ssg63
g1591
sg56
(lp1603
S':'
asbag49
(g70
g51
NtRp1604
(dp1605
g54
(dp1606
sg63
g1591
sg56
(lp1607
g49
(g50
g51
NtRp1608
(dp1609
g54
(dp1610
g62
I4
ssg63
g1604
sg56
(lp1611
g825
asbasbasbag49
(g65
g51
NtRp1612
(dp1613
g54
(dp1614
sg63
g778
sg56
(lp1615
g49
(g70
g51
NtRp1616
(dp1617
g54
(dp1618
g74
g75
ssg63
g1612
sg56
(lp1619
S'web2py_version'
p1620
asbag49
(g70
g51
NtRp1621
(dp1622
g54
(dp1623
g81
g82
ssg63
g1612
sg56
(lp1624
S':'
asbag49
(g70
g51
NtRp1625
(dp1626
g54
(dp1627
sg63
g1612
sg56
(lp1628
g49
(g50
g51
NtRp1629
(dp1630
g54
(dp1631
g62
I4
ssg63
g1625
sg56
(lp1632
g49
(g58
g51
NtRp1633
(dp1634
g54
(dp1635
g62
I3
ssg63
Nsg56
(lp1636
g49
(g65
g51
NtRp1637
(dp1638
g54
(dp1639
sg63
g1633
sg56
(lp1640
g49
(g70
g51
NtRp1641
(dp1642
g54
(dp1643
sg63
g1637
sg56
(lp1644
g49
(g50
g51
NtRp1645
(dp1646
g54
(dp1647
g62
I3
ssg63
g1641
sg56
(lp1648
S'2'
asbasbasbag49
(g65
g51
NtRp1649
(dp1650
g54
(dp1651
sg63
g1633
sg56
(lp1652
g49
(g70
g51
NtRp1653
(dp1654
g54
(dp1655
sg63
g1649
sg56
(lp1656
g49
(g50
g51
NtRp1657
(dp1658
g54
(dp1659
g62
I3
ssg63
g1653
sg56
(lp1660
S'2'
asbasbasbag49
(g65
g51
NtRp1661
(dp1662
g54
(dp1663
sg63
g1633
sg56
(lp1664
g49
(g70
g51
NtRp1665
(dp1666
g54
(dp1667
sg63
g1661
sg56
(lp1668
g49
(g50
g51
NtRp1669
(dp1670
g54
(dp1671
g62
I3
ssg63
g1665
sg56
(lp1672
S'1'
asbasbasbag49
(g65
g51
NtRp1673
(dp1674
g54
(dp1675
sg63
g1633
sg56
(lp1676
g49
(g70
g51
NtRp1677
(dp1678
g54
(dp1679
sg63
g1673
sg56
(lp1680
g49
(g50
g51
NtRp1681
(dp1682
g54
(dp1683
g62
I3
ssg63
g1677
sg56
(lp1684
S'datetime.datetime(2012, 10, 21, 16, 57, 4)'
p1685
asbasbasbag49
(g65
g51
NtRp1686
(dp1687
g54
(dp1688
sg63
g1633
sg56
(lp1689
g49
(g70
g51
NtRp1690
(dp1691
g54
(dp1692
sg63
g1686
sg56
(lp1693
g49
(g50
g51
NtRp1694
(dp1695
g54
(dp1696
g62
I3
ssg63
g1690
sg56
(lp1697
S'stable'
p1698
asbasbasbasbasbasbasbag49
(g65
g51
NtRp1699
(dp1700
g54
(dp1701
sg63
g778
sg56
(lp1702
g49
(g70
g51
NtRp1703
(dp1704
g54
(dp1705
g74
g75
ssg63
g1699
sg56
(lp1706
S'wsgi_errors'
p1707
asbag49
(g70
g51
NtRp1708
(dp1709
g54
(dp1710
g81
g82
ssg63
g1699
sg56
(lp1711
S':'
asbag49
(g70
g51
NtRp1712
(dp1713
g54
(dp1714
sg63
g1699
sg56
(lp1715
g49
(g50
g51
NtRp1716
(dp1717
g54
(dp1718
g62
I4
ssg63
g1712
sg56
(lp1719
S"<open file '<stderr>', mode 'w' at 0x540b0>"
p1720
asbasbasbag49
(g65
g51
NtRp1721
(dp1722
g54
(dp1723
sg63
g778
sg56
(lp1724
g49
(g70
g51
NtRp1725
(dp1726
g54
(dp1727
g74
g75
ssg63
g1721
sg56
(lp1728
S'wsgi_file_wrapper'
p1729
asbag49
(g70
g51
NtRp1730
(dp1731
g54
(dp1732
g81
g82
ssg63
g1721
sg56
(lp1733
S':'
asbag49
(g70
g51
NtRp1734
(dp1735
g54
(dp1736
sg63
g1721
sg56
(lp1737
g49
(g50
g51
NtRp1738
(dp1739
g54
(dp1740
g62
I4
ssg63
g1734
sg56
(lp1741
S'<class wsgiref.util.FileWrapper at 0x44002d0>'
p1742
asbasbasbag49
(g65
g51
NtRp1743
(dp1744
g54
(dp1745
sg63
g778
sg56
(lp1746
g49
(g70
g51
NtRp1747
(dp1748
g54
(dp1749
g74
g75
ssg63
g1743
sg56
(lp1750
S'wsgi_input'
p1751
asbag49
(g70
g51
NtRp1752
(dp1753
g54
(dp1754
g81
g82
ssg63
g1743
sg56
(lp1755
S':'
asbag49
(g70
g51
NtRp1756
(dp1757
g54
(dp1758
sg63
g1743
sg56
(lp1759
g49
(g50
g51
NtRp1760
(dp1761
g54
(dp1762
g62
I4
ssg63
g1756
sg56
(lp1763
S'<socket._fileobject object at 0x985eeb0>'
p1764
asbasbasbag49
(g65
g51
NtRp1765
(dp1766
g54
(dp1767
sg63
g778
sg56
(lp1768
g49
(g70
g51
NtRp1769
(dp1770
g54
(dp1771
g74
g75
ssg63
g1765
sg56
(lp1772
S'wsgi_multiprocess'
p1773
asbag49
(g70
g51
NtRp1774
(dp1775
g54
(dp1776
g81
g82
ssg63
g1765
sg56
(lp1777
S':'
asbag49
(g70
g51
NtRp1778
(dp1779
g54
(dp1780
sg63
g1765
sg56
(lp1781
g49
(g50
g51
NtRp1782
(dp1783
g54
(dp1784
g62
I4
ssg63
g1778
sg56
(lp1785
g92
asbasbasbag49
(g65
g51
NtRp1786
(dp1787
g54
(dp1788
sg63
g778
sg56
(lp1789
g49
(g70
g51
NtRp1790
(dp1791
g54
(dp1792
g74
g75
ssg63
g1786
sg56
(lp1793
S'wsgi_multithread'
p1794
asbag49
(g70
g51
NtRp1795
(dp1796
g54
(dp1797
g81
g82
ssg63
g1786
sg56
(lp1798
S':'
asbag49
(g70
g51
NtRp1799
(dp1800
g54
(dp1801
sg63
g1786
sg56
(lp1802
g49
(g50
g51
NtRp1803
(dp1804
g54
(dp1805
g62
I4
ssg63
g1799
sg56
(lp1806
S'True'
p1807
asbasbasbag49
(g65
g51
NtRp1808
(dp1809
g54
(dp1810
sg63
g778
sg56
(lp1811
g49
(g70
g51
NtRp1812
(dp1813
g54
(dp1814
g74
g75
ssg63
g1808
sg56
(lp1815
S'wsgi_run_once'
p1816
asbag49
(g70
g51
NtRp1817
(dp1818
g54
(dp1819
g81
g82
ssg63
g1808
sg56
(lp1820
S':'
asbag49
(g70
g51
NtRp1821
(dp1822
g54
(dp1823
sg63
g1808
sg56
(lp1824
g49
(g50
g51
NtRp1825
(dp1826
g54
(dp1827
g62
I4
ssg63
g1821
sg56
(lp1828
g92
asbasbasbag49
(g65
g51
NtRp1829
(dp1830
g54
(dp1831
sg63
g778
sg56
(lp1832
g49
(g70
g51
NtRp1833
(dp1834
g54
(dp1835
g74
g75
ssg63
g1829
sg56
(lp1836
S'wsgi_url_scheme'
p1837
asbag49
(g70
g51
NtRp1838
(dp1839
g54
(dp1840
g81
g82
ssg63
g1829
sg56
(lp1841
S':'
asbag49
(g70
g51
NtRp1842
(dp1843
g54
(dp1844
sg63
g1829
sg56
(lp1845
g49
(g50
g51
NtRp1846
(dp1847
g54
(dp1848
g62
I4
ssg63
g1842
sg56
(lp1849
S'http'
p1850
asbasbasbag49
(g65
g51
NtRp1851
(dp1852
g54
(dp1853
sg63
g778
sg56
(lp1854
g49
(g70
g51
NtRp1855
(dp1856
g54
(dp1857
g74
g75
ssg63
g1851
sg56
(lp1858
S'wsgi_version'
p1859
asbag49
(g70
g51
NtRp1860
(dp1861
g54
(dp1862
g81
g82
ssg63
g1851
sg56
(lp1863
S':'
asbag49
(g70
g51
NtRp1864
(dp1865
g54
(dp1866
sg63
g1851
sg56
(lp1867
g49
(g50
g51
NtRp1868
(dp1869
g54
(dp1870
g62
I4
ssg63
g1864
sg56
(lp1871
g49
(g58
g51
NtRp1872
(dp1873
g54
(dp1874
g62
I3
ssg63
Nsg56
(lp1875
g49
(g65
g51
NtRp1876
(dp1877
g54
(dp1878
sg63
g1872
sg56
(lp1879
g49
(g70
g51
NtRp1880
(dp1881
g54
(dp1882
sg63
g1876
sg56
(lp1883
g49
(g50
g51
NtRp1884
(dp1885
g54
(dp1886
g62
I3
ssg63
g1880
sg56
(lp1887
S'1'
asbasbasbag49
(g65
g51
NtRp1888
(dp1889
g54
(dp1890
sg63
g1872
sg56
(lp1891
g49
(g70
g51
NtRp1892
(dp1893
g54
(dp1894
sg63
g1888
sg56
(lp1895
g49
(g50
g51
NtRp1896
(dp1897
g54
(dp1898
g62
I3
ssg63
g1892
sg56
(lp1899
S'0'
asbasbasbasbasbasbasbasbasbasbasbag49
(g65
g51
NtRp1900
(dp1901
g54
(dp1902
sg63
g59
sg56
(lp1903
g49
(g70
g51
NtRp1904
(dp1905
g54
(dp1906
g74
g75
ssg63
g1900
sg56
(lp1907
S'extension'
p1908
asbag49
(g70
g51
NtRp1909
(dp1910
g54
(dp1911
g81
g82
ssg63
g1900
sg56
(lp1912
S':'
asbag49
(g70
g51
NtRp1913
(dp1914
g54
(dp1915
sg63
g1900
sg56
(lp1916
g49
(g50
g51
NtRp1917
(dp1918
g54
(dp1919
g62
I5
ssg63
g1913
sg56
(lp1920
S'html'
p1921
asbasbasbag49
(g65
g51
NtRp1922
(dp1923
g54
(dp1924
sg63
g59
sg56
(lp1925
g49
(g70
g51
NtRp1926
(dp1927
g54
(dp1928
g74
g75
ssg63
g1922
sg56
(lp1929
S'folder'
p1930
asbag49
(g70
g51
NtRp1931
(dp1932
g54
(dp1933
g81
g82
ssg63
g1922
sg56
(lp1934
S':'
asbag49
(g70
g51
NtRp1935
(dp1936
g54
(dp1937
sg63
g1922
sg56
(lp1938
g49
(g50
g51
NtRp1939
(dp1940
g54
(dp1941
g62
I5
ssg63
g1935
sg56
(lp1942
S'/Users/abaric/Downloads/web2py/web2py.app/Contents/Resources/applications/Final_Impulse/'
p1943
asbasbasbag49
(g65
g51
NtRp1944
(dp1945
g54
(dp1946
sg63
g59
sg56
(lp1947
g49
(g70
g51
NtRp1948
(dp1949
g54
(dp1950
g74
g75
ssg63
g1944
sg56
(lp1951
S'function'
p1952
asbag49
(g70
g51
NtRp1953
(dp1954
g54
(dp1955
g81
g82
ssg63
g1944
sg56
(lp1956
S':'
asbag49
(g70
g51
NtRp1957
(dp1958
g54
(dp1959
sg63
g1944
sg56
(lp1960
g49
(g50
g51
NtRp1961
(dp1962
g54
(dp1963
g62
I5
ssg63
g1957
sg56
(lp1964
S'insert_writing_comment'
p1965
asbasbasbag49
(g65
g51
NtRp1966
(dp1967
g54
(dp1968
sg63
g59
sg56
(lp1969
g49
(g70
g51
NtRp1970
(dp1971
g54
(dp1972
g74
g75
ssg63
g1966
sg56
(lp1973
S'get_vars'
p1974
asbag49
(g70
g51
NtRp1975
(dp1976
g54
(dp1977
g81
g82
ssg63
g1966
sg56
(lp1978
S':'
asbag49
(g70
g51
NtRp1979
(dp1980
g54
(dp1981
sg63
g1966
sg56
(lp1982
g49
(g50
g51
NtRp1983
(dp1984
g54
(dp1985
g62
I5
ssg63
g1979
sg56
(lp1986
g49
(g58
g51
NtRp1987
(dp1988
g54
(dp1989
g62
I4
ssg63
Nsg56
(lp1990
sbasbasbasbag49
(g65
g51
NtRp1991
(dp1992
g54
(dp1993
sg63
g59
sg56
(lp1994
g49
(g70
g51
NtRp1995
(dp1996
g54
(dp1997
g74
g75
ssg63
g1991
sg56
(lp1998
S'global_settings'
p1999
asbag49
(g70
g51
NtRp2000
(dp2001
g54
(dp2002
g81
g82
ssg63
g1991
sg56
(lp2003
S':'
asbag49
(g70
g51
NtRp2004
(dp2005
g54
(dp2006
sg63
g1991
sg56
(lp2007
g49
(g50
g51
NtRp2008
(dp2009
g54
(dp2010
g62
I5
ssg63
g2004
sg56
(lp2011
g49
(g58
g51
NtRp2012
(dp2013
g54
(dp2014
g62
I4
ssg63
Nsg56
(lp2015
g49
(g65
g51
NtRp2016
(dp2017
g54
(dp2018
sg63
g2012
sg56
(lp2019
g49
(g70
g51
NtRp2020
(dp2021
g54
(dp2022
g74
g75
ssg63
g2016
sg56
(lp2023
g790
asbag49
(g70
g51
NtRp2024
(dp2025
g54
(dp2026
g81
g82
ssg63
g2016
sg56
(lp2027
S':'
asbag49
(g70
g51
NtRp2028
(dp2029
g54
(dp2030
sg63
g2016
sg56
(lp2031
g49
(g50
g51
NtRp2032
(dp2033
g54
(dp2034
g62
I4
ssg63
g2028
sg56
(lp2035
S"set(['/Users/abaric/Downloads/web2py/web2py.app/Contents/Resources/applications/Final_Impulse/', '/Users/abaric/Downloads/web2py/web2py.app/Contents/Resources/applications/welcome/', '/Users/abaric/Downloads/web2py/web2py.app/Contents/Resources/applications/admin/'])"
p2036
asbasbasbag49
(g65
g51
NtRp2037
(dp2038
g54
(dp2039
sg63
g2012
sg56
(lp2040
g49
(g70
g51
NtRp2041
(dp2042
g54
(dp2043
g74
g75
ssg63
g2037
sg56
(lp2044
g812
asbag49
(g70
g51
NtRp2045
(dp2046
g54
(dp2047
g81
g82
ssg63
g2037
sg56
(lp2048
S':'
asbag49
(g70
g51
NtRp2049
(dp2050
g54
(dp2051
sg63
g2037
sg56
(lp2052
g49
(g50
g51
NtRp2053
(dp2054
g54
(dp2055
g62
I4
ssg63
g2049
sg56
(lp2056
g825
asbasbasbag49
(g65
g51
NtRp2057
(dp2058
g54
(dp2059
sg63
g2012
sg56
(lp2060
g49
(g70
g51
NtRp2061
(dp2062
g54
(dp2063
g74
g75
ssg63
g2057
sg56
(lp2064
g834
asbag49
(g70
g51
NtRp2065
(dp2066
g54
(dp2067
g81
g82
ssg63
g2057
sg56
(lp2068
S':'
asbag49
(g70
g51
NtRp2069
(dp2070
g54
(dp2071
sg63
g2057
sg56
(lp2072
g49
(g50
g51
NtRp2073
(dp2074
g54
(dp2075
g62
I4
ssg63
g2069
sg56
(lp2076
g49
(g58
g51
NtRp2077
(dp2078
g54
(dp2079
g62
I3
ssg63
Nsg56
(lp2080
sbasbasbasbag49
(g65
g51
NtRp2081
(dp2082
g54
(dp2083
sg63
g2012
sg56
(lp2084
g49
(g70
g51
NtRp2085
(dp2086
g54
(dp2087
g74
g75
ssg63
g2081
sg56
(lp2088
g859
asbag49
(g70
g51
NtRp2089
(dp2090
g54
(dp2091
g81
g82
ssg63
g2081
sg56
(lp2092
S':'
asbag49
(g70
g51
NtRp2093
(dp2094
g54
(dp2095
sg63
g2081
sg56
(lp2096
g49
(g50
g51
NtRp2097
(dp2098
g54
(dp2099
g62
I4
ssg63
g2093
sg56
(lp2100
S"<Values at 0x442e1c0: {'verbose': False, 'ip': '127.0.0.1', 'with_scheduler': False, 'ips': ['10.1.10.113'], 'shutdown_timeout': 5, 'taskbar': False, 'port': 8000, 'maxthreads': None, 'softcron': False, 'server_name': 'Andrea-Barics-MacBook-Pro.local', 'bpython': False, 'nogui': False, 'pid_filename': 'httpserver.pid', 'extcron': False, 'runcron': False, 'run_system_tests': False, 'test': None, 'folder': '/Users/abaric/Downloads/web2py/web2py.app/Contents/Resources', 'config': '', 'import_models': False, 'winservice': '', 'shell': None, 'run': '', 'log_filename': 'httpserver.log', 'debuglevel': 30, 'args': [''], 'socket_timeout': 5, 'ssl_ca_certificate': None, 'scheduler': None, 'profiler_filename': None, 'ssl_private_key': '', 'scheduler_groups': None, 'password': '<ask>', 'request_queue_size': 5, 'ssl_certificate': '', 'cronjob': False, 'numthreads': None, 'quiet': False, 'interfaces': None, 'minthreads': None, 'timeout': 10, 'plain': False, 'nobanner': False}>"
p2101
asbasbasbag49
(g65
g51
NtRp2102
(dp2103
g54
(dp2104
sg63
g2012
sg56
(lp2105
g49
(g70
g51
NtRp2106
(dp2107
g54
(dp2108
g74
g75
ssg63
g2102
sg56
(lp2109
g925
asbag49
(g70
g51
NtRp2110
(dp2111
g54
(dp2112
g81
g82
ssg63
g2102
sg56
(lp2113
S':'
asbag49
(g70
g51
NtRp2114
(dp2115
g54
(dp2116
sg63
g2102
sg56
(lp2117
g49
(g50
g51
NtRp2118
(dp2119
g54
(dp2120
g62
I4
ssg63
g2114
sg56
(lp2121
S'set([])'
p2122
asbasbasbag49
(g65
g51
NtRp2123
(dp2124
g54
(dp2125
sg63
g2012
sg56
(lp2126
g49
(g70
g51
NtRp2127
(dp2128
g54
(dp2129
g74
g75
ssg63
g2123
sg56
(lp2130
g947
asbag49
(g70
g51
NtRp2131
(dp2132
g54
(dp2133
g81
g82
ssg63
g2123
sg56
(lp2134
S':'
asbag49
(g70
g51
NtRp2135
(dp2136
g54
(dp2137
sg63
g2123
sg56
(lp2138
g49
(g50
g51
NtRp2139
(dp2140
g54
(dp2141
g62
I4
ssg63
g2135
sg56
(lp2142
g92
asbasbasbag49
(g65
g51
NtRp2143
(dp2144
g54
(dp2145
sg63
g2012
sg56
(lp2146
g49
(g70
g51
NtRp2147
(dp2148
g54
(dp2149
g74
g75
ssg63
g2143
sg56
(lp2150
g968
asbag49
(g70
g51
NtRp2151
(dp2152
g54
(dp2153
g81
g82
ssg63
g2143
sg56
(lp2154
S':'
asbag49
(g70
g51
NtRp2155
(dp2156
g54
(dp2157
sg63
g2143
sg56
(lp2158
g49
(g50
g51
NtRp2159
(dp2160
g54
(dp2161
g62
I4
ssg63
g2155
sg56
(lp2162
g981
asbasbasbag49
(g65
g51
NtRp2163
(dp2164
g54
(dp2165
sg63
g2012
sg56
(lp2166
g49
(g70
g51
NtRp2167
(dp2168
g54
(dp2169
g74
g75
ssg63
g2163
sg56
(lp2170
g1230
asbag49
(g70
g51
NtRp2171
(dp2172
g54
(dp2173
g81
g82
ssg63
g2163
sg56
(lp2174
S':'
asbag49
(g70
g51
NtRp2175
(dp2176
g54
(dp2177
sg63
g2163
sg56
(lp2178
g49
(g50
g51
NtRp2179
(dp2180
g54
(dp2181
g62
I4
ssg63
g2175
sg56
(lp2182
g92
asbasbasbag49
(g65
g51
NtRp2183
(dp2184
g54
(dp2185
sg63
g2012
sg56
(lp2186
g49
(g70
g51
NtRp2187
(dp2188
g54
(dp2189
g74
g75
ssg63
g2183
sg56
(lp2190
g1251
asbag49
(g70
g51
NtRp2191
(dp2192
g54
(dp2193
g81
g82
ssg63
g2183
sg56
(lp2194
S':'
asbag49
(g70
g51
NtRp2195
(dp2196
g54
(dp2197
sg63
g2183
sg56
(lp2198
g49
(g50
g51
NtRp2199
(dp2200
g54
(dp2201
g62
I4
ssg63
g2195
sg56
(lp2202
g92
asbasbasbag49
(g65
g51
NtRp2203
(dp2204
g54
(dp2205
sg63
g2012
sg56
(lp2206
g49
(g70
g51
NtRp2207
(dp2208
g54
(dp2209
g74
g75
ssg63
g2203
sg56
(lp2210
g1272
asbag49
(g70
g51
NtRp2211
(dp2212
g54
(dp2213
g81
g82
ssg63
g2203
sg56
(lp2214
S':'
asbag49
(g70
g51
NtRp2215
(dp2216
g54
(dp2217
sg63
g2203
sg56
(lp2218
g49
(g50
g51
NtRp2219
(dp2220
g54
(dp2221
g62
I4
ssg63
g2215
sg56
(lp2222
g49
(g58
g51
NtRp2223
(dp2224
g54
(dp2225
g62
I3
ssg63
Nsg56
(lp2226
g49
(g65
g51
NtRp2227
(dp2228
g54
(dp2229
sg63
g2223
sg56
(lp2230
g49
(g70
g51
NtRp2231
(dp2232
g54
(dp2233
sg63
g2227
sg56
(lp2234
g49
(g50
g51
NtRp2235
(dp2236
g54
(dp2237
g62
I3
ssg63
g2231
sg56
(lp2238
g1301
asbasbasbag49
(g65
g51
NtRp2239
(dp2240
g54
(dp2241
sg63
g2223
sg56
(lp2242
g49
(g70
g51
NtRp2243
(dp2244
g54
(dp2245
sg63
g2239
sg56
(lp2246
g49
(g50
g51
NtRp2247
(dp2248
g54
(dp2249
g62
I3
ssg63
g2243
sg56
(lp2250
g1314
asbasbasbag49
(g65
g51
NtRp2251
(dp2252
g54
(dp2253
sg63
g2223
sg56
(lp2254
g49
(g70
g51
NtRp2255
(dp2256
g54
(dp2257
sg63
g2251
sg56
(lp2258
g49
(g50
g51
NtRp2259
(dp2260
g54
(dp2261
g62
I3
ssg63
g2255
sg56
(lp2262
g1327
asbasbasbag49
(g65
g51
NtRp2263
(dp2264
g54
(dp2265
sg63
g2223
sg56
(lp2266
g49
(g70
g51
NtRp2267
(dp2268
g54
(dp2269
sg63
g2263
sg56
(lp2270
g49
(g50
g51
NtRp2271
(dp2272
g54
(dp2273
g62
I3
ssg63
g2267
sg56
(lp2274
g1340
asbasbasbag49
(g65
g51
NtRp2275
(dp2276
g54
(dp2277
sg63
g2223
sg56
(lp2278
g49
(g70
g51
NtRp2279
(dp2280
g54
(dp2281
sg63
g2275
sg56
(lp2282
g49
(g50
g51
NtRp2283
(dp2284
g54
(dp2285
g62
I3
ssg63
g2279
sg56
(lp2286
g1353
asbasbasbasbasbasbasbag49
(g65
g51
NtRp2287
(dp2288
g54
(dp2289
sg63
g2012
sg56
(lp2290
g49
(g70
g51
NtRp2291
(dp2292
g54
(dp2293
g74
g75
ssg63
g2287
sg56
(lp2294
g1620
asbag49
(g70
g51
NtRp2295
(dp2296
g54
(dp2297
g81
g82
ssg63
g2287
sg56
(lp2298
S':'
asbag49
(g70
g51
NtRp2299
(dp2300
g54
(dp2301
sg63
g2287
sg56
(lp2302
g49
(g50
g51
NtRp2303
(dp2304
g54
(dp2305
g62
I4
ssg63
g2299
sg56
(lp2306
g49
(g58
g51
NtRp2307
(dp2308
g54
(dp2309
g62
I3
ssg63
Nsg56
(lp2310
g49
(g65
g51
NtRp2311
(dp2312
g54
(dp2313
sg63
g2307
sg56
(lp2314
g49
(g70
g51
NtRp2315
(dp2316
g54
(dp2317
sg63
g2311
sg56
(lp2318
g49
(g50
g51
NtRp2319
(dp2320
g54
(dp2321
g62
I3
ssg63
g2315
sg56
(lp2322
S'2'
asbasbasbag49
(g65
g51
NtRp2323
(dp2324
g54
(dp2325
sg63
g2307
sg56
(lp2326
g49
(g70
g51
NtRp2327
(dp2328
g54
(dp2329
sg63
g2323
sg56
(lp2330
g49
(g50
g51
NtRp2331
(dp2332
g54
(dp2333
g62
I3
ssg63
g2327
sg56
(lp2334
S'2'
asbasbasbag49
(g65
g51
NtRp2335
(dp2336
g54
(dp2337
sg63
g2307
sg56
(lp2338
g49
(g70
g51
NtRp2339
(dp2340
g54
(dp2341
sg63
g2335
sg56
(lp2342
g49
(g50
g51
NtRp2343
(dp2344
g54
(dp2345
g62
I3
ssg63
g2339
sg56
(lp2346
S'1'
asbasbasbag49
(g65
g51
NtRp2347
(dp2348
g54
(dp2349
sg63
g2307
sg56
(lp2350
g49
(g70
g51
NtRp2351
(dp2352
g54
(dp2353
sg63
g2347
sg56
(lp2354
g49
(g50
g51
NtRp2355
(dp2356
g54
(dp2357
g62
I3
ssg63
g2351
sg56
(lp2358
S'datetime.datetime(2012, 10, 21, 16, 57, 4)'
p2359
asbasbasbag49
(g65
g51
NtRp2360
(dp2361
g54
(dp2362
sg63
g2307
sg56
(lp2363
g49
(g70
g51
NtRp2364
(dp2365
g54
(dp2366
sg63
g2360
sg56
(lp2367
g49
(g50
g51
NtRp2368
(dp2369
g54
(dp2370
g62
I3
ssg63
g2364
sg56
(lp2371
g1698
asbasbasbasbasbasbasbasbasbasbasbag49
(g65
g51
NtRp2372
(dp2373
g54
(dp2374
sg63
g59
sg56
(lp2375
g49
(g70
g51
NtRp2376
(dp2377
g54
(dp2378
g74
g75
ssg63
g2372
sg56
(lp2379
S'is_https'
p2380
asbag49
(g70
g51
NtRp2381
(dp2382
g54
(dp2383
g81
g82
ssg63
g2372
sg56
(lp2384
S':'
asbag49
(g70
g51
NtRp2385
(dp2386
g54
(dp2387
sg63
g2372
sg56
(lp2388
g49
(g50
g51
NtRp2389
(dp2390
g54
(dp2391
g62
I5
ssg63
g2385
sg56
(lp2392
g92
asbasbasbag49
(g65
g51
NtRp2393
(dp2394
g54
(dp2395
sg63
g59
sg56
(lp2396
g49
(g70
g51
NtRp2397
(dp2398
g54
(dp2399
g74
g75
ssg63
g2393
sg56
(lp2400
S'is_local'
p2401
asbag49
(g70
g51
NtRp2402
(dp2403
g54
(dp2404
g81
g82
ssg63
g2393
sg56
(lp2405
S':'
asbag49
(g70
g51
NtRp2406
(dp2407
g54
(dp2408
sg63
g2393
sg56
(lp2409
g49
(g50
g51
NtRp2410
(dp2411
g54
(dp2412
g62
I5
ssg63
g2406
sg56
(lp2413
g1807
asbasbasbag49
(g65
g51
NtRp2414
(dp2415
g54
(dp2416
sg63
g59
sg56
(lp2417
g49
(g70
g51
NtRp2418
(dp2419
g54
(dp2420
g74
g75
ssg63
g2414
sg56
(lp2421
S'is_restful'
p2422
asbag49
(g70
g51
NtRp2423
(dp2424
g54
(dp2425
g81
g82
ssg63
g2414
sg56
(lp2426
S':'
asbag49
(g70
g51
NtRp2427
(dp2428
g54
(dp2429
sg63
g2414
sg56
(lp2430
g49
(g50
g51
NtRp2431
(dp2432
g54
(dp2433
g62
I5
ssg63
g2427
sg56
(lp2434
g92
asbasbasbag49
(g65
g51
NtRp2435
(dp2436
g54
(dp2437
sg63
g59
sg56
(lp2438
g49
(g70
g51
NtRp2439
(dp2440
g54
(dp2441
g74
g75
ssg63
g2435
sg56
(lp2442
S'now'
p2443
asbag49
(g70
g51
NtRp2444
(dp2445
g54
(dp2446
g81
g82
ssg63
g2435
sg56
(lp2447
S':'
asbag49
(g70
g51
NtRp2448
(dp2449
g54
(dp2450
sg63
g2435
sg56
(lp2451
g49
(g50
g51
NtRp2452
(dp2453
g54
(dp2454
g62
I5
ssg63
g2448
sg56
(lp2455
S'datetime.datetime(2014, 4, 8, 14, 4, 22, 930573)'
p2456
asbasbasbag49
(g65
g51
NtRp2457
(dp2458
g54
(dp2459
sg63
g59
sg56
(lp2460
g49
(g70
g51
NtRp2461
(dp2462
g54
(dp2463
g74
g75
ssg63
g2457
sg56
(lp2464
S'post_vars'
p2465
asbag49
(g70
g51
NtRp2466
(dp2467
g54
(dp2468
g81
g82
ssg63
g2457
sg56
(lp2469
S':'
asbag49
(g70
g51
NtRp2470
(dp2471
g54
(dp2472
sg63
g2457
sg56
(lp2473
g49
(g50
g51
NtRp2474
(dp2475
g54
(dp2476
g62
I5
ssg63
g2470
sg56
(lp2477
g49
(g58
g51
NtRp2478
(dp2479
g54
(dp2480
g62
I4
ssg63
Nsg56
(lp2481
g49
(g65
g51
NtRp2482
(dp2483
g54
(dp2484
sg63
g2478
sg56
(lp2485
g49
(g70
g51
NtRp2486
(dp2487
g54
(dp2488
g74
g75
ssg63
g2482
sg56
(lp2489
S'commentform'
p2490
asbag49
(g70
g51
NtRp2491
(dp2492
g54
(dp2493
g81
g82
ssg63
g2482
sg56
(lp2494
S':'
asbag49
(g70
g51
NtRp2495
(dp2496
g54
(dp2497
sg63
g2482
sg56
(lp2498
g49
(g50
g51
NtRp2499
(dp2500
g54
(dp2501
g62
I4
ssg63
g2495
sg56
(lp2502
S'Submit'
p2503
asbasbasbag49
(g65
g51
NtRp2504
(dp2505
g54
(dp2506
sg63
g2478
sg56
(lp2507
g49
(g70
g51
NtRp2508
(dp2509
g54
(dp2510
g74
g75
ssg63
g2504
sg56
(lp2511
S'seq'
p2512
asbag49
(g70
g51
NtRp2513
(dp2514
g54
(dp2515
g81
g82
ssg63
g2504
sg56
(lp2516
S':'
asbag49
(g70
g51
NtRp2517
(dp2518
g54
(dp2519
sg63
g2504
sg56
(lp2520
g49
(g50
g51
NtRp2521
(dp2522
g54
(dp2523
g62
I4
ssg63
g2517
sg56
(lp2524
S'sdfsdf'
p2525
asbasbasbasbasbasbasbag49
(g65
g51
NtRp2526
(dp2527
g54
(dp2528
sg63
g59
sg56
(lp2529
g49
(g70
g51
NtRp2530
(dp2531
g54
(dp2532
g74
g75
ssg63
g2526
sg56
(lp2533
S'raw_args'
p2534
asbag49
(g70
g51
NtRp2535
(dp2536
g54
(dp2537
g81
g82
ssg63
g2526
sg56
(lp2538
S':'
asbag49
(g70
g51
NtRp2539
(dp2540
g54
(dp2541
sg63
g2526
sg56
(lp2542
g49
(g50
g51
NtRp2543
(dp2544
g54
(dp2545
g62
I5
ssg63
g2539
sg56
(lp2546
S''
asbasbasbag49
(g65
g51
NtRp2547
(dp2548
g54
(dp2549
sg63
g59
sg56
(lp2550
g49
(g70
g51
NtRp2551
(dp2552
g54
(dp2553
g74
g75
ssg63
g2547
sg56
(lp2554
S'raw_extension'
p2555
asbag49
(g70
g51
NtRp2556
(dp2557
g54
(dp2558
g81
g82
ssg63
g2547
sg56
(lp2559
S':'
asbag49
(g70
g51
NtRp2560
(dp2561
g54
(dp2562
sg63
g2547
sg56
(lp2563
g49
(g50
g51
NtRp2564
(dp2565
g54
(dp2566
g62
I5
ssg63
g2560
sg56
(lp2567
S'None'
p2568
asbasbasbag49
(g65
g51
NtRp2569
(dp2570
g54
(dp2571
sg63
g59
sg56
(lp2572
g49
(g70
g51
NtRp2573
(dp2574
g54
(dp2575
g74
g75
ssg63
g2569
sg56
(lp2576
S'url'
p2577
asbag49
(g70
g51
NtRp2578
(dp2579
g54
(dp2580
g81
g82
ssg63
g2569
sg56
(lp2581
S':'
asbag49
(g70
g51
NtRp2582
(dp2583
g54
(dp2584
sg63
g2569
sg56
(lp2585
g49
(g50
g51
NtRp2586
(dp2587
g54
(dp2588
g62
I5
ssg63
g2582
sg56
(lp2589
g1375
asbasbasbag49
(g65
g51
NtRp2590
(dp2591
g54
(dp2592
sg63
g59
sg56
(lp2593
g49
(g70
g51
NtRp2594
(dp2595
g54
(dp2596
g74
g75
ssg63
g2590
sg56
(lp2597
S'utcnow'
p2598
asbag49
(g70
g51
NtRp2599
(dp2600
g54
(dp2601
g81
g82
ssg63
g2590
sg56
(lp2602
S':'
asbag49
(g70
g51
NtRp2603
(dp2604
g54
(dp2605
sg63
g2590
sg56
(lp2606
g49
(g50
g51
NtRp2607
(dp2608
g54
(dp2609
g62
I5
ssg63
g2603
sg56
(lp2610
S'datetime.datetime(2014, 4, 8, 18, 4, 22, 930587)'
p2611
asbasbasbag49
(g65
g51
NtRp2612
(dp2613
g54
(dp2614
sg63
g59
sg56
(lp2615
g49
(g70
g51
NtRp2616
(dp2617
g54
(dp2618
g74
g75
ssg63
g2612
sg56
(lp2619
S'uuid'
p2620
asbag49
(g70
g51
NtRp2621
(dp2622
g54
(dp2623
g81
g82
ssg63
g2612
sg56
(lp2624
S':'
asbag49
(g70
g51
NtRp2625
(dp2626
g54
(dp2627
sg63
g2612
sg56
(lp2628
g49
(g50
g51
NtRp2629
(dp2630
g54
(dp2631
g62
I5
ssg63
g2625
sg56
(lp2632
S'Final_Impulse/127.0.0.1.2014-04-08.14-04-22.58959e8a-d319-4933-bcbf-cb110f04205a'
p2633
asbasbasbag49
(g65
g51
NtRp2634
(dp2635
g54
(dp2636
sg63
g59
sg56
(lp2637
g49
(g70
g51
NtRp2638
(dp2639
g54
(dp2640
g74
g75
ssg63
g2634
sg56
(lp2641
S'vars'
p2642
asbag49
(g70
g51
NtRp2643
(dp2644
g54
(dp2645
g81
g82
ssg63
g2634
sg56
(lp2646
S':'
asbag49
(g70
g51
NtRp2647
(dp2648
g54
(dp2649
sg63
g2634
sg56
(lp2650
g49
(g50
g51
NtRp2651
(dp2652
g54
(dp2653
g62
I5
ssg63
g2647
sg56
(lp2654
g49
(g58
g51
NtRp2655
(dp2656
g54
(dp2657
g62
I4
ssg63
Nsg56
(lp2658
g49
(g65
g51
NtRp2659
(dp2660
g54
(dp2661
sg63
g2655
sg56
(lp2662
g49
(g70
g51
NtRp2663
(dp2664
g54
(dp2665
g74
g75
ssg63
g2659
sg56
(lp2666
g2490
asbag49
(g70
g51
NtRp2667
(dp2668
g54
(dp2669
g81
g82
ssg63
g2659
sg56
(lp2670
S':'
asbag49
(g70
g51
NtRp2671
(dp2672
g54
(dp2673
sg63
g2659
sg56
(lp2674
g49
(g50
g51
NtRp2675
(dp2676
g54
(dp2677
g62
I4
ssg63
g2671
sg56
(lp2678
g2503
asbasbasbag49
(g65
g51
NtRp2679
(dp2680
g54
(dp2681
sg63
g2655
sg56
(lp2682
g49
(g70
g51
NtRp2683
(dp2684
g54
(dp2685
g74
g75
ssg63
g2679
sg56
(lp2686
g2512
asbag49
(g70
g51
NtRp2687
(dp2688
g54
(dp2689
g81
g82
ssg63
g2679
sg56
(lp2690
S':'
asbag49
(g70
g51
NtRp2691
(dp2692
g54
(dp2693
sg63
g2679
sg56
(lp2694
g49
(g50
g51
NtRp2695
(dp2696
g54
(dp2697
g62
I4
ssg63
g2691
sg56
(lp2698
g2525
asbasbasbasbasbasbasbag49
(g65
g51
NtRp2699
(dp2700
g54
(dp2701
sg63
g59
sg56
(lp2702
g49
(g70
g51
NtRp2703
(dp2704
g54
(dp2705
g74
g75
ssg63
g2699
sg56
(lp2706
S'wsgi'
p2707
asbag49
(g70
g51
NtRp2708
(dp2709
g54
(dp2710
g81
g82
ssg63
g2699
sg56
(lp2711
S':'
asbag49
(g70
g51
NtRp2712
(dp2713
g54
(dp2714
sg63
g2699
sg56
(lp2715
g49
(g50
g51
NtRp2716
(dp2717
g54
(dp2718
g62
I5
ssg63
g2712
sg56
(lp2719
g49
(g58
g51
NtRp2720
(dp2721
g54
(dp2722
g62
I4
ssg63
Nsg56
(lp2723
g49
(g65
g51
NtRp2724
(dp2725
g54
(dp2726
sg63
g2720
sg56
(lp2727
g49
(g70
g51
NtRp2728
(dp2729
g54
(dp2730
g74
g75
ssg63
g2724
sg56
(lp2731
S'environ'
p2732
asbag49
(g70
g51
NtRp2733
(dp2734
g54
(dp2735
g81
g82
ssg63
g2724
sg56
(lp2736
S':'
asbag49
(g70
g51
NtRp2737
(dp2738
g54
(dp2739
sg63
g2724
sg56
(lp2740
g49
(g50
g51
NtRp2741
(dp2742
g54
(dp2743
g62
I4
ssg63
g2737
sg56
(lp2744
g49
(g58
g51
NtRp2745
(dp2746
g54
(dp2747
g62
I3
ssg63
Nsg56
(lp2748
g49
(g65
g51
NtRp2749
(dp2750
g54
(dp2751
sg63
g2745
sg56
(lp2752
g49
(g70
g51
NtRp2753
(dp2754
g54
(dp2755
g74
g75
ssg63
g2749
sg56
(lp2756
S'CONTENT_LENGTH'
p2757
asbag49
(g70
g51
NtRp2758
(dp2759
g54
(dp2760
g81
g82
ssg63
g2749
sg56
(lp2761
S':'
asbag49
(g70
g51
NtRp2762
(dp2763
g54
(dp2764
sg63
g2749
sg56
(lp2765
g49
(g50
g51
NtRp2766
(dp2767
g54
(dp2768
g62
I3
ssg63
g2762
sg56
(lp2769
g894
asbasbasbag49
(g65
g51
NtRp2770
(dp2771
g54
(dp2772
sg63
g2745
sg56
(lp2773
g49
(g70
g51
NtRp2774
(dp2775
g54
(dp2776
g74
g75
ssg63
g2770
sg56
(lp2777
S'CONTENT_TYPE'
p2778
asbag49
(g70
g51
NtRp2779
(dp2780
g54
(dp2781
g81
g82
ssg63
g2770
sg56
(lp2782
S':'
asbag49
(g70
g51
NtRp2783
(dp2784
g54
(dp2785
sg63
g2770
sg56
(lp2786
g49
(g50
g51
NtRp2787
(dp2788
g54
(dp2789
g62
I3
ssg63
g2783
sg56
(lp2790
g916
asbasbasbag49
(g65
g51
NtRp2791
(dp2792
g54
(dp2793
sg63
g2745
sg56
(lp2794
g49
(g70
g51
NtRp2795
(dp2796
g54
(dp2797
g74
g75
ssg63
g2791
sg56
(lp2798
S'HTTP_ACCEPT'
p2799
asbag49
(g70
g51
NtRp2800
(dp2801
g54
(dp2802
g81
g82
ssg63
g2791
sg56
(lp2803
S':'
asbag49
(g70
g51
NtRp2804
(dp2805
g54
(dp2806
sg63
g2791
sg56
(lp2807
g49
(g50
g51
NtRp2808
(dp2809
g54
(dp2810
g62
I3
ssg63
g2804
sg56
(lp2811
g1003
asbasbasbag49
(g65
g51
NtRp2812
(dp2813
g54
(dp2814
sg63
g2745
sg56
(lp2815
g49
(g70
g51
NtRp2816
(dp2817
g54
(dp2818
g74
g75
ssg63
g2812
sg56
(lp2819
S'HTTP_ACCEPT_ENCODING'
p2820
asbag49
(g70
g51
NtRp2821
(dp2822
g54
(dp2823
g81
g82
ssg63
g2812
sg56
(lp2824
S':'
asbag49
(g70
g51
NtRp2825
(dp2826
g54
(dp2827
sg63
g2812
sg56
(lp2828
g49
(g50
g51
NtRp2829
(dp2830
g54
(dp2831
g62
I3
ssg63
g2825
sg56
(lp2832
g1025
asbasbasbag49
(g65
g51
NtRp2833
(dp2834
g54
(dp2835
sg63
g2745
sg56
(lp2836
g49
(g70
g51
NtRp2837
(dp2838
g54
(dp2839
g74
g75
ssg63
g2833
sg56
(lp2840
S'HTTP_ACCEPT_LANGUAGE'
p2841
asbag49
(g70
g51
NtRp2842
(dp2843
g54
(dp2844
g81
g82
ssg63
g2833
sg56
(lp2845
S':'
asbag49
(g70
g51
NtRp2846
(dp2847
g54
(dp2848
sg63
g2833
sg56
(lp2849
g49
(g50
g51
NtRp2850
(dp2851
g54
(dp2852
g62
I3
ssg63
g2846
sg56
(lp2853
g1047
asbasbasbag49
(g65
g51
NtRp2854
(dp2855
g54
(dp2856
sg63
g2745
sg56
(lp2857
g49
(g70
g51
NtRp2858
(dp2859
g54
(dp2860
g74
g75
ssg63
g2854
sg56
(lp2861
S'HTTP_CONNECTION'
p2862
asbag49
(g70
g51
NtRp2863
(dp2864
g54
(dp2865
g81
g82
ssg63
g2854
sg56
(lp2866
S':'
asbag49
(g70
g51
NtRp2867
(dp2868
g54
(dp2869
sg63
g2854
sg56
(lp2870
g49
(g50
g51
NtRp2871
(dp2872
g54
(dp2873
g62
I3
ssg63
g2867
sg56
(lp2874
g1069
asbasbasbag49
(g65
g51
NtRp2875
(dp2876
g54
(dp2877
sg63
g2745
sg56
(lp2878
g49
(g70
g51
NtRp2879
(dp2880
g54
(dp2881
g74
g75
ssg63
g2875
sg56
(lp2882
S'HTTP_CONTENT_LENGTH'
p2883
asbag49
(g70
g51
NtRp2884
(dp2885
g54
(dp2886
g81
g82
ssg63
g2875
sg56
(lp2887
S':'
asbag49
(g70
g51
NtRp2888
(dp2889
g54
(dp2890
sg63
g2875
sg56
(lp2891
g49
(g50
g51
NtRp2892
(dp2893
g54
(dp2894
g62
I3
ssg63
g2888
sg56
(lp2895
g894
asbasbasbag49
(g65
g51
NtRp2896
(dp2897
g54
(dp2898
sg63
g2745
sg56
(lp2899
g49
(g70
g51
NtRp2900
(dp2901
g54
(dp2902
g74
g75
ssg63
g2896
sg56
(lp2903
S'HTTP_CONTENT_TYPE'
p2904
asbag49
(g70
g51
NtRp2905
(dp2906
g54
(dp2907
g81
g82
ssg63
g2896
sg56
(lp2908
S':'
asbag49
(g70
g51
NtRp2909
(dp2910
g54
(dp2911
sg63
g2896
sg56
(lp2912
g49
(g50
g51
NtRp2913
(dp2914
g54
(dp2915
g62
I3
ssg63
g2909
sg56
(lp2916
g916
asbasbasbag49
(g65
g51
NtRp2917
(dp2918
g54
(dp2919
sg63
g2745
sg56
(lp2920
g49
(g70
g51
NtRp2921
(dp2922
g54
(dp2923
g74
g75
ssg63
g2917
sg56
(lp2924
S'HTTP_COOKIE'
p2925
asbag49
(g70
g51
NtRp2926
(dp2927
g54
(dp2928
g81
g82
ssg63
g2917
sg56
(lp2929
S':'
asbag49
(g70
g51
NtRp2930
(dp2931
g54
(dp2932
sg63
g2917
sg56
(lp2933
g49
(g50
g51
NtRp2934
(dp2935
g54
(dp2936
g62
I3
ssg63
g2930
sg56
(lp2937
g1133
asbasbasbag49
(g65
g51
NtRp2938
(dp2939
g54
(dp2940
sg63
g2745
sg56
(lp2941
g49
(g70
g51
NtRp2942
(dp2943
g54
(dp2944
g74
g75
ssg63
g2938
sg56
(lp2945
S'HTTP_HOST'
p2946
asbag49
(g70
g51
NtRp2947
(dp2948
g54
(dp2949
g81
g82
ssg63
g2938
sg56
(lp2950
S':'
asbag49
(g70
g51
NtRp2951
(dp2952
g54
(dp2953
sg63
g2938
sg56
(lp2954
g49
(g50
g51
NtRp2955
(dp2956
g54
(dp2957
g62
I3
ssg63
g2951
sg56
(lp2958
g1155
asbasbasbag49
(g65
g51
NtRp2959
(dp2960
g54
(dp2961
sg63
g2745
sg56
(lp2962
g49
(g70
g51
NtRp2963
(dp2964
g54
(dp2965
g74
g75
ssg63
g2959
sg56
(lp2966
S'HTTP_ORIGIN'
p2967
asbag49
(g70
g51
NtRp2968
(dp2969
g54
(dp2970
g81
g82
ssg63
g2959
sg56
(lp2971
S':'
asbag49
(g70
g51
NtRp2972
(dp2973
g54
(dp2974
sg63
g2959
sg56
(lp2975
g49
(g50
g51
NtRp2976
(dp2977
g54
(dp2978
g62
I3
ssg63
g2972
sg56
(lp2979
g1177
asbasbasbag49
(g65
g51
NtRp2980
(dp2981
g54
(dp2982
sg63
g2745
sg56
(lp2983
g49
(g70
g51
NtRp2984
(dp2985
g54
(dp2986
g74
g75
ssg63
g2980
sg56
(lp2987
S'HTTP_REFERER'
p2988
asbag49
(g70
g51
NtRp2989
(dp2990
g54
(dp2991
g81
g82
ssg63
g2980
sg56
(lp2992
S':'
asbag49
(g70
g51
NtRp2993
(dp2994
g54
(dp2995
sg63
g2980
sg56
(lp2996
g49
(g50
g51
NtRp2997
(dp2998
g54
(dp2999
g62
I3
ssg63
g2993
sg56
(lp3000
g1199
asbasbasbag49
(g65
g51
NtRp3001
(dp3002
g54
(dp3003
sg63
g2745
sg56
(lp3004
g49
(g70
g51
NtRp3005
(dp3006
g54
(dp3007
g74
g75
ssg63
g3001
sg56
(lp3008
S'HTTP_USER_AGENT'
p3009
asbag49
(g70
g51
NtRp3010
(dp3011
g54
(dp3012
g81
g82
ssg63
g3001
sg56
(lp3013
S':'
asbag49
(g70
g51
NtRp3014
(dp3015
g54
(dp3016
sg63
g3001
sg56
(lp3017
g49
(g50
g51
NtRp3018
(dp3019
g54
(dp3020
g62
I3
ssg63
g3014
sg56
(lp3021
g1221
asbasbasbag49
(g65
g51
NtRp3022
(dp3023
g54
(dp3024
sg63
g2745
sg56
(lp3025
g49
(g70
g51
NtRp3026
(dp3027
g54
(dp3028
g74
g75
ssg63
g3022
sg56
(lp3029
S'PATH_INFO'
p3030
asbag49
(g70
g51
NtRp3031
(dp3032
g54
(dp3033
g81
g82
ssg63
g3022
sg56
(lp3034
S':'
asbag49
(g70
g51
NtRp3035
(dp3036
g54
(dp3037
sg63
g3022
sg56
(lp3038
g49
(g50
g51
NtRp3039
(dp3040
g54
(dp3041
g62
I3
ssg63
g3035
sg56
(lp3042
g1375
asbasbasbag49
(g65
g51
NtRp3043
(dp3044
g54
(dp3045
sg63
g2745
sg56
(lp3046
g49
(g70
g51
NtRp3047
(dp3048
g54
(dp3049
g74
g75
ssg63
g3043
sg56
(lp3050
S'QUERY_STRING'
p3051
asbag49
(g70
g51
NtRp3052
(dp3053
g54
(dp3054
g81
g82
ssg63
g3043
sg56
(lp3055
S':'
asbag49
(g70
g51
NtRp3056
(dp3057
g54
(dp3058
sg63
g3043
sg56
(lp3059
g49
(g50
g51
NtRp3060
(dp3061
g54
(dp3062
g62
I3
ssg63
g3056
sg56
(lp3063
S''
asbasbasbag49
(g65
g51
NtRp3064
(dp3065
g54
(dp3066
sg63
g2745
sg56
(lp3067
g49
(g70
g51
NtRp3068
(dp3069
g54
(dp3070
g74
g75
ssg63
g3064
sg56
(lp3071
S'REMOTE_ADDR'
p3072
asbag49
(g70
g51
NtRp3073
(dp3074
g54
(dp3075
g81
g82
ssg63
g3064
sg56
(lp3076
S':'
asbag49
(g70
g51
NtRp3077
(dp3078
g54
(dp3079
sg63
g3064
sg56
(lp3080
g49
(g50
g51
NtRp3081
(dp3082
g54
(dp3083
g62
I3
ssg63
g3077
sg56
(lp3084
g204
asbasbasbag49
(g65
g51
NtRp3085
(dp3086
g54
(dp3087
sg63
g2745
sg56
(lp3088
g49
(g70
g51
NtRp3089
(dp3090
g54
(dp3091
g74
g75
ssg63
g3085
sg56
(lp3092
S'REMOTE_PORT'
p3093
asbag49
(g70
g51
NtRp3094
(dp3095
g54
(dp3096
g81
g82
ssg63
g3085
sg56
(lp3097
S':'
asbag49
(g70
g51
NtRp3098
(dp3099
g54
(dp3100
sg63
g3085
sg56
(lp3101
g49
(g50
g51
NtRp3102
(dp3103
g54
(dp3104
g62
I3
ssg63
g3098
sg56
(lp3105
g1439
asbasbasbag49
(g65
g51
NtRp3106
(dp3107
g54
(dp3108
sg63
g2745
sg56
(lp3109
g49
(g70
g51
NtRp3110
(dp3111
g54
(dp3112
g74
g75
ssg63
g3106
sg56
(lp3113
S'REQUEST_METHOD'
p3114
asbag49
(g70
g51
NtRp3115
(dp3116
g54
(dp3117
g81
g82
ssg63
g3106
sg56
(lp3118
S':'
asbag49
(g70
g51
NtRp3119
(dp3120
g54
(dp3121
sg63
g3106
sg56
(lp3122
g49
(g50
g51
NtRp3123
(dp3124
g54
(dp3125
g62
I3
ssg63
g3119
sg56
(lp3126
g1461
asbasbasbag49
(g65
g51
NtRp3127
(dp3128
g54
(dp3129
sg63
g2745
sg56
(lp3130
g49
(g70
g51
NtRp3131
(dp3132
g54
(dp3133
g74
g75
ssg63
g3127
sg56
(lp3134
S'REQUEST_URI'
p3135
asbag49
(g70
g51
NtRp3136
(dp3137
g54
(dp3138
g81
g82
ssg63
g3127
sg56
(lp3139
S':'
asbag49
(g70
g51
NtRp3140
(dp3141
g54
(dp3142
sg63
g3127
sg56
(lp3143
g49
(g50
g51
NtRp3144
(dp3145
g54
(dp3146
g62
I3
ssg63
g3140
sg56
(lp3147
g1375
asbasbasbag49
(g65
g51
NtRp3148
(dp3149
g54
(dp3150
sg63
g2745
sg56
(lp3151
g49
(g70
g51
NtRp3152
(dp3153
g54
(dp3154
g74
g75
ssg63
g3148
sg56
(lp3155
S'SCRIPT_NAME'
p3156
asbag49
(g70
g51
NtRp3157
(dp3158
g54
(dp3159
g81
g82
ssg63
g3148
sg56
(lp3160
S':'
asbag49
(g70
g51
NtRp3161
(dp3162
g54
(dp3163
sg63
g3148
sg56
(lp3164
g49
(g50
g51
NtRp3165
(dp3166
g54
(dp3167
g62
I3
ssg63
g3161
sg56
(lp3168
S''
asbasbasbag49
(g65
g51
NtRp3169
(dp3170
g54
(dp3171
sg63
g2745
sg56
(lp3172
g49
(g70
g51
NtRp3173
(dp3174
g54
(dp3175
g74
g75
ssg63
g3169
sg56
(lp3176
S'SERVER_NAME'
p3177
asbag49
(g70
g51
NtRp3178
(dp3179
g54
(dp3180
g81
g82
ssg63
g3169
sg56
(lp3181
S':'
asbag49
(g70
g51
NtRp3182
(dp3183
g54
(dp3184
sg63
g3169
sg56
(lp3185
g49
(g50
g51
NtRp3186
(dp3187
g54
(dp3188
g62
I3
ssg63
g3182
sg56
(lp3189
g1340
asbasbasbag49
(g65
g51
NtRp3190
(dp3191
g54
(dp3192
sg63
g2745
sg56
(lp3193
g49
(g70
g51
NtRp3194
(dp3195
g54
(dp3196
g74
g75
ssg63
g3190
sg56
(lp3197
S'SERVER_PORT'
p3198
asbag49
(g70
g51
NtRp3199
(dp3200
g54
(dp3201
g81
g82
ssg63
g3190
sg56
(lp3202
S':'
asbag49
(g70
g51
NtRp3203
(dp3204
g54
(dp3205
sg63
g3190
sg56
(lp3206
g49
(g50
g51
NtRp3207
(dp3208
g54
(dp3209
g62
I3
ssg63
g3203
sg56
(lp3210
g1546
asbasbasbag49
(g65
g51
NtRp3211
(dp3212
g54
(dp3213
sg63
g2745
sg56
(lp3214
g49
(g70
g51
NtRp3215
(dp3216
g54
(dp3217
g74
g75
ssg63
g3211
sg56
(lp3218
S'SERVER_PROTOCOL'
p3219
asbag49
(g70
g51
NtRp3220
(dp3221
g54
(dp3222
g81
g82
ssg63
g3211
sg56
(lp3223
S':'
asbag49
(g70
g51
NtRp3224
(dp3225
g54
(dp3226
sg63
g3211
sg56
(lp3227
g49
(g50
g51
NtRp3228
(dp3229
g54
(dp3230
g62
I3
ssg63
g3224
sg56
(lp3231
g1568
asbasbasbag49
(g65
g51
NtRp3232
(dp3233
g54
(dp3234
sg63
g2745
sg56
(lp3235
g49
(g70
g51
NtRp3236
(dp3237
g54
(dp3238
g74
g75
ssg63
g3232
sg56
(lp3239
S'SERVER_SOFTWARE'
p3240
asbag49
(g70
g51
NtRp3241
(dp3242
g54
(dp3243
g81
g82
ssg63
g3232
sg56
(lp3244
S':'
asbag49
(g70
g51
NtRp3245
(dp3246
g54
(dp3247
sg63
g3232
sg56
(lp3248
g49
(g50
g51
NtRp3249
(dp3250
g54
(dp3251
g62
I3
ssg63
g3245
sg56
(lp3252
g1590
asbasbasbag49
(g65
g51
NtRp3253
(dp3254
g54
(dp3255
sg63
g2745
sg56
(lp3256
g49
(g70
g51
NtRp3257
(dp3258
g54
(dp3259
g74
g75
ssg63
g3253
sg56
(lp3260
S'wsgi.errors'
p3261
asbag49
(g70
g51
NtRp3262
(dp3263
g54
(dp3264
g81
g82
ssg63
g3253
sg56
(lp3265
S':'
asbag49
(g70
g51
NtRp3266
(dp3267
g54
(dp3268
sg63
g3253
sg56
(lp3269
g49
(g50
g51
NtRp3270
(dp3271
g54
(dp3272
g62
I3
ssg63
g3266
sg56
(lp3273
S"<open file '<stderr>', mode 'w' at 0x540b0>"
p3274
asbasbasbag49
(g65
g51
NtRp3275
(dp3276
g54
(dp3277
sg63
g2745
sg56
(lp3278
g49
(g70
g51
NtRp3279
(dp3280
g54
(dp3281
g74
g75
ssg63
g3275
sg56
(lp3282
S'wsgi.file_wrapper'
p3283
asbag49
(g70
g51
NtRp3284
(dp3285
g54
(dp3286
g81
g82
ssg63
g3275
sg56
(lp3287
S':'
asbag49
(g70
g51
NtRp3288
(dp3289
g54
(dp3290
sg63
g3275
sg56
(lp3291
g49
(g50
g51
NtRp3292
(dp3293
g54
(dp3294
g62
I3
ssg63
g3288
sg56
(lp3295
S'<class wsgiref.util.FileWrapper at 0x44002d0>'
p3296
asbasbasbag49
(g65
g51
NtRp3297
(dp3298
g54
(dp3299
sg63
g2745
sg56
(lp3300
g49
(g70
g51
NtRp3301
(dp3302
g54
(dp3303
g74
g75
ssg63
g3297
sg56
(lp3304
S'wsgi.input'
p3305
asbag49
(g70
g51
NtRp3306
(dp3307
g54
(dp3308
g81
g82
ssg63
g3297
sg56
(lp3309
S':'
asbag49
(g70
g51
NtRp3310
(dp3311
g54
(dp3312
sg63
g3297
sg56
(lp3313
g49
(g50
g51
NtRp3314
(dp3315
g54
(dp3316
g62
I3
ssg63
g3310
sg56
(lp3317
S"<open file '<fdopen>', mode 'w+b' at 0x9844260>"
p3318
asbasbasbag49
(g65
g51
NtRp3319
(dp3320
g54
(dp3321
sg63
g2745
sg56
(lp3322
g49
(g70
g51
NtRp3323
(dp3324
g54
(dp3325
g74
g75
ssg63
g3319
sg56
(lp3326
S'wsgi.multiprocess'
p3327
asbag49
(g70
g51
NtRp3328
(dp3329
g54
(dp3330
g81
g82
ssg63
g3319
sg56
(lp3331
S':'
asbag49
(g70
g51
NtRp3332
(dp3333
g54
(dp3334
sg63
g3319
sg56
(lp3335
g49
(g50
g51
NtRp3336
(dp3337
g54
(dp3338
g62
I3
ssg63
g3332
sg56
(lp3339
g92
asbasbasbag49
(g65
g51
NtRp3340
(dp3341
g54
(dp3342
sg63
g2745
sg56
(lp3343
g49
(g70
g51
NtRp3344
(dp3345
g54
(dp3346
g74
g75
ssg63
g3340
sg56
(lp3347
S'wsgi.multithread'
p3348
asbag49
(g70
g51
NtRp3349
(dp3350
g54
(dp3351
g81
g82
ssg63
g3340
sg56
(lp3352
S':'
asbag49
(g70
g51
NtRp3353
(dp3354
g54
(dp3355
sg63
g3340
sg56
(lp3356
g49
(g50
g51
NtRp3357
(dp3358
g54
(dp3359
g62
I3
ssg63
g3353
sg56
(lp3360
g1807
asbasbasbag49
(g65
g51
NtRp3361
(dp3362
g54
(dp3363
sg63
g2745
sg56
(lp3364
g49
(g70
g51
NtRp3365
(dp3366
g54
(dp3367
g74
g75
ssg63
g3361
sg56
(lp3368
S'wsgi.run_once'
p3369
asbag49
(g70
g51
NtRp3370
(dp3371
g54
(dp3372
g81
g82
ssg63
g3361
sg56
(lp3373
S':'
asbag49
(g70
g51
NtRp3374
(dp3375
g54
(dp3376
sg63
g3361
sg56
(lp3377
g49
(g50
g51
NtRp3378
(dp3379
g54
(dp3380
g62
I3
ssg63
g3374
sg56
(lp3381
g92
asbasbasbag49
(g65
g51
NtRp3382
(dp3383
g54
(dp3384
sg63
g2745
sg56
(lp3385
g49
(g70
g51
NtRp3386
(dp3387
g54
(dp3388
g74
g75
ssg63
g3382
sg56
(lp3389
S'wsgi.url_scheme'
p3390
asbag49
(g70
g51
NtRp3391
(dp3392
g54
(dp3393
g81
g82
ssg63
g3382
sg56
(lp3394
S':'
asbag49
(g70
g51
NtRp3395
(dp3396
g54
(dp3397
sg63
g3382
sg56
(lp3398
g49
(g50
g51
NtRp3399
(dp3400
g54
(dp3401
g62
I3
ssg63
g3395
sg56
(lp3402
g1850
asbasbasbag49
(g65
g51
NtRp3403
(dp3404
g54
(dp3405
sg63
g2745
sg56
(lp3406
g49
(g70
g51
NtRp3407
(dp3408
g54
(dp3409
g74
g75
ssg63
g3403
sg56
(lp3410
S'wsgi.version'
p3411
asbag49
(g70
g51
NtRp3412
(dp3413
g54
(dp3414
g81
g82
ssg63
g3403
sg56
(lp3415
S':'
asbag49
(g70
g51
NtRp3416
(dp3417
g54
(dp3418
sg63
g3403
sg56
(lp3419
g49
(g50
g51
NtRp3420
(dp3421
g54
(dp3422
g62
I3
ssg63
g3416
sg56
(lp3423
S'1'
asbasbasbasbasbasbasbasbasbasbasbasbasbsS'frames'
p3424
(lp3425
(dp3426
S'file'
p3427
S'/Users/abaric/Downloads/web2py/web2py.app/Contents/Resources/gluon/restricted.py'
p3428
sS'dump'
p3429
(dp3430
sS'lnum'
p3431
I212
sS'lines'
p3432
(dp3433
sS'call'
p3434
S"(code='from gluon.tools import datetime\\n\\ndef user():\\n  ...e._vars=response._caller(insert_writing_comment)\\n', environment={'A': <class 'gluon.html.A'>, 'Auth': <class 'gluon.tools.Auth'>, 'B': <class 'gluon.html.B'>, 'BEAUTIFY': <class 'gluon.html.BEAUTIFY'>, 'BODY': <class 'gluon.html.BODY'>, 'BR': <class 'gluon.html.BR'>, 'BUTTON': <class 'gluon.html.BUTTON'>, 'CAT': <class 'gluon.html.CAT'>, 'CENTER': <class 'gluon.html.CENTER'>, 'CLEANUP': <class 'gluon.validators.CLEANUP'>, ...}, layer='/Users/abaric/Downloads/web2py/web2py.app/Conten...applications/Final_Impulse/controllers/default.py')"
p3435
sS'func'
p3436
S'restricted'
p3437
sa(dp3438
g3427
S'/Users/abaric/Downloads/web2py/web2py.app/Contents/Resources/applications/Final_Impulse/controllers/default.py'
p3439
sg3429
(dp3440
sg3431
I106
sg3432
(dp3441
I96
S'    writing_comment=request.post_vars.writing_comment'
p3442
sI97
S'   # db.writing_comment.insert(video_id=video_id,video_comment_id=video_comment_id, author_id=author_id,email=email,body=body)'
p3443
sI98
S''
sI99
S'    db.writing_comment.insert(author_id=auth.user.id,'
p3444
sI100
S'                               body=writing_comment,'
p3445
sI101
S'                               date_of_entry=datetime.datetime.today())'
p3446
sI102
S'    db.commit()'
p3447
sI103
S"    redirect(URL('show_writing_comments'))"
p3448
sI104
S'    return locals()'
p3449
sI95
S''
ssg3434
S'()'
p3450
sg3436
S'<module>'
p3451
sa(dp3452
g3427
S'/Users/abaric/Downloads/web2py/web2py.app/Contents/Resources/gluon/globals.py'
p3453
sg3429
(dp3454
sg3431
I188
sg3432
(dp3455
sg3434
S'(f=<function insert_writing_comment at 0x981a9b0>)'
p3456
sg3436
S'<lambda>'
p3457
sa(dp3458
g3427
S'/Users/abaric/Downloads/web2py/web2py.app/Contents/Resources/applications/Final_Impulse/controllers/default.py'
p3459
sg3429
(dp3460
sg3431
I99
sg3432
(dp3461
I96
S'    writing_comment=request.post_vars.writing_comment'
p3462
sI97
S'   # db.writing_comment.insert(video_id=video_id,video_comment_id=video_comment_id, author_id=author_id,email=email,body=body)'
p3463
sI98
S''
sI99
S'    db.writing_comment.insert(author_id=auth.user.id,'
p3464
sI100
S'                               body=writing_comment,'
p3465
sI101
S'                               date_of_entry=datetime.datetime.today())'
p3466
sI102
S'    db.commit()'
p3467
sI103
S"    redirect(URL('show_writing_comments'))"
p3468
sI94
S'def insert_writing_comment():'
p3469
sI95
S''
ssg3434
S'()'
p3470
sg3436
S'insert_writing_comment'
p3471
sasS'pyver'
p3472
S'Python 2.5.1: /Users/abaric/Downloads/web2py/web2py.app/Contents/MacOS/python'
p3473
sS'session'
p3474
g49
(g50
g51
NtRp3475
(dp3476
g54
(dp3477
sg56
(lp3478
g49
(g58
g51
NtRp3479
(dp3480
g54
(dp3481
g62
I5
ssg63
Nsg56
(lp3482
g49
(g65
g51
NtRp3483
(dp3484
g54
(dp3485
sg63
g3479
sg56
(lp3486
g49
(g70
g51
NtRp3487
(dp3488
g54
(dp3489
g74
g75
ssg63
g3483
sg56
(lp3490
S'flash'
p3491
asbag49
(g70
g51
NtRp3492
(dp3493
g54
(dp3494
g81
g82
ssg63
g3483
sg56
(lp3495
S':'
asbag49
(g70
g51
NtRp3496
(dp3497
g54
(dp3498
sg63
g3483
sg56
(lp3499
g49
(g50
g51
NtRp3500
(dp3501
g54
(dp3502
g62
I5
ssg63
g3496
sg56
(lp3503
S'None'
p3504
asbasbasbag49
(g65
g51
NtRp3505
(dp3506
g54
(dp3507
sg63
g3479
sg56
(lp3508
g49
(g70
g51
NtRp3509
(dp3510
g54
(dp3511
g74
g75
ssg63
g3505
sg56
(lp3512
S'last_orderby'
p3513
asbag49
(g70
g51
NtRp3514
(dp3515
g54
(dp3516
g81
g82
ssg63
g3505
sg56
(lp3517
S':'
asbag49
(g70
g51
NtRp3518
(dp3519
g54
(dp3520
sg63
g3505
sg56
(lp3521
g49
(g50
g51
NtRp3522
(dp3523
g54
(dp3524
g62
I5
ssg63
g3518
sg56
(lp3525
S'None'
p3526
asbasbasbag49
(g65
g51
NtRp3527
(dp3528
g54
(dp3529
sg63
g3479
sg56
(lp3530
g49
(g70
g51
NtRp3531
(dp3532
g54
(dp3533
g74
g75
ssg63
g3527
sg56
(lp3534
S'last_query'
p3535
asbag49
(g70
g51
NtRp3536
(dp3537
g54
(dp3538
g81
g82
ssg63
g3527
sg56
(lp3539
S':'
asbag49
(g70
g51
NtRp3540
(dp3541
g54
(dp3542
sg63
g3527
sg56
(lp3543
g49
(g50
g51
NtRp3544
(dp3545
g54
(dp3546
g62
I5
ssg63
g3540
sg56
(lp3547
S'db.video_comment.id>0'
p3548
asbasbasbasbasbsS'etype'
p3549
S"<type 'exceptions.AttributeError'>"
p3550
sS'date'
p3551
S'Tue Apr  8 14:04:22 2014'
p3552
sS'response'
p3553
g49
(g50
g51
NtRp3554
(dp3555
g54
(dp3556
sg56
(lp3557
g49
(g58
g51
NtRp3558
(dp3559
g54
(dp3560
g62
I5
ssg63
Nsg56
(lp3561
g49
(g65
g51
NtRp3562
(dp3563
g54
(dp3564
sg63
g3558
sg56
(lp3565
g49
(g70
g51
NtRp3566
(dp3567
g54
(dp3568
g74
g75
ssg63
g3562
sg56
(lp3569
g147
asbag49
(g70
g51
NtRp3570
(dp3571
g54
(dp3572
g81
g82
ssg63
g3562
sg56
(lp3573
S':'
asbag49
(g70
g51
NtRp3574
(dp3575
g54
(dp3576
sg63
g3562
sg56
(lp3577
g49
(g50
g51
NtRp3578
(dp3579
g54
(dp3580
g62
I5
ssg63
g3574
sg56
(lp3581
S'<cStringIO.StringO object at 0x8c8c840>'
p3582
asbasbasbag49
(g65
g51
NtRp3583
(dp3584
g54
(dp3585
sg63
g3558
sg56
(lp3586
g49
(g70
g51
NtRp3587
(dp3588
g54
(dp3589
g74
g75
ssg63
g3583
sg56
(lp3590
g235
asbag49
(g70
g51
NtRp3591
(dp3592
g54
(dp3593
g81
g82
ssg63
g3583
sg56
(lp3594
S':'
asbag49
(g70
g51
NtRp3595
(dp3596
g54
(dp3597
sg63
g3583
sg56
(lp3598
g49
(g50
g51
NtRp3599
(dp3600
g54
(dp3601
g62
I5
ssg63
g3595
sg56
(lp3602
g49
(g58
g51
NtRp3603
(dp3604
g54
(dp3605
g62
I4
ssg63
Nsg56
(lp3606
g49
(g65
g51
NtRp3607
(dp3608
g54
(dp3609
sg63
g3603
sg56
(lp3610
g49
(g70
g51
NtRp3611
(dp3612
g54
(dp3613
g74
g75
ssg63
g3607
sg56
(lp3614
S'session_id_final_impulse'
p3615
asbag49
(g70
g51
NtRp3616
(dp3617
g54
(dp3618
g81
g82
ssg63
g3607
sg56
(lp3619
S':'
asbag49
(g70
g51
NtRp3620
(dp3621
g54
(dp3622
sg63
g3607
sg56
(lp3623
g49
(g50
g51
NtRp3624
(dp3625
g54
(dp3626
g62
I4
ssg63
g3620
sg56
(lp3627
g446
ag49
(g58
g51
NtRp3628
(dp3629
g54
(dp3630
g62
I3
ssg63
Nsg56
(lp3631
g49
(g65
g51
NtRp3632
(dp3633
g54
(dp3634
sg63
g3628
sg56
(lp3635
g49
(g70
g51
NtRp3636
(dp3637
g54
(dp3638
g74
g75
ssg63
g3632
sg56
(lp3639
g286
asbag49
(g70
g51
NtRp3640
(dp3641
g54
(dp3642
g81
g82
ssg63
g3632
sg56
(lp3643
S':'
asbag49
(g70
g51
NtRp3644
(dp3645
g54
(dp3646
sg63
g3632
sg56
(lp3647
g49
(g50
g51
NtRp3648
(dp3649
g54
(dp3650
g62
I3
ssg63
g3644
sg56
(lp3651
S''
asbasbasbag49
(g65
g51
NtRp3652
(dp3653
g54
(dp3654
sg63
g3628
sg56
(lp3655
g49
(g70
g51
NtRp3656
(dp3657
g54
(dp3658
g74
g75
ssg63
g3652
sg56
(lp3659
g307
asbag49
(g70
g51
NtRp3660
(dp3661
g54
(dp3662
g81
g82
ssg63
g3652
sg56
(lp3663
S':'
asbag49
(g70
g51
NtRp3664
(dp3665
g54
(dp3666
sg63
g3652
sg56
(lp3667
g49
(g50
g51
NtRp3668
(dp3669
g54
(dp3670
g62
I3
ssg63
g3664
sg56
(lp3671
S''
asbasbasbag49
(g65
g51
NtRp3672
(dp3673
g54
(dp3674
sg63
g3628
sg56
(lp3675
g49
(g70
g51
NtRp3676
(dp3677
g54
(dp3678
g74
g75
ssg63
g3672
sg56
(lp3679
g328
asbag49
(g70
g51
NtRp3680
(dp3681
g54
(dp3682
g81
g82
ssg63
g3672
sg56
(lp3683
S':'
asbag49
(g70
g51
NtRp3684
(dp3685
g54
(dp3686
sg63
g3672
sg56
(lp3687
g49
(g50
g51
NtRp3688
(dp3689
g54
(dp3690
g62
I3
ssg63
g3684
sg56
(lp3691
S''
asbasbasbag49
(g65
g51
NtRp3692
(dp3693
g54
(dp3694
sg63
g3628
sg56
(lp3695
g49
(g70
g51
NtRp3696
(dp3697
g54
(dp3698
g74
g75
ssg63
g3692
sg56
(lp3699
g349
asbag49
(g70
g51
NtRp3700
(dp3701
g54
(dp3702
g81
g82
ssg63
g3692
sg56
(lp3703
S':'
asbag49
(g70
g51
NtRp3704
(dp3705
g54
(dp3706
sg63
g3692
sg56
(lp3707
g49
(g50
g51
NtRp3708
(dp3709
g54
(dp3710
g62
I3
ssg63
g3704
sg56
(lp3711
S''
asbasbasbag49
(g65
g51
NtRp3712
(dp3713
g54
(dp3714
sg63
g3628
sg56
(lp3715
g49
(g70
g51
NtRp3716
(dp3717
g54
(dp3718
g74
g75
ssg63
g3712
sg56
(lp3719
g370
asbag49
(g70
g51
NtRp3720
(dp3721
g54
(dp3722
g81
g82
ssg63
g3712
sg56
(lp3723
S':'
asbag49
(g70
g51
NtRp3724
(dp3725
g54
(dp3726
sg63
g3712
sg56
(lp3727
g49
(g50
g51
NtRp3728
(dp3729
g54
(dp3730
g62
I3
ssg63
g3724
sg56
(lp3731
S'/'
asbasbasbag49
(g65
g51
NtRp3732
(dp3733
g54
(dp3734
sg63
g3628
sg56
(lp3735
g49
(g70
g51
NtRp3736
(dp3737
g54
(dp3738
g74
g75
ssg63
g3732
sg56
(lp3739
g391
asbag49
(g70
g51
NtRp3740
(dp3741
g54
(dp3742
g81
g82
ssg63
g3732
sg56
(lp3743
S':'
asbag49
(g70
g51
NtRp3744
(dp3745
g54
(dp3746
sg63
g3732
sg56
(lp3747
g49
(g50
g51
NtRp3748
(dp3749
g54
(dp3750
g62
I3
ssg63
g3744
sg56
(lp3751
S''
asbasbasbag49
(g65
g51
NtRp3752
(dp3753
g54
(dp3754
sg63
g3628
sg56
(lp3755
g49
(g70
g51
NtRp3756
(dp3757
g54
(dp3758
g74
g75
ssg63
g3752
sg56
(lp3759
g412
asbag49
(g70
g51
NtRp3760
(dp3761
g54
(dp3762
g81
g82
ssg63
g3752
sg56
(lp3763
S':'
asbag49
(g70
g51
NtRp3764
(dp3765
g54
(dp3766
sg63
g3752
sg56
(lp3767
g49
(g50
g51
NtRp3768
(dp3769
g54
(dp3770
g62
I3
ssg63
g3764
sg56
(lp3771
S''
asbasbasbasbasbasbasbasbasbasbasbag49
(g65
g51
NtRp3772
(dp3773
g54
(dp3774
sg63
g3558
sg56
(lp3775
g49
(g70
g51
NtRp3776
(dp3777
g54
(dp3778
g74
g75
ssg63
g3772
sg56
(lp3779
S'delimiters'
p3780
asbag49
(g70
g51
NtRp3781
(dp3782
g54
(dp3783
g81
g82
ssg63
g3772
sg56
(lp3784
S':'
asbag49
(g70
g51
NtRp3785
(dp3786
g54
(dp3787
sg63
g3772
sg56
(lp3788
g49
(g50
g51
NtRp3789
(dp3790
g54
(dp3791
g62
I5
ssg63
g3785
sg56
(lp3792
g49
(g58
g51
NtRp3793
(dp3794
g54
(dp3795
g62
I4
ssg63
Nsg56
(lp3796
g49
(g65
g51
NtRp3797
(dp3798
g54
(dp3799
sg63
g3793
sg56
(lp3800
g49
(g70
g51
NtRp3801
(dp3802
g54
(dp3803
sg63
g3797
sg56
(lp3804
g49
(g50
g51
NtRp3805
(dp3806
g54
(dp3807
g62
I4
ssg63
g3801
sg56
(lp3808
S'{{'
p3809
asbasbasbag49
(g65
g51
NtRp3810
(dp3811
g54
(dp3812
sg63
g3793
sg56
(lp3813
g49
(g70
g51
NtRp3814
(dp3815
g54
(dp3816
sg63
g3810
sg56
(lp3817
g49
(g50
g51
NtRp3818
(dp3819
g54
(dp3820
g62
I4
ssg63
g3814
sg56
(lp3821
S'}}'
p3822
asbasbasbasbasbasbasbag49
(g65
g51
NtRp3823
(dp3824
g54
(dp3825
sg63
g3558
sg56
(lp3826
g49
(g70
g51
NtRp3827
(dp3828
g54
(dp3829
g74
g75
ssg63
g3823
sg56
(lp3830
S'files'
p3831
asbag49
(g70
g51
NtRp3832
(dp3833
g54
(dp3834
g81
g82
ssg63
g3823
sg56
(lp3835
S':'
asbag49
(g70
g51
NtRp3836
(dp3837
g54
(dp3838
sg63
g3823
sg56
(lp3839
g49
(g50
g51
NtRp3840
(dp3841
g54
(dp3842
g62
I5
ssg63
g3836
sg56
(lp3843
g49
(g58
g51
NtRp3844
(dp3845
g54
(dp3846
g62
I4
ssg63
Nsg56
(lp3847
sbasbasbasbag49
(g65
g51
NtRp3848
(dp3849
g54
(dp3850
sg63
g3558
sg56
(lp3851
g49
(g70
g51
NtRp3852
(dp3853
g54
(dp3854
g74
g75
ssg63
g3848
sg56
(lp3855
S'flash'
p3856
asbag49
(g70
g51
NtRp3857
(dp3858
g54
(dp3859
g81
g82
ssg63
g3848
sg56
(lp3860
S':'
asbag49
(g70
g51
NtRp3861
(dp3862
g54
(dp3863
sg63
g3848
sg56
(lp3864
g49
(g50
g51
NtRp3865
(dp3866
g54
(dp3867
g62
I5
ssg63
g3861
sg56
(lp3868
S''
asbasbasbag49
(g65
g51
NtRp3869
(dp3870
g54
(dp3871
sg63
g3558
sg56
(lp3872
g49
(g70
g51
NtRp3873
(dp3874
g54
(dp3875
g74
g75
ssg63
g3869
sg56
(lp3876
S'generic_patterns'
p3877
asbag49
(g70
g51
NtRp3878
(dp3879
g54
(dp3880
g81
g82
ssg63
g3869
sg56
(lp3881
S':'
asbag49
(g70
g51
NtRp3882
(dp3883
g54
(dp3884
sg63
g3869
sg56
(lp3885
g49
(g50
g51
NtRp3886
(dp3887
g54
(dp3888
g62
I5
ssg63
g3882
sg56
(lp3889
g49
(g58
g51
NtRp3890
(dp3891
g54
(dp3892
g62
I4
ssg63
Nsg56
(lp3893
sbasbasbasbag49
(g65
g51
NtRp3894
(dp3895
g54
(dp3896
sg63
g3558
sg56
(lp3897
g49
(g70
g51
NtRp3898
(dp3899
g54
(dp3900
g74
g75
ssg63
g3894
sg56
(lp3901
S'google_analytics_id'
p3902
asbag49
(g70
g51
NtRp3903
(dp3904
g54
(dp3905
g81
g82
ssg63
g3894
sg56
(lp3906
S':'
asbag49
(g70
g51
NtRp3907
(dp3908
g54
(dp3909
sg63
g3894
sg56
(lp3910
g49
(g50
g51
NtRp3911
(dp3912
g54
(dp3913
g62
I5
ssg63
g3907
sg56
(lp3914
S'None'
p3915
asbasbasbag49
(g65
g51
NtRp3916
(dp3917
g54
(dp3918
sg63
g3558
sg56
(lp3919
g49
(g70
g51
NtRp3920
(dp3921
g54
(dp3922
g74
g75
ssg63
g3916
sg56
(lp3923
S'headers'
p3924
asbag49
(g70
g51
NtRp3925
(dp3926
g54
(dp3927
g81
g82
ssg63
g3916
sg56
(lp3928
S':'
asbag49
(g70
g51
NtRp3929
(dp3930
g54
(dp3931
sg63
g3916
sg56
(lp3932
g49
(g50
g51
NtRp3933
(dp3934
g54
(dp3935
g62
I5
ssg63
g3929
sg56
(lp3936
g49
(g58
g51
NtRp3937
(dp3938
g54
(dp3939
g62
I4
ssg63
Nsg56
(lp3940
g49
(g65
g51
NtRp3941
(dp3942
g54
(dp3943
sg63
g3937
sg56
(lp3944
g49
(g70
g51
NtRp3945
(dp3946
g54
(dp3947
g74
g75
ssg63
g3941
sg56
(lp3948
S'X-Powered-By'
p3949
asbag49
(g70
g51
NtRp3950
(dp3951
g54
(dp3952
g81
g82
ssg63
g3941
sg56
(lp3953
S':'
asbag49
(g70
g51
NtRp3954
(dp3955
g54
(dp3956
sg63
g3941
sg56
(lp3957
g49
(g50
g51
NtRp3958
(dp3959
g54
(dp3960
g62
I4
ssg63
g3954
sg56
(lp3961
S'web2py'
p3962
asbasbasbasbasbasbasbag49
(g65
g51
NtRp3963
(dp3964
g54
(dp3965
sg63
g3558
sg56
(lp3966
g49
(g70
g51
NtRp3967
(dp3968
g54
(dp3969
g74
g75
ssg63
g3963
sg56
(lp3970
S'menu'
p3971
asbag49
(g70
g51
NtRp3972
(dp3973
g54
(dp3974
g81
g82
ssg63
g3963
sg56
(lp3975
S':'
asbag49
(g70
g51
NtRp3976
(dp3977
g54
(dp3978
sg63
g3963
sg56
(lp3979
g49
(g50
g51
NtRp3980
(dp3981
g54
(dp3982
g62
I5
ssg63
g3976
sg56
(lp3983
g49
(g58
g51
NtRp3984
(dp3985
g54
(dp3986
g62
I4
ssg63
Nsg56
(lp3987
g49
(g65
g51
NtRp3988
(dp3989
g54
(dp3990
sg63
g3984
sg56
(lp3991
g49
(g70
g51
NtRp3992
(dp3993
g54
(dp3994
sg63
g3988
sg56
(lp3995
g49
(g50
g51
NtRp3996
(dp3997
g54
(dp3998
g62
I4
ssg63
g3992
sg56
(lp3999
g49
(g58
g51
NtRp4000
(dp4001
g54
(dp4002
g62
I3
ssg63
Nsg56
(lp4003
g49
(g65
g51
NtRp4004
(dp4005
g54
(dp4006
sg63
g4000
sg56
(lp4007
g49
(g70
g51
NtRp4008
(dp4009
g54
(dp4010
sg63
g4004
sg56
(lp4011
g49
(g50
g51
NtRp4012
(dp4013
g54
(dp4014
g62
I3
ssg63
g4008
sg56
(lp4015
cgluon.languages
lazyT_unpickle
p4016
(S't\x04\x00\x00\x00Home'
tRp4017
asbasbasbag49
(g65
g51
NtRp4018
(dp4019
g54
(dp4020
sg63
g4000
sg56
(lp4021
g49
(g70
g51
NtRp4022
(dp4023
g54
(dp4024
sg63
g4018
sg56
(lp4025
g49
(g50
g51
NtRp4026
(dp4027
g54
(dp4028
g62
I3
ssg63
g4022
sg56
(lp4029
g92
asbasbasbag49
(g65
g51
NtRp4030
(dp4031
g54
(dp4032
sg63
g4000
sg56
(lp4033
g49
(g70
g51
NtRp4034
(dp4035
g54
(dp4036
sg63
g4030
sg56
(lp4037
g49
(g50
g51
NtRp4038
(dp4039
g54
(dp4040
g62
I3
ssg63
g4034
sg56
(lp4041
S'/Final_Impulse/default/index'
p4042
asbasbasbag49
(g65
g51
NtRp4043
(dp4044
g54
(dp4045
sg63
g4000
sg56
(lp4046
g49
(g70
g51
NtRp4047
(dp4048
g54
(dp4049
sg63
g4043
sg56
(lp4050
g49
(g50
g51
NtRp4051
(dp4052
g54
(dp4053
g62
I3
ssg63
g4047
sg56
(lp4054
g49
(g58
g51
NtRp4055
(dp4056
g54
(dp4057
g62
I2
ssg63
Nsg56
(lp4058
sbasbasbasbasbasbasbasbag49
(g65
g51
NtRp4059
(dp4060
g54
(dp4061
sg63
g3984
sg56
(lp4062
g49
(g70
g51
NtRp4063
(dp4064
g54
(dp4065
sg63
g4059
sg56
(lp4066
g49
(g50
g51
NtRp4067
(dp4068
g54
(dp4069
g62
I4
ssg63
g4063
sg56
(lp4070
g49
(g58
g51
NtRp4071
(dp4072
g54
(dp4073
g62
I3
ssg63
Nsg56
(lp4074
g49
(g65
g51
NtRp4075
(dp4076
g54
(dp4077
sg63
g4071
sg56
(lp4078
g49
(g70
g51
NtRp4079
(dp4080
g54
(dp4081
sg63
g4075
sg56
(lp4082
g49
(g50
g51
NtRp4083
(dp4084
g54
(dp4085
g62
I3
ssg63
g4079
sg56
(lp4086
g49
(cgluon.html
SPAN
p4087
g51
NtRp4088
(dp4089
g54
(dp4090
S'_class'
p4091
S'highlighted'
p4092
ssg63
Nsg56
(lp4093
g3962
asbasbasbasbag49
(g65
g51
NtRp4094
(dp4095
g54
(dp4096
sg63
g4071
sg56
(lp4097
g49
(g70
g51
NtRp4098
(dp4099
g54
(dp4100
sg63
g4094
sg56
(lp4101
g49
(g50
g51
NtRp4102
(dp4103
g54
(dp4104
g62
I3
ssg63
g4098
sg56
(lp4105
g92
asbasbasbag49
(g65
g51
NtRp4106
(dp4107
g54
(dp4108
sg63
g4071
sg56
(lp4109
g49
(g70
g51
NtRp4110
(dp4111
g54
(dp4112
sg63
g4106
sg56
(lp4113
g49
(g50
g51
NtRp4114
(dp4115
g54
(dp4116
g62
I3
ssg63
g4110
sg56
(lp4117
S'http://web2py.com'
p4118
asbasbasbag49
(g65
g51
NtRp4119
(dp4120
g54
(dp4121
sg63
g4071
sg56
(lp4122
g49
(g70
g51
NtRp4123
(dp4124
g54
(dp4125
sg63
g4119
sg56
(lp4126
g49
(g50
g51
NtRp4127
(dp4128
g54
(dp4129
g62
I3
ssg63
g4123
sg56
(lp4130
g49
(g58
g51
NtRp4131
(dp4132
g54
(dp4133
g62
I2
ssg63
Nsg56
(lp4134
g49
(g65
g51
NtRp4135
(dp4136
g54
(dp4137
sg63
g4131
sg56
(lp4138
g49
(g70
g51
NtRp4139
(dp4140
g54
(dp4141
sg63
g4135
sg56
(lp4142
g49
(g50
g51
NtRp4143
(dp4144
g54
(dp4145
g62
I2
ssg63
g4139
sg56
(lp4146
g49
(g58
g51
NtRp4147
(dp4148
g54
(dp4149
g62
I1
ssg63
Nsg56
(lp4150
g49
(g65
g51
NtRp4151
(dp4152
g54
(dp4153
sg63
g4147
sg56
(lp4154
g49
(g70
g51
NtRp4155
(dp4156
g54
(dp4157
sg63
g4151
sg56
(lp4158
g49
(g50
g51
NtRp4159
(dp4160
g54
(dp4161
g62
I1
ssg63
g4155
sg56
(lp4162
g4016
(S's\x08\x00\x00\x00My Sites'
tRp4163
asbasbasbag49
(g65
g51
NtRp4164
(dp4165
g54
(dp4166
sg63
g4147
sg56
(lp4167
g49
(g70
g51
NtRp4168
(dp4169
g54
(dp4170
sg63
g4164
sg56
(lp4171
g49
(g50
g51
NtRp4172
(dp4173
g54
(dp4174
g62
I1
ssg63
g4168
sg56
(lp4175
I00
asbasbasbag49
(g65
g51
NtRp4176
(dp4177
g54
(dp4178
sg63
g4147
sg56
(lp4179
g49
(g70
g51
NtRp4180
(dp4181
g54
(dp4182
sg63
g4176
sg56
(lp4183
g49
(g50
g51
NtRp4184
(dp4185
g54
(dp4186
g62
I1
ssg63
g4180
sg56
(lp4187
S'/admin/default/site'
p4188
asbasbasbasbasbasbasbag49
(g65
g51
NtRp4189
(dp4190
g54
(dp4191
sg63
g4131
sg56
(lp4192
g49
(g70
g51
NtRp4193
(dp4194
g54
(dp4195
sg63
g4189
sg56
(lp4196
g49
(g50
g51
NtRp4197
(dp4198
g54
(dp4199
g62
I2
ssg63
g4193
sg56
(lp4200
g49
(g58
g51
NtRp4201
(dp4202
g54
(dp4203
g62
I1
ssg63
Nsg56
(lp4204
g49
(g65
g51
NtRp4205
(dp4206
g54
(dp4207
sg63
g4201
sg56
(lp4208
g49
(g70
g51
NtRp4209
(dp4210
g54
(dp4211
sg63
g4205
sg56
(lp4212
g49
(g50
g51
NtRp4213
(dp4214
g54
(dp4215
g62
I1
ssg63
g4209
sg56
(lp4216
g4016
(S's\x08\x00\x00\x00This App'
tRp4217
asbasbasbag49
(g65
g51
NtRp4218
(dp4219
g54
(dp4220
sg63
g4201
sg56
(lp4221
g49
(g70
g51
NtRp4222
(dp4223
g54
(dp4224
sg63
g4218
sg56
(lp4225
g49
(g50
g51
NtRp4226
(dp4227
g54
(dp4228
g62
I1
ssg63
g4222
sg56
(lp4229
I00
asbasbasbag49
(g65
g51
NtRp4230
(dp4231
g54
(dp4232
sg63
g4201
sg56
(lp4233
g49
(g70
g51
NtRp4234
(dp4235
g54
(dp4236
sg63
g4230
sg56
(lp4237
g49
(g50
g51
NtRp4238
(dp4239
g54
(dp4240
g62
I1
ssg63
g4234
sg56
(lp4241
S'/admin/default/design/Final_Impulse'
p4242
asbasbasbag49
(g65
g51
NtRp4243
(dp4244
g54
(dp4245
sg63
g4201
sg56
(lp4246
g49
(g70
g51
NtRp4247
(dp4248
g54
(dp4249
sg63
g4243
sg56
(lp4250
g49
(g50
g51
NtRp4251
(dp4252
g54
(dp4253
g62
I1
ssg63
g4247
sg56
(lp4254
(lp4255
(g4016
(S't\n\x00\x00\x00Controller'
tRp4256
I00
S'/admin/default/edit/Final_Impulse/controllers/default.py'
tp4257
a(g4016
(S't\x04\x00\x00\x00View'
tRp4258
I00
S'/admin/default/edit/Final_Impulse/views/default/insert_writing_comment.html'
tp4259
a(g4016
(S't\x06\x00\x00\x00Layout'
tRp4260
I00
S'/admin/default/edit/Final_Impulse/views/layout.html'
tp4261
a(g4016
(S't\n\x00\x00\x00Stylesheet'
tRp4262
I00
S'/admin/default/edit/Final_Impulse/static/css/web2py.css'
tp4263
a(g4016
(S's\x08\x00\x00\x00DB Model'
tRp4264
I00
S'/admin/default/edit/Final_Impulse/models/db.py'
tp4265
a(g4016
(S's\n\x00\x00\x00Menu Model'
tRp4266
I00
S'/admin/default/edit/Final_Impulse/models/menu.py'
tp4267
a(g4016
(S't\x08\x00\x00\x00Database'
tRp4268
I00
S'/Final_Impulse/appadmin/index'
tp4269
a(g4016
(S't\x06\x00\x00\x00Errors'
tRp4270
I00
S'/admin/default/errors/Final_Impulse'
tp4271
a(g4016
(S't\x05\x00\x00\x00About'
tRp4272
I00
S'/admin/default/about/Final_Impulse'
tp4273
aasbasbasbasbasbasbasbag49
(g65
g51
NtRp4274
(dp4275
g54
(dp4276
sg63
g4131
sg56
(lp4277
g49
(g70
g51
NtRp4278
(dp4279
g54
(dp4280
sg63
g4274
sg56
(lp4281
g49
(g50
g51
NtRp4282
(dp4283
g54
(dp4284
g62
I2
ssg63
g4278
sg56
(lp4285
g49
(g58
g51
NtRp4286
(dp4287
g54
(dp4288
g62
I1
ssg63
Nsg56
(lp4289
g49
(g65
g51
NtRp4290
(dp4291
g54
(dp4292
sg63
g4286
sg56
(lp4293
g49
(g70
g51
NtRp4294
(dp4295
g54
(dp4296
sg63
g4290
sg56
(lp4297
g49
(g50
g51
NtRp4298
(dp4299
g54
(dp4300
g62
I1
ssg63
g4294
sg56
(lp4301
S'web2py.com'
p4302
asbasbasbag49
(g65
g51
NtRp4303
(dp4304
g54
(dp4305
sg63
g4286
sg56
(lp4306
g49
(g70
g51
NtRp4307
(dp4308
g54
(dp4309
sg63
g4303
sg56
(lp4310
g49
(g50
g51
NtRp4311
(dp4312
g54
(dp4313
g62
I1
ssg63
g4307
sg56
(lp4314
I00
asbasbasbag49
(g65
g51
NtRp4315
(dp4316
g54
(dp4317
sg63
g4286
sg56
(lp4318
g49
(g70
g51
NtRp4319
(dp4320
g54
(dp4321
sg63
g4315
sg56
(lp4322
g49
(g50
g51
NtRp4323
(dp4324
g54
(dp4325
g62
I1
ssg63
g4319
sg56
(lp4326
S'http://www.web2py.com'
p4327
asbasbasbag49
(g65
g51
NtRp4328
(dp4329
g54
(dp4330
sg63
g4286
sg56
(lp4331
g49
(g70
g51
NtRp4332
(dp4333
g54
(dp4334
sg63
g4328
sg56
(lp4335
g49
(g50
g51
NtRp4336
(dp4337
g54
(dp4338
g62
I1
ssg63
g4332
sg56
(lp4339
(lp4340
(g4016
(S't\x08\x00\x00\x00Download'
tRp4341
I00
S'http://www.web2py.com/examples/default/download'
p4342
tp4343
a(g4016
(S't\x07\x00\x00\x00Support'
tRp4344
I00
S'http://www.web2py.com/examples/default/support'
p4345
tp4346
a(g4016
(S't\x04\x00\x00\x00Demo'
tRp4347
I00
S'http://web2py.com/demo_admin'
p4348
tp4349
a(g4016
(S's\x0e\x00\x00\x00Quick Examples'
tRp4350
I00
S'http://web2py.com/examples/default/examples'
p4351
tp4352
a(g4016
(S't\x03\x00\x00\x00FAQ'
tRp4353
I00
S'http://web2py.com/AlterEgo'
p4354
tp4355
a(g4016
(S't\x06\x00\x00\x00Videos'
tRp4356
I00
S'http://www.web2py.com/examples/default/videos/'
p4357
tp4358
a(g4016
(S's\x11\x00\x00\x00Free Applications'
tRp4359
I00
S'http://web2py.com/appliances'
p4360
tp4361
a(g4016
(S't\x07\x00\x00\x00Plugins'
tRp4362
I00
S'http://web2py.com/plugins'
p4363
tp4364
a(g4016
(S't\x07\x00\x00\x00Layouts'
tRp4365
I00
S'http://web2py.com/layouts'
p4366
tp4367
a(g4016
(S't\x07\x00\x00\x00Recipes'
tRp4368
I00
S'http://web2pyslices.com/'
p4369
tp4370
a(g4016
(S't\x08\x00\x00\x00Semantic'
tRp4371
I00
S'http://web2py.com/semantic'
p4372
tp4373
aasbasbasbasbasbasbasbag49
(g65
g51
NtRp4374
(dp4375
g54
(dp4376
sg63
g4131
sg56
(lp4377
g49
(g70
g51
NtRp4378
(dp4379
g54
(dp4380
sg63
g4374
sg56
(lp4381
g49
(g50
g51
NtRp4382
(dp4383
g54
(dp4384
g62
I2
ssg63
g4378
sg56
(lp4385
g49
(g58
g51
NtRp4386
(dp4387
g54
(dp4388
g62
I1
ssg63
Nsg56
(lp4389
g49
(g65
g51
NtRp4390
(dp4391
g54
(dp4392
sg63
g4386
sg56
(lp4393
g49
(g70
g51
NtRp4394
(dp4395
g54
(dp4396
sg63
g4390
sg56
(lp4397
g49
(g50
g51
NtRp4398
(dp4399
g54
(dp4400
g62
I1
ssg63
g4394
sg56
(lp4401
g4016
(S't\r\x00\x00\x00Documentation'
tRp4402
asbasbasbag49
(g65
g51
NtRp4403
(dp4404
g54
(dp4405
sg63
g4386
sg56
(lp4406
g49
(g70
g51
NtRp4407
(dp4408
g54
(dp4409
sg63
g4403
sg56
(lp4410
g49
(g50
g51
NtRp4411
(dp4412
g54
(dp4413
g62
I1
ssg63
g4407
sg56
(lp4414
I00
asbasbasbag49
(g65
g51
NtRp4415
(dp4416
g54
(dp4417
sg63
g4386
sg56
(lp4418
g49
(g70
g51
NtRp4419
(dp4420
g54
(dp4421
sg63
g4415
sg56
(lp4422
g49
(g50
g51
NtRp4423
(dp4424
g54
(dp4425
g62
I1
ssg63
g4419
sg56
(lp4426
S'http://www.web2py.com/book'
p4427
asbasbasbag49
(g65
g51
NtRp4428
(dp4429
g54
(dp4430
sg63
g4386
sg56
(lp4431
g49
(g70
g51
NtRp4432
(dp4433
g54
(dp4434
sg63
g4428
sg56
(lp4435
g49
(g50
g51
NtRp4436
(dp4437
g54
(dp4438
g62
I1
ssg63
g4432
sg56
(lp4439
(lp4440
(g4016
(S't\x07\x00\x00\x00Preface'
tRp4441
I00
S'http://www.web2py.com/book/default/chapter/00'
p4442
tp4443
a(g4016
(S't\x0c\x00\x00\x00Introduction'
tRp4444
I00
S'http://www.web2py.com/book/default/chapter/01'
p4445
tp4446
a(g4016
(S't\x06\x00\x00\x00Python'
tRp4447
I00
S'http://www.web2py.com/book/default/chapter/02'
p4448
tp4449
a(g4016
(S't\x08\x00\x00\x00Overview'
tRp4450
I00
S'http://www.web2py.com/book/default/chapter/03'
p4451
tp4452
a(g4016
(S's\x08\x00\x00\x00The Core'
tRp4453
I00
S'http://www.web2py.com/book/default/chapter/04'
p4454
tp4455
a(g4016
(S's\t\x00\x00\x00The Views'
tRp4456
I00
S'http://www.web2py.com/book/default/chapter/05'
p4457
tp4458
a(g4016
(S't\x08\x00\x00\x00Database'
tRp4459
I00
S'http://www.web2py.com/book/default/chapter/06'
p4460
tp4461
a(g4016
(S's\x14\x00\x00\x00Forms and Validators'
tRp4462
I00
S'http://www.web2py.com/book/default/chapter/07'
p4463
tp4464
a(g4016
(S's\r\x00\x00\x00Email and SMS'
tRp4465
I00
S'http://www.web2py.com/book/default/chapter/08'
p4466
tp4467
a(g4016
(S's\x0e\x00\x00\x00Access Control'
tRp4468
I00
S'http://www.web2py.com/book/default/chapter/09'
p4469
tp4470
a(g4016
(S't\x08\x00\x00\x00Services'
tRp4471
I00
S'http://www.web2py.com/book/default/chapter/10'
p4472
tp4473
a(g4016
(S's\x0c\x00\x00\x00Ajax Recipes'
tRp4474
I00
S'http://www.web2py.com/book/default/chapter/11'
p4475
tp4476
a(g4016
(S's\x16\x00\x00\x00Components and Plugins'
tRp4477
I00
S'http://www.web2py.com/book/default/chapter/12'
p4478
tp4479
a(g4016
(S's\x12\x00\x00\x00Deployment Recipes'
tRp4480
I00
S'http://www.web2py.com/book/default/chapter/13'
p4481
tp4482
a(g4016
(S's\r\x00\x00\x00Other Recipes'
tRp4483
I00
S'http://www.web2py.com/book/default/chapter/14'
p4484
tp4485
a(g4016
(S's\r\x00\x00\x00Buy this book'
tRp4486
I00
S'http://stores.lulu.com/web2py'
p4487
tp4488
aasbasbasbasbasbasbasbag49
(g65
g51
NtRp4489
(dp4490
g54
(dp4491
sg63
g4131
sg56
(lp4492
g49
(g70
g51
NtRp4493
(dp4494
g54
(dp4495
sg63
g4489
sg56
(lp4496
g49
(g50
g51
NtRp4497
(dp4498
g54
(dp4499
g62
I2
ssg63
g4493
sg56
(lp4500
g49
(g58
g51
NtRp4501
(dp4502
g54
(dp4503
g62
I1
ssg63
Nsg56
(lp4504
g49
(g65
g51
NtRp4505
(dp4506
g54
(dp4507
sg63
g4501
sg56
(lp4508
g49
(g70
g51
NtRp4509
(dp4510
g54
(dp4511
sg63
g4505
sg56
(lp4512
g49
(g50
g51
NtRp4513
(dp4514
g54
(dp4515
g62
I1
ssg63
g4509
sg56
(lp4516
g4016
(S't\t\x00\x00\x00Community'
tRp4517
asbasbasbag49
(g65
g51
NtRp4518
(dp4519
g54
(dp4520
sg63
g4501
sg56
(lp4521
g49
(g70
g51
NtRp4522
(dp4523
g54
(dp4524
sg63
g4518
sg56
(lp4525
g49
(g50
g51
NtRp4526
(dp4527
g54
(dp4528
g62
I1
ssg63
g4522
sg56
(lp4529
I00
asbasbasbag49
(g65
g51
NtRp4530
(dp4531
g54
(dp4532
sg63
g4501
sg56
(lp4533
g49
(g70
g51
NtRp4534
(dp4535
g54
(dp4536
sg63
g4530
sg56
(lp4537
g49
(g50
g51
NtRp4538
(dp4539
g54
(dp4540
g62
I1
ssg63
g4534
sg56
(lp4541
Nasbasbasbag49
(g65
g51
NtRp4542
(dp4543
g54
(dp4544
sg63
g4501
sg56
(lp4545
g49
(g70
g51
NtRp4546
(dp4547
g54
(dp4548
sg63
g4542
sg56
(lp4549
g49
(g50
g51
NtRp4550
(dp4551
g54
(dp4552
g62
I1
ssg63
g4546
sg56
(lp4553
(lp4554
(g4016
(S't\x06\x00\x00\x00Groups'
tRp4555
I00
S'http://www.web2py.com/examples/default/usergroups'
p4556
tp4557
a(g4016
(S't\x07\x00\x00\x00Twitter'
tRp4558
I00
S'http://twitter.com/web2py'
p4559
tp4560
a(g4016
(S's\t\x00\x00\x00Live Chat'
tRp4561
I00
S'http://webchat.freenode.net/?channels=web2py'
p4562
tp4563
aasbasbasbasbasbasbasbag49
(g65
g51
NtRp4564
(dp4565
g54
(dp4566
sg63
g4131
sg56
(lp4567
g49
(g70
g51
NtRp4568
(dp4569
g54
(dp4570
sg63
g4564
sg56
(lp4571
g49
(g50
g51
NtRp4572
(dp4573
g54
(dp4574
g62
I2
ssg63
g4568
sg56
(lp4575
g49
(g58
g51
NtRp4576
(dp4577
g54
(dp4578
g62
I1
ssg63
Nsg56
(lp4579
g49
(g65
g51
NtRp4580
(dp4581
g54
(dp4582
sg63
g4576
sg56
(lp4583
g49
(g70
g51
NtRp4584
(dp4585
g54
(dp4586
sg63
g4580
sg56
(lp4587
g49
(g50
g51
NtRp4588
(dp4589
g54
(dp4590
g62
I1
ssg63
g4584
sg56
(lp4591
g4016
(S't\x07\x00\x00\x00Plugins'
tRp4592
asbasbasbag49
(g65
g51
NtRp4593
(dp4594
g54
(dp4595
sg63
g4576
sg56
(lp4596
g49
(g70
g51
NtRp4597
(dp4598
g54
(dp4599
sg63
g4593
sg56
(lp4600
g49
(g50
g51
NtRp4601
(dp4602
g54
(dp4603
g62
I1
ssg63
g4597
sg56
(lp4604
I00
asbasbasbag49
(g65
g51
NtRp4605
(dp4606
g54
(dp4607
sg63
g4576
sg56
(lp4608
g49
(g70
g51
NtRp4609
(dp4610
g54
(dp4611
sg63
g4605
sg56
(lp4612
g49
(g50
g51
NtRp4613
(dp4614
g54
(dp4615
g62
I1
ssg63
g4609
sg56
(lp4616
Nasbasbasbag49
(g65
g51
NtRp4617
(dp4618
g54
(dp4619
sg63
g4576
sg56
(lp4620
g49
(g70
g51
NtRp4621
(dp4622
g54
(dp4623
sg63
g4617
sg56
(lp4624
g49
(g50
g51
NtRp4625
(dp4626
g54
(dp4627
g62
I1
ssg63
g4621
sg56
(lp4628
(lp4629
(S'plugin_wiki'
p4630
I00
S'http://web2py.com/examples/default/download'
p4631
tp4632
a(g4016
(S's\r\x00\x00\x00Other Plugins'
tRp4633
I00
g4363
tp4634
a(g4016
(S's\x0e\x00\x00\x00Layout Plugins'
tRp4635
I00
g4366
tp4636
aasbasbasbasbasbasbasbasbasbasbasbasbasbasbasbasbasbasbasbag49
(g65
g51
NtRp4637
(dp4638
g54
(dp4639
sg63
g3558
sg56
(lp4640
g49
(g70
g51
NtRp4641
(dp4642
g54
(dp4643
g74
g75
ssg63
g4637
sg56
(lp4644
S'meta'
p4645
asbag49
(g70
g51
NtRp4646
(dp4647
g54
(dp4648
g81
g82
ssg63
g4637
sg56
(lp4649
S':'
asbag49
(g70
g51
NtRp4650
(dp4651
g54
(dp4652
sg63
g4637
sg56
(lp4653
g49
(g50
g51
NtRp4654
(dp4655
g54
(dp4656
g62
I5
ssg63
g4650
sg56
(lp4657
g49
(g58
g51
NtRp4658
(dp4659
g54
(dp4660
g62
I4
ssg63
Nsg56
(lp4661
g49
(g65
g51
NtRp4662
(dp4663
g54
(dp4664
sg63
g4658
sg56
(lp4665
g49
(g70
g51
NtRp4666
(dp4667
g54
(dp4668
g74
g75
ssg63
g4662
sg56
(lp4669
S'author'
p4670
asbag49
(g70
g51
NtRp4671
(dp4672
g54
(dp4673
g81
g82
ssg63
g4662
sg56
(lp4674
S':'
asbag49
(g70
g51
NtRp4675
(dp4676
g54
(dp4677
sg63
g4662
sg56
(lp4678
g49
(g50
g51
NtRp4679
(dp4680
g54
(dp4681
g62
I4
ssg63
g4675
sg56
(lp4682
S'Your Name <you@example.com>'
p4683
asbasbasbag49
(g65
g51
NtRp4684
(dp4685
g54
(dp4686
sg63
g4658
sg56
(lp4687
g49
(g70
g51
NtRp4688
(dp4689
g54
(dp4690
g74
g75
ssg63
g4684
sg56
(lp4691
S'description'
p4692
asbag49
(g70
g51
NtRp4693
(dp4694
g54
(dp4695
g81
g82
ssg63
g4684
sg56
(lp4696
S':'
asbag49
(g70
g51
NtRp4697
(dp4698
g54
(dp4699
sg63
g4684
sg56
(lp4700
g49
(g50
g51
NtRp4701
(dp4702
g54
(dp4703
g62
I4
ssg63
g4697
sg56
(lp4704
S'a cool new app'
p4705
asbasbasbag49
(g65
g51
NtRp4706
(dp4707
g54
(dp4708
sg63
g4658
sg56
(lp4709
g49
(g70
g51
NtRp4710
(dp4711
g54
(dp4712
g74
g75
ssg63
g4706
sg56
(lp4713
S'generator'
p4714
asbag49
(g70
g51
NtRp4715
(dp4716
g54
(dp4717
g81
g82
ssg63
g4706
sg56
(lp4718
S':'
asbag49
(g70
g51
NtRp4719
(dp4720
g54
(dp4721
sg63
g4706
sg56
(lp4722
g49
(g50
g51
NtRp4723
(dp4724
g54
(dp4725
g62
I4
ssg63
g4719
sg56
(lp4726
S'Web2py Web Framework'
p4727
asbasbasbag49
(g65
g51
NtRp4728
(dp4729
g54
(dp4730
sg63
g4658
sg56
(lp4731
g49
(g70
g51
NtRp4732
(dp4733
g54
(dp4734
g74
g75
ssg63
g4728
sg56
(lp4735
S'keywords'
p4736
asbag49
(g70
g51
NtRp4737
(dp4738
g54
(dp4739
g81
g82
ssg63
g4728
sg56
(lp4740
S':'
asbag49
(g70
g51
NtRp4741
(dp4742
g54
(dp4743
sg63
g4728
sg56
(lp4744
g49
(g50
g51
NtRp4745
(dp4746
g54
(dp4747
g62
I4
ssg63
g4741
sg56
(lp4748
S'web2py, python, framework'
p4749
asbasbasbasbasbasbasbag49
(g65
g51
NtRp4750
(dp4751
g54
(dp4752
sg63
g3558
sg56
(lp4753
g49
(g70
g51
NtRp4754
(dp4755
g54
(dp4756
g74
g75
ssg63
g4750
sg56
(lp4757
S'models_to_run'
p4758
asbag49
(g70
g51
NtRp4759
(dp4760
g54
(dp4761
g81
g82
ssg63
g4750
sg56
(lp4762
S':'
asbag49
(g70
g51
NtRp4763
(dp4764
g54
(dp4765
sg63
g4750
sg56
(lp4766
g49
(g50
g51
NtRp4767
(dp4768
g54
(dp4769
g62
I5
ssg63
g4763
sg56
(lp4770
g49
(g58
g51
NtRp4771
(dp4772
g54
(dp4773
g62
I4
ssg63
Nsg56
(lp4774
g49
(g65
g51
NtRp4775
(dp4776
g54
(dp4777
sg63
g4771
sg56
(lp4778
g49
(g70
g51
NtRp4779
(dp4780
g54
(dp4781
sg63
g4775
sg56
(lp4782
g49
(g50
g51
NtRp4783
(dp4784
g54
(dp4785
g62
I4
ssg63
g4779
sg56
(lp4786
S'^\\w+\\.py$'
p4787
asbasbasbag49
(g65
g51
NtRp4788
(dp4789
g54
(dp4790
sg63
g4771
sg56
(lp4791
g49
(g70
g51
NtRp4792
(dp4793
g54
(dp4794
sg63
g4788
sg56
(lp4795
g49
(g50
g51
NtRp4796
(dp4797
g54
(dp4798
g62
I4
ssg63
g4792
sg56
(lp4799
S'^default/\\w+\\.py$'
p4800
asbasbasbag49
(g65
g51
NtRp4801
(dp4802
g54
(dp4803
sg63
g4771
sg56
(lp4804
g49
(g70
g51
NtRp4805
(dp4806
g54
(dp4807
sg63
g4801
sg56
(lp4808
g49
(g50
g51
NtRp4809
(dp4810
g54
(dp4811
g62
I4
ssg63
g4805
sg56
(lp4812
S'^default/insert_writing_comment/\\w+\\.py$'
p4813
asbasbasbasbasbasbasbag49
(g65
g51
NtRp4814
(dp4815
g54
(dp4816
sg63
g3558
sg56
(lp4817
g49
(g70
g51
NtRp4818
(dp4819
g54
(dp4820
g74
g75
ssg63
g4814
sg56
(lp4821
S'postprocessing'
p4822
asbag49
(g70
g51
NtRp4823
(dp4824
g54
(dp4825
g81
g82
ssg63
g4814
sg56
(lp4826
S':'
asbag49
(g70
g51
NtRp4827
(dp4828
g54
(dp4829
sg63
g4814
sg56
(lp4830
g49
(g50
g51
NtRp4831
(dp4832
g54
(dp4833
g62
I5
ssg63
g4827
sg56
(lp4834
g49
(g58
g51
NtRp4835
(dp4836
g54
(dp4837
g62
I4
ssg63
Nsg56
(lp4838
sbasbasbasbag49
(g65
g51
NtRp4839
(dp4840
g54
(dp4841
sg63
g3558
sg56
(lp4842
g49
(g70
g51
NtRp4843
(dp4844
g54
(dp4845
g74
g75
ssg63
g4839
sg56
(lp4846
S'session_cookie_expires'
p4847
asbag49
(g70
g51
NtRp4848
(dp4849
g54
(dp4850
g81
g82
ssg63
g4839
sg56
(lp4851
S':'
asbag49
(g70
g51
NtRp4852
(dp4853
g54
(dp4854
sg63
g4839
sg56
(lp4855
g49
(g50
g51
NtRp4856
(dp4857
g54
(dp4858
g62
I5
ssg63
g4852
sg56
(lp4859
S'None'
p4860
asbasbasbag49
(g65
g51
NtRp4861
(dp4862
g54
(dp4863
sg63
g3558
sg56
(lp4864
g49
(g70
g51
NtRp4865
(dp4866
g54
(dp4867
g74
g75
ssg63
g4861
sg56
(lp4868
S'session_data_name'
p4869
asbag49
(g70
g51
NtRp4870
(dp4871
g54
(dp4872
g81
g82
ssg63
g4861
sg56
(lp4873
S':'
asbag49
(g70
g51
NtRp4874
(dp4875
g54
(dp4876
sg63
g4861
sg56
(lp4877
g49
(g50
g51
NtRp4878
(dp4879
g54
(dp4880
g62
I5
ssg63
g4874
sg56
(lp4881
S'session_data_final_impulse'
p4882
asbasbasbag49
(g65
g51
NtRp4883
(dp4884
g54
(dp4885
sg63
g3558
sg56
(lp4886
g49
(g70
g51
NtRp4887
(dp4888
g54
(dp4889
g74
g75
ssg63
g4883
sg56
(lp4890
S'session_file'
p4891
asbag49
(g70
g51
NtRp4892
(dp4893
g54
(dp4894
g81
g82
ssg63
g4883
sg56
(lp4895
S':'
asbag49
(g70
g51
NtRp4896
(dp4897
g54
(dp4898
sg63
g4883
sg56
(lp4899
g49
(g50
g51
NtRp4900
(dp4901
g54
(dp4902
g62
I5
ssg63
g4896
sg56
(lp4903
S"<open file '/Users/abaric/Downloads/web2py/web2py.app/Contents/Resources/applications/Final_Impulse/sessions/127.0.0.1-5aceb5e9-2875-4462-b8f1-a71729f93584', mode 'rb+' at 0x9844188>"
p4904
asbasbasbag49
(g65
g51
NtRp4905
(dp4906
g54
(dp4907
sg63
g3558
sg56
(lp4908
g49
(g70
g51
NtRp4909
(dp4910
g54
(dp4911
g74
g75
ssg63
g4905
sg56
(lp4912
S'session_filename'
p4913
asbag49
(g70
g51
NtRp4914
(dp4915
g54
(dp4916
g81
g82
ssg63
g4905
sg56
(lp4917
S':'
asbag49
(g70
g51
NtRp4918
(dp4919
g54
(dp4920
sg63
g4905
sg56
(lp4921
g49
(g50
g51
NtRp4922
(dp4923
g54
(dp4924
g62
I5
ssg63
g4918
sg56
(lp4925
S'/Users/abaric/Downloads/web2py/web2py.app/Contents/Resources/applications/Final_Impulse/sessions/127.0.0.1-5aceb5e9-2875-4462-b8f1-a71729f93584'
p4926
asbasbasbag49
(g65
g51
NtRp4927
(dp4928
g54
(dp4929
sg63
g3558
sg56
(lp4930
g49
(g70
g51
NtRp4931
(dp4932
g54
(dp4933
g74
g75
ssg63
g4927
sg56
(lp4934
S'session_id'
p4935
asbag49
(g70
g51
NtRp4936
(dp4937
g54
(dp4938
g81
g82
ssg63
g4927
sg56
(lp4939
S':'
asbag49
(g70
g51
NtRp4940
(dp4941
g54
(dp4942
sg63
g4927
sg56
(lp4943
g49
(g50
g51
NtRp4944
(dp4945
g54
(dp4946
g62
I5
ssg63
g4940
sg56
(lp4947
g446
asbasbasbag49
(g65
g51
NtRp4948
(dp4949
g54
(dp4950
sg63
g3558
sg56
(lp4951
g49
(g70
g51
NtRp4952
(dp4953
g54
(dp4954
g74
g75
ssg63
g4948
sg56
(lp4955
S'session_id_name'
p4956
asbag49
(g70
g51
NtRp4957
(dp4958
g54
(dp4959
g81
g82
ssg63
g4948
sg56
(lp4960
S':'
asbag49
(g70
g51
NtRp4961
(dp4962
g54
(dp4963
sg63
g4948
sg56
(lp4964
g49
(g50
g51
NtRp4965
(dp4966
g54
(dp4967
g62
I5
ssg63
g4961
sg56
(lp4968
g3615
asbasbasbag49
(g65
g51
NtRp4969
(dp4970
g54
(dp4971
sg63
g3558
sg56
(lp4972
g49
(g70
g51
NtRp4973
(dp4974
g54
(dp4975
g74
g75
ssg63
g4969
sg56
(lp4976
S'session_locked'
p4977
asbag49
(g70
g51
NtRp4978
(dp4979
g54
(dp4980
g81
g82
ssg63
g4969
sg56
(lp4981
S':'
asbag49
(g70
g51
NtRp4982
(dp4983
g54
(dp4984
sg63
g4969
sg56
(lp4985
g49
(g50
g51
NtRp4986
(dp4987
g54
(dp4988
g62
I5
ssg63
g4982
sg56
(lp4989
g1807
asbasbasbag49
(g65
g51
NtRp4990
(dp4991
g54
(dp4992
sg63
g3558
sg56
(lp4993
g49
(g70
g51
NtRp4994
(dp4995
g54
(dp4996
g74
g75
ssg63
g4990
sg56
(lp4997
S'session_new'
p4998
asbag49
(g70
g51
NtRp4999
(dp5000
g54
(dp5001
g81
g82
ssg63
g4990
sg56
(lp5002
S':'
asbag49
(g70
g51
NtRp5003
(dp5004
g54
(dp5005
sg63
g4990
sg56
(lp5006
g49
(g50
g51
NtRp5007
(dp5008
g54
(dp5009
g62
I5
ssg63
g5003
sg56
(lp5010
g92
asbasbasbag49
(g65
g51
NtRp5011
(dp5012
g54
(dp5013
sg63
g3558
sg56
(lp5014
g49
(g70
g51
NtRp5015
(dp5016
g54
(dp5017
g74
g75
ssg63
g5011
sg56
(lp5018
S'session_storage_type'
p5019
asbag49
(g70
g51
NtRp5020
(dp5021
g54
(dp5022
g81
g82
ssg63
g5011
sg56
(lp5023
S':'
asbag49
(g70
g51
NtRp5024
(dp5025
g54
(dp5026
sg63
g5011
sg56
(lp5027
g49
(g50
g51
NtRp5028
(dp5029
g54
(dp5030
g62
I5
ssg63
g5024
sg56
(lp5031
g3427
asbasbasbag49
(g65
g51
NtRp5032
(dp5033
g54
(dp5034
sg63
g3558
sg56
(lp5035
g49
(g70
g51
NtRp5036
(dp5037
g54
(dp5038
g74
g75
ssg63
g5032
sg56
(lp5039
S'status'
p5040
asbag49
(g70
g51
NtRp5041
(dp5042
g54
(dp5043
g81
g82
ssg63
g5032
sg56
(lp5044
S':'
asbag49
(g70
g51
NtRp5045
(dp5046
g54
(dp5047
sg63
g5032
sg56
(lp5048
g49
(g50
g51
NtRp5049
(dp5050
g54
(dp5051
g62
I5
ssg63
g5045
sg56
(lp5052
S'200'
p5053
asbasbasbag49
(g65
g51
NtRp5054
(dp5055
g54
(dp5056
sg63
g3558
sg56
(lp5057
g49
(g70
g51
NtRp5058
(dp5059
g54
(dp5060
g74
g75
ssg63
g5054
sg56
(lp5061
S'subtitle'
p5062
asbag49
(g70
g51
NtRp5063
(dp5064
g54
(dp5065
g81
g82
ssg63
g5054
sg56
(lp5066
S':'
asbag49
(g70
g51
NtRp5067
(dp5068
g54
(dp5069
sg63
g5054
sg56
(lp5070
g49
(g50
g51
NtRp5071
(dp5072
g54
(dp5073
g62
I5
ssg63
g5067
sg56
(lp5074
g4016
(S's\r\x00\x00\x00customize me!'
tRp5075
asbasbasbag49
(g65
g51
NtRp5076
(dp5077
g54
(dp5078
sg63
g3558
sg56
(lp5079
g49
(g70
g51
NtRp5080
(dp5081
g54
(dp5082
g74
g75
ssg63
g5076
sg56
(lp5083
S'title'
p5084
asbag49
(g70
g51
NtRp5085
(dp5086
g54
(dp5087
g81
g82
ssg63
g5076
sg56
(lp5088
S':'
asbag49
(g70
g51
NtRp5089
(dp5090
g54
(dp5091
sg63
g5076
sg56
(lp5092
g49
(g50
g51
NtRp5093
(dp5094
g54
(dp5095
g62
I5
ssg63
g5089
sg56
(lp5096
S'Final Impulse'
p5097
asbasbasbag49
(g65
g51
NtRp5098
(dp5099
g54
(dp5100
sg63
g3558
sg56
(lp5101
g49
(g70
g51
NtRp5102
(dp5103
g54
(dp5104
g74
g75
ssg63
g5098
sg56
(lp5105
S'view'
p5106
asbag49
(g70
g51
NtRp5107
(dp5108
g54
(dp5109
g81
g82
ssg63
g5098
sg56
(lp5110
S':'
asbag49
(g70
g51
NtRp5111
(dp5112
g54
(dp5113
sg63
g5098
sg56
(lp5114
g49
(g50
g51
NtRp5115
(dp5116
g54
(dp5117
g62
I5
ssg63
g5111
sg56
(lp5118
S'default/insert_writing_comment.html'
p5119
asbasbasbasbasbsS'locals'
p5120
(dp5121
S'writing_comment'
p5122
S'None'
p5123
sssS'traceback'
p5124
S'Traceback (most recent call last):\n  File "gluon/restricted.py", line 212, in restricted\n  File "/Users/abaric/Downloads/web2py/web2py.app/Contents/Resources/applications/Final_Impulse/controllers/default.py", line 106, in <module>\n  File "gluon/globals.py", line 188, in <lambda>\n  File "/Users/abaric/Downloads/web2py/web2py.app/Contents/Resources/applications/Final_Impulse/controllers/default.py", line 99, in insert_writing_comment\nAttributeError: \'NoneType\' object has no attribute \'id\'\n'
p5125
s.