(dp1
S'output'
p2
S"<type 'exceptions.AttributeError'> 'NoneType' object has no attribute 'id'"
p3
sS'layer'
p4
S'/Users/abaric/Downloads/web2py/web2py.app/Contents/Resources/applications/Final_Impulse/controllers/default.py'
p5
sS'code'
p6
S"from gluon.tools import datetime\n\ndef user():\n    return dict(form=auth())\n    \n#def load_roles():\n #  session.user_name=auth.user.first_name\n  # session.roles=[]\n   #     \n    #    if auth.has_membership('teacher'):\n     #       session.user_teacher_id=db(db.teacher.email==auth.user.email).select().first().id\n      #      t=('teacher','load_courses',session.user_teacher_id)\n       #     session.roles.append(t)\n        #    \n        #if auth.has_membership('advisor'):\n          #  session.user_advisor_id=db(db.advisor.email==auth.user.email).select().first().id\n           # a=('advisor','load_advisees',session.user_advisor_id)\n            #session.roles.append(a)\n            #\n        #if auth.has_membership('division_level'):\n         #   session.user_division_level_id=db(db.division_level.email==auth.user.email).select().first().id\n          #  divl=('division level','load_departments',session.user_division_level_id)\n           # session.roles.append(divl)\n                                      \ndef index():\n    #images = db().select(db.image.ALL, orderby=db.image.title)\n    #writings = db().select(db.writing.ALL, orderby=db.writing.title)\n    #videos = db().select(db.video.ALL, orderby=db.video.title)\n    return locals()\n\ndef download():\n    return response.download(request, db)\n\ndef show_image_comments():\n    images=db(db.image).select(db.image.ALL, orderby=db.image.id)\n    d={}\n    for image in images:\n        comments=db((db.image_comment.image_id==image.id) &\\\n                   (db.auth_user.id==db.image_comment.author_id)).select() \n        tuple_list=[]       \n        for comment in comments:\n            author=('%s %s')%(comment.auth_user.first_name,comment.auth_user.last_name)\n            body=('%s')%(comment.image_comment.body)\n            t=(author,body)\n            tuple_list.append(t)\n        d[image.id]=tuple_list\n  \n    form = SQLFORM(db.writing_comment)\n    if form.process().accepted:\n        response.flash = 'your comment is posted'\n    #images = db(db.image_comment.image_id==image.id).select()\n    return locals()\n    \ndef show_writing_comments():\n    writings = db().select(db.writing.ALL, orderby=db.writing.id)\n    d={}\n    for writing in writings:\n        comments=db((db.writing_comment.writing_id==writing.id) &\\\n                   (db.auth_user.id==db.writing_comment.author_id)).select() \n        tuple_list=[]       \n        for comment in comments:\n            author=('%s %s')%(comment.auth_user.first_name,comment.auth_user.last_name)\n            body=('%s')%(comment.writing_comment.body)\n            t=(author,body)\n            tuple_list.append(t)\n        d[writing.id]=tuple_list\n  \n    form = SQLFORM(db.writing_comment)\n    if form.process().accepted:\n        response.flash = 'your comment is posted'\n    #comments = db(db.writing_comment.writing_id==writing.id).select()\n    return locals()\n\ndef show_video_comments():\n    video = db.video(request.args(0))\n    videos=db().select(db.video.ALL, orderby=db.video.id)\n    video_comment=db.video_comment(request.args(0))\n    d={}\n    for video in videos:\n        comments=db((db.video_comment.video_id==video.id) &\\\n                   (db.auth_user.id==db.video_comment.author_id)).select() \n        tuple_list=[]       \n        for comment in comments:\n            author=('%s %s')%(comment.auth_user.first_name,comment.auth_user.last_name)\n            body=('%s')%(comment.video_comment.body)\n            t=(author,body)\n            tuple_list.append(t)\n        d[video.id]=tuple_list\n    form = SQLFORM(db.video_comment)\n    if form.process().accepted:\n        response.flash = 'your comment is posted'\n    return locals()  \n\ndef insert_writing_comment():\n\n    writing_comment=request.post_vars.writing_comment\n   # db.writing_comment.insert(video_id=video_id,video_comment_id=video_comment_id, author_id=author_id,email=email,body=body)\n    writing_id=request.args(0)\n    db.writing_comment.insert(author_id=auth.user.id,\n                              writing_id=writing_id,\n                              email=None,\n                              body=writing_comment,\n                              date_of_entry=datetime.datetime.today())\n    db.commit()\n    redirect(URL('show_writing_comments'))\n    return locals()\n\nresponse._vars=response._caller(insert_writing_comment)\n"
p7
sS'snapshot'
p8
(dp9
S'exception'
p10
(dp11
S'__hash__'
p12
S"<method-wrapper '__hash__' of exceptions.AttributeError object at 0x9942e18>"
p13
sS'__setattr__'
p14
S"<method-wrapper '__setattr__' of exceptions.AttributeError object at 0x9942e18>"
p15
sS'__reduce_ex__'
p16
S'<built-in method __reduce_ex__ of exceptions.AttributeError object at 0x9942e18>'
p17
sS'__getslice__'
p18
S"<method-wrapper '__getslice__' of exceptions.AttributeError object at 0x9942e18>"
p19
sS'__getitem__'
p20
S"<method-wrapper '__getitem__' of exceptions.AttributeError object at 0x9942e18>"
p21
sS'__setstate__'
p22
S'<built-in method __setstate__ of exceptions.AttributeError object at 0x9942e18>'
p23
sS'__reduce__'
p24
S'<built-in method __reduce__ of exceptions.AttributeError object at 0x9942e18>'
p25
sS'__str__'
p26
S"<method-wrapper '__str__' of exceptions.AttributeError object at 0x9942e18>"
p27
sS'args'
p28
S'("\'NoneType\' object has no attribute \'id\'",)'
p29
sS'__getattribute__'
p30
S"<method-wrapper '__getattribute__' of exceptions.AttributeError object at 0x9942e18>"
p31
sS'__class__'
p32
S"<type 'exceptions.AttributeError'>"
p33
sS'__delattr__'
p34
S"<method-wrapper '__delattr__' of exceptions.AttributeError object at 0x9942e18>"
p35
sS'__repr__'
p36
S"<method-wrapper '__repr__' of exceptions.AttributeError object at 0x9942e18>"
p37
sS'__dict__'
p38
S'{}'
p39
sS'__doc__'
p40
S"'Attribute not found.'"
p41
sS'__init__'
p42
S"<method-wrapper '__init__' of exceptions.AttributeError object at 0x9942e18>"
p43
sS'__new__'
p44
S'<built-in method __new__ of type object at 0x5f94a0>'
p45
ssS'evalue'
p46
S"'NoneType' object has no attribute 'id'"
p47
sS'request'
p48
ccopy_reg
_reconstructor
p49
(cgluon.html
BEAUTIFY
p50
c__builtin__
object
p51
NtRp52
(dp53
S'attributes'
p54
(dp55
sS'components'
p56
(lp57
g49
(cgluon.html
TABLE
p58
g51
NtRp59
(dp60
g54
(dp61
S'level'
p62
I5
ssS'parent'
p63
Nsg56
(lp64
g49
(cgluon.html
TR
p65
g51
NtRp66
(dp67
g54
(dp68
sg63
g59
sg56
(lp69
g49
(cgluon.html
TD
p70
g51
NtRp71
(dp72
g54
(dp73
S'_style'
p74
S'font-weight:bold;vertical-align:top'
p75
ssg63
g66
sg56
(lp76
S'ajax'
p77
asbag49
(g70
g51
NtRp78
(dp79
g54
(dp80
S'_valign'
p81
S'top'
p82
ssg63
g66
sg56
(lp83
S':'
asbag49
(g70
g51
NtRp84
(dp85
g54
(dp86
sg63
g66
sg56
(lp87
g49
(g50
g51
NtRp88
(dp89
g54
(dp90
g62
I5
ssg63
g84
sg56
(lp91
S'False'
p92
asbasbasbag49
(g65
g51
NtRp93
(dp94
g54
(dp95
sg63
g59
sg56
(lp96
g49
(g70
g51
NtRp97
(dp98
g54
(dp99
g74
g75
ssg63
g93
sg56
(lp100
S'application'
p101
asbag49
(g70
g51
NtRp102
(dp103
g54
(dp104
g81
g82
ssg63
g93
sg56
(lp105
S':'
asbag49
(g70
g51
NtRp106
(dp107
g54
(dp108
sg63
g93
sg56
(lp109
g49
(g50
g51
NtRp110
(dp111
g54
(dp112
g62
I5
ssg63
g106
sg56
(lp113
S'Final_Impulse'
p114
asbasbasbag49
(g65
g51
NtRp115
(dp116
g54
(dp117
sg63
g59
sg56
(lp118
g49
(g70
g51
NtRp119
(dp120
g54
(dp121
g74
g75
ssg63
g115
sg56
(lp122
g28
asbag49
(g70
g51
NtRp123
(dp124
g54
(dp125
g81
g82
ssg63
g115
sg56
(lp126
S':'
asbag49
(g70
g51
NtRp127
(dp128
g54
(dp129
sg63
g115
sg56
(lp130
g49
(g50
g51
NtRp131
(dp132
g54
(dp133
g62
I5
ssg63
g127
sg56
(lp134
g49
(g58
g51
NtRp135
(dp136
g54
(dp137
g62
I4
ssg63
Nsg56
(lp138
g49
(g65
g51
NtRp139
(dp140
g54
(dp141
sg63
g135
sg56
(lp142
g49
(g70
g51
NtRp143
(dp144
g54
(dp145
sg63
g139
sg56
(lp146
g49
(g50
g51
NtRp147
(dp148
g54
(dp149
g62
I4
ssg63
g143
sg56
(lp150
S'1'
asbasbasbasbasbasbasbag49
(g65
g51
NtRp151
(dp152
g54
(dp153
sg63
g59
sg56
(lp154
g49
(g70
g51
NtRp155
(dp156
g54
(dp157
g74
g75
ssg63
g151
sg56
(lp158
S'body'
p159
asbag49
(g70
g51
NtRp160
(dp161
g54
(dp162
g81
g82
ssg63
g151
sg56
(lp163
S':'
asbag49
(g70
g51
NtRp164
(dp165
g54
(dp166
sg63
g151
sg56
(lp167
g49
(g50
g51
NtRp168
(dp169
g54
(dp170
g62
I5
ssg63
g164
sg56
(lp171
S"<open file '<fdopen>', mode 'w+b' at 0x89b6da0>"
p172
asbasbasbag49
(g65
g51
NtRp173
(dp174
g54
(dp175
sg63
g59
sg56
(lp176
g49
(g70
g51
NtRp177
(dp178
g54
(dp179
g74
g75
ssg63
g173
sg56
(lp180
S'cid'
p181
asbag49
(g70
g51
NtRp182
(dp183
g54
(dp184
g81
g82
ssg63
g173
sg56
(lp185
S':'
asbag49
(g70
g51
NtRp186
(dp187
g54
(dp188
sg63
g173
sg56
(lp189
g49
(g50
g51
NtRp190
(dp191
g54
(dp192
g62
I5
ssg63
g186
sg56
(lp193
S'None'
p194
asbasbasbag49
(g65
g51
NtRp195
(dp196
g54
(dp197
sg63
g59
sg56
(lp198
g49
(g70
g51
NtRp199
(dp200
g54
(dp201
g74
g75
ssg63
g195
sg56
(lp202
S'client'
p203
asbag49
(g70
g51
NtRp204
(dp205
g54
(dp206
g81
g82
ssg63
g195
sg56
(lp207
S':'
asbag49
(g70
g51
NtRp208
(dp209
g54
(dp210
sg63
g195
sg56
(lp211
g49
(g50
g51
NtRp212
(dp213
g54
(dp214
g62
I5
ssg63
g208
sg56
(lp215
S'127.0.0.1'
p216
asbasbasbag49
(g65
g51
NtRp217
(dp218
g54
(dp219
sg63
g59
sg56
(lp220
g49
(g70
g51
NtRp221
(dp222
g54
(dp223
g74
g75
ssg63
g217
sg56
(lp224
S'controller'
p225
asbag49
(g70
g51
NtRp226
(dp227
g54
(dp228
g81
g82
ssg63
g217
sg56
(lp229
S':'
asbag49
(g70
g51
NtRp230
(dp231
g54
(dp232
sg63
g217
sg56
(lp233
g49
(g50
g51
NtRp234
(dp235
g54
(dp236
g62
I5
ssg63
g230
sg56
(lp237
S'default'
p238
asbasbasbag49
(g65
g51
NtRp239
(dp240
g54
(dp241
sg63
g59
sg56
(lp242
g49
(g70
g51
NtRp243
(dp244
g54
(dp245
g74
g75
ssg63
g239
sg56
(lp246
S'cookies'
p247
asbag49
(g70
g51
NtRp248
(dp249
g54
(dp250
g81
g82
ssg63
g239
sg56
(lp251
S':'
asbag49
(g70
g51
NtRp252
(dp253
g54
(dp254
sg63
g239
sg56
(lp255
g49
(g50
g51
NtRp256
(dp257
g54
(dp258
g62
I5
ssg63
g252
sg56
(lp259
g49
(g58
g51
NtRp260
(dp261
g54
(dp262
g62
I4
ssg63
Nsg56
(lp263
g49
(g65
g51
NtRp264
(dp265
g54
(dp266
sg63
g260
sg56
(lp267
g49
(g70
g51
NtRp268
(dp269
g54
(dp270
g74
g75
ssg63
g264
sg56
(lp271
S'session_id_admin'
p272
asbag49
(g70
g51
NtRp273
(dp274
g54
(dp275
g81
g82
ssg63
g264
sg56
(lp276
S':'
asbag49
(g70
g51
NtRp277
(dp278
g54
(dp279
sg63
g264
sg56
(lp280
g49
(g50
g51
NtRp281
(dp282
g54
(dp283
g62
I4
ssg63
g277
sg56
(lp284
S'127.0.0.1-e2ac865f-62ef-4ea6-b78a-22dbce601125'
p285
ag49
(g58
g51
NtRp286
(dp287
g54
(dp288
g62
I3
ssg63
Nsg56
(lp289
g49
(g65
g51
NtRp290
(dp291
g54
(dp292
sg63
g286
sg56
(lp293
g49
(g70
g51
NtRp294
(dp295
g54
(dp296
g74
g75
ssg63
g290
sg56
(lp297
S'comment'
p298
asbag49
(g70
g51
NtRp299
(dp300
g54
(dp301
g81
g82
ssg63
g290
sg56
(lp302
S':'
asbag49
(g70
g51
NtRp303
(dp304
g54
(dp305
sg63
g290
sg56
(lp306
g49
(g50
g51
NtRp307
(dp308
g54
(dp309
g62
I3
ssg63
g303
sg56
(lp310
S''
asbasbasbag49
(g65
g51
NtRp311
(dp312
g54
(dp313
sg63
g286
sg56
(lp314
g49
(g70
g51
NtRp315
(dp316
g54
(dp317
g74
g75
ssg63
g311
sg56
(lp318
S'domain'
p319
asbag49
(g70
g51
NtRp320
(dp321
g54
(dp322
g81
g82
ssg63
g311
sg56
(lp323
S':'
asbag49
(g70
g51
NtRp324
(dp325
g54
(dp326
sg63
g311
sg56
(lp327
g49
(g50
g51
NtRp328
(dp329
g54
(dp330
g62
I3
ssg63
g324
sg56
(lp331
S''
asbasbasbag49
(g65
g51
NtRp332
(dp333
g54
(dp334
sg63
g286
sg56
(lp335
g49
(g70
g51
NtRp336
(dp337
g54
(dp338
g74
g75
ssg63
g332
sg56
(lp339
S'expires'
p340
asbag49
(g70
g51
NtRp341
(dp342
g54
(dp343
g81
g82
ssg63
g332
sg56
(lp344
S':'
asbag49
(g70
g51
NtRp345
(dp346
g54
(dp347
sg63
g332
sg56
(lp348
g49
(g50
g51
NtRp349
(dp350
g54
(dp351
g62
I3
ssg63
g345
sg56
(lp352
S''
asbasbasbag49
(g65
g51
NtRp353
(dp354
g54
(dp355
sg63
g286
sg56
(lp356
g49
(g70
g51
NtRp357
(dp358
g54
(dp359
g74
g75
ssg63
g353
sg56
(lp360
S'max-age'
p361
asbag49
(g70
g51
NtRp362
(dp363
g54
(dp364
g81
g82
ssg63
g353
sg56
(lp365
S':'
asbag49
(g70
g51
NtRp366
(dp367
g54
(dp368
sg63
g353
sg56
(lp369
g49
(g50
g51
NtRp370
(dp371
g54
(dp372
g62
I3
ssg63
g366
sg56
(lp373
S''
asbasbasbag49
(g65
g51
NtRp374
(dp375
g54
(dp376
sg63
g286
sg56
(lp377
g49
(g70
g51
NtRp378
(dp379
g54
(dp380
g74
g75
ssg63
g374
sg56
(lp381
S'path'
p382
asbag49
(g70
g51
NtRp383
(dp384
g54
(dp385
g81
g82
ssg63
g374
sg56
(lp386
S':'
asbag49
(g70
g51
NtRp387
(dp388
g54
(dp389
sg63
g374
sg56
(lp390
g49
(g50
g51
NtRp391
(dp392
g54
(dp393
g62
I3
ssg63
g387
sg56
(lp394
S''
asbasbasbag49
(g65
g51
NtRp395
(dp396
g54
(dp397
sg63
g286
sg56
(lp398
g49
(g70
g51
NtRp399
(dp400
g54
(dp401
g74
g75
ssg63
g395
sg56
(lp402
S'secure'
p403
asbag49
(g70
g51
NtRp404
(dp405
g54
(dp406
g81
g82
ssg63
g395
sg56
(lp407
S':'
asbag49
(g70
g51
NtRp408
(dp409
g54
(dp410
sg63
g395
sg56
(lp411
g49
(g50
g51
NtRp412
(dp413
g54
(dp414
g62
I3
ssg63
g408
sg56
(lp415
S''
asbasbasbag49
(g65
g51
NtRp416
(dp417
g54
(dp418
sg63
g286
sg56
(lp419
g49
(g70
g51
NtRp420
(dp421
g54
(dp422
g74
g75
ssg63
g416
sg56
(lp423
S'version'
p424
asbag49
(g70
g51
NtRp425
(dp426
g54
(dp427
g81
g82
ssg63
g416
sg56
(lp428
S':'
asbag49
(g70
g51
NtRp429
(dp430
g54
(dp431
sg63
g416
sg56
(lp432
g49
(g50
g51
NtRp433
(dp434
g54
(dp435
g62
I3
ssg63
g429
sg56
(lp436
S''
asbasbasbasbasbasbasbag49
(g65
g51
NtRp437
(dp438
g54
(dp439
sg63
g260
sg56
(lp440
g49
(g70
g51
NtRp441
(dp442
g54
(dp443
g74
g75
ssg63
g437
sg56
(lp444
S'session_id_final_impulse'
p445
asbag49
(g70
g51
NtRp446
(dp447
g54
(dp448
g81
g82
ssg63
g437
sg56
(lp449
S':'
asbag49
(g70
g51
NtRp450
(dp451
g54
(dp452
sg63
g437
sg56
(lp453
g49
(g50
g51
NtRp454
(dp455
g54
(dp456
g62
I4
ssg63
g450
sg56
(lp457
S'127.0.0.1-5aceb5e9-2875-4462-b8f1-a71729f93584'
p458
ag49
(g58
g51
NtRp459
(dp460
g54
(dp461
g62
I3
ssg63
Nsg56
(lp462
g49
(g65
g51
NtRp463
(dp464
g54
(dp465
sg63
g459
sg56
(lp466
g49
(g70
g51
NtRp467
(dp468
g54
(dp469
g74
g75
ssg63
g463
sg56
(lp470
g298
asbag49
(g70
g51
NtRp471
(dp472
g54
(dp473
g81
g82
ssg63
g463
sg56
(lp474
S':'
asbag49
(g70
g51
NtRp475
(dp476
g54
(dp477
sg63
g463
sg56
(lp478
g49
(g50
g51
NtRp479
(dp480
g54
(dp481
g62
I3
ssg63
g475
sg56
(lp482
S''
asbasbasbag49
(g65
g51
NtRp483
(dp484
g54
(dp485
sg63
g459
sg56
(lp486
g49
(g70
g51
NtRp487
(dp488
g54
(dp489
g74
g75
ssg63
g483
sg56
(lp490
g319
asbag49
(g70
g51
NtRp491
(dp492
g54
(dp493
g81
g82
ssg63
g483
sg56
(lp494
S':'
asbag49
(g70
g51
NtRp495
(dp496
g54
(dp497
sg63
g483
sg56
(lp498
g49
(g50
g51
NtRp499
(dp500
g54
(dp501
g62
I3
ssg63
g495
sg56
(lp502
S''
asbasbasbag49
(g65
g51
NtRp503
(dp504
g54
(dp505
sg63
g459
sg56
(lp506
g49
(g70
g51
NtRp507
(dp508
g54
(dp509
g74
g75
ssg63
g503
sg56
(lp510
g340
asbag49
(g70
g51
NtRp511
(dp512
g54
(dp513
g81
g82
ssg63
g503
sg56
(lp514
S':'
asbag49
(g70
g51
NtRp515
(dp516
g54
(dp517
sg63
g503
sg56
(lp518
g49
(g50
g51
NtRp519
(dp520
g54
(dp521
g62
I3
ssg63
g515
sg56
(lp522
S''
asbasbasbag49
(g65
g51
NtRp523
(dp524
g54
(dp525
sg63
g459
sg56
(lp526
g49
(g70
g51
NtRp527
(dp528
g54
(dp529
g74
g75
ssg63
g523
sg56
(lp530
g361
asbag49
(g70
g51
NtRp531
(dp532
g54
(dp533
g81
g82
ssg63
g523
sg56
(lp534
S':'
asbag49
(g70
g51
NtRp535
(dp536
g54
(dp537
sg63
g523
sg56
(lp538
g49
(g50
g51
NtRp539
(dp540
g54
(dp541
g62
I3
ssg63
g535
sg56
(lp542
S''
asbasbasbag49
(g65
g51
NtRp543
(dp544
g54
(dp545
sg63
g459
sg56
(lp546
g49
(g70
g51
NtRp547
(dp548
g54
(dp549
g74
g75
ssg63
g543
sg56
(lp550
g382
asbag49
(g70
g51
NtRp551
(dp552
g54
(dp553
g81
g82
ssg63
g543
sg56
(lp554
S':'
asbag49
(g70
g51
NtRp555
(dp556
g54
(dp557
sg63
g543
sg56
(lp558
g49
(g50
g51
NtRp559
(dp560
g54
(dp561
g62
I3
ssg63
g555
sg56
(lp562
S''
asbasbasbag49
(g65
g51
NtRp563
(dp564
g54
(dp565
sg63
g459
sg56
(lp566
g49
(g70
g51
NtRp567
(dp568
g54
(dp569
g74
g75
ssg63
g563
sg56
(lp570
g403
asbag49
(g70
g51
NtRp571
(dp572
g54
(dp573
g81
g82
ssg63
g563
sg56
(lp574
S':'
asbag49
(g70
g51
NtRp575
(dp576
g54
(dp577
sg63
g563
sg56
(lp578
g49
(g50
g51
NtRp579
(dp580
g54
(dp581
g62
I3
ssg63
g575
sg56
(lp582
S''
asbasbasbag49
(g65
g51
NtRp583
(dp584
g54
(dp585
sg63
g459
sg56
(lp586
g49
(g70
g51
NtRp587
(dp588
g54
(dp589
g74
g75
ssg63
g583
sg56
(lp590
g424
asbag49
(g70
g51
NtRp591
(dp592
g54
(dp593
g81
g82
ssg63
g583
sg56
(lp594
S':'
asbag49
(g70
g51
NtRp595
(dp596
g54
(dp597
sg63
g583
sg56
(lp598
g49
(g50
g51
NtRp599
(dp600
g54
(dp601
g62
I3
ssg63
g595
sg56
(lp602
S''
asbasbasbasbasbasbasbag49
(g65
g51
NtRp603
(dp604
g54
(dp605
sg63
g260
sg56
(lp606
g49
(g70
g51
NtRp607
(dp608
g54
(dp609
g74
g75
ssg63
g603
sg56
(lp610
S'session_id_welcome'
p611
asbag49
(g70
g51
NtRp612
(dp613
g54
(dp614
g81
g82
ssg63
g603
sg56
(lp615
S':'
asbag49
(g70
g51
NtRp616
(dp617
g54
(dp618
sg63
g603
sg56
(lp619
g49
(g50
g51
NtRp620
(dp621
g54
(dp622
g62
I4
ssg63
g616
sg56
(lp623
S'127.0.0.1-6e944f2f-f11b-449c-9585-9def07ed3c13'
p624
ag49
(g58
g51
NtRp625
(dp626
g54
(dp627
g62
I3
ssg63
Nsg56
(lp628
g49
(g65
g51
NtRp629
(dp630
g54
(dp631
sg63
g625
sg56
(lp632
g49
(g70
g51
NtRp633
(dp634
g54
(dp635
g74
g75
ssg63
g629
sg56
(lp636
g298
asbag49
(g70
g51
NtRp637
(dp638
g54
(dp639
g81
g82
ssg63
g629
sg56
(lp640
S':'
asbag49
(g70
g51
NtRp641
(dp642
g54
(dp643
sg63
g629
sg56
(lp644
g49
(g50
g51
NtRp645
(dp646
g54
(dp647
g62
I3
ssg63
g641
sg56
(lp648
S''
asbasbasbag49
(g65
g51
NtRp649
(dp650
g54
(dp651
sg63
g625
sg56
(lp652
g49
(g70
g51
NtRp653
(dp654
g54
(dp655
g74
g75
ssg63
g649
sg56
(lp656
g319
asbag49
(g70
g51
NtRp657
(dp658
g54
(dp659
g81
g82
ssg63
g649
sg56
(lp660
S':'
asbag49
(g70
g51
NtRp661
(dp662
g54
(dp663
sg63
g649
sg56
(lp664
g49
(g50
g51
NtRp665
(dp666
g54
(dp667
g62
I3
ssg63
g661
sg56
(lp668
S''
asbasbasbag49
(g65
g51
NtRp669
(dp670
g54
(dp671
sg63
g625
sg56
(lp672
g49
(g70
g51
NtRp673
(dp674
g54
(dp675
g74
g75
ssg63
g669
sg56
(lp676
g340
asbag49
(g70
g51
NtRp677
(dp678
g54
(dp679
g81
g82
ssg63
g669
sg56
(lp680
S':'
asbag49
(g70
g51
NtRp681
(dp682
g54
(dp683
sg63
g669
sg56
(lp684
g49
(g50
g51
NtRp685
(dp686
g54
(dp687
g62
I3
ssg63
g681
sg56
(lp688
S''
asbasbasbag49
(g65
g51
NtRp689
(dp690
g54
(dp691
sg63
g625
sg56
(lp692
g49
(g70
g51
NtRp693
(dp694
g54
(dp695
g74
g75
ssg63
g689
sg56
(lp696
g361
asbag49
(g70
g51
NtRp697
(dp698
g54
(dp699
g81
g82
ssg63
g689
sg56
(lp700
S':'
asbag49
(g70
g51
NtRp701
(dp702
g54
(dp703
sg63
g689
sg56
(lp704
g49
(g50
g51
NtRp705
(dp706
g54
(dp707
g62
I3
ssg63
g701
sg56
(lp708
S''
asbasbasbag49
(g65
g51
NtRp709
(dp710
g54
(dp711
sg63
g625
sg56
(lp712
g49
(g70
g51
NtRp713
(dp714
g54
(dp715
g74
g75
ssg63
g709
sg56
(lp716
g382
asbag49
(g70
g51
NtRp717
(dp718
g54
(dp719
g81
g82
ssg63
g709
sg56
(lp720
S':'
asbag49
(g70
g51
NtRp721
(dp722
g54
(dp723
sg63
g709
sg56
(lp724
g49
(g50
g51
NtRp725
(dp726
g54
(dp727
g62
I3
ssg63
g721
sg56
(lp728
S''
asbasbasbag49
(g65
g51
NtRp729
(dp730
g54
(dp731
sg63
g625
sg56
(lp732
g49
(g70
g51
NtRp733
(dp734
g54
(dp735
g74
g75
ssg63
g729
sg56
(lp736
g403
asbag49
(g70
g51
NtRp737
(dp738
g54
(dp739
g81
g82
ssg63
g729
sg56
(lp740
S':'
asbag49
(g70
g51
NtRp741
(dp742
g54
(dp743
sg63
g729
sg56
(lp744
g49
(g50
g51
NtRp745
(dp746
g54
(dp747
g62
I3
ssg63
g741
sg56
(lp748
S''
asbasbasbag49
(g65
g51
NtRp749
(dp750
g54
(dp751
sg63
g625
sg56
(lp752
g49
(g70
g51
NtRp753
(dp754
g54
(dp755
g74
g75
ssg63
g749
sg56
(lp756
g424
asbag49
(g70
g51
NtRp757
(dp758
g54
(dp759
g81
g82
ssg63
g749
sg56
(lp760
S':'
asbag49
(g70
g51
NtRp761
(dp762
g54
(dp763
sg63
g749
sg56
(lp764
g49
(g50
g51
NtRp765
(dp766
g54
(dp767
g62
I3
ssg63
g761
sg56
(lp768
S''
asbasbasbasbasbasbasbasbasbasbasbag49
(g65
g51
NtRp769
(dp770
g54
(dp771
sg63
g59
sg56
(lp772
g49
(g70
g51
NtRp773
(dp774
g54
(dp775
g74
g75
ssg63
g769
sg56
(lp776
S'env'
p777
asbag49
(g70
g51
NtRp778
(dp779
g54
(dp780
g81
g82
ssg63
g769
sg56
(lp781
S':'
asbag49
(g70
g51
NtRp782
(dp783
g54
(dp784
sg63
g769
sg56
(lp785
g49
(g50
g51
NtRp786
(dp787
g54
(dp788
g62
I5
ssg63
g782
sg56
(lp789
g49
(g58
g51
NtRp790
(dp791
g54
(dp792
g62
I4
ssg63
Nsg56
(lp793
g49
(g65
g51
NtRp794
(dp795
g54
(dp796
sg63
g790
sg56
(lp797
g49
(g70
g51
NtRp798
(dp799
g54
(dp800
g74
g75
ssg63
g794
sg56
(lp801
S'app_folders'
p802
asbag49
(g70
g51
NtRp803
(dp804
g54
(dp805
g81
g82
ssg63
g794
sg56
(lp806
S':'
asbag49
(g70
g51
NtRp807
(dp808
g54
(dp809
sg63
g794
sg56
(lp810
g49
(g50
g51
NtRp811
(dp812
g54
(dp813
g62
I4
ssg63
g807
sg56
(lp814
S"set(['/Users/abaric/Downloads/web2py/web2py.app/Contents/Resources/applications/Final_Impulse/', '/Users/abaric/Downloads/web2py/web2py.app/Contents/Resources/applications/welcome/', '/Users/abaric/Downloads/web2py/web2py.app/Contents/Resources/applications/admin/'])"
p815
asbasbasbag49
(g65
g51
NtRp816
(dp817
g54
(dp818
sg63
g790
sg56
(lp819
g49
(g70
g51
NtRp820
(dp821
g54
(dp822
g74
g75
ssg63
g816
sg56
(lp823
S'applications_parent'
p824
asbag49
(g70
g51
NtRp825
(dp826
g54
(dp827
g81
g82
ssg63
g816
sg56
(lp828
S':'
asbag49
(g70
g51
NtRp829
(dp830
g54
(dp831
sg63
g816
sg56
(lp832
g49
(g50
g51
NtRp833
(dp834
g54
(dp835
g62
I4
ssg63
g829
sg56
(lp836
S'/Users/abaric/Downloads/web2py/web2py.app/Contents/Resources'
p837
asbasbasbag49
(g65
g51
NtRp838
(dp839
g54
(dp840
sg63
g790
sg56
(lp841
g49
(g70
g51
NtRp842
(dp843
g54
(dp844
g74
g75
ssg63
g838
sg56
(lp845
S'cmd_args'
p846
asbag49
(g70
g51
NtRp847
(dp848
g54
(dp849
g81
g82
ssg63
g838
sg56
(lp850
S':'
asbag49
(g70
g51
NtRp851
(dp852
g54
(dp853
sg63
g838
sg56
(lp854
g49
(g50
g51
NtRp855
(dp856
g54
(dp857
g62
I4
ssg63
g851
sg56
(lp858
g49
(g58
g51
NtRp859
(dp860
g54
(dp861
g62
I3
ssg63
Nsg56
(lp862
sbasbasbasbag49
(g65
g51
NtRp863
(dp864
g54
(dp865
sg63
g790
sg56
(lp866
g49
(g70
g51
NtRp867
(dp868
g54
(dp869
g74
g75
ssg63
g863
sg56
(lp870
S'cmd_options'
p871
asbag49
(g70
g51
NtRp872
(dp873
g54
(dp874
g81
g82
ssg63
g863
sg56
(lp875
S':'
asbag49
(g70
g51
NtRp876
(dp877
g54
(dp878
sg63
g863
sg56
(lp879
g49
(g50
g51
NtRp880
(dp881
g54
(dp882
g62
I4
ssg63
g876
sg56
(lp883
S"<Values at 0x442e1c0: {'verbose': False, 'ip': '127.0.0.1', 'with_scheduler': False, 'ips': ['10.1.10.113'], 'shutdown_timeout': 5, 'taskbar': False, 'port': 8000, 'maxthreads': None, 'softcron': False, 'server_name': 'Andrea-Barics-MacBook-Pro.local', 'bpython': False, 'nogui': False, 'pid_filename': 'httpserver.pid', 'extcron': False, 'runcron': False, 'run_system_tests': False, 'test': None, 'folder': '/Users/abaric/Downloads/web2py/web2py.app/Contents/Resources', 'config': '', 'import_models': False, 'winservice': '', 'shell': None, 'run': '', 'log_filename': 'httpserver.log', 'debuglevel': 30, 'args': [''], 'socket_timeout': 5, 'ssl_ca_certificate': None, 'scheduler': None, 'profiler_filename': None, 'ssl_private_key': '', 'scheduler_groups': None, 'password': '<ask>', 'request_queue_size': 5, 'ssl_certificate': '', 'cronjob': False, 'numthreads': None, 'quiet': False, 'interfaces': None, 'minthreads': None, 'timeout': 10, 'plain': False, 'nobanner': False}>"
p884
asbasbasbag49
(g65
g51
NtRp885
(dp886
g54
(dp887
sg63
g790
sg56
(lp888
g49
(g70
g51
NtRp889
(dp890
g54
(dp891
g74
g75
ssg63
g885
sg56
(lp892
S'content_length'
p893
asbag49
(g70
g51
NtRp894
(dp895
g54
(dp896
g81
g82
ssg63
g885
sg56
(lp897
S':'
asbag49
(g70
g51
NtRp898
(dp899
g54
(dp900
sg63
g885
sg56
(lp901
g49
(g50
g51
NtRp902
(dp903
g54
(dp904
g62
I4
ssg63
g898
sg56
(lp905
S'259'
p906
asbasbasbag49
(g65
g51
NtRp907
(dp908
g54
(dp909
sg63
g790
sg56
(lp910
g49
(g70
g51
NtRp911
(dp912
g54
(dp913
g74
g75
ssg63
g907
sg56
(lp914
S'content_type'
p915
asbag49
(g70
g51
NtRp916
(dp917
g54
(dp918
g81
g82
ssg63
g907
sg56
(lp919
S':'
asbag49
(g70
g51
NtRp920
(dp921
g54
(dp922
sg63
g907
sg56
(lp923
g49
(g50
g51
NtRp924
(dp925
g54
(dp926
g62
I4
ssg63
g920
sg56
(lp927
S'multipart/form-data; boundary=----WebKitFormBoundaryp4ELvi9p8qT3WzLo'
p928
asbasbasbag49
(g65
g51
NtRp929
(dp930
g54
(dp931
sg63
g790
sg56
(lp932
g49
(g70
g51
NtRp933
(dp934
g54
(dp935
g74
g75
ssg63
g929
sg56
(lp936
S'db_sessions'
p937
asbag49
(g70
g51
NtRp938
(dp939
g54
(dp940
g81
g82
ssg63
g929
sg56
(lp941
S':'
asbag49
(g70
g51
NtRp942
(dp943
g54
(dp944
sg63
g929
sg56
(lp945
g49
(g50
g51
NtRp946
(dp947
g54
(dp948
g62
I4
ssg63
g942
sg56
(lp949
S'set([])'
p950
asbasbasbag49
(g65
g51
NtRp951
(dp952
g54
(dp953
sg63
g790
sg56
(lp954
g49
(g70
g51
NtRp955
(dp956
g54
(dp957
g74
g75
ssg63
g951
sg56
(lp958
S'debugging'
p959
asbag49
(g70
g51
NtRp960
(dp961
g54
(dp962
g81
g82
ssg63
g951
sg56
(lp963
S':'
asbag49
(g70
g51
NtRp964
(dp965
g54
(dp966
sg63
g951
sg56
(lp967
g49
(g50
g51
NtRp968
(dp969
g54
(dp970
g62
I4
ssg63
g964
sg56
(lp971
g92
asbasbasbag49
(g65
g51
NtRp972
(dp973
g54
(dp974
sg63
g790
sg56
(lp975
g49
(g70
g51
NtRp976
(dp977
g54
(dp978
g74
g75
ssg63
g972
sg56
(lp979
S'gluon_parent'
p980
asbag49
(g70
g51
NtRp981
(dp982
g54
(dp983
g81
g82
ssg63
g972
sg56
(lp984
S':'
asbag49
(g70
g51
NtRp985
(dp986
g54
(dp987
sg63
g972
sg56
(lp988
g49
(g50
g51
NtRp989
(dp990
g54
(dp991
g62
I4
ssg63
g985
sg56
(lp992
S'/Users/abaric/Downloads/web2py/web2py.app/Contents/Resources'
p993
asbasbasbag49
(g65
g51
NtRp994
(dp995
g54
(dp996
sg63
g790
sg56
(lp997
g49
(g70
g51
NtRp998
(dp999
g54
(dp1000
g74
g75
ssg63
g994
sg56
(lp1001
S'http_accept'
p1002
asbag49
(g70
g51
NtRp1003
(dp1004
g54
(dp1005
g81
g82
ssg63
g994
sg56
(lp1006
S':'
asbag49
(g70
g51
NtRp1007
(dp1008
g54
(dp1009
sg63
g994
sg56
(lp1010
g49
(g50
g51
NtRp1011
(dp1012
g54
(dp1013
g62
I4
ssg63
g1007
sg56
(lp1014
S'text/html,application/xhtml+xml,application/xml;q=0.9,*/*;q=0.8'
p1015
asbasbasbag49
(g65
g51
NtRp1016
(dp1017
g54
(dp1018
sg63
g790
sg56
(lp1019
g49
(g70
g51
NtRp1020
(dp1021
g54
(dp1022
g74
g75
ssg63
g1016
sg56
(lp1023
S'http_accept_encoding'
p1024
asbag49
(g70
g51
NtRp1025
(dp1026
g54
(dp1027
g81
g82
ssg63
g1016
sg56
(lp1028
S':'
asbag49
(g70
g51
NtRp1029
(dp1030
g54
(dp1031
sg63
g1016
sg56
(lp1032
g49
(g50
g51
NtRp1033
(dp1034
g54
(dp1035
g62
I4
ssg63
g1029
sg56
(lp1036
S'gzip, deflate'
p1037
asbasbasbag49
(g65
g51
NtRp1038
(dp1039
g54
(dp1040
sg63
g790
sg56
(lp1041
g49
(g70
g51
NtRp1042
(dp1043
g54
(dp1044
g74
g75
ssg63
g1038
sg56
(lp1045
S'http_accept_language'
p1046
asbag49
(g70
g51
NtRp1047
(dp1048
g54
(dp1049
g81
g82
ssg63
g1038
sg56
(lp1050
S':'
asbag49
(g70
g51
NtRp1051
(dp1052
g54
(dp1053
sg63
g1038
sg56
(lp1054
g49
(g50
g51
NtRp1055
(dp1056
g54
(dp1057
g62
I4
ssg63
g1051
sg56
(lp1058
S'en-us'
p1059
asbasbasbag49
(g65
g51
NtRp1060
(dp1061
g54
(dp1062
sg63
g790
sg56
(lp1063
g49
(g70
g51
NtRp1064
(dp1065
g54
(dp1066
g74
g75
ssg63
g1060
sg56
(lp1067
S'http_connection'
p1068
asbag49
(g70
g51
NtRp1069
(dp1070
g54
(dp1071
g81
g82
ssg63
g1060
sg56
(lp1072
S':'
asbag49
(g70
g51
NtRp1073
(dp1074
g54
(dp1075
sg63
g1060
sg56
(lp1076
g49
(g50
g51
NtRp1077
(dp1078
g54
(dp1079
g62
I4
ssg63
g1073
sg56
(lp1080
S'keep-alive'
p1081
asbasbasbag49
(g65
g51
NtRp1082
(dp1083
g54
(dp1084
sg63
g790
sg56
(lp1085
g49
(g70
g51
NtRp1086
(dp1087
g54
(dp1088
g74
g75
ssg63
g1082
sg56
(lp1089
S'http_content_length'
p1090
asbag49
(g70
g51
NtRp1091
(dp1092
g54
(dp1093
g81
g82
ssg63
g1082
sg56
(lp1094
S':'
asbag49
(g70
g51
NtRp1095
(dp1096
g54
(dp1097
sg63
g1082
sg56
(lp1098
g49
(g50
g51
NtRp1099
(dp1100
g54
(dp1101
g62
I4
ssg63
g1095
sg56
(lp1102
g906
asbasbasbag49
(g65
g51
NtRp1103
(dp1104
g54
(dp1105
sg63
g790
sg56
(lp1106
g49
(g70
g51
NtRp1107
(dp1108
g54
(dp1109
g74
g75
ssg63
g1103
sg56
(lp1110
S'http_content_type'
p1111
asbag49
(g70
g51
NtRp1112
(dp1113
g54
(dp1114
g81
g82
ssg63
g1103
sg56
(lp1115
S':'
asbag49
(g70
g51
NtRp1116
(dp1117
g54
(dp1118
sg63
g1103
sg56
(lp1119
g49
(g50
g51
NtRp1120
(dp1121
g54
(dp1122
g62
I4
ssg63
g1116
sg56
(lp1123
g928
asbasbasbag49
(g65
g51
NtRp1124
(dp1125
g54
(dp1126
sg63
g790
sg56
(lp1127
g49
(g70
g51
NtRp1128
(dp1129
g54
(dp1130
g74
g75
ssg63
g1124
sg56
(lp1131
S'http_cookie'
p1132
asbag49
(g70
g51
NtRp1133
(dp1134
g54
(dp1135
g81
g82
ssg63
g1124
sg56
(lp1136
S':'
asbag49
(g70
g51
NtRp1137
(dp1138
g54
(dp1139
sg63
g1124
sg56
(lp1140
g49
(g50
g51
NtRp1141
(dp1142
g54
(dp1143
g62
I4
ssg63
g1137
sg56
(lp1144
S'session_id_final_impulse=127.0.0.1-5aceb5e9-2875-4462-b8f1-a71729f93584; session_id_admin=127.0.0.1-e2ac865f-62ef-4ea6-b78a-22dbce601125; session_id_welcome=127.0.0.1-6e944f2f-f11b-449c-9585-9def07ed3c13'
p1145
asbasbasbag49
(g65
g51
NtRp1146
(dp1147
g54
(dp1148
sg63
g790
sg56
(lp1149
g49
(g70
g51
NtRp1150
(dp1151
g54
(dp1152
g74
g75
ssg63
g1146
sg56
(lp1153
S'http_host'
p1154
asbag49
(g70
g51
NtRp1155
(dp1156
g54
(dp1157
g81
g82
ssg63
g1146
sg56
(lp1158
S':'
asbag49
(g70
g51
NtRp1159
(dp1160
g54
(dp1161
sg63
g1146
sg56
(lp1162
g49
(g50
g51
NtRp1163
(dp1164
g54
(dp1165
g62
I4
ssg63
g1159
sg56
(lp1166
S'127.0.0.1:8000'
p1167
asbasbasbag49
(g65
g51
NtRp1168
(dp1169
g54
(dp1170
sg63
g790
sg56
(lp1171
g49
(g70
g51
NtRp1172
(dp1173
g54
(dp1174
g74
g75
ssg63
g1168
sg56
(lp1175
S'http_origin'
p1176
asbag49
(g70
g51
NtRp1177
(dp1178
g54
(dp1179
g81
g82
ssg63
g1168
sg56
(lp1180
S':'
asbag49
(g70
g51
NtRp1181
(dp1182
g54
(dp1183
sg63
g1168
sg56
(lp1184
g49
(g50
g51
NtRp1185
(dp1186
g54
(dp1187
g62
I4
ssg63
g1181
sg56
(lp1188
S'http://127.0.0.1:8000'
p1189
asbasbasbag49
(g65
g51
NtRp1190
(dp1191
g54
(dp1192
sg63
g790
sg56
(lp1193
g49
(g70
g51
NtRp1194
(dp1195
g54
(dp1196
g74
g75
ssg63
g1190
sg56
(lp1197
S'http_referer'
p1198
asbag49
(g70
g51
NtRp1199
(dp1200
g54
(dp1201
g81
g82
ssg63
g1190
sg56
(lp1202
S':'
asbag49
(g70
g51
NtRp1203
(dp1204
g54
(dp1205
sg63
g1190
sg56
(lp1206
g49
(g50
g51
NtRp1207
(dp1208
g54
(dp1209
g62
I4
ssg63
g1203
sg56
(lp1210
S'http://127.0.0.1:8000/Final_Impulse/default/show_writing_comments'
p1211
asbasbasbag49
(g65
g51
NtRp1212
(dp1213
g54
(dp1214
sg63
g790
sg56
(lp1215
g49
(g70
g51
NtRp1216
(dp1217
g54
(dp1218
g74
g75
ssg63
g1212
sg56
(lp1219
S'http_user_agent'
p1220
asbag49
(g70
g51
NtRp1221
(dp1222
g54
(dp1223
g81
g82
ssg63
g1212
sg56
(lp1224
S':'
asbag49
(g70
g51
NtRp1225
(dp1226
g54
(dp1227
sg63
g1212
sg56
(lp1228
g49
(g50
g51
NtRp1229
(dp1230
g54
(dp1231
g62
I4
ssg63
g1225
sg56
(lp1232
S'Mozilla/5.0 (Macintosh; Intel Mac OS X 10_8_4) AppleWebKit/536.30.1 (KHTML, like Gecko) Version/6.0.5 Safari/536.30.1'
p1233
asbasbasbag49
(g65
g51
NtRp1234
(dp1235
g54
(dp1236
sg63
g790
sg56
(lp1237
g49
(g70
g51
NtRp1238
(dp1239
g54
(dp1240
g74
g75
ssg63
g1234
sg56
(lp1241
S'is_jython'
p1242
asbag49
(g70
g51
NtRp1243
(dp1244
g54
(dp1245
g81
g82
ssg63
g1234
sg56
(lp1246
S':'
asbag49
(g70
g51
NtRp1247
(dp1248
g54
(dp1249
sg63
g1234
sg56
(lp1250
g49
(g50
g51
NtRp1251
(dp1252
g54
(dp1253
g62
I4
ssg63
g1247
sg56
(lp1254
g92
asbasbasbag49
(g65
g51
NtRp1255
(dp1256
g54
(dp1257
sg63
g790
sg56
(lp1258
g49
(g70
g51
NtRp1259
(dp1260
g54
(dp1261
g74
g75
ssg63
g1255
sg56
(lp1262
S'is_pypy'
p1263
asbag49
(g70
g51
NtRp1264
(dp1265
g54
(dp1266
g81
g82
ssg63
g1255
sg56
(lp1267
S':'
asbag49
(g70
g51
NtRp1268
(dp1269
g54
(dp1270
sg63
g1255
sg56
(lp1271
g49
(g50
g51
NtRp1272
(dp1273
g54
(dp1274
g62
I4
ssg63
g1268
sg56
(lp1275
g92
asbasbasbag49
(g65
g51
NtRp1276
(dp1277
g54
(dp1278
sg63
g790
sg56
(lp1279
g49
(g70
g51
NtRp1280
(dp1281
g54
(dp1282
g74
g75
ssg63
g1276
sg56
(lp1283
S'local_hosts'
p1284
asbag49
(g70
g51
NtRp1285
(dp1286
g54
(dp1287
g81
g82
ssg63
g1276
sg56
(lp1288
S':'
asbag49
(g70
g51
NtRp1289
(dp1290
g54
(dp1291
sg63
g1276
sg56
(lp1292
g49
(g50
g51
NtRp1293
(dp1294
g54
(dp1295
g62
I4
ssg63
g1289
sg56
(lp1296
g49
(g58
g51
NtRp1297
(dp1298
g54
(dp1299
g62
I3
ssg63
Nsg56
(lp1300
g49
(g65
g51
NtRp1301
(dp1302
g54
(dp1303
sg63
g1297
sg56
(lp1304
g49
(g70
g51
NtRp1305
(dp1306
g54
(dp1307
sg63
g1301
sg56
(lp1308
g49
(g50
g51
NtRp1309
(dp1310
g54
(dp1311
g62
I3
ssg63
g1305
sg56
(lp1312
S'127.0.0.1'
p1313
asbasbasbag49
(g65
g51
NtRp1314
(dp1315
g54
(dp1316
sg63
g1297
sg56
(lp1317
g49
(g70
g51
NtRp1318
(dp1319
g54
(dp1320
sg63
g1314
sg56
(lp1321
g49
(g50
g51
NtRp1322
(dp1323
g54
(dp1324
g62
I3
ssg63
g1318
sg56
(lp1325
S'::ffff:127.0.0.1'
p1326
asbasbasbag49
(g65
g51
NtRp1327
(dp1328
g54
(dp1329
sg63
g1297
sg56
(lp1330
g49
(g70
g51
NtRp1331
(dp1332
g54
(dp1333
sg63
g1327
sg56
(lp1334
g49
(g50
g51
NtRp1335
(dp1336
g54
(dp1337
g62
I3
ssg63
g1331
sg56
(lp1338
S'Andrea-Barics-MacBook-Pro.local'
p1339
asbasbasbag49
(g65
g51
NtRp1340
(dp1341
g54
(dp1342
sg63
g1297
sg56
(lp1343
g49
(g70
g51
NtRp1344
(dp1345
g54
(dp1346
sg63
g1340
sg56
(lp1347
g49
(g50
g51
NtRp1348
(dp1349
g54
(dp1350
g62
I3
ssg63
g1344
sg56
(lp1351
S'Andrea-Barics-MacBook-Pro.local'
p1352
asbasbasbag49
(g65
g51
NtRp1353
(dp1354
g54
(dp1355
sg63
g1297
sg56
(lp1356
g49
(g70
g51
NtRp1357
(dp1358
g54
(dp1359
sg63
g1353
sg56
(lp1360
g49
(g50
g51
NtRp1361
(dp1362
g54
(dp1363
g62
I3
ssg63
g1357
sg56
(lp1364
S'10.1.10.113'
p1365
asbasbasbasbasbasbasbag49
(g65
g51
NtRp1366
(dp1367
g54
(dp1368
sg63
g790
sg56
(lp1369
g49
(g70
g51
NtRp1370
(dp1371
g54
(dp1372
g74
g75
ssg63
g1366
sg56
(lp1373
S'path_info'
p1374
asbag49
(g70
g51
NtRp1375
(dp1376
g54
(dp1377
g81
g82
ssg63
g1366
sg56
(lp1378
S':'
asbag49
(g70
g51
NtRp1379
(dp1380
g54
(dp1381
sg63
g1366
sg56
(lp1382
g49
(g50
g51
NtRp1383
(dp1384
g54
(dp1385
g62
I4
ssg63
g1379
sg56
(lp1386
S'/Final_Impulse/default/insert_writing_comment/1'
p1387
asbasbasbag49
(g65
g51
NtRp1388
(dp1389
g54
(dp1390
sg63
g790
sg56
(lp1391
g49
(g70
g51
NtRp1392
(dp1393
g54
(dp1394
g74
g75
ssg63
g1388
sg56
(lp1395
S'query_string'
p1396
asbag49
(g70
g51
NtRp1397
(dp1398
g54
(dp1399
g81
g82
ssg63
g1388
sg56
(lp1400
S':'
asbag49
(g70
g51
NtRp1401
(dp1402
g54
(dp1403
sg63
g1388
sg56
(lp1404
g49
(g50
g51
NtRp1405
(dp1406
g54
(dp1407
g62
I4
ssg63
g1401
sg56
(lp1408
S''
asbasbasbag49
(g65
g51
NtRp1409
(dp1410
g54
(dp1411
sg63
g790
sg56
(lp1412
g49
(g70
g51
NtRp1413
(dp1414
g54
(dp1415
g74
g75
ssg63
g1409
sg56
(lp1416
S'remote_addr'
p1417
asbag49
(g70
g51
NtRp1418
(dp1419
g54
(dp1420
g81
g82
ssg63
g1409
sg56
(lp1421
S':'
asbag49
(g70
g51
NtRp1422
(dp1423
g54
(dp1424
sg63
g1409
sg56
(lp1425
g49
(g50
g51
NtRp1426
(dp1427
g54
(dp1428
g62
I4
ssg63
g1422
sg56
(lp1429
g216
asbasbasbag49
(g65
g51
NtRp1430
(dp1431
g54
(dp1432
sg63
g790
sg56
(lp1433
g49
(g70
g51
NtRp1434
(dp1435
g54
(dp1436
g74
g75
ssg63
g1430
sg56
(lp1437
S'remote_port'
p1438
asbag49
(g70
g51
NtRp1439
(dp1440
g54
(dp1441
g81
g82
ssg63
g1430
sg56
(lp1442
S':'
asbag49
(g70
g51
NtRp1443
(dp1444
g54
(dp1445
sg63
g1430
sg56
(lp1446
g49
(g50
g51
NtRp1447
(dp1448
g54
(dp1449
g62
I4
ssg63
g1443
sg56
(lp1450
S'52653'
p1451
asbasbasbag49
(g65
g51
NtRp1452
(dp1453
g54
(dp1454
sg63
g790
sg56
(lp1455
g49
(g70
g51
NtRp1456
(dp1457
g54
(dp1458
g74
g75
ssg63
g1452
sg56
(lp1459
S'request_method'
p1460
asbag49
(g70
g51
NtRp1461
(dp1462
g54
(dp1463
g81
g82
ssg63
g1452
sg56
(lp1464
S':'
asbag49
(g70
g51
NtRp1465
(dp1466
g54
(dp1467
sg63
g1452
sg56
(lp1468
g49
(g50
g51
NtRp1469
(dp1470
g54
(dp1471
g62
I4
ssg63
g1465
sg56
(lp1472
S'POST'
p1473
asbasbasbag49
(g65
g51
NtRp1474
(dp1475
g54
(dp1476
sg63
g790
sg56
(lp1477
g49
(g70
g51
NtRp1478
(dp1479
g54
(dp1480
g74
g75
ssg63
g1474
sg56
(lp1481
S'request_uri'
p1482
asbag49
(g70
g51
NtRp1483
(dp1484
g54
(dp1485
g81
g82
ssg63
g1474
sg56
(lp1486
S':'
asbag49
(g70
g51
NtRp1487
(dp1488
g54
(dp1489
sg63
g1474
sg56
(lp1490
g49
(g50
g51
NtRp1491
(dp1492
g54
(dp1493
g62
I4
ssg63
g1487
sg56
(lp1494
g1387
asbasbasbag49
(g65
g51
NtRp1495
(dp1496
g54
(dp1497
sg63
g790
sg56
(lp1498
g49
(g70
g51
NtRp1499
(dp1500
g54
(dp1501
g74
g75
ssg63
g1495
sg56
(lp1502
S'script_name'
p1503
asbag49
(g70
g51
NtRp1504
(dp1505
g54
(dp1506
g81
g82
ssg63
g1495
sg56
(lp1507
S':'
asbag49
(g70
g51
NtRp1508
(dp1509
g54
(dp1510
sg63
g1495
sg56
(lp1511
g49
(g50
g51
NtRp1512
(dp1513
g54
(dp1514
g62
I4
ssg63
g1508
sg56
(lp1515
S''
asbasbasbag49
(g65
g51
NtRp1516
(dp1517
g54
(dp1518
sg63
g790
sg56
(lp1519
g49
(g70
g51
NtRp1520
(dp1521
g54
(dp1522
g74
g75
ssg63
g1516
sg56
(lp1523
S'server_name'
p1524
asbag49
(g70
g51
NtRp1525
(dp1526
g54
(dp1527
g81
g82
ssg63
g1516
sg56
(lp1528
S':'
asbag49
(g70
g51
NtRp1529
(dp1530
g54
(dp1531
sg63
g1516
sg56
(lp1532
g49
(g50
g51
NtRp1533
(dp1534
g54
(dp1535
g62
I4
ssg63
g1529
sg56
(lp1536
g1352
asbasbasbag49
(g65
g51
NtRp1537
(dp1538
g54
(dp1539
sg63
g790
sg56
(lp1540
g49
(g70
g51
NtRp1541
(dp1542
g54
(dp1543
g74
g75
ssg63
g1537
sg56
(lp1544
S'server_port'
p1545
asbag49
(g70
g51
NtRp1546
(dp1547
g54
(dp1548
g81
g82
ssg63
g1537
sg56
(lp1549
S':'
asbag49
(g70
g51
NtRp1550
(dp1551
g54
(dp1552
sg63
g1537
sg56
(lp1553
g49
(g50
g51
NtRp1554
(dp1555
g54
(dp1556
g62
I4
ssg63
g1550
sg56
(lp1557
S'8000'
p1558
asbasbasbag49
(g65
g51
NtRp1559
(dp1560
g54
(dp1561
sg63
g790
sg56
(lp1562
g49
(g70
g51
NtRp1563
(dp1564
g54
(dp1565
g74
g75
ssg63
g1559
sg56
(lp1566
S'server_protocol'
p1567
asbag49
(g70
g51
NtRp1568
(dp1569
g54
(dp1570
g81
g82
ssg63
g1559
sg56
(lp1571
S':'
asbag49
(g70
g51
NtRp1572
(dp1573
g54
(dp1574
sg63
g1559
sg56
(lp1575
g49
(g50
g51
NtRp1576
(dp1577
g54
(dp1578
g62
I4
ssg63
g1572
sg56
(lp1579
S'HTTP/1.1'
p1580
asbasbasbag49
(g65
g51
NtRp1581
(dp1582
g54
(dp1583
sg63
g790
sg56
(lp1584
g49
(g70
g51
NtRp1585
(dp1586
g54
(dp1587
g74
g75
ssg63
g1581
sg56
(lp1588
S'server_software'
p1589
asbag49
(g70
g51
NtRp1590
(dp1591
g54
(dp1592
g81
g82
ssg63
g1581
sg56
(lp1593
S':'
asbag49
(g70
g51
NtRp1594
(dp1595
g54
(dp1596
sg63
g1581
sg56
(lp1597
g49
(g50
g51
NtRp1598
(dp1599
g54
(dp1600
g62
I4
ssg63
g1594
sg56
(lp1601
S'Rocket 1.2.5'
p1602
asbasbasbag49
(g65
g51
NtRp1603
(dp1604
g54
(dp1605
sg63
g790
sg56
(lp1606
g49
(g70
g51
NtRp1607
(dp1608
g54
(dp1609
g74
g75
ssg63
g1603
sg56
(lp1610
S'web2py_path'
p1611
asbag49
(g70
g51
NtRp1612
(dp1613
g54
(dp1614
g81
g82
ssg63
g1603
sg56
(lp1615
S':'
asbag49
(g70
g51
NtRp1616
(dp1617
g54
(dp1618
sg63
g1603
sg56
(lp1619
g49
(g50
g51
NtRp1620
(dp1621
g54
(dp1622
g62
I4
ssg63
g1616
sg56
(lp1623
g837
asbasbasbag49
(g65
g51
NtRp1624
(dp1625
g54
(dp1626
sg63
g790
sg56
(lp1627
g49
(g70
g51
NtRp1628
(dp1629
g54
(dp1630
g74
g75
ssg63
g1624
sg56
(lp1631
S'web2py_version'
p1632
asbag49
(g70
g51
NtRp1633
(dp1634
g54
(dp1635
g81
g82
ssg63
g1624
sg56
(lp1636
S':'
asbag49
(g70
g51
NtRp1637
(dp1638
g54
(dp1639
sg63
g1624
sg56
(lp1640
g49
(g50
g51
NtRp1641
(dp1642
g54
(dp1643
g62
I4
ssg63
g1637
sg56
(lp1644
g49
(g58
g51
NtRp1645
(dp1646
g54
(dp1647
g62
I3
ssg63
Nsg56
(lp1648
g49
(g65
g51
NtRp1649
(dp1650
g54
(dp1651
sg63
g1645
sg56
(lp1652
g49
(g70
g51
NtRp1653
(dp1654
g54
(dp1655
sg63
g1649
sg56
(lp1656
g49
(g50
g51
NtRp1657
(dp1658
g54
(dp1659
g62
I3
ssg63
g1653
sg56
(lp1660
S'2'
asbasbasbag49
(g65
g51
NtRp1661
(dp1662
g54
(dp1663
sg63
g1645
sg56
(lp1664
g49
(g70
g51
NtRp1665
(dp1666
g54
(dp1667
sg63
g1661
sg56
(lp1668
g49
(g50
g51
NtRp1669
(dp1670
g54
(dp1671
g62
I3
ssg63
g1665
sg56
(lp1672
S'2'
asbasbasbag49
(g65
g51
NtRp1673
(dp1674
g54
(dp1675
sg63
g1645
sg56
(lp1676
g49
(g70
g51
NtRp1677
(dp1678
g54
(dp1679
sg63
g1673
sg56
(lp1680
g49
(g50
g51
NtRp1681
(dp1682
g54
(dp1683
g62
I3
ssg63
g1677
sg56
(lp1684
S'1'
asbasbasbag49
(g65
g51
NtRp1685
(dp1686
g54
(dp1687
sg63
g1645
sg56
(lp1688
g49
(g70
g51
NtRp1689
(dp1690
g54
(dp1691
sg63
g1685
sg56
(lp1692
g49
(g50
g51
NtRp1693
(dp1694
g54
(dp1695
g62
I3
ssg63
g1689
sg56
(lp1696
S'datetime.datetime(2012, 10, 21, 16, 57, 4)'
p1697
asbasbasbag49
(g65
g51
NtRp1698
(dp1699
g54
(dp1700
sg63
g1645
sg56
(lp1701
g49
(g70
g51
NtRp1702
(dp1703
g54
(dp1704
sg63
g1698
sg56
(lp1705
g49
(g50
g51
NtRp1706
(dp1707
g54
(dp1708
g62
I3
ssg63
g1702
sg56
(lp1709
S'stable'
p1710
asbasbasbasbasbasbasbag49
(g65
g51
NtRp1711
(dp1712
g54
(dp1713
sg63
g790
sg56
(lp1714
g49
(g70
g51
NtRp1715
(dp1716
g54
(dp1717
g74
g75
ssg63
g1711
sg56
(lp1718
S'wsgi_errors'
p1719
asbag49
(g70
g51
NtRp1720
(dp1721
g54
(dp1722
g81
g82
ssg63
g1711
sg56
(lp1723
S':'
asbag49
(g70
g51
NtRp1724
(dp1725
g54
(dp1726
sg63
g1711
sg56
(lp1727
g49
(g50
g51
NtRp1728
(dp1729
g54
(dp1730
g62
I4
ssg63
g1724
sg56
(lp1731
S"<open file '<stderr>', mode 'w' at 0x540b0>"
p1732
asbasbasbag49
(g65
g51
NtRp1733
(dp1734
g54
(dp1735
sg63
g790
sg56
(lp1736
g49
(g70
g51
NtRp1737
(dp1738
g54
(dp1739
g74
g75
ssg63
g1733
sg56
(lp1740
S'wsgi_file_wrapper'
p1741
asbag49
(g70
g51
NtRp1742
(dp1743
g54
(dp1744
g81
g82
ssg63
g1733
sg56
(lp1745
S':'
asbag49
(g70
g51
NtRp1746
(dp1747
g54
(dp1748
sg63
g1733
sg56
(lp1749
g49
(g50
g51
NtRp1750
(dp1751
g54
(dp1752
g62
I4
ssg63
g1746
sg56
(lp1753
S'<class wsgiref.util.FileWrapper at 0x44002d0>'
p1754
asbasbasbag49
(g65
g51
NtRp1755
(dp1756
g54
(dp1757
sg63
g790
sg56
(lp1758
g49
(g70
g51
NtRp1759
(dp1760
g54
(dp1761
g74
g75
ssg63
g1755
sg56
(lp1762
S'wsgi_input'
p1763
asbag49
(g70
g51
NtRp1764
(dp1765
g54
(dp1766
g81
g82
ssg63
g1755
sg56
(lp1767
S':'
asbag49
(g70
g51
NtRp1768
(dp1769
g54
(dp1770
sg63
g1755
sg56
(lp1771
g49
(g50
g51
NtRp1772
(dp1773
g54
(dp1774
g62
I4
ssg63
g1768
sg56
(lp1775
S'<socket._fileobject object at 0x7763bf0>'
p1776
asbasbasbag49
(g65
g51
NtRp1777
(dp1778
g54
(dp1779
sg63
g790
sg56
(lp1780
g49
(g70
g51
NtRp1781
(dp1782
g54
(dp1783
g74
g75
ssg63
g1777
sg56
(lp1784
S'wsgi_multiprocess'
p1785
asbag49
(g70
g51
NtRp1786
(dp1787
g54
(dp1788
g81
g82
ssg63
g1777
sg56
(lp1789
S':'
asbag49
(g70
g51
NtRp1790
(dp1791
g54
(dp1792
sg63
g1777
sg56
(lp1793
g49
(g50
g51
NtRp1794
(dp1795
g54
(dp1796
g62
I4
ssg63
g1790
sg56
(lp1797
g92
asbasbasbag49
(g65
g51
NtRp1798
(dp1799
g54
(dp1800
sg63
g790
sg56
(lp1801
g49
(g70
g51
NtRp1802
(dp1803
g54
(dp1804
g74
g75
ssg63
g1798
sg56
(lp1805
S'wsgi_multithread'
p1806
asbag49
(g70
g51
NtRp1807
(dp1808
g54
(dp1809
g81
g82
ssg63
g1798
sg56
(lp1810
S':'
asbag49
(g70
g51
NtRp1811
(dp1812
g54
(dp1813
sg63
g1798
sg56
(lp1814
g49
(g50
g51
NtRp1815
(dp1816
g54
(dp1817
g62
I4
ssg63
g1811
sg56
(lp1818
S'True'
p1819
asbasbasbag49
(g65
g51
NtRp1820
(dp1821
g54
(dp1822
sg63
g790
sg56
(lp1823
g49
(g70
g51
NtRp1824
(dp1825
g54
(dp1826
g74
g75
ssg63
g1820
sg56
(lp1827
S'wsgi_run_once'
p1828
asbag49
(g70
g51
NtRp1829
(dp1830
g54
(dp1831
g81
g82
ssg63
g1820
sg56
(lp1832
S':'
asbag49
(g70
g51
NtRp1833
(dp1834
g54
(dp1835
sg63
g1820
sg56
(lp1836
g49
(g50
g51
NtRp1837
(dp1838
g54
(dp1839
g62
I4
ssg63
g1833
sg56
(lp1840
g92
asbasbasbag49
(g65
g51
NtRp1841
(dp1842
g54
(dp1843
sg63
g790
sg56
(lp1844
g49
(g70
g51
NtRp1845
(dp1846
g54
(dp1847
g74
g75
ssg63
g1841
sg56
(lp1848
S'wsgi_url_scheme'
p1849
asbag49
(g70
g51
NtRp1850
(dp1851
g54
(dp1852
g81
g82
ssg63
g1841
sg56
(lp1853
S':'
asbag49
(g70
g51
NtRp1854
(dp1855
g54
(dp1856
sg63
g1841
sg56
(lp1857
g49
(g50
g51
NtRp1858
(dp1859
g54
(dp1860
g62
I4
ssg63
g1854
sg56
(lp1861
S'http'
p1862
asbasbasbag49
(g65
g51
NtRp1863
(dp1864
g54
(dp1865
sg63
g790
sg56
(lp1866
g49
(g70
g51
NtRp1867
(dp1868
g54
(dp1869
g74
g75
ssg63
g1863
sg56
(lp1870
S'wsgi_version'
p1871
asbag49
(g70
g51
NtRp1872
(dp1873
g54
(dp1874
g81
g82
ssg63
g1863
sg56
(lp1875
S':'
asbag49
(g70
g51
NtRp1876
(dp1877
g54
(dp1878
sg63
g1863
sg56
(lp1879
g49
(g50
g51
NtRp1880
(dp1881
g54
(dp1882
g62
I4
ssg63
g1876
sg56
(lp1883
g49
(g58
g51
NtRp1884
(dp1885
g54
(dp1886
g62
I3
ssg63
Nsg56
(lp1887
g49
(g65
g51
NtRp1888
(dp1889
g54
(dp1890
sg63
g1884
sg56
(lp1891
g49
(g70
g51
NtRp1892
(dp1893
g54
(dp1894
sg63
g1888
sg56
(lp1895
g49
(g50
g51
NtRp1896
(dp1897
g54
(dp1898
g62
I3
ssg63
g1892
sg56
(lp1899
S'1'
asbasbasbag49
(g65
g51
NtRp1900
(dp1901
g54
(dp1902
sg63
g1884
sg56
(lp1903
g49
(g70
g51
NtRp1904
(dp1905
g54
(dp1906
sg63
g1900
sg56
(lp1907
g49
(g50
g51
NtRp1908
(dp1909
g54
(dp1910
g62
I3
ssg63
g1904
sg56
(lp1911
S'0'
asbasbasbasbasbasbasbasbasbasbasbag49
(g65
g51
NtRp1912
(dp1913
g54
(dp1914
sg63
g59
sg56
(lp1915
g49
(g70
g51
NtRp1916
(dp1917
g54
(dp1918
g74
g75
ssg63
g1912
sg56
(lp1919
S'extension'
p1920
asbag49
(g70
g51
NtRp1921
(dp1922
g54
(dp1923
g81
g82
ssg63
g1912
sg56
(lp1924
S':'
asbag49
(g70
g51
NtRp1925
(dp1926
g54
(dp1927
sg63
g1912
sg56
(lp1928
g49
(g50
g51
NtRp1929
(dp1930
g54
(dp1931
g62
I5
ssg63
g1925
sg56
(lp1932
S'html'
p1933
asbasbasbag49
(g65
g51
NtRp1934
(dp1935
g54
(dp1936
sg63
g59
sg56
(lp1937
g49
(g70
g51
NtRp1938
(dp1939
g54
(dp1940
g74
g75
ssg63
g1934
sg56
(lp1941
S'folder'
p1942
asbag49
(g70
g51
NtRp1943
(dp1944
g54
(dp1945
g81
g82
ssg63
g1934
sg56
(lp1946
S':'
asbag49
(g70
g51
NtRp1947
(dp1948
g54
(dp1949
sg63
g1934
sg56
(lp1950
g49
(g50
g51
NtRp1951
(dp1952
g54
(dp1953
g62
I5
ssg63
g1947
sg56
(lp1954
S'/Users/abaric/Downloads/web2py/web2py.app/Contents/Resources/applications/Final_Impulse/'
p1955
asbasbasbag49
(g65
g51
NtRp1956
(dp1957
g54
(dp1958
sg63
g59
sg56
(lp1959
g49
(g70
g51
NtRp1960
(dp1961
g54
(dp1962
g74
g75
ssg63
g1956
sg56
(lp1963
S'function'
p1964
asbag49
(g70
g51
NtRp1965
(dp1966
g54
(dp1967
g81
g82
ssg63
g1956
sg56
(lp1968
S':'
asbag49
(g70
g51
NtRp1969
(dp1970
g54
(dp1971
sg63
g1956
sg56
(lp1972
g49
(g50
g51
NtRp1973
(dp1974
g54
(dp1975
g62
I5
ssg63
g1969
sg56
(lp1976
S'insert_writing_comment'
p1977
asbasbasbag49
(g65
g51
NtRp1978
(dp1979
g54
(dp1980
sg63
g59
sg56
(lp1981
g49
(g70
g51
NtRp1982
(dp1983
g54
(dp1984
g74
g75
ssg63
g1978
sg56
(lp1985
S'get_vars'
p1986
asbag49
(g70
g51
NtRp1987
(dp1988
g54
(dp1989
g81
g82
ssg63
g1978
sg56
(lp1990
S':'
asbag49
(g70
g51
NtRp1991
(dp1992
g54
(dp1993
sg63
g1978
sg56
(lp1994
g49
(g50
g51
NtRp1995
(dp1996
g54
(dp1997
g62
I5
ssg63
g1991
sg56
(lp1998
g49
(g58
g51
NtRp1999
(dp2000
g54
(dp2001
g62
I4
ssg63
Nsg56
(lp2002
sbasbasbasbag49
(g65
g51
NtRp2003
(dp2004
g54
(dp2005
sg63
g59
sg56
(lp2006
g49
(g70
g51
NtRp2007
(dp2008
g54
(dp2009
g74
g75
ssg63
g2003
sg56
(lp2010
S'global_settings'
p2011
asbag49
(g70
g51
NtRp2012
(dp2013
g54
(dp2014
g81
g82
ssg63
g2003
sg56
(lp2015
S':'
asbag49
(g70
g51
NtRp2016
(dp2017
g54
(dp2018
sg63
g2003
sg56
(lp2019
g49
(g50
g51
NtRp2020
(dp2021
g54
(dp2022
g62
I5
ssg63
g2016
sg56
(lp2023
g49
(g58
g51
NtRp2024
(dp2025
g54
(dp2026
g62
I4
ssg63
Nsg56
(lp2027
g49
(g65
g51
NtRp2028
(dp2029
g54
(dp2030
sg63
g2024
sg56
(lp2031
g49
(g70
g51
NtRp2032
(dp2033
g54
(dp2034
g74
g75
ssg63
g2028
sg56
(lp2035
g802
asbag49
(g70
g51
NtRp2036
(dp2037
g54
(dp2038
g81
g82
ssg63
g2028
sg56
(lp2039
S':'
asbag49
(g70
g51
NtRp2040
(dp2041
g54
(dp2042
sg63
g2028
sg56
(lp2043
g49
(g50
g51
NtRp2044
(dp2045
g54
(dp2046
g62
I4
ssg63
g2040
sg56
(lp2047
S"set(['/Users/abaric/Downloads/web2py/web2py.app/Contents/Resources/applications/Final_Impulse/', '/Users/abaric/Downloads/web2py/web2py.app/Contents/Resources/applications/welcome/', '/Users/abaric/Downloads/web2py/web2py.app/Contents/Resources/applications/admin/'])"
p2048
asbasbasbag49
(g65
g51
NtRp2049
(dp2050
g54
(dp2051
sg63
g2024
sg56
(lp2052
g49
(g70
g51
NtRp2053
(dp2054
g54
(dp2055
g74
g75
ssg63
g2049
sg56
(lp2056
g824
asbag49
(g70
g51
NtRp2057
(dp2058
g54
(dp2059
g81
g82
ssg63
g2049
sg56
(lp2060
S':'
asbag49
(g70
g51
NtRp2061
(dp2062
g54
(dp2063
sg63
g2049
sg56
(lp2064
g49
(g50
g51
NtRp2065
(dp2066
g54
(dp2067
g62
I4
ssg63
g2061
sg56
(lp2068
g837
asbasbasbag49
(g65
g51
NtRp2069
(dp2070
g54
(dp2071
sg63
g2024
sg56
(lp2072
g49
(g70
g51
NtRp2073
(dp2074
g54
(dp2075
g74
g75
ssg63
g2069
sg56
(lp2076
g846
asbag49
(g70
g51
NtRp2077
(dp2078
g54
(dp2079
g81
g82
ssg63
g2069
sg56
(lp2080
S':'
asbag49
(g70
g51
NtRp2081
(dp2082
g54
(dp2083
sg63
g2069
sg56
(lp2084
g49
(g50
g51
NtRp2085
(dp2086
g54
(dp2087
g62
I4
ssg63
g2081
sg56
(lp2088
g49
(g58
g51
NtRp2089
(dp2090
g54
(dp2091
g62
I3
ssg63
Nsg56
(lp2092
sbasbasbasbag49
(g65
g51
NtRp2093
(dp2094
g54
(dp2095
sg63
g2024
sg56
(lp2096
g49
(g70
g51
NtRp2097
(dp2098
g54
(dp2099
g74
g75
ssg63
g2093
sg56
(lp2100
g871
asbag49
(g70
g51
NtRp2101
(dp2102
g54
(dp2103
g81
g82
ssg63
g2093
sg56
(lp2104
S':'
asbag49
(g70
g51
NtRp2105
(dp2106
g54
(dp2107
sg63
g2093
sg56
(lp2108
g49
(g50
g51
NtRp2109
(dp2110
g54
(dp2111
g62
I4
ssg63
g2105
sg56
(lp2112
S"<Values at 0x442e1c0: {'verbose': False, 'ip': '127.0.0.1', 'with_scheduler': False, 'ips': ['10.1.10.113'], 'shutdown_timeout': 5, 'taskbar': False, 'port': 8000, 'maxthreads': None, 'softcron': False, 'server_name': 'Andrea-Barics-MacBook-Pro.local', 'bpython': False, 'nogui': False, 'pid_filename': 'httpserver.pid', 'extcron': False, 'runcron': False, 'run_system_tests': False, 'test': None, 'folder': '/Users/abaric/Downloads/web2py/web2py.app/Contents/Resources', 'config': '', 'import_models': False, 'winservice': '', 'shell': None, 'run': '', 'log_filename': 'httpserver.log', 'debuglevel': 30, 'args': [''], 'socket_timeout': 5, 'ssl_ca_certificate': None, 'scheduler': None, 'profiler_filename': None, 'ssl_private_key': '', 'scheduler_groups': None, 'password': '<ask>', 'request_queue_size': 5, 'ssl_certificate': '', 'cronjob': False, 'numthreads': None, 'quiet': False, 'interfaces': None, 'minthreads': None, 'timeout': 10, 'plain': False, 'nobanner': False}>"
p2113
asbasbasbag49
(g65
g51
NtRp2114
(dp2115
g54
(dp2116
sg63
g2024
sg56
(lp2117
g49
(g70
g51
NtRp2118
(dp2119
g54
(dp2120
g74
g75
ssg63
g2114
sg56
(lp2121
g937
asbag49
(g70
g51
NtRp2122
(dp2123
g54
(dp2124
g81
g82
ssg63
g2114
sg56
(lp2125
S':'
asbag49
(g70
g51
NtRp2126
(dp2127
g54
(dp2128
sg63
g2114
sg56
(lp2129
g49
(g50
g51
NtRp2130
(dp2131
g54
(dp2132
g62
I4
ssg63
g2126
sg56
(lp2133
S'set([])'
p2134
asbasbasbag49
(g65
g51
NtRp2135
(dp2136
g54
(dp2137
sg63
g2024
sg56
(lp2138
g49
(g70
g51
NtRp2139
(dp2140
g54
(dp2141
g74
g75
ssg63
g2135
sg56
(lp2142
g959
asbag49
(g70
g51
NtRp2143
(dp2144
g54
(dp2145
g81
g82
ssg63
g2135
sg56
(lp2146
S':'
asbag49
(g70
g51
NtRp2147
(dp2148
g54
(dp2149
sg63
g2135
sg56
(lp2150
g49
(g50
g51
NtRp2151
(dp2152
g54
(dp2153
g62
I4
ssg63
g2147
sg56
(lp2154
g92
asbasbasbag49
(g65
g51
NtRp2155
(dp2156
g54
(dp2157
sg63
g2024
sg56
(lp2158
g49
(g70
g51
NtRp2159
(dp2160
g54
(dp2161
g74
g75
ssg63
g2155
sg56
(lp2162
g980
asbag49
(g70
g51
NtRp2163
(dp2164
g54
(dp2165
g81
g82
ssg63
g2155
sg56
(lp2166
S':'
asbag49
(g70
g51
NtRp2167
(dp2168
g54
(dp2169
sg63
g2155
sg56
(lp2170
g49
(g50
g51
NtRp2171
(dp2172
g54
(dp2173
g62
I4
ssg63
g2167
sg56
(lp2174
g993
asbasbasbag49
(g65
g51
NtRp2175
(dp2176
g54
(dp2177
sg63
g2024
sg56
(lp2178
g49
(g70
g51
NtRp2179
(dp2180
g54
(dp2181
g74
g75
ssg63
g2175
sg56
(lp2182
g1242
asbag49
(g70
g51
NtRp2183
(dp2184
g54
(dp2185
g81
g82
ssg63
g2175
sg56
(lp2186
S':'
asbag49
(g70
g51
NtRp2187
(dp2188
g54
(dp2189
sg63
g2175
sg56
(lp2190
g49
(g50
g51
NtRp2191
(dp2192
g54
(dp2193
g62
I4
ssg63
g2187
sg56
(lp2194
g92
asbasbasbag49
(g65
g51
NtRp2195
(dp2196
g54
(dp2197
sg63
g2024
sg56
(lp2198
g49
(g70
g51
NtRp2199
(dp2200
g54
(dp2201
g74
g75
ssg63
g2195
sg56
(lp2202
g1263
asbag49
(g70
g51
NtRp2203
(dp2204
g54
(dp2205
g81
g82
ssg63
g2195
sg56
(lp2206
S':'
asbag49
(g70
g51
NtRp2207
(dp2208
g54
(dp2209
sg63
g2195
sg56
(lp2210
g49
(g50
g51
NtRp2211
(dp2212
g54
(dp2213
g62
I4
ssg63
g2207
sg56
(lp2214
g92
asbasbasbag49
(g65
g51
NtRp2215
(dp2216
g54
(dp2217
sg63
g2024
sg56
(lp2218
g49
(g70
g51
NtRp2219
(dp2220
g54
(dp2221
g74
g75
ssg63
g2215
sg56
(lp2222
g1284
asbag49
(g70
g51
NtRp2223
(dp2224
g54
(dp2225
g81
g82
ssg63
g2215
sg56
(lp2226
S':'
asbag49
(g70
g51
NtRp2227
(dp2228
g54
(dp2229
sg63
g2215
sg56
(lp2230
g49
(g50
g51
NtRp2231
(dp2232
g54
(dp2233
g62
I4
ssg63
g2227
sg56
(lp2234
g49
(g58
g51
NtRp2235
(dp2236
g54
(dp2237
g62
I3
ssg63
Nsg56
(lp2238
g49
(g65
g51
NtRp2239
(dp2240
g54
(dp2241
sg63
g2235
sg56
(lp2242
g49
(g70
g51
NtRp2243
(dp2244
g54
(dp2245
sg63
g2239
sg56
(lp2246
g49
(g50
g51
NtRp2247
(dp2248
g54
(dp2249
g62
I3
ssg63
g2243
sg56
(lp2250
g1313
asbasbasbag49
(g65
g51
NtRp2251
(dp2252
g54
(dp2253
sg63
g2235
sg56
(lp2254
g49
(g70
g51
NtRp2255
(dp2256
g54
(dp2257
sg63
g2251
sg56
(lp2258
g49
(g50
g51
NtRp2259
(dp2260
g54
(dp2261
g62
I3
ssg63
g2255
sg56
(lp2262
g1326
asbasbasbag49
(g65
g51
NtRp2263
(dp2264
g54
(dp2265
sg63
g2235
sg56
(lp2266
g49
(g70
g51
NtRp2267
(dp2268
g54
(dp2269
sg63
g2263
sg56
(lp2270
g49
(g50
g51
NtRp2271
(dp2272
g54
(dp2273
g62
I3
ssg63
g2267
sg56
(lp2274
g1339
asbasbasbag49
(g65
g51
NtRp2275
(dp2276
g54
(dp2277
sg63
g2235
sg56
(lp2278
g49
(g70
g51
NtRp2279
(dp2280
g54
(dp2281
sg63
g2275
sg56
(lp2282
g49
(g50
g51
NtRp2283
(dp2284
g54
(dp2285
g62
I3
ssg63
g2279
sg56
(lp2286
g1352
asbasbasbag49
(g65
g51
NtRp2287
(dp2288
g54
(dp2289
sg63
g2235
sg56
(lp2290
g49
(g70
g51
NtRp2291
(dp2292
g54
(dp2293
sg63
g2287
sg56
(lp2294
g49
(g50
g51
NtRp2295
(dp2296
g54
(dp2297
g62
I3
ssg63
g2291
sg56
(lp2298
g1365
asbasbasbasbasbasbasbag49
(g65
g51
NtRp2299
(dp2300
g54
(dp2301
sg63
g2024
sg56
(lp2302
g49
(g70
g51
NtRp2303
(dp2304
g54
(dp2305
g74
g75
ssg63
g2299
sg56
(lp2306
g1632
asbag49
(g70
g51
NtRp2307
(dp2308
g54
(dp2309
g81
g82
ssg63
g2299
sg56
(lp2310
S':'
asbag49
(g70
g51
NtRp2311
(dp2312
g54
(dp2313
sg63
g2299
sg56
(lp2314
g49
(g50
g51
NtRp2315
(dp2316
g54
(dp2317
g62
I4
ssg63
g2311
sg56
(lp2318
g49
(g58
g51
NtRp2319
(dp2320
g54
(dp2321
g62
I3
ssg63
Nsg56
(lp2322
g49
(g65
g51
NtRp2323
(dp2324
g54
(dp2325
sg63
g2319
sg56
(lp2326
g49
(g70
g51
NtRp2327
(dp2328
g54
(dp2329
sg63
g2323
sg56
(lp2330
g49
(g50
g51
NtRp2331
(dp2332
g54
(dp2333
g62
I3
ssg63
g2327
sg56
(lp2334
S'2'
asbasbasbag49
(g65
g51
NtRp2335
(dp2336
g54
(dp2337
sg63
g2319
sg56
(lp2338
g49
(g70
g51
NtRp2339
(dp2340
g54
(dp2341
sg63
g2335
sg56
(lp2342
g49
(g50
g51
NtRp2343
(dp2344
g54
(dp2345
g62
I3
ssg63
g2339
sg56
(lp2346
S'2'
asbasbasbag49
(g65
g51
NtRp2347
(dp2348
g54
(dp2349
sg63
g2319
sg56
(lp2350
g49
(g70
g51
NtRp2351
(dp2352
g54
(dp2353
sg63
g2347
sg56
(lp2354
g49
(g50
g51
NtRp2355
(dp2356
g54
(dp2357
g62
I3
ssg63
g2351
sg56
(lp2358
S'1'
asbasbasbag49
(g65
g51
NtRp2359
(dp2360
g54
(dp2361
sg63
g2319
sg56
(lp2362
g49
(g70
g51
NtRp2363
(dp2364
g54
(dp2365
sg63
g2359
sg56
(lp2366
g49
(g50
g51
NtRp2367
(dp2368
g54
(dp2369
g62
I3
ssg63
g2363
sg56
(lp2370
S'datetime.datetime(2012, 10, 21, 16, 57, 4)'
p2371
asbasbasbag49
(g65
g51
NtRp2372
(dp2373
g54
(dp2374
sg63
g2319
sg56
(lp2375
g49
(g70
g51
NtRp2376
(dp2377
g54
(dp2378
sg63
g2372
sg56
(lp2379
g49
(g50
g51
NtRp2380
(dp2381
g54
(dp2382
g62
I3
ssg63
g2376
sg56
(lp2383
g1710
asbasbasbasbasbasbasbasbasbasbasbag49
(g65
g51
NtRp2384
(dp2385
g54
(dp2386
sg63
g59
sg56
(lp2387
g49
(g70
g51
NtRp2388
(dp2389
g54
(dp2390
g74
g75
ssg63
g2384
sg56
(lp2391
S'is_https'
p2392
asbag49
(g70
g51
NtRp2393
(dp2394
g54
(dp2395
g81
g82
ssg63
g2384
sg56
(lp2396
S':'
asbag49
(g70
g51
NtRp2397
(dp2398
g54
(dp2399
sg63
g2384
sg56
(lp2400
g49
(g50
g51
NtRp2401
(dp2402
g54
(dp2403
g62
I5
ssg63
g2397
sg56
(lp2404
g92
asbasbasbag49
(g65
g51
NtRp2405
(dp2406
g54
(dp2407
sg63
g59
sg56
(lp2408
g49
(g70
g51
NtRp2409
(dp2410
g54
(dp2411
g74
g75
ssg63
g2405
sg56
(lp2412
S'is_local'
p2413
asbag49
(g70
g51
NtRp2414
(dp2415
g54
(dp2416
g81
g82
ssg63
g2405
sg56
(lp2417
S':'
asbag49
(g70
g51
NtRp2418
(dp2419
g54
(dp2420
sg63
g2405
sg56
(lp2421
g49
(g50
g51
NtRp2422
(dp2423
g54
(dp2424
g62
I5
ssg63
g2418
sg56
(lp2425
g1819
asbasbasbag49
(g65
g51
NtRp2426
(dp2427
g54
(dp2428
sg63
g59
sg56
(lp2429
g49
(g70
g51
NtRp2430
(dp2431
g54
(dp2432
g74
g75
ssg63
g2426
sg56
(lp2433
S'is_restful'
p2434
asbag49
(g70
g51
NtRp2435
(dp2436
g54
(dp2437
g81
g82
ssg63
g2426
sg56
(lp2438
S':'
asbag49
(g70
g51
NtRp2439
(dp2440
g54
(dp2441
sg63
g2426
sg56
(lp2442
g49
(g50
g51
NtRp2443
(dp2444
g54
(dp2445
g62
I5
ssg63
g2439
sg56
(lp2446
g92
asbasbasbag49
(g65
g51
NtRp2447
(dp2448
g54
(dp2449
sg63
g59
sg56
(lp2450
g49
(g70
g51
NtRp2451
(dp2452
g54
(dp2453
g74
g75
ssg63
g2447
sg56
(lp2454
S'now'
p2455
asbag49
(g70
g51
NtRp2456
(dp2457
g54
(dp2458
g81
g82
ssg63
g2447
sg56
(lp2459
S':'
asbag49
(g70
g51
NtRp2460
(dp2461
g54
(dp2462
sg63
g2447
sg56
(lp2463
g49
(g50
g51
NtRp2464
(dp2465
g54
(dp2466
g62
I5
ssg63
g2460
sg56
(lp2467
S'datetime.datetime(2014, 4, 8, 15, 12, 53, 679216)'
p2468
asbasbasbag49
(g65
g51
NtRp2469
(dp2470
g54
(dp2471
sg63
g59
sg56
(lp2472
g49
(g70
g51
NtRp2473
(dp2474
g54
(dp2475
g74
g75
ssg63
g2469
sg56
(lp2476
S'post_vars'
p2477
asbag49
(g70
g51
NtRp2478
(dp2479
g54
(dp2480
g81
g82
ssg63
g2469
sg56
(lp2481
S':'
asbag49
(g70
g51
NtRp2482
(dp2483
g54
(dp2484
sg63
g2469
sg56
(lp2485
g49
(g50
g51
NtRp2486
(dp2487
g54
(dp2488
g62
I5
ssg63
g2482
sg56
(lp2489
g49
(g58
g51
NtRp2490
(dp2491
g54
(dp2492
g62
I4
ssg63
Nsg56
(lp2493
g49
(g65
g51
NtRp2494
(dp2495
g54
(dp2496
sg63
g2490
sg56
(lp2497
g49
(g70
g51
NtRp2498
(dp2499
g54
(dp2500
g74
g75
ssg63
g2494
sg56
(lp2501
S'commentform'
p2502
asbag49
(g70
g51
NtRp2503
(dp2504
g54
(dp2505
g81
g82
ssg63
g2494
sg56
(lp2506
S':'
asbag49
(g70
g51
NtRp2507
(dp2508
g54
(dp2509
sg63
g2494
sg56
(lp2510
g49
(g50
g51
NtRp2511
(dp2512
g54
(dp2513
g62
I4
ssg63
g2507
sg56
(lp2514
S'Submit'
p2515
asbasbasbag49
(g65
g51
NtRp2516
(dp2517
g54
(dp2518
sg63
g2490
sg56
(lp2519
g49
(g70
g51
NtRp2520
(dp2521
g54
(dp2522
g74
g75
ssg63
g2516
sg56
(lp2523
S'writing_comment'
p2524
asbag49
(g70
g51
NtRp2525
(dp2526
g54
(dp2527
g81
g82
ssg63
g2516
sg56
(lp2528
S':'
asbag49
(g70
g51
NtRp2529
(dp2530
g54
(dp2531
sg63
g2516
sg56
(lp2532
g49
(g50
g51
NtRp2533
(dp2534
g54
(dp2535
g62
I4
ssg63
g2529
sg56
(lp2536
S'aklsdajsd'
p2537
asbasbasbasbasbasbasbag49
(g65
g51
NtRp2538
(dp2539
g54
(dp2540
sg63
g59
sg56
(lp2541
g49
(g70
g51
NtRp2542
(dp2543
g54
(dp2544
g74
g75
ssg63
g2538
sg56
(lp2545
S'raw_args'
p2546
asbag49
(g70
g51
NtRp2547
(dp2548
g54
(dp2549
g81
g82
ssg63
g2538
sg56
(lp2550
S':'
asbag49
(g70
g51
NtRp2551
(dp2552
g54
(dp2553
sg63
g2538
sg56
(lp2554
g49
(g50
g51
NtRp2555
(dp2556
g54
(dp2557
g62
I5
ssg63
g2551
sg56
(lp2558
S'/1'
p2559
asbasbasbag49
(g65
g51
NtRp2560
(dp2561
g54
(dp2562
sg63
g59
sg56
(lp2563
g49
(g70
g51
NtRp2564
(dp2565
g54
(dp2566
g74
g75
ssg63
g2560
sg56
(lp2567
S'raw_extension'
p2568
asbag49
(g70
g51
NtRp2569
(dp2570
g54
(dp2571
g81
g82
ssg63
g2560
sg56
(lp2572
S':'
asbag49
(g70
g51
NtRp2573
(dp2574
g54
(dp2575
sg63
g2560
sg56
(lp2576
g49
(g50
g51
NtRp2577
(dp2578
g54
(dp2579
g62
I5
ssg63
g2573
sg56
(lp2580
S'None'
p2581
asbasbasbag49
(g65
g51
NtRp2582
(dp2583
g54
(dp2584
sg63
g59
sg56
(lp2585
g49
(g70
g51
NtRp2586
(dp2587
g54
(dp2588
g74
g75
ssg63
g2582
sg56
(lp2589
S'url'
p2590
asbag49
(g70
g51
NtRp2591
(dp2592
g54
(dp2593
g81
g82
ssg63
g2582
sg56
(lp2594
S':'
asbag49
(g70
g51
NtRp2595
(dp2596
g54
(dp2597
sg63
g2582
sg56
(lp2598
g49
(g50
g51
NtRp2599
(dp2600
g54
(dp2601
g62
I5
ssg63
g2595
sg56
(lp2602
g1387
asbasbasbag49
(g65
g51
NtRp2603
(dp2604
g54
(dp2605
sg63
g59
sg56
(lp2606
g49
(g70
g51
NtRp2607
(dp2608
g54
(dp2609
g74
g75
ssg63
g2603
sg56
(lp2610
S'utcnow'
p2611
asbag49
(g70
g51
NtRp2612
(dp2613
g54
(dp2614
g81
g82
ssg63
g2603
sg56
(lp2615
S':'
asbag49
(g70
g51
NtRp2616
(dp2617
g54
(dp2618
sg63
g2603
sg56
(lp2619
g49
(g50
g51
NtRp2620
(dp2621
g54
(dp2622
g62
I5
ssg63
g2616
sg56
(lp2623
S'datetime.datetime(2014, 4, 8, 19, 12, 53, 679231)'
p2624
asbasbasbag49
(g65
g51
NtRp2625
(dp2626
g54
(dp2627
sg63
g59
sg56
(lp2628
g49
(g70
g51
NtRp2629
(dp2630
g54
(dp2631
g74
g75
ssg63
g2625
sg56
(lp2632
S'uuid'
p2633
asbag49
(g70
g51
NtRp2634
(dp2635
g54
(dp2636
g81
g82
ssg63
g2625
sg56
(lp2637
S':'
asbag49
(g70
g51
NtRp2638
(dp2639
g54
(dp2640
sg63
g2625
sg56
(lp2641
g49
(g50
g51
NtRp2642
(dp2643
g54
(dp2644
g62
I5
ssg63
g2638
sg56
(lp2645
S'Final_Impulse/127.0.0.1.2014-04-08.15-12-53.46b7554d-bf46-4b55-8e44-b7cd4120117a'
p2646
asbasbasbag49
(g65
g51
NtRp2647
(dp2648
g54
(dp2649
sg63
g59
sg56
(lp2650
g49
(g70
g51
NtRp2651
(dp2652
g54
(dp2653
g74
g75
ssg63
g2647
sg56
(lp2654
S'vars'
p2655
asbag49
(g70
g51
NtRp2656
(dp2657
g54
(dp2658
g81
g82
ssg63
g2647
sg56
(lp2659
S':'
asbag49
(g70
g51
NtRp2660
(dp2661
g54
(dp2662
sg63
g2647
sg56
(lp2663
g49
(g50
g51
NtRp2664
(dp2665
g54
(dp2666
g62
I5
ssg63
g2660
sg56
(lp2667
g49
(g58
g51
NtRp2668
(dp2669
g54
(dp2670
g62
I4
ssg63
Nsg56
(lp2671
g49
(g65
g51
NtRp2672
(dp2673
g54
(dp2674
sg63
g2668
sg56
(lp2675
g49
(g70
g51
NtRp2676
(dp2677
g54
(dp2678
g74
g75
ssg63
g2672
sg56
(lp2679
g2502
asbag49
(g70
g51
NtRp2680
(dp2681
g54
(dp2682
g81
g82
ssg63
g2672
sg56
(lp2683
S':'
asbag49
(g70
g51
NtRp2684
(dp2685
g54
(dp2686
sg63
g2672
sg56
(lp2687
g49
(g50
g51
NtRp2688
(dp2689
g54
(dp2690
g62
I4
ssg63
g2684
sg56
(lp2691
g2515
asbasbasbag49
(g65
g51
NtRp2692
(dp2693
g54
(dp2694
sg63
g2668
sg56
(lp2695
g49
(g70
g51
NtRp2696
(dp2697
g54
(dp2698
g74
g75
ssg63
g2692
sg56
(lp2699
g2524
asbag49
(g70
g51
NtRp2700
(dp2701
g54
(dp2702
g81
g82
ssg63
g2692
sg56
(lp2703
S':'
asbag49
(g70
g51
NtRp2704
(dp2705
g54
(dp2706
sg63
g2692
sg56
(lp2707
g49
(g50
g51
NtRp2708
(dp2709
g54
(dp2710
g62
I4
ssg63
g2704
sg56
(lp2711
g2537
asbasbasbasbasbasbasbag49
(g65
g51
NtRp2712
(dp2713
g54
(dp2714
sg63
g59
sg56
(lp2715
g49
(g70
g51
NtRp2716
(dp2717
g54
(dp2718
g74
g75
ssg63
g2712
sg56
(lp2719
S'wsgi'
p2720
asbag49
(g70
g51
NtRp2721
(dp2722
g54
(dp2723
g81
g82
ssg63
g2712
sg56
(lp2724
S':'
asbag49
(g70
g51
NtRp2725
(dp2726
g54
(dp2727
sg63
g2712
sg56
(lp2728
g49
(g50
g51
NtRp2729
(dp2730
g54
(dp2731
g62
I5
ssg63
g2725
sg56
(lp2732
g49
(g58
g51
NtRp2733
(dp2734
g54
(dp2735
g62
I4
ssg63
Nsg56
(lp2736
g49
(g65
g51
NtRp2737
(dp2738
g54
(dp2739
sg63
g2733
sg56
(lp2740
g49
(g70
g51
NtRp2741
(dp2742
g54
(dp2743
g74
g75
ssg63
g2737
sg56
(lp2744
S'environ'
p2745
asbag49
(g70
g51
NtRp2746
(dp2747
g54
(dp2748
g81
g82
ssg63
g2737
sg56
(lp2749
S':'
asbag49
(g70
g51
NtRp2750
(dp2751
g54
(dp2752
sg63
g2737
sg56
(lp2753
g49
(g50
g51
NtRp2754
(dp2755
g54
(dp2756
g62
I4
ssg63
g2750
sg56
(lp2757
g49
(g58
g51
NtRp2758
(dp2759
g54
(dp2760
g62
I3
ssg63
Nsg56
(lp2761
g49
(g65
g51
NtRp2762
(dp2763
g54
(dp2764
sg63
g2758
sg56
(lp2765
g49
(g70
g51
NtRp2766
(dp2767
g54
(dp2768
g74
g75
ssg63
g2762
sg56
(lp2769
S'CONTENT_LENGTH'
p2770
asbag49
(g70
g51
NtRp2771
(dp2772
g54
(dp2773
g81
g82
ssg63
g2762
sg56
(lp2774
S':'
asbag49
(g70
g51
NtRp2775
(dp2776
g54
(dp2777
sg63
g2762
sg56
(lp2778
g49
(g50
g51
NtRp2779
(dp2780
g54
(dp2781
g62
I3
ssg63
g2775
sg56
(lp2782
g906
asbasbasbag49
(g65
g51
NtRp2783
(dp2784
g54
(dp2785
sg63
g2758
sg56
(lp2786
g49
(g70
g51
NtRp2787
(dp2788
g54
(dp2789
g74
g75
ssg63
g2783
sg56
(lp2790
S'CONTENT_TYPE'
p2791
asbag49
(g70
g51
NtRp2792
(dp2793
g54
(dp2794
g81
g82
ssg63
g2783
sg56
(lp2795
S':'
asbag49
(g70
g51
NtRp2796
(dp2797
g54
(dp2798
sg63
g2783
sg56
(lp2799
g49
(g50
g51
NtRp2800
(dp2801
g54
(dp2802
g62
I3
ssg63
g2796
sg56
(lp2803
g928
asbasbasbag49
(g65
g51
NtRp2804
(dp2805
g54
(dp2806
sg63
g2758
sg56
(lp2807
g49
(g70
g51
NtRp2808
(dp2809
g54
(dp2810
g74
g75
ssg63
g2804
sg56
(lp2811
S'HTTP_ACCEPT'
p2812
asbag49
(g70
g51
NtRp2813
(dp2814
g54
(dp2815
g81
g82
ssg63
g2804
sg56
(lp2816
S':'
asbag49
(g70
g51
NtRp2817
(dp2818
g54
(dp2819
sg63
g2804
sg56
(lp2820
g49
(g50
g51
NtRp2821
(dp2822
g54
(dp2823
g62
I3
ssg63
g2817
sg56
(lp2824
g1015
asbasbasbag49
(g65
g51
NtRp2825
(dp2826
g54
(dp2827
sg63
g2758
sg56
(lp2828
g49
(g70
g51
NtRp2829
(dp2830
g54
(dp2831
g74
g75
ssg63
g2825
sg56
(lp2832
S'HTTP_ACCEPT_ENCODING'
p2833
asbag49
(g70
g51
NtRp2834
(dp2835
g54
(dp2836
g81
g82
ssg63
g2825
sg56
(lp2837
S':'
asbag49
(g70
g51
NtRp2838
(dp2839
g54
(dp2840
sg63
g2825
sg56
(lp2841
g49
(g50
g51
NtRp2842
(dp2843
g54
(dp2844
g62
I3
ssg63
g2838
sg56
(lp2845
g1037
asbasbasbag49
(g65
g51
NtRp2846
(dp2847
g54
(dp2848
sg63
g2758
sg56
(lp2849
g49
(g70
g51
NtRp2850
(dp2851
g54
(dp2852
g74
g75
ssg63
g2846
sg56
(lp2853
S'HTTP_ACCEPT_LANGUAGE'
p2854
asbag49
(g70
g51
NtRp2855
(dp2856
g54
(dp2857
g81
g82
ssg63
g2846
sg56
(lp2858
S':'
asbag49
(g70
g51
NtRp2859
(dp2860
g54
(dp2861
sg63
g2846
sg56
(lp2862
g49
(g50
g51
NtRp2863
(dp2864
g54
(dp2865
g62
I3
ssg63
g2859
sg56
(lp2866
g1059
asbasbasbag49
(g65
g51
NtRp2867
(dp2868
g54
(dp2869
sg63
g2758
sg56
(lp2870
g49
(g70
g51
NtRp2871
(dp2872
g54
(dp2873
g74
g75
ssg63
g2867
sg56
(lp2874
S'HTTP_CONNECTION'
p2875
asbag49
(g70
g51
NtRp2876
(dp2877
g54
(dp2878
g81
g82
ssg63
g2867
sg56
(lp2879
S':'
asbag49
(g70
g51
NtRp2880
(dp2881
g54
(dp2882
sg63
g2867
sg56
(lp2883
g49
(g50
g51
NtRp2884
(dp2885
g54
(dp2886
g62
I3
ssg63
g2880
sg56
(lp2887
g1081
asbasbasbag49
(g65
g51
NtRp2888
(dp2889
g54
(dp2890
sg63
g2758
sg56
(lp2891
g49
(g70
g51
NtRp2892
(dp2893
g54
(dp2894
g74
g75
ssg63
g2888
sg56
(lp2895
S'HTTP_CONTENT_LENGTH'
p2896
asbag49
(g70
g51
NtRp2897
(dp2898
g54
(dp2899
g81
g82
ssg63
g2888
sg56
(lp2900
S':'
asbag49
(g70
g51
NtRp2901
(dp2902
g54
(dp2903
sg63
g2888
sg56
(lp2904
g49
(g50
g51
NtRp2905
(dp2906
g54
(dp2907
g62
I3
ssg63
g2901
sg56
(lp2908
g906
asbasbasbag49
(g65
g51
NtRp2909
(dp2910
g54
(dp2911
sg63
g2758
sg56
(lp2912
g49
(g70
g51
NtRp2913
(dp2914
g54
(dp2915
g74
g75
ssg63
g2909
sg56
(lp2916
S'HTTP_CONTENT_TYPE'
p2917
asbag49
(g70
g51
NtRp2918
(dp2919
g54
(dp2920
g81
g82
ssg63
g2909
sg56
(lp2921
S':'
asbag49
(g70
g51
NtRp2922
(dp2923
g54
(dp2924
sg63
g2909
sg56
(lp2925
g49
(g50
g51
NtRp2926
(dp2927
g54
(dp2928
g62
I3
ssg63
g2922
sg56
(lp2929
g928
asbasbasbag49
(g65
g51
NtRp2930
(dp2931
g54
(dp2932
sg63
g2758
sg56
(lp2933
g49
(g70
g51
NtRp2934
(dp2935
g54
(dp2936
g74
g75
ssg63
g2930
sg56
(lp2937
S'HTTP_COOKIE'
p2938
asbag49
(g70
g51
NtRp2939
(dp2940
g54
(dp2941
g81
g82
ssg63
g2930
sg56
(lp2942
S':'
asbag49
(g70
g51
NtRp2943
(dp2944
g54
(dp2945
sg63
g2930
sg56
(lp2946
g49
(g50
g51
NtRp2947
(dp2948
g54
(dp2949
g62
I3
ssg63
g2943
sg56
(lp2950
g1145
asbasbasbag49
(g65
g51
NtRp2951
(dp2952
g54
(dp2953
sg63
g2758
sg56
(lp2954
g49
(g70
g51
NtRp2955
(dp2956
g54
(dp2957
g74
g75
ssg63
g2951
sg56
(lp2958
S'HTTP_HOST'
p2959
asbag49
(g70
g51
NtRp2960
(dp2961
g54
(dp2962
g81
g82
ssg63
g2951
sg56
(lp2963
S':'
asbag49
(g70
g51
NtRp2964
(dp2965
g54
(dp2966
sg63
g2951
sg56
(lp2967
g49
(g50
g51
NtRp2968
(dp2969
g54
(dp2970
g62
I3
ssg63
g2964
sg56
(lp2971
g1167
asbasbasbag49
(g65
g51
NtRp2972
(dp2973
g54
(dp2974
sg63
g2758
sg56
(lp2975
g49
(g70
g51
NtRp2976
(dp2977
g54
(dp2978
g74
g75
ssg63
g2972
sg56
(lp2979
S'HTTP_ORIGIN'
p2980
asbag49
(g70
g51
NtRp2981
(dp2982
g54
(dp2983
g81
g82
ssg63
g2972
sg56
(lp2984
S':'
asbag49
(g70
g51
NtRp2985
(dp2986
g54
(dp2987
sg63
g2972
sg56
(lp2988
g49
(g50
g51
NtRp2989
(dp2990
g54
(dp2991
g62
I3
ssg63
g2985
sg56
(lp2992
g1189
asbasbasbag49
(g65
g51
NtRp2993
(dp2994
g54
(dp2995
sg63
g2758
sg56
(lp2996
g49
(g70
g51
NtRp2997
(dp2998
g54
(dp2999
g74
g75
ssg63
g2993
sg56
(lp3000
S'HTTP_REFERER'
p3001
asbag49
(g70
g51
NtRp3002
(dp3003
g54
(dp3004
g81
g82
ssg63
g2993
sg56
(lp3005
S':'
asbag49
(g70
g51
NtRp3006
(dp3007
g54
(dp3008
sg63
g2993
sg56
(lp3009
g49
(g50
g51
NtRp3010
(dp3011
g54
(dp3012
g62
I3
ssg63
g3006
sg56
(lp3013
g1211
asbasbasbag49
(g65
g51
NtRp3014
(dp3015
g54
(dp3016
sg63
g2758
sg56
(lp3017
g49
(g70
g51
NtRp3018
(dp3019
g54
(dp3020
g74
g75
ssg63
g3014
sg56
(lp3021
S'HTTP_USER_AGENT'
p3022
asbag49
(g70
g51
NtRp3023
(dp3024
g54
(dp3025
g81
g82
ssg63
g3014
sg56
(lp3026
S':'
asbag49
(g70
g51
NtRp3027
(dp3028
g54
(dp3029
sg63
g3014
sg56
(lp3030
g49
(g50
g51
NtRp3031
(dp3032
g54
(dp3033
g62
I3
ssg63
g3027
sg56
(lp3034
g1233
asbasbasbag49
(g65
g51
NtRp3035
(dp3036
g54
(dp3037
sg63
g2758
sg56
(lp3038
g49
(g70
g51
NtRp3039
(dp3040
g54
(dp3041
g74
g75
ssg63
g3035
sg56
(lp3042
S'PATH_INFO'
p3043
asbag49
(g70
g51
NtRp3044
(dp3045
g54
(dp3046
g81
g82
ssg63
g3035
sg56
(lp3047
S':'
asbag49
(g70
g51
NtRp3048
(dp3049
g54
(dp3050
sg63
g3035
sg56
(lp3051
g49
(g50
g51
NtRp3052
(dp3053
g54
(dp3054
g62
I3
ssg63
g3048
sg56
(lp3055
g1387
asbasbasbag49
(g65
g51
NtRp3056
(dp3057
g54
(dp3058
sg63
g2758
sg56
(lp3059
g49
(g70
g51
NtRp3060
(dp3061
g54
(dp3062
g74
g75
ssg63
g3056
sg56
(lp3063
S'QUERY_STRING'
p3064
asbag49
(g70
g51
NtRp3065
(dp3066
g54
(dp3067
g81
g82
ssg63
g3056
sg56
(lp3068
S':'
asbag49
(g70
g51
NtRp3069
(dp3070
g54
(dp3071
sg63
g3056
sg56
(lp3072
g49
(g50
g51
NtRp3073
(dp3074
g54
(dp3075
g62
I3
ssg63
g3069
sg56
(lp3076
S''
asbasbasbag49
(g65
g51
NtRp3077
(dp3078
g54
(dp3079
sg63
g2758
sg56
(lp3080
g49
(g70
g51
NtRp3081
(dp3082
g54
(dp3083
g74
g75
ssg63
g3077
sg56
(lp3084
S'REMOTE_ADDR'
p3085
asbag49
(g70
g51
NtRp3086
(dp3087
g54
(dp3088
g81
g82
ssg63
g3077
sg56
(lp3089
S':'
asbag49
(g70
g51
NtRp3090
(dp3091
g54
(dp3092
sg63
g3077
sg56
(lp3093
g49
(g50
g51
NtRp3094
(dp3095
g54
(dp3096
g62
I3
ssg63
g3090
sg56
(lp3097
g216
asbasbasbag49
(g65
g51
NtRp3098
(dp3099
g54
(dp3100
sg63
g2758
sg56
(lp3101
g49
(g70
g51
NtRp3102
(dp3103
g54
(dp3104
g74
g75
ssg63
g3098
sg56
(lp3105
S'REMOTE_PORT'
p3106
asbag49
(g70
g51
NtRp3107
(dp3108
g54
(dp3109
g81
g82
ssg63
g3098
sg56
(lp3110
S':'
asbag49
(g70
g51
NtRp3111
(dp3112
g54
(dp3113
sg63
g3098
sg56
(lp3114
g49
(g50
g51
NtRp3115
(dp3116
g54
(dp3117
g62
I3
ssg63
g3111
sg56
(lp3118
g1451
asbasbasbag49
(g65
g51
NtRp3119
(dp3120
g54
(dp3121
sg63
g2758
sg56
(lp3122
g49
(g70
g51
NtRp3123
(dp3124
g54
(dp3125
g74
g75
ssg63
g3119
sg56
(lp3126
S'REQUEST_METHOD'
p3127
asbag49
(g70
g51
NtRp3128
(dp3129
g54
(dp3130
g81
g82
ssg63
g3119
sg56
(lp3131
S':'
asbag49
(g70
g51
NtRp3132
(dp3133
g54
(dp3134
sg63
g3119
sg56
(lp3135
g49
(g50
g51
NtRp3136
(dp3137
g54
(dp3138
g62
I3
ssg63
g3132
sg56
(lp3139
g1473
asbasbasbag49
(g65
g51
NtRp3140
(dp3141
g54
(dp3142
sg63
g2758
sg56
(lp3143
g49
(g70
g51
NtRp3144
(dp3145
g54
(dp3146
g74
g75
ssg63
g3140
sg56
(lp3147
S'REQUEST_URI'
p3148
asbag49
(g70
g51
NtRp3149
(dp3150
g54
(dp3151
g81
g82
ssg63
g3140
sg56
(lp3152
S':'
asbag49
(g70
g51
NtRp3153
(dp3154
g54
(dp3155
sg63
g3140
sg56
(lp3156
g49
(g50
g51
NtRp3157
(dp3158
g54
(dp3159
g62
I3
ssg63
g3153
sg56
(lp3160
g1387
asbasbasbag49
(g65
g51
NtRp3161
(dp3162
g54
(dp3163
sg63
g2758
sg56
(lp3164
g49
(g70
g51
NtRp3165
(dp3166
g54
(dp3167
g74
g75
ssg63
g3161
sg56
(lp3168
S'SCRIPT_NAME'
p3169
asbag49
(g70
g51
NtRp3170
(dp3171
g54
(dp3172
g81
g82
ssg63
g3161
sg56
(lp3173
S':'
asbag49
(g70
g51
NtRp3174
(dp3175
g54
(dp3176
sg63
g3161
sg56
(lp3177
g49
(g50
g51
NtRp3178
(dp3179
g54
(dp3180
g62
I3
ssg63
g3174
sg56
(lp3181
S''
asbasbasbag49
(g65
g51
NtRp3182
(dp3183
g54
(dp3184
sg63
g2758
sg56
(lp3185
g49
(g70
g51
NtRp3186
(dp3187
g54
(dp3188
g74
g75
ssg63
g3182
sg56
(lp3189
S'SERVER_NAME'
p3190
asbag49
(g70
g51
NtRp3191
(dp3192
g54
(dp3193
g81
g82
ssg63
g3182
sg56
(lp3194
S':'
asbag49
(g70
g51
NtRp3195
(dp3196
g54
(dp3197
sg63
g3182
sg56
(lp3198
g49
(g50
g51
NtRp3199
(dp3200
g54
(dp3201
g62
I3
ssg63
g3195
sg56
(lp3202
g1352
asbasbasbag49
(g65
g51
NtRp3203
(dp3204
g54
(dp3205
sg63
g2758
sg56
(lp3206
g49
(g70
g51
NtRp3207
(dp3208
g54
(dp3209
g74
g75
ssg63
g3203
sg56
(lp3210
S'SERVER_PORT'
p3211
asbag49
(g70
g51
NtRp3212
(dp3213
g54
(dp3214
g81
g82
ssg63
g3203
sg56
(lp3215
S':'
asbag49
(g70
g51
NtRp3216
(dp3217
g54
(dp3218
sg63
g3203
sg56
(lp3219
g49
(g50
g51
NtRp3220
(dp3221
g54
(dp3222
g62
I3
ssg63
g3216
sg56
(lp3223
g1558
asbasbasbag49
(g65
g51
NtRp3224
(dp3225
g54
(dp3226
sg63
g2758
sg56
(lp3227
g49
(g70
g51
NtRp3228
(dp3229
g54
(dp3230
g74
g75
ssg63
g3224
sg56
(lp3231
S'SERVER_PROTOCOL'
p3232
asbag49
(g70
g51
NtRp3233
(dp3234
g54
(dp3235
g81
g82
ssg63
g3224
sg56
(lp3236
S':'
asbag49
(g70
g51
NtRp3237
(dp3238
g54
(dp3239
sg63
g3224
sg56
(lp3240
g49
(g50
g51
NtRp3241
(dp3242
g54
(dp3243
g62
I3
ssg63
g3237
sg56
(lp3244
g1580
asbasbasbag49
(g65
g51
NtRp3245
(dp3246
g54
(dp3247
sg63
g2758
sg56
(lp3248
g49
(g70
g51
NtRp3249
(dp3250
g54
(dp3251
g74
g75
ssg63
g3245
sg56
(lp3252
S'SERVER_SOFTWARE'
p3253
asbag49
(g70
g51
NtRp3254
(dp3255
g54
(dp3256
g81
g82
ssg63
g3245
sg56
(lp3257
S':'
asbag49
(g70
g51
NtRp3258
(dp3259
g54
(dp3260
sg63
g3245
sg56
(lp3261
g49
(g50
g51
NtRp3262
(dp3263
g54
(dp3264
g62
I3
ssg63
g3258
sg56
(lp3265
g1602
asbasbasbag49
(g65
g51
NtRp3266
(dp3267
g54
(dp3268
sg63
g2758
sg56
(lp3269
g49
(g70
g51
NtRp3270
(dp3271
g54
(dp3272
g74
g75
ssg63
g3266
sg56
(lp3273
S'wsgi.errors'
p3274
asbag49
(g70
g51
NtRp3275
(dp3276
g54
(dp3277
g81
g82
ssg63
g3266
sg56
(lp3278
S':'
asbag49
(g70
g51
NtRp3279
(dp3280
g54
(dp3281
sg63
g3266
sg56
(lp3282
g49
(g50
g51
NtRp3283
(dp3284
g54
(dp3285
g62
I3
ssg63
g3279
sg56
(lp3286
S"<open file '<stderr>', mode 'w' at 0x540b0>"
p3287
asbasbasbag49
(g65
g51
NtRp3288
(dp3289
g54
(dp3290
sg63
g2758
sg56
(lp3291
g49
(g70
g51
NtRp3292
(dp3293
g54
(dp3294
g74
g75
ssg63
g3288
sg56
(lp3295
S'wsgi.file_wrapper'
p3296
asbag49
(g70
g51
NtRp3297
(dp3298
g54
(dp3299
g81
g82
ssg63
g3288
sg56
(lp3300
S':'
asbag49
(g70
g51
NtRp3301
(dp3302
g54
(dp3303
sg63
g3288
sg56
(lp3304
g49
(g50
g51
NtRp3305
(dp3306
g54
(dp3307
g62
I3
ssg63
g3301
sg56
(lp3308
S'<class wsgiref.util.FileWrapper at 0x44002d0>'
p3309
asbasbasbag49
(g65
g51
NtRp3310
(dp3311
g54
(dp3312
sg63
g2758
sg56
(lp3313
g49
(g70
g51
NtRp3314
(dp3315
g54
(dp3316
g74
g75
ssg63
g3310
sg56
(lp3317
S'wsgi.input'
p3318
asbag49
(g70
g51
NtRp3319
(dp3320
g54
(dp3321
g81
g82
ssg63
g3310
sg56
(lp3322
S':'
asbag49
(g70
g51
NtRp3323
(dp3324
g54
(dp3325
sg63
g3310
sg56
(lp3326
g49
(g50
g51
NtRp3327
(dp3328
g54
(dp3329
g62
I3
ssg63
g3323
sg56
(lp3330
S"<open file '<fdopen>', mode 'w+b' at 0x89b6da0>"
p3331
asbasbasbag49
(g65
g51
NtRp3332
(dp3333
g54
(dp3334
sg63
g2758
sg56
(lp3335
g49
(g70
g51
NtRp3336
(dp3337
g54
(dp3338
g74
g75
ssg63
g3332
sg56
(lp3339
S'wsgi.multiprocess'
p3340
asbag49
(g70
g51
NtRp3341
(dp3342
g54
(dp3343
g81
g82
ssg63
g3332
sg56
(lp3344
S':'
asbag49
(g70
g51
NtRp3345
(dp3346
g54
(dp3347
sg63
g3332
sg56
(lp3348
g49
(g50
g51
NtRp3349
(dp3350
g54
(dp3351
g62
I3
ssg63
g3345
sg56
(lp3352
g92
asbasbasbag49
(g65
g51
NtRp3353
(dp3354
g54
(dp3355
sg63
g2758
sg56
(lp3356
g49
(g70
g51
NtRp3357
(dp3358
g54
(dp3359
g74
g75
ssg63
g3353
sg56
(lp3360
S'wsgi.multithread'
p3361
asbag49
(g70
g51
NtRp3362
(dp3363
g54
(dp3364
g81
g82
ssg63
g3353
sg56
(lp3365
S':'
asbag49
(g70
g51
NtRp3366
(dp3367
g54
(dp3368
sg63
g3353
sg56
(lp3369
g49
(g50
g51
NtRp3370
(dp3371
g54
(dp3372
g62
I3
ssg63
g3366
sg56
(lp3373
g1819
asbasbasbag49
(g65
g51
NtRp3374
(dp3375
g54
(dp3376
sg63
g2758
sg56
(lp3377
g49
(g70
g51
NtRp3378
(dp3379
g54
(dp3380
g74
g75
ssg63
g3374
sg56
(lp3381
S'wsgi.run_once'
p3382
asbag49
(g70
g51
NtRp3383
(dp3384
g54
(dp3385
g81
g82
ssg63
g3374
sg56
(lp3386
S':'
asbag49
(g70
g51
NtRp3387
(dp3388
g54
(dp3389
sg63
g3374
sg56
(lp3390
g49
(g50
g51
NtRp3391
(dp3392
g54
(dp3393
g62
I3
ssg63
g3387
sg56
(lp3394
g92
asbasbasbag49
(g65
g51
NtRp3395
(dp3396
g54
(dp3397
sg63
g2758
sg56
(lp3398
g49
(g70
g51
NtRp3399
(dp3400
g54
(dp3401
g74
g75
ssg63
g3395
sg56
(lp3402
S'wsgi.url_scheme'
p3403
asbag49
(g70
g51
NtRp3404
(dp3405
g54
(dp3406
g81
g82
ssg63
g3395
sg56
(lp3407
S':'
asbag49
(g70
g51
NtRp3408
(dp3409
g54
(dp3410
sg63
g3395
sg56
(lp3411
g49
(g50
g51
NtRp3412
(dp3413
g54
(dp3414
g62
I3
ssg63
g3408
sg56
(lp3415
g1862
asbasbasbag49
(g65
g51
NtRp3416
(dp3417
g54
(dp3418
sg63
g2758
sg56
(lp3419
g49
(g70
g51
NtRp3420
(dp3421
g54
(dp3422
g74
g75
ssg63
g3416
sg56
(lp3423
S'wsgi.version'
p3424
asbag49
(g70
g51
NtRp3425
(dp3426
g54
(dp3427
g81
g82
ssg63
g3416
sg56
(lp3428
S':'
asbag49
(g70
g51
NtRp3429
(dp3430
g54
(dp3431
sg63
g3416
sg56
(lp3432
g49
(g50
g51
NtRp3433
(dp3434
g54
(dp3435
g62
I3
ssg63
g3429
sg56
(lp3436
S'1'
asbasbasbasbasbasbasbasbasbasbasbasbasbsS'frames'
p3437
(lp3438
(dp3439
S'file'
p3440
S'/Users/abaric/Downloads/web2py/web2py.app/Contents/Resources/gluon/restricted.py'
p3441
sS'dump'
p3442
(dp3443
sS'lnum'
p3444
I212
sS'lines'
p3445
(dp3446
sS'call'
p3447
S"(code='from gluon.tools import datetime\\n\\ndef user():\\n  ...e._vars=response._caller(insert_writing_comment)\\n', environment={'A': <class 'gluon.html.A'>, 'Auth': <class 'gluon.tools.Auth'>, 'B': <class 'gluon.html.B'>, 'BEAUTIFY': <class 'gluon.html.BEAUTIFY'>, 'BODY': <class 'gluon.html.BODY'>, 'BR': <class 'gluon.html.BR'>, 'BUTTON': <class 'gluon.html.BUTTON'>, 'CAT': <class 'gluon.html.CAT'>, 'CENTER': <class 'gluon.html.CENTER'>, 'CLEANUP': <class 'gluon.validators.CLEANUP'>, ...}, layer='/Users/abaric/Downloads/web2py/web2py.app/Conten...applications/Final_Impulse/controllers/default.py')"
p3448
sS'func'
p3449
S'restricted'
p3450
sa(dp3451
g3440
S'/Users/abaric/Downloads/web2py/web2py.app/Contents/Resources/applications/Final_Impulse/controllers/default.py'
p3452
sg3442
(dp3453
sg3444
I108
sg3445
(dp3454
I97
S'   # db.writing_comment.insert(video_id=video_id,video_comment_id=video_comment_id, author_id=author_id,email=email,body=body)'
p3455
sI98
S'    writing_id=request.args(0)'
p3456
sI99
S'    db.writing_comment.insert(author_id=auth.user.id,'
p3457
sI100
S'                              writing_id=writing_id,'
p3458
sI101
S'                              email=None,'
p3459
sI102
S'                              body=writing_comment,'
p3460
sI103
S'                              date_of_entry=datetime.datetime.today())'
p3461
sI104
S'    db.commit()'
p3462
sI105
S"    redirect(URL('show_writing_comments'))"
p3463
sI106
S'    return locals()'
p3464
ssg3447
S'()'
p3465
sg3449
S'<module>'
p3466
sa(dp3467
g3440
S'/Users/abaric/Downloads/web2py/web2py.app/Contents/Resources/gluon/globals.py'
p3468
sg3442
(dp3469
sg3444
I188
sg3445
(dp3470
sg3447
S'(f=<function insert_writing_comment at 0x7843eb0>)'
p3471
sg3449
S'<lambda>'
p3472
sa(dp3473
g3440
S'/Users/abaric/Downloads/web2py/web2py.app/Contents/Resources/applications/Final_Impulse/controllers/default.py'
p3474
sg3442
(dp3475
sg3444
I99
sg3445
(dp3476
I96
S'    writing_comment=request.post_vars.writing_comment'
p3477
sI97
S'   # db.writing_comment.insert(video_id=video_id,video_comment_id=video_comment_id, author_id=author_id,email=email,body=body)'
p3478
sI98
S'    writing_id=request.args(0)'
p3479
sI99
S'    db.writing_comment.insert(author_id=auth.user.id,'
p3480
sI100
S'                              writing_id=writing_id,'
p3481
sI101
S'                              email=None,'
p3482
sI102
S'                              body=writing_comment,'
p3483
sI103
S'                              date_of_entry=datetime.datetime.today())'
p3484
sI94
S'def insert_writing_comment():'
p3485
sI95
S''
ssg3447
S'()'
p3486
sg3449
S'insert_writing_comment'
p3487
sasS'pyver'
p3488
S'Python 2.5.1: /Users/abaric/Downloads/web2py/web2py.app/Contents/MacOS/python'
p3489
sS'session'
p3490
g49
(g50
g51
NtRp3491
(dp3492
g54
(dp3493
sg56
(lp3494
g49
(g58
g51
NtRp3495
(dp3496
g54
(dp3497
g62
I5
ssg63
Nsg56
(lp3498
g49
(g65
g51
NtRp3499
(dp3500
g54
(dp3501
sg63
g3495
sg56
(lp3502
g49
(g70
g51
NtRp3503
(dp3504
g54
(dp3505
g74
g75
ssg63
g3499
sg56
(lp3506
S'flash'
p3507
asbag49
(g70
g51
NtRp3508
(dp3509
g54
(dp3510
g81
g82
ssg63
g3499
sg56
(lp3511
S':'
asbag49
(g70
g51
NtRp3512
(dp3513
g54
(dp3514
sg63
g3499
sg56
(lp3515
g49
(g50
g51
NtRp3516
(dp3517
g54
(dp3518
g62
I5
ssg63
g3512
sg56
(lp3519
S'None'
p3520
asbasbasbag49
(g65
g51
NtRp3521
(dp3522
g54
(dp3523
sg63
g3495
sg56
(lp3524
g49
(g70
g51
NtRp3525
(dp3526
g54
(dp3527
g74
g75
ssg63
g3521
sg56
(lp3528
S'last_orderby'
p3529
asbag49
(g70
g51
NtRp3530
(dp3531
g54
(dp3532
g81
g82
ssg63
g3521
sg56
(lp3533
S':'
asbag49
(g70
g51
NtRp3534
(dp3535
g54
(dp3536
sg63
g3521
sg56
(lp3537
g49
(g50
g51
NtRp3538
(dp3539
g54
(dp3540
g62
I5
ssg63
g3534
sg56
(lp3541
S'None'
p3542
asbasbasbag49
(g65
g51
NtRp3543
(dp3544
g54
(dp3545
sg63
g3495
sg56
(lp3546
g49
(g70
g51
NtRp3547
(dp3548
g54
(dp3549
g74
g75
ssg63
g3543
sg56
(lp3550
S'last_query'
p3551
asbag49
(g70
g51
NtRp3552
(dp3553
g54
(dp3554
g81
g82
ssg63
g3543
sg56
(lp3555
S':'
asbag49
(g70
g51
NtRp3556
(dp3557
g54
(dp3558
sg63
g3543
sg56
(lp3559
g49
(g50
g51
NtRp3560
(dp3561
g54
(dp3562
g62
I5
ssg63
g3556
sg56
(lp3563
S'db.writing_comment.id>0'
p3564
asbasbasbasbasbsS'etype'
p3565
S"<type 'exceptions.AttributeError'>"
p3566
sS'date'
p3567
S'Tue Apr  8 15:12:53 2014'
p3568
sS'response'
p3569
g49
(g50
g51
NtRp3570
(dp3571
g54
(dp3572
sg56
(lp3573
g49
(g58
g51
NtRp3574
(dp3575
g54
(dp3576
g62
I5
ssg63
Nsg56
(lp3577
g49
(g65
g51
NtRp3578
(dp3579
g54
(dp3580
sg63
g3574
sg56
(lp3581
g49
(g70
g51
NtRp3582
(dp3583
g54
(dp3584
g74
g75
ssg63
g3578
sg56
(lp3585
g159
asbag49
(g70
g51
NtRp3586
(dp3587
g54
(dp3588
g81
g82
ssg63
g3578
sg56
(lp3589
S':'
asbag49
(g70
g51
NtRp3590
(dp3591
g54
(dp3592
sg63
g3578
sg56
(lp3593
g49
(g50
g51
NtRp3594
(dp3595
g54
(dp3596
g62
I5
ssg63
g3590
sg56
(lp3597
S'<cStringIO.StringO object at 0x98f1900>'
p3598
asbasbasbag49
(g65
g51
NtRp3599
(dp3600
g54
(dp3601
sg63
g3574
sg56
(lp3602
g49
(g70
g51
NtRp3603
(dp3604
g54
(dp3605
g74
g75
ssg63
g3599
sg56
(lp3606
g247
asbag49
(g70
g51
NtRp3607
(dp3608
g54
(dp3609
g81
g82
ssg63
g3599
sg56
(lp3610
S':'
asbag49
(g70
g51
NtRp3611
(dp3612
g54
(dp3613
sg63
g3599
sg56
(lp3614
g49
(g50
g51
NtRp3615
(dp3616
g54
(dp3617
g62
I5
ssg63
g3611
sg56
(lp3618
g49
(g58
g51
NtRp3619
(dp3620
g54
(dp3621
g62
I4
ssg63
Nsg56
(lp3622
g49
(g65
g51
NtRp3623
(dp3624
g54
(dp3625
sg63
g3619
sg56
(lp3626
g49
(g70
g51
NtRp3627
(dp3628
g54
(dp3629
g74
g75
ssg63
g3623
sg56
(lp3630
S'session_id_final_impulse'
p3631
asbag49
(g70
g51
NtRp3632
(dp3633
g54
(dp3634
g81
g82
ssg63
g3623
sg56
(lp3635
S':'
asbag49
(g70
g51
NtRp3636
(dp3637
g54
(dp3638
sg63
g3623
sg56
(lp3639
g49
(g50
g51
NtRp3640
(dp3641
g54
(dp3642
g62
I4
ssg63
g3636
sg56
(lp3643
g458
ag49
(g58
g51
NtRp3644
(dp3645
g54
(dp3646
g62
I3
ssg63
Nsg56
(lp3647
g49
(g65
g51
NtRp3648
(dp3649
g54
(dp3650
sg63
g3644
sg56
(lp3651
g49
(g70
g51
NtRp3652
(dp3653
g54
(dp3654
g74
g75
ssg63
g3648
sg56
(lp3655
g298
asbag49
(g70
g51
NtRp3656
(dp3657
g54
(dp3658
g81
g82
ssg63
g3648
sg56
(lp3659
S':'
asbag49
(g70
g51
NtRp3660
(dp3661
g54
(dp3662
sg63
g3648
sg56
(lp3663
g49
(g50
g51
NtRp3664
(dp3665
g54
(dp3666
g62
I3
ssg63
g3660
sg56
(lp3667
S''
asbasbasbag49
(g65
g51
NtRp3668
(dp3669
g54
(dp3670
sg63
g3644
sg56
(lp3671
g49
(g70
g51
NtRp3672
(dp3673
g54
(dp3674
g74
g75
ssg63
g3668
sg56
(lp3675
g319
asbag49
(g70
g51
NtRp3676
(dp3677
g54
(dp3678
g81
g82
ssg63
g3668
sg56
(lp3679
S':'
asbag49
(g70
g51
NtRp3680
(dp3681
g54
(dp3682
sg63
g3668
sg56
(lp3683
g49
(g50
g51
NtRp3684
(dp3685
g54
(dp3686
g62
I3
ssg63
g3680
sg56
(lp3687
S''
asbasbasbag49
(g65
g51
NtRp3688
(dp3689
g54
(dp3690
sg63
g3644
sg56
(lp3691
g49
(g70
g51
NtRp3692
(dp3693
g54
(dp3694
g74
g75
ssg63
g3688
sg56
(lp3695
g340
asbag49
(g70
g51
NtRp3696
(dp3697
g54
(dp3698
g81
g82
ssg63
g3688
sg56
(lp3699
S':'
asbag49
(g70
g51
NtRp3700
(dp3701
g54
(dp3702
sg63
g3688
sg56
(lp3703
g49
(g50
g51
NtRp3704
(dp3705
g54
(dp3706
g62
I3
ssg63
g3700
sg56
(lp3707
S''
asbasbasbag49
(g65
g51
NtRp3708
(dp3709
g54
(dp3710
sg63
g3644
sg56
(lp3711
g49
(g70
g51
NtRp3712
(dp3713
g54
(dp3714
g74
g75
ssg63
g3708
sg56
(lp3715
g361
asbag49
(g70
g51
NtRp3716
(dp3717
g54
(dp3718
g81
g82
ssg63
g3708
sg56
(lp3719
S':'
asbag49
(g70
g51
NtRp3720
(dp3721
g54
(dp3722
sg63
g3708
sg56
(lp3723
g49
(g50
g51
NtRp3724
(dp3725
g54
(dp3726
g62
I3
ssg63
g3720
sg56
(lp3727
S''
asbasbasbag49
(g65
g51
NtRp3728
(dp3729
g54
(dp3730
sg63
g3644
sg56
(lp3731
g49
(g70
g51
NtRp3732
(dp3733
g54
(dp3734
g74
g75
ssg63
g3728
sg56
(lp3735
g382
asbag49
(g70
g51
NtRp3736
(dp3737
g54
(dp3738
g81
g82
ssg63
g3728
sg56
(lp3739
S':'
asbag49
(g70
g51
NtRp3740
(dp3741
g54
(dp3742
sg63
g3728
sg56
(lp3743
g49
(g50
g51
NtRp3744
(dp3745
g54
(dp3746
g62
I3
ssg63
g3740
sg56
(lp3747
S'/'
asbasbasbag49
(g65
g51
NtRp3748
(dp3749
g54
(dp3750
sg63
g3644
sg56
(lp3751
g49
(g70
g51
NtRp3752
(dp3753
g54
(dp3754
g74
g75
ssg63
g3748
sg56
(lp3755
g403
asbag49
(g70
g51
NtRp3756
(dp3757
g54
(dp3758
g81
g82
ssg63
g3748
sg56
(lp3759
S':'
asbag49
(g70
g51
NtRp3760
(dp3761
g54
(dp3762
sg63
g3748
sg56
(lp3763
g49
(g50
g51
NtRp3764
(dp3765
g54
(dp3766
g62
I3
ssg63
g3760
sg56
(lp3767
S''
asbasbasbag49
(g65
g51
NtRp3768
(dp3769
g54
(dp3770
sg63
g3644
sg56
(lp3771
g49
(g70
g51
NtRp3772
(dp3773
g54
(dp3774
g74
g75
ssg63
g3768
sg56
(lp3775
g424
asbag49
(g70
g51
NtRp3776
(dp3777
g54
(dp3778
g81
g82
ssg63
g3768
sg56
(lp3779
S':'
asbag49
(g70
g51
NtRp3780
(dp3781
g54
(dp3782
sg63
g3768
sg56
(lp3783
g49
(g50
g51
NtRp3784
(dp3785
g54
(dp3786
g62
I3
ssg63
g3780
sg56
(lp3787
S''
asbasbasbasbasbasbasbasbasbasbasbag49
(g65
g51
NtRp3788
(dp3789
g54
(dp3790
sg63
g3574
sg56
(lp3791
g49
(g70
g51
NtRp3792
(dp3793
g54
(dp3794
g74
g75
ssg63
g3788
sg56
(lp3795
S'delimiters'
p3796
asbag49
(g70
g51
NtRp3797
(dp3798
g54
(dp3799
g81
g82
ssg63
g3788
sg56
(lp3800
S':'
asbag49
(g70
g51
NtRp3801
(dp3802
g54
(dp3803
sg63
g3788
sg56
(lp3804
g49
(g50
g51
NtRp3805
(dp3806
g54
(dp3807
g62
I5
ssg63
g3801
sg56
(lp3808
g49
(g58
g51
NtRp3809
(dp3810
g54
(dp3811
g62
I4
ssg63
Nsg56
(lp3812
g49
(g65
g51
NtRp3813
(dp3814
g54
(dp3815
sg63
g3809
sg56
(lp3816
g49
(g70
g51
NtRp3817
(dp3818
g54
(dp3819
sg63
g3813
sg56
(lp3820
g49
(g50
g51
NtRp3821
(dp3822
g54
(dp3823
g62
I4
ssg63
g3817
sg56
(lp3824
S'{{'
p3825
asbasbasbag49
(g65
g51
NtRp3826
(dp3827
g54
(dp3828
sg63
g3809
sg56
(lp3829
g49
(g70
g51
NtRp3830
(dp3831
g54
(dp3832
sg63
g3826
sg56
(lp3833
g49
(g50
g51
NtRp3834
(dp3835
g54
(dp3836
g62
I4
ssg63
g3830
sg56
(lp3837
S'}}'
p3838
asbasbasbasbasbasbasbag49
(g65
g51
NtRp3839
(dp3840
g54
(dp3841
sg63
g3574
sg56
(lp3842
g49
(g70
g51
NtRp3843
(dp3844
g54
(dp3845
g74
g75
ssg63
g3839
sg56
(lp3846
S'files'
p3847
asbag49
(g70
g51
NtRp3848
(dp3849
g54
(dp3850
g81
g82
ssg63
g3839
sg56
(lp3851
S':'
asbag49
(g70
g51
NtRp3852
(dp3853
g54
(dp3854
sg63
g3839
sg56
(lp3855
g49
(g50
g51
NtRp3856
(dp3857
g54
(dp3858
g62
I5
ssg63
g3852
sg56
(lp3859
g49
(g58
g51
NtRp3860
(dp3861
g54
(dp3862
g62
I4
ssg63
Nsg56
(lp3863
sbasbasbasbag49
(g65
g51
NtRp3864
(dp3865
g54
(dp3866
sg63
g3574
sg56
(lp3867
g49
(g70
g51
NtRp3868
(dp3869
g54
(dp3870
g74
g75
ssg63
g3864
sg56
(lp3871
S'flash'
p3872
asbag49
(g70
g51
NtRp3873
(dp3874
g54
(dp3875
g81
g82
ssg63
g3864
sg56
(lp3876
S':'
asbag49
(g70
g51
NtRp3877
(dp3878
g54
(dp3879
sg63
g3864
sg56
(lp3880
g49
(g50
g51
NtRp3881
(dp3882
g54
(dp3883
g62
I5
ssg63
g3877
sg56
(lp3884
S''
asbasbasbag49
(g65
g51
NtRp3885
(dp3886
g54
(dp3887
sg63
g3574
sg56
(lp3888
g49
(g70
g51
NtRp3889
(dp3890
g54
(dp3891
g74
g75
ssg63
g3885
sg56
(lp3892
S'generic_patterns'
p3893
asbag49
(g70
g51
NtRp3894
(dp3895
g54
(dp3896
g81
g82
ssg63
g3885
sg56
(lp3897
S':'
asbag49
(g70
g51
NtRp3898
(dp3899
g54
(dp3900
sg63
g3885
sg56
(lp3901
g49
(g50
g51
NtRp3902
(dp3903
g54
(dp3904
g62
I5
ssg63
g3898
sg56
(lp3905
g49
(g58
g51
NtRp3906
(dp3907
g54
(dp3908
g62
I4
ssg63
Nsg56
(lp3909
sbasbasbasbag49
(g65
g51
NtRp3910
(dp3911
g54
(dp3912
sg63
g3574
sg56
(lp3913
g49
(g70
g51
NtRp3914
(dp3915
g54
(dp3916
g74
g75
ssg63
g3910
sg56
(lp3917
S'google_analytics_id'
p3918
asbag49
(g70
g51
NtRp3919
(dp3920
g54
(dp3921
g81
g82
ssg63
g3910
sg56
(lp3922
S':'
asbag49
(g70
g51
NtRp3923
(dp3924
g54
(dp3925
sg63
g3910
sg56
(lp3926
g49
(g50
g51
NtRp3927
(dp3928
g54
(dp3929
g62
I5
ssg63
g3923
sg56
(lp3930
S'None'
p3931
asbasbasbag49
(g65
g51
NtRp3932
(dp3933
g54
(dp3934
sg63
g3574
sg56
(lp3935
g49
(g70
g51
NtRp3936
(dp3937
g54
(dp3938
g74
g75
ssg63
g3932
sg56
(lp3939
S'headers'
p3940
asbag49
(g70
g51
NtRp3941
(dp3942
g54
(dp3943
g81
g82
ssg63
g3932
sg56
(lp3944
S':'
asbag49
(g70
g51
NtRp3945
(dp3946
g54
(dp3947
sg63
g3932
sg56
(lp3948
g49
(g50
g51
NtRp3949
(dp3950
g54
(dp3951
g62
I5
ssg63
g3945
sg56
(lp3952
g49
(g58
g51
NtRp3953
(dp3954
g54
(dp3955
g62
I4
ssg63
Nsg56
(lp3956
g49
(g65
g51
NtRp3957
(dp3958
g54
(dp3959
sg63
g3953
sg56
(lp3960
g49
(g70
g51
NtRp3961
(dp3962
g54
(dp3963
g74
g75
ssg63
g3957
sg56
(lp3964
S'X-Powered-By'
p3965
asbag49
(g70
g51
NtRp3966
(dp3967
g54
(dp3968
g81
g82
ssg63
g3957
sg56
(lp3969
S':'
asbag49
(g70
g51
NtRp3970
(dp3971
g54
(dp3972
sg63
g3957
sg56
(lp3973
g49
(g50
g51
NtRp3974
(dp3975
g54
(dp3976
g62
I4
ssg63
g3970
sg56
(lp3977
S'web2py'
p3978
asbasbasbasbasbasbasbag49
(g65
g51
NtRp3979
(dp3980
g54
(dp3981
sg63
g3574
sg56
(lp3982
g49
(g70
g51
NtRp3983
(dp3984
g54
(dp3985
g74
g75
ssg63
g3979
sg56
(lp3986
S'menu'
p3987
asbag49
(g70
g51
NtRp3988
(dp3989
g54
(dp3990
g81
g82
ssg63
g3979
sg56
(lp3991
S':'
asbag49
(g70
g51
NtRp3992
(dp3993
g54
(dp3994
sg63
g3979
sg56
(lp3995
g49
(g50
g51
NtRp3996
(dp3997
g54
(dp3998
g62
I5
ssg63
g3992
sg56
(lp3999
g49
(g58
g51
NtRp4000
(dp4001
g54
(dp4002
g62
I4
ssg63
Nsg56
(lp4003
g49
(g65
g51
NtRp4004
(dp4005
g54
(dp4006
sg63
g4000
sg56
(lp4007
g49
(g70
g51
NtRp4008
(dp4009
g54
(dp4010
sg63
g4004
sg56
(lp4011
g49
(g50
g51
NtRp4012
(dp4013
g54
(dp4014
g62
I4
ssg63
g4008
sg56
(lp4015
g49
(g58
g51
NtRp4016
(dp4017
g54
(dp4018
g62
I3
ssg63
Nsg56
(lp4019
g49
(g65
g51
NtRp4020
(dp4021
g54
(dp4022
sg63
g4016
sg56
(lp4023
g49
(g70
g51
NtRp4024
(dp4025
g54
(dp4026
sg63
g4020
sg56
(lp4027
g49
(g50
g51
NtRp4028
(dp4029
g54
(dp4030
g62
I3
ssg63
g4024
sg56
(lp4031
cgluon.languages
lazyT_unpickle
p4032
(S't\x04\x00\x00\x00Home'
tRp4033
asbasbasbag49
(g65
g51
NtRp4034
(dp4035
g54
(dp4036
sg63
g4016
sg56
(lp4037
g49
(g70
g51
NtRp4038
(dp4039
g54
(dp4040
sg63
g4034
sg56
(lp4041
g49
(g50
g51
NtRp4042
(dp4043
g54
(dp4044
g62
I3
ssg63
g4038
sg56
(lp4045
g92
asbasbasbag49
(g65
g51
NtRp4046
(dp4047
g54
(dp4048
sg63
g4016
sg56
(lp4049
g49
(g70
g51
NtRp4050
(dp4051
g54
(dp4052
sg63
g4046
sg56
(lp4053
g49
(g50
g51
NtRp4054
(dp4055
g54
(dp4056
g62
I3
ssg63
g4050
sg56
(lp4057
S'/Final_Impulse/default/index'
p4058
asbasbasbag49
(g65
g51
NtRp4059
(dp4060
g54
(dp4061
sg63
g4016
sg56
(lp4062
g49
(g70
g51
NtRp4063
(dp4064
g54
(dp4065
sg63
g4059
sg56
(lp4066
g49
(g50
g51
NtRp4067
(dp4068
g54
(dp4069
g62
I3
ssg63
g4063
sg56
(lp4070
g49
(g58
g51
NtRp4071
(dp4072
g54
(dp4073
g62
I2
ssg63
Nsg56
(lp4074
sbasbasbasbasbasbasbasbag49
(g65
g51
NtRp4075
(dp4076
g54
(dp4077
sg63
g4000
sg56
(lp4078
g49
(g70
g51
NtRp4079
(dp4080
g54
(dp4081
sg63
g4075
sg56
(lp4082
g49
(g50
g51
NtRp4083
(dp4084
g54
(dp4085
g62
I4
ssg63
g4079
sg56
(lp4086
g49
(g58
g51
NtRp4087
(dp4088
g54
(dp4089
g62
I3
ssg63
Nsg56
(lp4090
g49
(g65
g51
NtRp4091
(dp4092
g54
(dp4093
sg63
g4087
sg56
(lp4094
g49
(g70
g51
NtRp4095
(dp4096
g54
(dp4097
sg63
g4091
sg56
(lp4098
g49
(g50
g51
NtRp4099
(dp4100
g54
(dp4101
g62
I3
ssg63
g4095
sg56
(lp4102
g49
(cgluon.html
SPAN
p4103
g51
NtRp4104
(dp4105
g54
(dp4106
S'_class'
p4107
S'highlighted'
p4108
ssg63
Nsg56
(lp4109
g3978
asbasbasbasbag49
(g65
g51
NtRp4110
(dp4111
g54
(dp4112
sg63
g4087
sg56
(lp4113
g49
(g70
g51
NtRp4114
(dp4115
g54
(dp4116
sg63
g4110
sg56
(lp4117
g49
(g50
g51
NtRp4118
(dp4119
g54
(dp4120
g62
I3
ssg63
g4114
sg56
(lp4121
g92
asbasbasbag49
(g65
g51
NtRp4122
(dp4123
g54
(dp4124
sg63
g4087
sg56
(lp4125
g49
(g70
g51
NtRp4126
(dp4127
g54
(dp4128
sg63
g4122
sg56
(lp4129
g49
(g50
g51
NtRp4130
(dp4131
g54
(dp4132
g62
I3
ssg63
g4126
sg56
(lp4133
S'http://web2py.com'
p4134
asbasbasbag49
(g65
g51
NtRp4135
(dp4136
g54
(dp4137
sg63
g4087
sg56
(lp4138
g49
(g70
g51
NtRp4139
(dp4140
g54
(dp4141
sg63
g4135
sg56
(lp4142
g49
(g50
g51
NtRp4143
(dp4144
g54
(dp4145
g62
I3
ssg63
g4139
sg56
(lp4146
g49
(g58
g51
NtRp4147
(dp4148
g54
(dp4149
g62
I2
ssg63
Nsg56
(lp4150
g49
(g65
g51
NtRp4151
(dp4152
g54
(dp4153
sg63
g4147
sg56
(lp4154
g49
(g70
g51
NtRp4155
(dp4156
g54
(dp4157
sg63
g4151
sg56
(lp4158
g49
(g50
g51
NtRp4159
(dp4160
g54
(dp4161
g62
I2
ssg63
g4155
sg56
(lp4162
g49
(g58
g51
NtRp4163
(dp4164
g54
(dp4165
g62
I1
ssg63
Nsg56
(lp4166
g49
(g65
g51
NtRp4167
(dp4168
g54
(dp4169
sg63
g4163
sg56
(lp4170
g49
(g70
g51
NtRp4171
(dp4172
g54
(dp4173
sg63
g4167
sg56
(lp4174
g49
(g50
g51
NtRp4175
(dp4176
g54
(dp4177
g62
I1
ssg63
g4171
sg56
(lp4178
g4032
(S's\x08\x00\x00\x00My Sites'
tRp4179
asbasbasbag49
(g65
g51
NtRp4180
(dp4181
g54
(dp4182
sg63
g4163
sg56
(lp4183
g49
(g70
g51
NtRp4184
(dp4185
g54
(dp4186
sg63
g4180
sg56
(lp4187
g49
(g50
g51
NtRp4188
(dp4189
g54
(dp4190
g62
I1
ssg63
g4184
sg56
(lp4191
I00
asbasbasbag49
(g65
g51
NtRp4192
(dp4193
g54
(dp4194
sg63
g4163
sg56
(lp4195
g49
(g70
g51
NtRp4196
(dp4197
g54
(dp4198
sg63
g4192
sg56
(lp4199
g49
(g50
g51
NtRp4200
(dp4201
g54
(dp4202
g62
I1
ssg63
g4196
sg56
(lp4203
S'/admin/default/site'
p4204
asbasbasbasbasbasbasbag49
(g65
g51
NtRp4205
(dp4206
g54
(dp4207
sg63
g4147
sg56
(lp4208
g49
(g70
g51
NtRp4209
(dp4210
g54
(dp4211
sg63
g4205
sg56
(lp4212
g49
(g50
g51
NtRp4213
(dp4214
g54
(dp4215
g62
I2
ssg63
g4209
sg56
(lp4216
g49
(g58
g51
NtRp4217
(dp4218
g54
(dp4219
g62
I1
ssg63
Nsg56
(lp4220
g49
(g65
g51
NtRp4221
(dp4222
g54
(dp4223
sg63
g4217
sg56
(lp4224
g49
(g70
g51
NtRp4225
(dp4226
g54
(dp4227
sg63
g4221
sg56
(lp4228
g49
(g50
g51
NtRp4229
(dp4230
g54
(dp4231
g62
I1
ssg63
g4225
sg56
(lp4232
g4032
(S's\x08\x00\x00\x00This App'
tRp4233
asbasbasbag49
(g65
g51
NtRp4234
(dp4235
g54
(dp4236
sg63
g4217
sg56
(lp4237
g49
(g70
g51
NtRp4238
(dp4239
g54
(dp4240
sg63
g4234
sg56
(lp4241
g49
(g50
g51
NtRp4242
(dp4243
g54
(dp4244
g62
I1
ssg63
g4238
sg56
(lp4245
I00
asbasbasbag49
(g65
g51
NtRp4246
(dp4247
g54
(dp4248
sg63
g4217
sg56
(lp4249
g49
(g70
g51
NtRp4250
(dp4251
g54
(dp4252
sg63
g4246
sg56
(lp4253
g49
(g50
g51
NtRp4254
(dp4255
g54
(dp4256
g62
I1
ssg63
g4250
sg56
(lp4257
S'/admin/default/design/Final_Impulse'
p4258
asbasbasbag49
(g65
g51
NtRp4259
(dp4260
g54
(dp4261
sg63
g4217
sg56
(lp4262
g49
(g70
g51
NtRp4263
(dp4264
g54
(dp4265
sg63
g4259
sg56
(lp4266
g49
(g50
g51
NtRp4267
(dp4268
g54
(dp4269
g62
I1
ssg63
g4263
sg56
(lp4270
(lp4271
(g4032
(S't\n\x00\x00\x00Controller'
tRp4272
I00
S'/admin/default/edit/Final_Impulse/controllers/default.py'
tp4273
a(g4032
(S't\x04\x00\x00\x00View'
tRp4274
I00
S'/admin/default/edit/Final_Impulse/views/default/insert_writing_comment.html'
tp4275
a(g4032
(S't\x06\x00\x00\x00Layout'
tRp4276
I00
S'/admin/default/edit/Final_Impulse/views/layout.html'
tp4277
a(g4032
(S't\n\x00\x00\x00Stylesheet'
tRp4278
I00
S'/admin/default/edit/Final_Impulse/static/css/web2py.css'
tp4279
a(g4032
(S's\x08\x00\x00\x00DB Model'
tRp4280
I00
S'/admin/default/edit/Final_Impulse/models/db.py'
tp4281
a(g4032
(S's\n\x00\x00\x00Menu Model'
tRp4282
I00
S'/admin/default/edit/Final_Impulse/models/menu.py'
tp4283
a(g4032
(S't\x08\x00\x00\x00Database'
tRp4284
I00
S'/Final_Impulse/appadmin/index'
tp4285
a(g4032
(S't\x06\x00\x00\x00Errors'
tRp4286
I00
S'/admin/default/errors/Final_Impulse'
tp4287
a(g4032
(S't\x05\x00\x00\x00About'
tRp4288
I00
S'/admin/default/about/Final_Impulse'
tp4289
aasbasbasbasbasbasbasbag49
(g65
g51
NtRp4290
(dp4291
g54
(dp4292
sg63
g4147
sg56
(lp4293
g49
(g70
g51
NtRp4294
(dp4295
g54
(dp4296
sg63
g4290
sg56
(lp4297
g49
(g50
g51
NtRp4298
(dp4299
g54
(dp4300
g62
I2
ssg63
g4294
sg56
(lp4301
g49
(g58
g51
NtRp4302
(dp4303
g54
(dp4304
g62
I1
ssg63
Nsg56
(lp4305
g49
(g65
g51
NtRp4306
(dp4307
g54
(dp4308
sg63
g4302
sg56
(lp4309
g49
(g70
g51
NtRp4310
(dp4311
g54
(dp4312
sg63
g4306
sg56
(lp4313
g49
(g50
g51
NtRp4314
(dp4315
g54
(dp4316
g62
I1
ssg63
g4310
sg56
(lp4317
S'web2py.com'
p4318
asbasbasbag49
(g65
g51
NtRp4319
(dp4320
g54
(dp4321
sg63
g4302
sg56
(lp4322
g49
(g70
g51
NtRp4323
(dp4324
g54
(dp4325
sg63
g4319
sg56
(lp4326
g49
(g50
g51
NtRp4327
(dp4328
g54
(dp4329
g62
I1
ssg63
g4323
sg56
(lp4330
I00
asbasbasbag49
(g65
g51
NtRp4331
(dp4332
g54
(dp4333
sg63
g4302
sg56
(lp4334
g49
(g70
g51
NtRp4335
(dp4336
g54
(dp4337
sg63
g4331
sg56
(lp4338
g49
(g50
g51
NtRp4339
(dp4340
g54
(dp4341
g62
I1
ssg63
g4335
sg56
(lp4342
S'http://www.web2py.com'
p4343
asbasbasbag49
(g65
g51
NtRp4344
(dp4345
g54
(dp4346
sg63
g4302
sg56
(lp4347
g49
(g70
g51
NtRp4348
(dp4349
g54
(dp4350
sg63
g4344
sg56
(lp4351
g49
(g50
g51
NtRp4352
(dp4353
g54
(dp4354
g62
I1
ssg63
g4348
sg56
(lp4355
(lp4356
(g4032
(S't\x08\x00\x00\x00Download'
tRp4357
I00
S'http://www.web2py.com/examples/default/download'
p4358
tp4359
a(g4032
(S't\x07\x00\x00\x00Support'
tRp4360
I00
S'http://www.web2py.com/examples/default/support'
p4361
tp4362
a(g4032
(S't\x04\x00\x00\x00Demo'
tRp4363
I00
S'http://web2py.com/demo_admin'
p4364
tp4365
a(g4032
(S's\x0e\x00\x00\x00Quick Examples'
tRp4366
I00
S'http://web2py.com/examples/default/examples'
p4367
tp4368
a(g4032
(S't\x03\x00\x00\x00FAQ'
tRp4369
I00
S'http://web2py.com/AlterEgo'
p4370
tp4371
a(g4032
(S't\x06\x00\x00\x00Videos'
tRp4372
I00
S'http://www.web2py.com/examples/default/videos/'
p4373
tp4374
a(g4032
(S's\x11\x00\x00\x00Free Applications'
tRp4375
I00
S'http://web2py.com/appliances'
p4376
tp4377
a(g4032
(S't\x07\x00\x00\x00Plugins'
tRp4378
I00
S'http://web2py.com/plugins'
p4379
tp4380
a(g4032
(S't\x07\x00\x00\x00Layouts'
tRp4381
I00
S'http://web2py.com/layouts'
p4382
tp4383
a(g4032
(S't\x07\x00\x00\x00Recipes'
tRp4384
I00
S'http://web2pyslices.com/'
p4385
tp4386
a(g4032
(S't\x08\x00\x00\x00Semantic'
tRp4387
I00
S'http://web2py.com/semantic'
p4388
tp4389
aasbasbasbasbasbasbasbag49
(g65
g51
NtRp4390
(dp4391
g54
(dp4392
sg63
g4147
sg56
(lp4393
g49
(g70
g51
NtRp4394
(dp4395
g54
(dp4396
sg63
g4390
sg56
(lp4397
g49
(g50
g51
NtRp4398
(dp4399
g54
(dp4400
g62
I2
ssg63
g4394
sg56
(lp4401
g49
(g58
g51
NtRp4402
(dp4403
g54
(dp4404
g62
I1
ssg63
Nsg56
(lp4405
g49
(g65
g51
NtRp4406
(dp4407
g54
(dp4408
sg63
g4402
sg56
(lp4409
g49
(g70
g51
NtRp4410
(dp4411
g54
(dp4412
sg63
g4406
sg56
(lp4413
g49
(g50
g51
NtRp4414
(dp4415
g54
(dp4416
g62
I1
ssg63
g4410
sg56
(lp4417
g4032
(S't\r\x00\x00\x00Documentation'
tRp4418
asbasbasbag49
(g65
g51
NtRp4419
(dp4420
g54
(dp4421
sg63
g4402
sg56
(lp4422
g49
(g70
g51
NtRp4423
(dp4424
g54
(dp4425
sg63
g4419
sg56
(lp4426
g49
(g50
g51
NtRp4427
(dp4428
g54
(dp4429
g62
I1
ssg63
g4423
sg56
(lp4430
I00
asbasbasbag49
(g65
g51
NtRp4431
(dp4432
g54
(dp4433
sg63
g4402
sg56
(lp4434
g49
(g70
g51
NtRp4435
(dp4436
g54
(dp4437
sg63
g4431
sg56
(lp4438
g49
(g50
g51
NtRp4439
(dp4440
g54
(dp4441
g62
I1
ssg63
g4435
sg56
(lp4442
S'http://www.web2py.com/book'
p4443
asbasbasbag49
(g65
g51
NtRp4444
(dp4445
g54
(dp4446
sg63
g4402
sg56
(lp4447
g49
(g70
g51
NtRp4448
(dp4449
g54
(dp4450
sg63
g4444
sg56
(lp4451
g49
(g50
g51
NtRp4452
(dp4453
g54
(dp4454
g62
I1
ssg63
g4448
sg56
(lp4455
(lp4456
(g4032
(S't\x07\x00\x00\x00Preface'
tRp4457
I00
S'http://www.web2py.com/book/default/chapter/00'
p4458
tp4459
a(g4032
(S't\x0c\x00\x00\x00Introduction'
tRp4460
I00
S'http://www.web2py.com/book/default/chapter/01'
p4461
tp4462
a(g4032
(S't\x06\x00\x00\x00Python'
tRp4463
I00
S'http://www.web2py.com/book/default/chapter/02'
p4464
tp4465
a(g4032
(S't\x08\x00\x00\x00Overview'
tRp4466
I00
S'http://www.web2py.com/book/default/chapter/03'
p4467
tp4468
a(g4032
(S's\x08\x00\x00\x00The Core'
tRp4469
I00
S'http://www.web2py.com/book/default/chapter/04'
p4470
tp4471
a(g4032
(S's\t\x00\x00\x00The Views'
tRp4472
I00
S'http://www.web2py.com/book/default/chapter/05'
p4473
tp4474
a(g4032
(S't\x08\x00\x00\x00Database'
tRp4475
I00
S'http://www.web2py.com/book/default/chapter/06'
p4476
tp4477
a(g4032
(S's\x14\x00\x00\x00Forms and Validators'
tRp4478
I00
S'http://www.web2py.com/book/default/chapter/07'
p4479
tp4480
a(g4032
(S's\r\x00\x00\x00Email and SMS'
tRp4481
I00
S'http://www.web2py.com/book/default/chapter/08'
p4482
tp4483
a(g4032
(S's\x0e\x00\x00\x00Access Control'
tRp4484
I00
S'http://www.web2py.com/book/default/chapter/09'
p4485
tp4486
a(g4032
(S't\x08\x00\x00\x00Services'
tRp4487
I00
S'http://www.web2py.com/book/default/chapter/10'
p4488
tp4489
a(g4032
(S's\x0c\x00\x00\x00Ajax Recipes'
tRp4490
I00
S'http://www.web2py.com/book/default/chapter/11'
p4491
tp4492
a(g4032
(S's\x16\x00\x00\x00Components and Plugins'
tRp4493
I00
S'http://www.web2py.com/book/default/chapter/12'
p4494
tp4495
a(g4032
(S's\x12\x00\x00\x00Deployment Recipes'
tRp4496
I00
S'http://www.web2py.com/book/default/chapter/13'
p4497
tp4498
a(g4032
(S's\r\x00\x00\x00Other Recipes'
tRp4499
I00
S'http://www.web2py.com/book/default/chapter/14'
p4500
tp4501
a(g4032
(S's\r\x00\x00\x00Buy this book'
tRp4502
I00
S'http://stores.lulu.com/web2py'
p4503
tp4504
aasbasbasbasbasbasbasbag49
(g65
g51
NtRp4505
(dp4506
g54
(dp4507
sg63
g4147
sg56
(lp4508
g49
(g70
g51
NtRp4509
(dp4510
g54
(dp4511
sg63
g4505
sg56
(lp4512
g49
(g50
g51
NtRp4513
(dp4514
g54
(dp4515
g62
I2
ssg63
g4509
sg56
(lp4516
g49
(g58
g51
NtRp4517
(dp4518
g54
(dp4519
g62
I1
ssg63
Nsg56
(lp4520
g49
(g65
g51
NtRp4521
(dp4522
g54
(dp4523
sg63
g4517
sg56
(lp4524
g49
(g70
g51
NtRp4525
(dp4526
g54
(dp4527
sg63
g4521
sg56
(lp4528
g49
(g50
g51
NtRp4529
(dp4530
g54
(dp4531
g62
I1
ssg63
g4525
sg56
(lp4532
g4032
(S't\t\x00\x00\x00Community'
tRp4533
asbasbasbag49
(g65
g51
NtRp4534
(dp4535
g54
(dp4536
sg63
g4517
sg56
(lp4537
g49
(g70
g51
NtRp4538
(dp4539
g54
(dp4540
sg63
g4534
sg56
(lp4541
g49
(g50
g51
NtRp4542
(dp4543
g54
(dp4544
g62
I1
ssg63
g4538
sg56
(lp4545
I00
asbasbasbag49
(g65
g51
NtRp4546
(dp4547
g54
(dp4548
sg63
g4517
sg56
(lp4549
g49
(g70
g51
NtRp4550
(dp4551
g54
(dp4552
sg63
g4546
sg56
(lp4553
g49
(g50
g51
NtRp4554
(dp4555
g54
(dp4556
g62
I1
ssg63
g4550
sg56
(lp4557
Nasbasbasbag49
(g65
g51
NtRp4558
(dp4559
g54
(dp4560
sg63
g4517
sg56
(lp4561
g49
(g70
g51
NtRp4562
(dp4563
g54
(dp4564
sg63
g4558
sg56
(lp4565
g49
(g50
g51
NtRp4566
(dp4567
g54
(dp4568
g62
I1
ssg63
g4562
sg56
(lp4569
(lp4570
(g4032
(S't\x06\x00\x00\x00Groups'
tRp4571
I00
S'http://www.web2py.com/examples/default/usergroups'
p4572
tp4573
a(g4032
(S't\x07\x00\x00\x00Twitter'
tRp4574
I00
S'http://twitter.com/web2py'
p4575
tp4576
a(g4032
(S's\t\x00\x00\x00Live Chat'
tRp4577
I00
S'http://webchat.freenode.net/?channels=web2py'
p4578
tp4579
aasbasbasbasbasbasbasbag49
(g65
g51
NtRp4580
(dp4581
g54
(dp4582
sg63
g4147
sg56
(lp4583
g49
(g70
g51
NtRp4584
(dp4585
g54
(dp4586
sg63
g4580
sg56
(lp4587
g49
(g50
g51
NtRp4588
(dp4589
g54
(dp4590
g62
I2
ssg63
g4584
sg56
(lp4591
g49
(g58
g51
NtRp4592
(dp4593
g54
(dp4594
g62
I1
ssg63
Nsg56
(lp4595
g49
(g65
g51
NtRp4596
(dp4597
g54
(dp4598
sg63
g4592
sg56
(lp4599
g49
(g70
g51
NtRp4600
(dp4601
g54
(dp4602
sg63
g4596
sg56
(lp4603
g49
(g50
g51
NtRp4604
(dp4605
g54
(dp4606
g62
I1
ssg63
g4600
sg56
(lp4607
g4032
(S't\x07\x00\x00\x00Plugins'
tRp4608
asbasbasbag49
(g65
g51
NtRp4609
(dp4610
g54
(dp4611
sg63
g4592
sg56
(lp4612
g49
(g70
g51
NtRp4613
(dp4614
g54
(dp4615
sg63
g4609
sg56
(lp4616
g49
(g50
g51
NtRp4617
(dp4618
g54
(dp4619
g62
I1
ssg63
g4613
sg56
(lp4620
I00
asbasbasbag49
(g65
g51
NtRp4621
(dp4622
g54
(dp4623
sg63
g4592
sg56
(lp4624
g49
(g70
g51
NtRp4625
(dp4626
g54
(dp4627
sg63
g4621
sg56
(lp4628
g49
(g50
g51
NtRp4629
(dp4630
g54
(dp4631
g62
I1
ssg63
g4625
sg56
(lp4632
Nasbasbasbag49
(g65
g51
NtRp4633
(dp4634
g54
(dp4635
sg63
g4592
sg56
(lp4636
g49
(g70
g51
NtRp4637
(dp4638
g54
(dp4639
sg63
g4633
sg56
(lp4640
g49
(g50
g51
NtRp4641
(dp4642
g54
(dp4643
g62
I1
ssg63
g4637
sg56
(lp4644
(lp4645
(S'plugin_wiki'
p4646
I00
S'http://web2py.com/examples/default/download'
p4647
tp4648
a(g4032
(S's\r\x00\x00\x00Other Plugins'
tRp4649
I00
g4379
tp4650
a(g4032
(S's\x0e\x00\x00\x00Layout Plugins'
tRp4651
I00
g4382
tp4652
aasbasbasbasbasbasbasbasbasbasbasbasbasbasbasbasbasbasbasbag49
(g65
g51
NtRp4653
(dp4654
g54
(dp4655
sg63
g3574
sg56
(lp4656
g49
(g70
g51
NtRp4657
(dp4658
g54
(dp4659
g74
g75
ssg63
g4653
sg56
(lp4660
S'meta'
p4661
asbag49
(g70
g51
NtRp4662
(dp4663
g54
(dp4664
g81
g82
ssg63
g4653
sg56
(lp4665
S':'
asbag49
(g70
g51
NtRp4666
(dp4667
g54
(dp4668
sg63
g4653
sg56
(lp4669
g49
(g50
g51
NtRp4670
(dp4671
g54
(dp4672
g62
I5
ssg63
g4666
sg56
(lp4673
g49
(g58
g51
NtRp4674
(dp4675
g54
(dp4676
g62
I4
ssg63
Nsg56
(lp4677
g49
(g65
g51
NtRp4678
(dp4679
g54
(dp4680
sg63
g4674
sg56
(lp4681
g49
(g70
g51
NtRp4682
(dp4683
g54
(dp4684
g74
g75
ssg63
g4678
sg56
(lp4685
S'author'
p4686
asbag49
(g70
g51
NtRp4687
(dp4688
g54
(dp4689
g81
g82
ssg63
g4678
sg56
(lp4690
S':'
asbag49
(g70
g51
NtRp4691
(dp4692
g54
(dp4693
sg63
g4678
sg56
(lp4694
g49
(g50
g51
NtRp4695
(dp4696
g54
(dp4697
g62
I4
ssg63
g4691
sg56
(lp4698
S'Your Name <you@example.com>'
p4699
asbasbasbag49
(g65
g51
NtRp4700
(dp4701
g54
(dp4702
sg63
g4674
sg56
(lp4703
g49
(g70
g51
NtRp4704
(dp4705
g54
(dp4706
g74
g75
ssg63
g4700
sg56
(lp4707
S'description'
p4708
asbag49
(g70
g51
NtRp4709
(dp4710
g54
(dp4711
g81
g82
ssg63
g4700
sg56
(lp4712
S':'
asbag49
(g70
g51
NtRp4713
(dp4714
g54
(dp4715
sg63
g4700
sg56
(lp4716
g49
(g50
g51
NtRp4717
(dp4718
g54
(dp4719
g62
I4
ssg63
g4713
sg56
(lp4720
S'a cool new app'
p4721
asbasbasbag49
(g65
g51
NtRp4722
(dp4723
g54
(dp4724
sg63
g4674
sg56
(lp4725
g49
(g70
g51
NtRp4726
(dp4727
g54
(dp4728
g74
g75
ssg63
g4722
sg56
(lp4729
S'generator'
p4730
asbag49
(g70
g51
NtRp4731
(dp4732
g54
(dp4733
g81
g82
ssg63
g4722
sg56
(lp4734
S':'
asbag49
(g70
g51
NtRp4735
(dp4736
g54
(dp4737
sg63
g4722
sg56
(lp4738
g49
(g50
g51
NtRp4739
(dp4740
g54
(dp4741
g62
I4
ssg63
g4735
sg56
(lp4742
S'Web2py Web Framework'
p4743
asbasbasbag49
(g65
g51
NtRp4744
(dp4745
g54
(dp4746
sg63
g4674
sg56
(lp4747
g49
(g70
g51
NtRp4748
(dp4749
g54
(dp4750
g74
g75
ssg63
g4744
sg56
(lp4751
S'keywords'
p4752
asbag49
(g70
g51
NtRp4753
(dp4754
g54
(dp4755
g81
g82
ssg63
g4744
sg56
(lp4756
S':'
asbag49
(g70
g51
NtRp4757
(dp4758
g54
(dp4759
sg63
g4744
sg56
(lp4760
g49
(g50
g51
NtRp4761
(dp4762
g54
(dp4763
g62
I4
ssg63
g4757
sg56
(lp4764
S'web2py, python, framework'
p4765
asbasbasbasbasbasbasbag49
(g65
g51
NtRp4766
(dp4767
g54
(dp4768
sg63
g3574
sg56
(lp4769
g49
(g70
g51
NtRp4770
(dp4771
g54
(dp4772
g74
g75
ssg63
g4766
sg56
(lp4773
S'models_to_run'
p4774
asbag49
(g70
g51
NtRp4775
(dp4776
g54
(dp4777
g81
g82
ssg63
g4766
sg56
(lp4778
S':'
asbag49
(g70
g51
NtRp4779
(dp4780
g54
(dp4781
sg63
g4766
sg56
(lp4782
g49
(g50
g51
NtRp4783
(dp4784
g54
(dp4785
g62
I5
ssg63
g4779
sg56
(lp4786
g49
(g58
g51
NtRp4787
(dp4788
g54
(dp4789
g62
I4
ssg63
Nsg56
(lp4790
g49
(g65
g51
NtRp4791
(dp4792
g54
(dp4793
sg63
g4787
sg56
(lp4794
g49
(g70
g51
NtRp4795
(dp4796
g54
(dp4797
sg63
g4791
sg56
(lp4798
g49
(g50
g51
NtRp4799
(dp4800
g54
(dp4801
g62
I4
ssg63
g4795
sg56
(lp4802
S'^\\w+\\.py$'
p4803
asbasbasbag49
(g65
g51
NtRp4804
(dp4805
g54
(dp4806
sg63
g4787
sg56
(lp4807
g49
(g70
g51
NtRp4808
(dp4809
g54
(dp4810
sg63
g4804
sg56
(lp4811
g49
(g50
g51
NtRp4812
(dp4813
g54
(dp4814
g62
I4
ssg63
g4808
sg56
(lp4815
S'^default/\\w+\\.py$'
p4816
asbasbasbag49
(g65
g51
NtRp4817
(dp4818
g54
(dp4819
sg63
g4787
sg56
(lp4820
g49
(g70
g51
NtRp4821
(dp4822
g54
(dp4823
sg63
g4817
sg56
(lp4824
g49
(g50
g51
NtRp4825
(dp4826
g54
(dp4827
g62
I4
ssg63
g4821
sg56
(lp4828
S'^default/insert_writing_comment/\\w+\\.py$'
p4829
asbasbasbasbasbasbasbag49
(g65
g51
NtRp4830
(dp4831
g54
(dp4832
sg63
g3574
sg56
(lp4833
g49
(g70
g51
NtRp4834
(dp4835
g54
(dp4836
g74
g75
ssg63
g4830
sg56
(lp4837
S'postprocessing'
p4838
asbag49
(g70
g51
NtRp4839
(dp4840
g54
(dp4841
g81
g82
ssg63
g4830
sg56
(lp4842
S':'
asbag49
(g70
g51
NtRp4843
(dp4844
g54
(dp4845
sg63
g4830
sg56
(lp4846
g49
(g50
g51
NtRp4847
(dp4848
g54
(dp4849
g62
I5
ssg63
g4843
sg56
(lp4850
g49
(g58
g51
NtRp4851
(dp4852
g54
(dp4853
g62
I4
ssg63
Nsg56
(lp4854
sbasbasbasbag49
(g65
g51
NtRp4855
(dp4856
g54
(dp4857
sg63
g3574
sg56
(lp4858
g49
(g70
g51
NtRp4859
(dp4860
g54
(dp4861
g74
g75
ssg63
g4855
sg56
(lp4862
S'session_cookie_expires'
p4863
asbag49
(g70
g51
NtRp4864
(dp4865
g54
(dp4866
g81
g82
ssg63
g4855
sg56
(lp4867
S':'
asbag49
(g70
g51
NtRp4868
(dp4869
g54
(dp4870
sg63
g4855
sg56
(lp4871
g49
(g50
g51
NtRp4872
(dp4873
g54
(dp4874
g62
I5
ssg63
g4868
sg56
(lp4875
S'None'
p4876
asbasbasbag49
(g65
g51
NtRp4877
(dp4878
g54
(dp4879
sg63
g3574
sg56
(lp4880
g49
(g70
g51
NtRp4881
(dp4882
g54
(dp4883
g74
g75
ssg63
g4877
sg56
(lp4884
S'session_data_name'
p4885
asbag49
(g70
g51
NtRp4886
(dp4887
g54
(dp4888
g81
g82
ssg63
g4877
sg56
(lp4889
S':'
asbag49
(g70
g51
NtRp4890
(dp4891
g54
(dp4892
sg63
g4877
sg56
(lp4893
g49
(g50
g51
NtRp4894
(dp4895
g54
(dp4896
g62
I5
ssg63
g4890
sg56
(lp4897
S'session_data_final_impulse'
p4898
asbasbasbag49
(g65
g51
NtRp4899
(dp4900
g54
(dp4901
sg63
g3574
sg56
(lp4902
g49
(g70
g51
NtRp4903
(dp4904
g54
(dp4905
g74
g75
ssg63
g4899
sg56
(lp4906
S'session_file'
p4907
asbag49
(g70
g51
NtRp4908
(dp4909
g54
(dp4910
g81
g82
ssg63
g4899
sg56
(lp4911
S':'
asbag49
(g70
g51
NtRp4912
(dp4913
g54
(dp4914
sg63
g4899
sg56
(lp4915
g49
(g50
g51
NtRp4916
(dp4917
g54
(dp4918
g62
I5
ssg63
g4912
sg56
(lp4919
S"<open file '/Users/abaric/Downloads/web2py/web2py.app/Contents/Resources/applications/Final_Impulse/sessions/127.0.0.1-5aceb5e9-2875-4462-b8f1-a71729f93584', mode 'rb+' at 0x89b6f50>"
p4920
asbasbasbag49
(g65
g51
NtRp4921
(dp4922
g54
(dp4923
sg63
g3574
sg56
(lp4924
g49
(g70
g51
NtRp4925
(dp4926
g54
(dp4927
g74
g75
ssg63
g4921
sg56
(lp4928
S'session_filename'
p4929
asbag49
(g70
g51
NtRp4930
(dp4931
g54
(dp4932
g81
g82
ssg63
g4921
sg56
(lp4933
S':'
asbag49
(g70
g51
NtRp4934
(dp4935
g54
(dp4936
sg63
g4921
sg56
(lp4937
g49
(g50
g51
NtRp4938
(dp4939
g54
(dp4940
g62
I5
ssg63
g4934
sg56
(lp4941
S'/Users/abaric/Downloads/web2py/web2py.app/Contents/Resources/applications/Final_Impulse/sessions/127.0.0.1-5aceb5e9-2875-4462-b8f1-a71729f93584'
p4942
asbasbasbag49
(g65
g51
NtRp4943
(dp4944
g54
(dp4945
sg63
g3574
sg56
(lp4946
g49
(g70
g51
NtRp4947
(dp4948
g54
(dp4949
g74
g75
ssg63
g4943
sg56
(lp4950
S'session_id'
p4951
asbag49
(g70
g51
NtRp4952
(dp4953
g54
(dp4954
g81
g82
ssg63
g4943
sg56
(lp4955
S':'
asbag49
(g70
g51
NtRp4956
(dp4957
g54
(dp4958
sg63
g4943
sg56
(lp4959
g49
(g50
g51
NtRp4960
(dp4961
g54
(dp4962
g62
I5
ssg63
g4956
sg56
(lp4963
g458
asbasbasbag49
(g65
g51
NtRp4964
(dp4965
g54
(dp4966
sg63
g3574
sg56
(lp4967
g49
(g70
g51
NtRp4968
(dp4969
g54
(dp4970
g74
g75
ssg63
g4964
sg56
(lp4971
S'session_id_name'
p4972
asbag49
(g70
g51
NtRp4973
(dp4974
g54
(dp4975
g81
g82
ssg63
g4964
sg56
(lp4976
S':'
asbag49
(g70
g51
NtRp4977
(dp4978
g54
(dp4979
sg63
g4964
sg56
(lp4980
g49
(g50
g51
NtRp4981
(dp4982
g54
(dp4983
g62
I5
ssg63
g4977
sg56
(lp4984
g3631
asbasbasbag49
(g65
g51
NtRp4985
(dp4986
g54
(dp4987
sg63
g3574
sg56
(lp4988
g49
(g70
g51
NtRp4989
(dp4990
g54
(dp4991
g74
g75
ssg63
g4985
sg56
(lp4992
S'session_locked'
p4993
asbag49
(g70
g51
NtRp4994
(dp4995
g54
(dp4996
g81
g82
ssg63
g4985
sg56
(lp4997
S':'
asbag49
(g70
g51
NtRp4998
(dp4999
g54
(dp5000
sg63
g4985
sg56
(lp5001
g49
(g50
g51
NtRp5002
(dp5003
g54
(dp5004
g62
I5
ssg63
g4998
sg56
(lp5005
g1819
asbasbasbag49
(g65
g51
NtRp5006
(dp5007
g54
(dp5008
sg63
g3574
sg56
(lp5009
g49
(g70
g51
NtRp5010
(dp5011
g54
(dp5012
g74
g75
ssg63
g5006
sg56
(lp5013
S'session_new'
p5014
asbag49
(g70
g51
NtRp5015
(dp5016
g54
(dp5017
g81
g82
ssg63
g5006
sg56
(lp5018
S':'
asbag49
(g70
g51
NtRp5019
(dp5020
g54
(dp5021
sg63
g5006
sg56
(lp5022
g49
(g50
g51
NtRp5023
(dp5024
g54
(dp5025
g62
I5
ssg63
g5019
sg56
(lp5026
g92
asbasbasbag49
(g65
g51
NtRp5027
(dp5028
g54
(dp5029
sg63
g3574
sg56
(lp5030
g49
(g70
g51
NtRp5031
(dp5032
g54
(dp5033
g74
g75
ssg63
g5027
sg56
(lp5034
S'session_storage_type'
p5035
asbag49
(g70
g51
NtRp5036
(dp5037
g54
(dp5038
g81
g82
ssg63
g5027
sg56
(lp5039
S':'
asbag49
(g70
g51
NtRp5040
(dp5041
g54
(dp5042
sg63
g5027
sg56
(lp5043
g49
(g50
g51
NtRp5044
(dp5045
g54
(dp5046
g62
I5
ssg63
g5040
sg56
(lp5047
g3440
asbasbasbag49
(g65
g51
NtRp5048
(dp5049
g54
(dp5050
sg63
g3574
sg56
(lp5051
g49
(g70
g51
NtRp5052
(dp5053
g54
(dp5054
g74
g75
ssg63
g5048
sg56
(lp5055
S'status'
p5056
asbag49
(g70
g51
NtRp5057
(dp5058
g54
(dp5059
g81
g82
ssg63
g5048
sg56
(lp5060
S':'
asbag49
(g70
g51
NtRp5061
(dp5062
g54
(dp5063
sg63
g5048
sg56
(lp5064
g49
(g50
g51
NtRp5065
(dp5066
g54
(dp5067
g62
I5
ssg63
g5061
sg56
(lp5068
S'200'
p5069
asbasbasbag49
(g65
g51
NtRp5070
(dp5071
g54
(dp5072
sg63
g3574
sg56
(lp5073
g49
(g70
g51
NtRp5074
(dp5075
g54
(dp5076
g74
g75
ssg63
g5070
sg56
(lp5077
S'subtitle'
p5078
asbag49
(g70
g51
NtRp5079
(dp5080
g54
(dp5081
g81
g82
ssg63
g5070
sg56
(lp5082
S':'
asbag49
(g70
g51
NtRp5083
(dp5084
g54
(dp5085
sg63
g5070
sg56
(lp5086
g49
(g50
g51
NtRp5087
(dp5088
g54
(dp5089
g62
I5
ssg63
g5083
sg56
(lp5090
g4032
(S's\r\x00\x00\x00customize me!'
tRp5091
asbasbasbag49
(g65
g51
NtRp5092
(dp5093
g54
(dp5094
sg63
g3574
sg56
(lp5095
g49
(g70
g51
NtRp5096
(dp5097
g54
(dp5098
g74
g75
ssg63
g5092
sg56
(lp5099
S'title'
p5100
asbag49
(g70
g51
NtRp5101
(dp5102
g54
(dp5103
g81
g82
ssg63
g5092
sg56
(lp5104
S':'
asbag49
(g70
g51
NtRp5105
(dp5106
g54
(dp5107
sg63
g5092
sg56
(lp5108
g49
(g50
g51
NtRp5109
(dp5110
g54
(dp5111
g62
I5
ssg63
g5105
sg56
(lp5112
S'Final Impulse'
p5113
asbasbasbag49
(g65
g51
NtRp5114
(dp5115
g54
(dp5116
sg63
g3574
sg56
(lp5117
g49
(g70
g51
NtRp5118
(dp5119
g54
(dp5120
g74
g75
ssg63
g5114
sg56
(lp5121
S'view'
p5122
asbag49
(g70
g51
NtRp5123
(dp5124
g54
(dp5125
g81
g82
ssg63
g5114
sg56
(lp5126
S':'
asbag49
(g70
g51
NtRp5127
(dp5128
g54
(dp5129
sg63
g5114
sg56
(lp5130
g49
(g50
g51
NtRp5131
(dp5132
g54
(dp5133
g62
I5
ssg63
g5127
sg56
(lp5134
S'default/insert_writing_comment.html'
p5135
asbasbasbasbasbsS'locals'
p5136
(dp5137
S'writing_id'
p5138
S"'1'"
p5139
sS'writing_comment'
p5140
S"'aklsdajsd'"
p5141
sssS'traceback'
p5142
S'Traceback (most recent call last):\n  File "gluon/restricted.py", line 212, in restricted\n  File "/Users/abaric/Downloads/web2py/web2py.app/Contents/Resources/applications/Final_Impulse/controllers/default.py", line 108, in <module>\n  File "gluon/globals.py", line 188, in <lambda>\n  File "/Users/abaric/Downloads/web2py/web2py.app/Contents/Resources/applications/Final_Impulse/controllers/default.py", line 99, in insert_writing_comment\nAttributeError: \'NoneType\' object has no attribute \'id\'\n'
p5143
s.