(dp1
S'output'
p2
S"<type 'exceptions.AttributeError'> 'NoneType' object has no attribute 'id'"
p3
sS'layer'
p4
S'/Users/abaric/Downloads/web2py/web2py.app/Contents/Resources/applications/Final_Impulse/controllers/default.py'
p5
sS'code'
p6
S"from gluon.tools import datetime\nfrom gluon.tools import Auth\n        \n\ndef user():\n    return dict(form=auth())\n    \ndef load_roles():\n        session.roles=[]\n        if auth.has_membership('arts_board'):\n            session.user_arts_board_id=db(db.arts_board.email==auth.arts_board.email).select().first().id\n            a=('arts_board','index',session.user_arts_board_id)\n            session.roles.append(a)\n        return locals()\n                                      \ndef index():\n    return locals()\n\ndef download():\n    return response.download(request, db)\n\ndef show_image_comments():\n    image_form=SQLFORM(db.image,fields=['title','file'],labels={'file':'Your Image'})\n    image_form.vars.author_id=auth.user.id\n    image_form.add_button('Back', URL('index'))\n    if image_form.process().accepted:\n        response.flash='image post submitted!'\n    images=db(db.image).select(db.image.ALL, orderby=db.image.id)\n    \n    d={}\n    for image in images:\n        comments=db((db.image_comment.image_id==image.id) &\\\n                   (db.auth_user.id==db.image_comment.author_id)).select() \n        tuple_list=[]       \n        for comment in comments:\n            author=('%s %s')%(comment.auth_user.first_name,comment.auth_user.last_name)\n            body=('%s')%(comment.image_comment.body)\n            t=(author,body)\n            tuple_list.append(t)\n        d[image.id]=tuple_list\n  \n    form = SQLFORM(db.writing_comment)\n    if form.process().accepted:\n        response.flash = 'your comment is posted'\n    #images = db(db.image_comment.image_id==image.id).select()\n    return locals()\n    \ndef show_writing_comments():\n    writing_form=SQLFORM(db.writing,fields=['title','body'],labels={'body':'Insert your post'})\n    writing_form.vars.author_id=auth.user.id\n    writing_form.add_button('Back', URL('index'))\n    if writing_form.process().accepted:\n        response.flash='writing post submitted!'\n   \n    writings=db(db.writing).select(db.writing.ALL, orderby=db.writing.id)\n    d={}\n    for writing in writings:\n        comments=db((db.writing_comment.writing_id==writing.id) &\\\n                   (db.auth_user.id==db.writing_comment.author_id)).select() \n        tuple_list=[]       \n        for comment in comments:\n            author=('%s %s')%(comment.auth_user.first_name,comment.auth_user.last_name)\n            body=('%s')%(comment.writing_comment.body)\n            t=(author,body)\n            tuple_list.append(t)\n        d[writing.id]=tuple_list\n  \n    form = SQLFORM(db.writing_comment)\n    if form.process().accepted:\n        response.flash = 'your comment is posted'\n    return locals()\n\ndef show_video_comments():\n    video_form=SQLFORM(db.video,fields=['title','url_str'],labels={'url_str':'Insert url string per above directions'})\n    video_form.vars.author_id=auth.user.id\n    video_form.add_button('Back', URL('index'))\n    if video_form.process().accepted:\n        response.flash='video post submitted!'\n    \n    videos=db(db.video).select(db.video.ALL, orderby=db.video.id)\n    d={}\n    for video in videos:\n        comments=db((db.video_comment.video_id==video.id) &\\\n                   (db.auth_user.id==db.video_comment.author_id)).select() \n        tuple_list=[]       \n        for comment in comments:\n            author=('%s %s')%(comment.auth_user.first_name,comment.auth_user.last_name)\n            body=('%s')%(comment.video_comment.body)\n            t=(author,body)\n            tuple_list.append(t)\n        d[video.id]=tuple_list\n    form = SQLFORM(db.video_comment)\n    if form.process().accepted:\n        response.flash = 'your comment is posted'\n    return locals()  \n\ndef insert_writing_comment():\n    if auth.user:\n        writing_comment=request.post_vars.writing_comment\n        writing_id=request.args(0)\n        db.writing_comment.insert(author_id=auth.user.id,\n                                  writing_id=writing_id,\n                                  email=None,\n                                  body=writing_comment,\n                                  date_of_entry=datetime.datetime.today())\n        db.commit()\n       \n    else:\n        session.flash='You must log in to post a comment.'\n    redirect(URL('show_writing_comments'))\n    return locals()\n\n\ndef insert_image_comment():\n    if auth.user:\n        image_comment=request.post_vars.image_comment\n        image_id=request.args(0)\n        db.image_comment.insert(author_id=auth.user.id,\n                                  image_id=image_id,\n                                  email=None,\n                                  body=image_comment,\n                                  date_of_entry=datetime.datetime.today())\n        db.commit()\n       \n    else:\n        session.flash='You must log in to post a comment.'\n    redirect(URL('show_image_comments'))\n    return locals()\n    \ndef insert_video_comment():\n    if auth.user:\n        video_comment=request.post_vars.video_comment\n        video_id=request.args(0)\n        db.video_comment.insert(author_id=auth.user.id,\n                                  video_id=video_id,\n                                  email=None,\n                                  body=video_comment,\n                                  date_of_entry=datetime.datetime.today())\n        db.commit()\n       \n    else:\n        session.flash='You must log in to post a comment.'\n    redirect(URL('show_video_comments'))\n    return locals()\n\ndef all_media():\n    images=db(db.image).select(db.image.ALL)\n    writings=db(db.writing).select(db.image.ALL)\n    videos=db(db.video).select(db.video.ALL)\n    \n    images_with_app=[]\n    images_wo_app=[]\n    videos_with_app=[]\n    videos_wo_app=[]\n    writings_with_app=[]\n    writings_wo_app=[]\n    \n    for image in images:\n        if image.image.approved:\n            images_w_app.append(image)\n        else:\n            images_wo_app.append(image)\n            \n    for video in videos:\n        if video.video.approved:\n            videos_w_app.append(video)\n        else:\n            videos_wo_app.append(video)\n    \n    for writing in wristing:\n        if writing.writing.approved:\n            writings_w_app.append(writing)\n        else:\n            writings_wo_app.append(writing)\n    \n    return locals()\n\n\n#def update_approve():\n\nresponse._vars=response._caller(show_image_comments)\n"
p7
sS'snapshot'
p8
(dp9
S'exception'
p10
(dp11
S'__hash__'
p12
S"<method-wrapper '__hash__' of exceptions.AttributeError object at 0x8fe9648>"
p13
sS'__setattr__'
p14
S"<method-wrapper '__setattr__' of exceptions.AttributeError object at 0x8fe9648>"
p15
sS'__reduce_ex__'
p16
S'<built-in method __reduce_ex__ of exceptions.AttributeError object at 0x8fe9648>'
p17
sS'__getslice__'
p18
S"<method-wrapper '__getslice__' of exceptions.AttributeError object at 0x8fe9648>"
p19
sS'__getitem__'
p20
S"<method-wrapper '__getitem__' of exceptions.AttributeError object at 0x8fe9648>"
p21
sS'__setstate__'
p22
S'<built-in method __setstate__ of exceptions.AttributeError object at 0x8fe9648>'
p23
sS'__reduce__'
p24
S'<built-in method __reduce__ of exceptions.AttributeError object at 0x8fe9648>'
p25
sS'__str__'
p26
S"<method-wrapper '__str__' of exceptions.AttributeError object at 0x8fe9648>"
p27
sS'args'
p28
S'("\'NoneType\' object has no attribute \'id\'",)'
p29
sS'__getattribute__'
p30
S"<method-wrapper '__getattribute__' of exceptions.AttributeError object at 0x8fe9648>"
p31
sS'__class__'
p32
S"<type 'exceptions.AttributeError'>"
p33
sS'__delattr__'
p34
S"<method-wrapper '__delattr__' of exceptions.AttributeError object at 0x8fe9648>"
p35
sS'__repr__'
p36
S"<method-wrapper '__repr__' of exceptions.AttributeError object at 0x8fe9648>"
p37
sS'__dict__'
p38
S'{}'
p39
sS'__doc__'
p40
S"'Attribute not found.'"
p41
sS'__init__'
p42
S"<method-wrapper '__init__' of exceptions.AttributeError object at 0x8fe9648>"
p43
sS'__new__'
p44
S'<built-in method __new__ of type object at 0x5f94a0>'
p45
ssS'evalue'
p46
S"'NoneType' object has no attribute 'id'"
p47
sS'request'
p48
ccopy_reg
_reconstructor
p49
(cgluon.html
BEAUTIFY
p50
c__builtin__
object
p51
NtRp52
(dp53
S'attributes'
p54
(dp55
sS'components'
p56
(lp57
g49
(cgluon.html
TABLE
p58
g51
NtRp59
(dp60
g54
(dp61
S'level'
p62
I5
ssS'parent'
p63
Nsg56
(lp64
g49
(cgluon.html
TR
p65
g51
NtRp66
(dp67
g54
(dp68
sg63
g59
sg56
(lp69
g49
(cgluon.html
TD
p70
g51
NtRp71
(dp72
g54
(dp73
S'_style'
p74
S'font-weight:bold;vertical-align:top'
p75
ssg63
g66
sg56
(lp76
S'ajax'
p77
asbag49
(g70
g51
NtRp78
(dp79
g54
(dp80
S'_valign'
p81
S'top'
p82
ssg63
g66
sg56
(lp83
S':'
asbag49
(g70
g51
NtRp84
(dp85
g54
(dp86
sg63
g66
sg56
(lp87
g49
(g50
g51
NtRp88
(dp89
g54
(dp90
g62
I5
ssg63
g84
sg56
(lp91
S'False'
p92
asbasbasbag49
(g65
g51
NtRp93
(dp94
g54
(dp95
sg63
g59
sg56
(lp96
g49
(g70
g51
NtRp97
(dp98
g54
(dp99
g74
g75
ssg63
g93
sg56
(lp100
S'application'
p101
asbag49
(g70
g51
NtRp102
(dp103
g54
(dp104
g81
g82
ssg63
g93
sg56
(lp105
S':'
asbag49
(g70
g51
NtRp106
(dp107
g54
(dp108
sg63
g93
sg56
(lp109
g49
(g50
g51
NtRp110
(dp111
g54
(dp112
g62
I5
ssg63
g106
sg56
(lp113
S'Final_Impulse'
p114
asbasbasbag49
(g65
g51
NtRp115
(dp116
g54
(dp117
sg63
g59
sg56
(lp118
g49
(g70
g51
NtRp119
(dp120
g54
(dp121
g74
g75
ssg63
g115
sg56
(lp122
g28
asbag49
(g70
g51
NtRp123
(dp124
g54
(dp125
g81
g82
ssg63
g115
sg56
(lp126
S':'
asbag49
(g70
g51
NtRp127
(dp128
g54
(dp129
sg63
g115
sg56
(lp130
g49
(g50
g51
NtRp131
(dp132
g54
(dp133
g62
I5
ssg63
g127
sg56
(lp134
g49
(g58
g51
NtRp135
(dp136
g54
(dp137
g62
I4
ssg63
Nsg56
(lp138
sbasbasbasbag49
(g65
g51
NtRp139
(dp140
g54
(dp141
sg63
g59
sg56
(lp142
g49
(g70
g51
NtRp143
(dp144
g54
(dp145
g74
g75
ssg63
g139
sg56
(lp146
S'body'
p147
asbag49
(g70
g51
NtRp148
(dp149
g54
(dp150
g81
g82
ssg63
g139
sg56
(lp151
S':'
asbag49
(g70
g51
NtRp152
(dp153
g54
(dp154
sg63
g139
sg56
(lp155
g49
(g50
g51
NtRp156
(dp157
g54
(dp158
g62
I5
ssg63
g152
sg56
(lp159
S'<cStringIO.StringO object at 0x902f1a0>'
p160
asbasbasbag49
(g65
g51
NtRp161
(dp162
g54
(dp163
sg63
g59
sg56
(lp164
g49
(g70
g51
NtRp165
(dp166
g54
(dp167
g74
g75
ssg63
g161
sg56
(lp168
S'cid'
p169
asbag49
(g70
g51
NtRp170
(dp171
g54
(dp172
g81
g82
ssg63
g161
sg56
(lp173
S':'
asbag49
(g70
g51
NtRp174
(dp175
g54
(dp176
sg63
g161
sg56
(lp177
g49
(g50
g51
NtRp178
(dp179
g54
(dp180
g62
I5
ssg63
g174
sg56
(lp181
S'None'
p182
asbasbasbag49
(g65
g51
NtRp183
(dp184
g54
(dp185
sg63
g59
sg56
(lp186
g49
(g70
g51
NtRp187
(dp188
g54
(dp189
g74
g75
ssg63
g183
sg56
(lp190
S'client'
p191
asbag49
(g70
g51
NtRp192
(dp193
g54
(dp194
g81
g82
ssg63
g183
sg56
(lp195
S':'
asbag49
(g70
g51
NtRp196
(dp197
g54
(dp198
sg63
g183
sg56
(lp199
g49
(g50
g51
NtRp200
(dp201
g54
(dp202
g62
I5
ssg63
g196
sg56
(lp203
S'127.0.0.1'
p204
asbasbasbag49
(g65
g51
NtRp205
(dp206
g54
(dp207
sg63
g59
sg56
(lp208
g49
(g70
g51
NtRp209
(dp210
g54
(dp211
g74
g75
ssg63
g205
sg56
(lp212
S'controller'
p213
asbag49
(g70
g51
NtRp214
(dp215
g54
(dp216
g81
g82
ssg63
g205
sg56
(lp217
S':'
asbag49
(g70
g51
NtRp218
(dp219
g54
(dp220
sg63
g205
sg56
(lp221
g49
(g50
g51
NtRp222
(dp223
g54
(dp224
g62
I5
ssg63
g218
sg56
(lp225
S'default'
p226
asbasbasbag49
(g65
g51
NtRp227
(dp228
g54
(dp229
sg63
g59
sg56
(lp230
g49
(g70
g51
NtRp231
(dp232
g54
(dp233
g74
g75
ssg63
g227
sg56
(lp234
S'cookies'
p235
asbag49
(g70
g51
NtRp236
(dp237
g54
(dp238
g81
g82
ssg63
g227
sg56
(lp239
S':'
asbag49
(g70
g51
NtRp240
(dp241
g54
(dp242
sg63
g227
sg56
(lp243
g49
(g50
g51
NtRp244
(dp245
g54
(dp246
g62
I5
ssg63
g240
sg56
(lp247
g49
(g58
g51
NtRp248
(dp249
g54
(dp250
g62
I4
ssg63
Nsg56
(lp251
g49
(g65
g51
NtRp252
(dp253
g54
(dp254
sg63
g248
sg56
(lp255
g49
(g70
g51
NtRp256
(dp257
g54
(dp258
g74
g75
ssg63
g252
sg56
(lp259
S'session_id_admin'
p260
asbag49
(g70
g51
NtRp261
(dp262
g54
(dp263
g81
g82
ssg63
g252
sg56
(lp264
S':'
asbag49
(g70
g51
NtRp265
(dp266
g54
(dp267
sg63
g252
sg56
(lp268
g49
(g50
g51
NtRp269
(dp270
g54
(dp271
g62
I4
ssg63
g265
sg56
(lp272
S'127.0.0.1-1e1cfd1c-00ac-4a02-8885-691ad90135c8'
p273
ag49
(g58
g51
NtRp274
(dp275
g54
(dp276
g62
I3
ssg63
Nsg56
(lp277
g49
(g65
g51
NtRp278
(dp279
g54
(dp280
sg63
g274
sg56
(lp281
g49
(g70
g51
NtRp282
(dp283
g54
(dp284
g74
g75
ssg63
g278
sg56
(lp285
S'comment'
p286
asbag49
(g70
g51
NtRp287
(dp288
g54
(dp289
g81
g82
ssg63
g278
sg56
(lp290
S':'
asbag49
(g70
g51
NtRp291
(dp292
g54
(dp293
sg63
g278
sg56
(lp294
g49
(g50
g51
NtRp295
(dp296
g54
(dp297
g62
I3
ssg63
g291
sg56
(lp298
S''
asbasbasbag49
(g65
g51
NtRp299
(dp300
g54
(dp301
sg63
g274
sg56
(lp302
g49
(g70
g51
NtRp303
(dp304
g54
(dp305
g74
g75
ssg63
g299
sg56
(lp306
S'domain'
p307
asbag49
(g70
g51
NtRp308
(dp309
g54
(dp310
g81
g82
ssg63
g299
sg56
(lp311
S':'
asbag49
(g70
g51
NtRp312
(dp313
g54
(dp314
sg63
g299
sg56
(lp315
g49
(g50
g51
NtRp316
(dp317
g54
(dp318
g62
I3
ssg63
g312
sg56
(lp319
S''
asbasbasbag49
(g65
g51
NtRp320
(dp321
g54
(dp322
sg63
g274
sg56
(lp323
g49
(g70
g51
NtRp324
(dp325
g54
(dp326
g74
g75
ssg63
g320
sg56
(lp327
S'expires'
p328
asbag49
(g70
g51
NtRp329
(dp330
g54
(dp331
g81
g82
ssg63
g320
sg56
(lp332
S':'
asbag49
(g70
g51
NtRp333
(dp334
g54
(dp335
sg63
g320
sg56
(lp336
g49
(g50
g51
NtRp337
(dp338
g54
(dp339
g62
I3
ssg63
g333
sg56
(lp340
S''
asbasbasbag49
(g65
g51
NtRp341
(dp342
g54
(dp343
sg63
g274
sg56
(lp344
g49
(g70
g51
NtRp345
(dp346
g54
(dp347
g74
g75
ssg63
g341
sg56
(lp348
S'max-age'
p349
asbag49
(g70
g51
NtRp350
(dp351
g54
(dp352
g81
g82
ssg63
g341
sg56
(lp353
S':'
asbag49
(g70
g51
NtRp354
(dp355
g54
(dp356
sg63
g341
sg56
(lp357
g49
(g50
g51
NtRp358
(dp359
g54
(dp360
g62
I3
ssg63
g354
sg56
(lp361
S''
asbasbasbag49
(g65
g51
NtRp362
(dp363
g54
(dp364
sg63
g274
sg56
(lp365
g49
(g70
g51
NtRp366
(dp367
g54
(dp368
g74
g75
ssg63
g362
sg56
(lp369
S'path'
p370
asbag49
(g70
g51
NtRp371
(dp372
g54
(dp373
g81
g82
ssg63
g362
sg56
(lp374
S':'
asbag49
(g70
g51
NtRp375
(dp376
g54
(dp377
sg63
g362
sg56
(lp378
g49
(g50
g51
NtRp379
(dp380
g54
(dp381
g62
I3
ssg63
g375
sg56
(lp382
S''
asbasbasbag49
(g65
g51
NtRp383
(dp384
g54
(dp385
sg63
g274
sg56
(lp386
g49
(g70
g51
NtRp387
(dp388
g54
(dp389
g74
g75
ssg63
g383
sg56
(lp390
S'secure'
p391
asbag49
(g70
g51
NtRp392
(dp393
g54
(dp394
g81
g82
ssg63
g383
sg56
(lp395
S':'
asbag49
(g70
g51
NtRp396
(dp397
g54
(dp398
sg63
g383
sg56
(lp399
g49
(g50
g51
NtRp400
(dp401
g54
(dp402
g62
I3
ssg63
g396
sg56
(lp403
S''
asbasbasbag49
(g65
g51
NtRp404
(dp405
g54
(dp406
sg63
g274
sg56
(lp407
g49
(g70
g51
NtRp408
(dp409
g54
(dp410
g74
g75
ssg63
g404
sg56
(lp411
S'version'
p412
asbag49
(g70
g51
NtRp413
(dp414
g54
(dp415
g81
g82
ssg63
g404
sg56
(lp416
S':'
asbag49
(g70
g51
NtRp417
(dp418
g54
(dp419
sg63
g404
sg56
(lp420
g49
(g50
g51
NtRp421
(dp422
g54
(dp423
g62
I3
ssg63
g417
sg56
(lp424
S''
asbasbasbasbasbasbasbag49
(g65
g51
NtRp425
(dp426
g54
(dp427
sg63
g248
sg56
(lp428
g49
(g70
g51
NtRp429
(dp430
g54
(dp431
g74
g75
ssg63
g425
sg56
(lp432
S'session_id_final_impulse'
p433
asbag49
(g70
g51
NtRp434
(dp435
g54
(dp436
g81
g82
ssg63
g425
sg56
(lp437
S':'
asbag49
(g70
g51
NtRp438
(dp439
g54
(dp440
sg63
g425
sg56
(lp441
g49
(g50
g51
NtRp442
(dp443
g54
(dp444
g62
I4
ssg63
g438
sg56
(lp445
S'127.0.0.1-19fc25e8-5096-4ab8-b354-d45592963b3f'
p446
ag49
(g58
g51
NtRp447
(dp448
g54
(dp449
g62
I3
ssg63
Nsg56
(lp450
g49
(g65
g51
NtRp451
(dp452
g54
(dp453
sg63
g447
sg56
(lp454
g49
(g70
g51
NtRp455
(dp456
g54
(dp457
g74
g75
ssg63
g451
sg56
(lp458
g286
asbag49
(g70
g51
NtRp459
(dp460
g54
(dp461
g81
g82
ssg63
g451
sg56
(lp462
S':'
asbag49
(g70
g51
NtRp463
(dp464
g54
(dp465
sg63
g451
sg56
(lp466
g49
(g50
g51
NtRp467
(dp468
g54
(dp469
g62
I3
ssg63
g463
sg56
(lp470
S''
asbasbasbag49
(g65
g51
NtRp471
(dp472
g54
(dp473
sg63
g447
sg56
(lp474
g49
(g70
g51
NtRp475
(dp476
g54
(dp477
g74
g75
ssg63
g471
sg56
(lp478
g307
asbag49
(g70
g51
NtRp479
(dp480
g54
(dp481
g81
g82
ssg63
g471
sg56
(lp482
S':'
asbag49
(g70
g51
NtRp483
(dp484
g54
(dp485
sg63
g471
sg56
(lp486
g49
(g50
g51
NtRp487
(dp488
g54
(dp489
g62
I3
ssg63
g483
sg56
(lp490
S''
asbasbasbag49
(g65
g51
NtRp491
(dp492
g54
(dp493
sg63
g447
sg56
(lp494
g49
(g70
g51
NtRp495
(dp496
g54
(dp497
g74
g75
ssg63
g491
sg56
(lp498
g328
asbag49
(g70
g51
NtRp499
(dp500
g54
(dp501
g81
g82
ssg63
g491
sg56
(lp502
S':'
asbag49
(g70
g51
NtRp503
(dp504
g54
(dp505
sg63
g491
sg56
(lp506
g49
(g50
g51
NtRp507
(dp508
g54
(dp509
g62
I3
ssg63
g503
sg56
(lp510
S''
asbasbasbag49
(g65
g51
NtRp511
(dp512
g54
(dp513
sg63
g447
sg56
(lp514
g49
(g70
g51
NtRp515
(dp516
g54
(dp517
g74
g75
ssg63
g511
sg56
(lp518
g349
asbag49
(g70
g51
NtRp519
(dp520
g54
(dp521
g81
g82
ssg63
g511
sg56
(lp522
S':'
asbag49
(g70
g51
NtRp523
(dp524
g54
(dp525
sg63
g511
sg56
(lp526
g49
(g50
g51
NtRp527
(dp528
g54
(dp529
g62
I3
ssg63
g523
sg56
(lp530
S''
asbasbasbag49
(g65
g51
NtRp531
(dp532
g54
(dp533
sg63
g447
sg56
(lp534
g49
(g70
g51
NtRp535
(dp536
g54
(dp537
g74
g75
ssg63
g531
sg56
(lp538
g370
asbag49
(g70
g51
NtRp539
(dp540
g54
(dp541
g81
g82
ssg63
g531
sg56
(lp542
S':'
asbag49
(g70
g51
NtRp543
(dp544
g54
(dp545
sg63
g531
sg56
(lp546
g49
(g50
g51
NtRp547
(dp548
g54
(dp549
g62
I3
ssg63
g543
sg56
(lp550
S''
asbasbasbag49
(g65
g51
NtRp551
(dp552
g54
(dp553
sg63
g447
sg56
(lp554
g49
(g70
g51
NtRp555
(dp556
g54
(dp557
g74
g75
ssg63
g551
sg56
(lp558
g391
asbag49
(g70
g51
NtRp559
(dp560
g54
(dp561
g81
g82
ssg63
g551
sg56
(lp562
S':'
asbag49
(g70
g51
NtRp563
(dp564
g54
(dp565
sg63
g551
sg56
(lp566
g49
(g50
g51
NtRp567
(dp568
g54
(dp569
g62
I3
ssg63
g563
sg56
(lp570
S''
asbasbasbag49
(g65
g51
NtRp571
(dp572
g54
(dp573
sg63
g447
sg56
(lp574
g49
(g70
g51
NtRp575
(dp576
g54
(dp577
g74
g75
ssg63
g571
sg56
(lp578
g412
asbag49
(g70
g51
NtRp579
(dp580
g54
(dp581
g81
g82
ssg63
g571
sg56
(lp582
S':'
asbag49
(g70
g51
NtRp583
(dp584
g54
(dp585
sg63
g571
sg56
(lp586
g49
(g50
g51
NtRp587
(dp588
g54
(dp589
g62
I3
ssg63
g583
sg56
(lp590
S''
asbasbasbasbasbasbasbag49
(g65
g51
NtRp591
(dp592
g54
(dp593
sg63
g248
sg56
(lp594
g49
(g70
g51
NtRp595
(dp596
g54
(dp597
g74
g75
ssg63
g591
sg56
(lp598
S'session_id_impulse_online2'
p599
asbag49
(g70
g51
NtRp600
(dp601
g54
(dp602
g81
g82
ssg63
g591
sg56
(lp603
S':'
asbag49
(g70
g51
NtRp604
(dp605
g54
(dp606
sg63
g591
sg56
(lp607
g49
(g50
g51
NtRp608
(dp609
g54
(dp610
g62
I4
ssg63
g604
sg56
(lp611
S'127.0.0.1-9439a7ba-c9df-4027-82ea-6601972a4384'
p612
ag49
(g58
g51
NtRp613
(dp614
g54
(dp615
g62
I3
ssg63
Nsg56
(lp616
g49
(g65
g51
NtRp617
(dp618
g54
(dp619
sg63
g613
sg56
(lp620
g49
(g70
g51
NtRp621
(dp622
g54
(dp623
g74
g75
ssg63
g617
sg56
(lp624
g286
asbag49
(g70
g51
NtRp625
(dp626
g54
(dp627
g81
g82
ssg63
g617
sg56
(lp628
S':'
asbag49
(g70
g51
NtRp629
(dp630
g54
(dp631
sg63
g617
sg56
(lp632
g49
(g50
g51
NtRp633
(dp634
g54
(dp635
g62
I3
ssg63
g629
sg56
(lp636
S''
asbasbasbag49
(g65
g51
NtRp637
(dp638
g54
(dp639
sg63
g613
sg56
(lp640
g49
(g70
g51
NtRp641
(dp642
g54
(dp643
g74
g75
ssg63
g637
sg56
(lp644
g307
asbag49
(g70
g51
NtRp645
(dp646
g54
(dp647
g81
g82
ssg63
g637
sg56
(lp648
S':'
asbag49
(g70
g51
NtRp649
(dp650
g54
(dp651
sg63
g637
sg56
(lp652
g49
(g50
g51
NtRp653
(dp654
g54
(dp655
g62
I3
ssg63
g649
sg56
(lp656
S''
asbasbasbag49
(g65
g51
NtRp657
(dp658
g54
(dp659
sg63
g613
sg56
(lp660
g49
(g70
g51
NtRp661
(dp662
g54
(dp663
g74
g75
ssg63
g657
sg56
(lp664
g328
asbag49
(g70
g51
NtRp665
(dp666
g54
(dp667
g81
g82
ssg63
g657
sg56
(lp668
S':'
asbag49
(g70
g51
NtRp669
(dp670
g54
(dp671
sg63
g657
sg56
(lp672
g49
(g50
g51
NtRp673
(dp674
g54
(dp675
g62
I3
ssg63
g669
sg56
(lp676
S''
asbasbasbag49
(g65
g51
NtRp677
(dp678
g54
(dp679
sg63
g613
sg56
(lp680
g49
(g70
g51
NtRp681
(dp682
g54
(dp683
g74
g75
ssg63
g677
sg56
(lp684
g349
asbag49
(g70
g51
NtRp685
(dp686
g54
(dp687
g81
g82
ssg63
g677
sg56
(lp688
S':'
asbag49
(g70
g51
NtRp689
(dp690
g54
(dp691
sg63
g677
sg56
(lp692
g49
(g50
g51
NtRp693
(dp694
g54
(dp695
g62
I3
ssg63
g689
sg56
(lp696
S''
asbasbasbag49
(g65
g51
NtRp697
(dp698
g54
(dp699
sg63
g613
sg56
(lp700
g49
(g70
g51
NtRp701
(dp702
g54
(dp703
g74
g75
ssg63
g697
sg56
(lp704
g370
asbag49
(g70
g51
NtRp705
(dp706
g54
(dp707
g81
g82
ssg63
g697
sg56
(lp708
S':'
asbag49
(g70
g51
NtRp709
(dp710
g54
(dp711
sg63
g697
sg56
(lp712
g49
(g50
g51
NtRp713
(dp714
g54
(dp715
g62
I3
ssg63
g709
sg56
(lp716
S''
asbasbasbag49
(g65
g51
NtRp717
(dp718
g54
(dp719
sg63
g613
sg56
(lp720
g49
(g70
g51
NtRp721
(dp722
g54
(dp723
g74
g75
ssg63
g717
sg56
(lp724
g391
asbag49
(g70
g51
NtRp725
(dp726
g54
(dp727
g81
g82
ssg63
g717
sg56
(lp728
S':'
asbag49
(g70
g51
NtRp729
(dp730
g54
(dp731
sg63
g717
sg56
(lp732
g49
(g50
g51
NtRp733
(dp734
g54
(dp735
g62
I3
ssg63
g729
sg56
(lp736
S''
asbasbasbag49
(g65
g51
NtRp737
(dp738
g54
(dp739
sg63
g613
sg56
(lp740
g49
(g70
g51
NtRp741
(dp742
g54
(dp743
g74
g75
ssg63
g737
sg56
(lp744
g412
asbag49
(g70
g51
NtRp745
(dp746
g54
(dp747
g81
g82
ssg63
g737
sg56
(lp748
S':'
asbag49
(g70
g51
NtRp749
(dp750
g54
(dp751
sg63
g737
sg56
(lp752
g49
(g50
g51
NtRp753
(dp754
g54
(dp755
g62
I3
ssg63
g749
sg56
(lp756
S''
asbasbasbasbasbasbasbag49
(g65
g51
NtRp757
(dp758
g54
(dp759
sg63
g248
sg56
(lp760
g49
(g70
g51
NtRp761
(dp762
g54
(dp763
g74
g75
ssg63
g757
sg56
(lp764
S'session_id_welcome'
p765
asbag49
(g70
g51
NtRp766
(dp767
g54
(dp768
g81
g82
ssg63
g757
sg56
(lp769
S':'
asbag49
(g70
g51
NtRp770
(dp771
g54
(dp772
sg63
g757
sg56
(lp773
g49
(g50
g51
NtRp774
(dp775
g54
(dp776
g62
I4
ssg63
g770
sg56
(lp777
S'127.0.0.1-9f381e62-1d1b-41c8-a820-f99c820323ab'
p778
ag49
(g58
g51
NtRp779
(dp780
g54
(dp781
g62
I3
ssg63
Nsg56
(lp782
g49
(g65
g51
NtRp783
(dp784
g54
(dp785
sg63
g779
sg56
(lp786
g49
(g70
g51
NtRp787
(dp788
g54
(dp789
g74
g75
ssg63
g783
sg56
(lp790
g286
asbag49
(g70
g51
NtRp791
(dp792
g54
(dp793
g81
g82
ssg63
g783
sg56
(lp794
S':'
asbag49
(g70
g51
NtRp795
(dp796
g54
(dp797
sg63
g783
sg56
(lp798
g49
(g50
g51
NtRp799
(dp800
g54
(dp801
g62
I3
ssg63
g795
sg56
(lp802
S''
asbasbasbag49
(g65
g51
NtRp803
(dp804
g54
(dp805
sg63
g779
sg56
(lp806
g49
(g70
g51
NtRp807
(dp808
g54
(dp809
g74
g75
ssg63
g803
sg56
(lp810
g307
asbag49
(g70
g51
NtRp811
(dp812
g54
(dp813
g81
g82
ssg63
g803
sg56
(lp814
S':'
asbag49
(g70
g51
NtRp815
(dp816
g54
(dp817
sg63
g803
sg56
(lp818
g49
(g50
g51
NtRp819
(dp820
g54
(dp821
g62
I3
ssg63
g815
sg56
(lp822
S''
asbasbasbag49
(g65
g51
NtRp823
(dp824
g54
(dp825
sg63
g779
sg56
(lp826
g49
(g70
g51
NtRp827
(dp828
g54
(dp829
g74
g75
ssg63
g823
sg56
(lp830
g328
asbag49
(g70
g51
NtRp831
(dp832
g54
(dp833
g81
g82
ssg63
g823
sg56
(lp834
S':'
asbag49
(g70
g51
NtRp835
(dp836
g54
(dp837
sg63
g823
sg56
(lp838
g49
(g50
g51
NtRp839
(dp840
g54
(dp841
g62
I3
ssg63
g835
sg56
(lp842
S''
asbasbasbag49
(g65
g51
NtRp843
(dp844
g54
(dp845
sg63
g779
sg56
(lp846
g49
(g70
g51
NtRp847
(dp848
g54
(dp849
g74
g75
ssg63
g843
sg56
(lp850
g349
asbag49
(g70
g51
NtRp851
(dp852
g54
(dp853
g81
g82
ssg63
g843
sg56
(lp854
S':'
asbag49
(g70
g51
NtRp855
(dp856
g54
(dp857
sg63
g843
sg56
(lp858
g49
(g50
g51
NtRp859
(dp860
g54
(dp861
g62
I3
ssg63
g855
sg56
(lp862
S''
asbasbasbag49
(g65
g51
NtRp863
(dp864
g54
(dp865
sg63
g779
sg56
(lp866
g49
(g70
g51
NtRp867
(dp868
g54
(dp869
g74
g75
ssg63
g863
sg56
(lp870
g370
asbag49
(g70
g51
NtRp871
(dp872
g54
(dp873
g81
g82
ssg63
g863
sg56
(lp874
S':'
asbag49
(g70
g51
NtRp875
(dp876
g54
(dp877
sg63
g863
sg56
(lp878
g49
(g50
g51
NtRp879
(dp880
g54
(dp881
g62
I3
ssg63
g875
sg56
(lp882
S''
asbasbasbag49
(g65
g51
NtRp883
(dp884
g54
(dp885
sg63
g779
sg56
(lp886
g49
(g70
g51
NtRp887
(dp888
g54
(dp889
g74
g75
ssg63
g883
sg56
(lp890
g391
asbag49
(g70
g51
NtRp891
(dp892
g54
(dp893
g81
g82
ssg63
g883
sg56
(lp894
S':'
asbag49
(g70
g51
NtRp895
(dp896
g54
(dp897
sg63
g883
sg56
(lp898
g49
(g50
g51
NtRp899
(dp900
g54
(dp901
g62
I3
ssg63
g895
sg56
(lp902
S''
asbasbasbag49
(g65
g51
NtRp903
(dp904
g54
(dp905
sg63
g779
sg56
(lp906
g49
(g70
g51
NtRp907
(dp908
g54
(dp909
g74
g75
ssg63
g903
sg56
(lp910
g412
asbag49
(g70
g51
NtRp911
(dp912
g54
(dp913
g81
g82
ssg63
g903
sg56
(lp914
S':'
asbag49
(g70
g51
NtRp915
(dp916
g54
(dp917
sg63
g903
sg56
(lp918
g49
(g50
g51
NtRp919
(dp920
g54
(dp921
g62
I3
ssg63
g915
sg56
(lp922
S''
asbasbasbasbasbasbasbasbasbasbasbag49
(g65
g51
NtRp923
(dp924
g54
(dp925
sg63
g59
sg56
(lp926
g49
(g70
g51
NtRp927
(dp928
g54
(dp929
g74
g75
ssg63
g923
sg56
(lp930
S'env'
p931
asbag49
(g70
g51
NtRp932
(dp933
g54
(dp934
g81
g82
ssg63
g923
sg56
(lp935
S':'
asbag49
(g70
g51
NtRp936
(dp937
g54
(dp938
sg63
g923
sg56
(lp939
g49
(g50
g51
NtRp940
(dp941
g54
(dp942
g62
I5
ssg63
g936
sg56
(lp943
g49
(g58
g51
NtRp944
(dp945
g54
(dp946
g62
I4
ssg63
Nsg56
(lp947
g49
(g65
g51
NtRp948
(dp949
g54
(dp950
sg63
g944
sg56
(lp951
g49
(g70
g51
NtRp952
(dp953
g54
(dp954
g74
g75
ssg63
g948
sg56
(lp955
S'app_folders'
p956
asbag49
(g70
g51
NtRp957
(dp958
g54
(dp959
g81
g82
ssg63
g948
sg56
(lp960
S':'
asbag49
(g70
g51
NtRp961
(dp962
g54
(dp963
sg63
g948
sg56
(lp964
g49
(g50
g51
NtRp965
(dp966
g54
(dp967
g62
I4
ssg63
g961
sg56
(lp968
S"set(['/Users/abaric/Downloads/web2py/web2py.app/Contents/Resources/applications/Final_Impulse/', '/Users/abaric/Downloads/web2py/web2py.app/Contents/Resources/applications/Impulse_Online2/', '/Users/abaric/Downloads/web2py/web2py.app/Contents/Resources/applications/welcome/', '/Users/abaric/Downloads/web2py/web2py.app/Contents/Resources/applications/admin/'])"
p969
asbasbasbag49
(g65
g51
NtRp970
(dp971
g54
(dp972
sg63
g944
sg56
(lp973
g49
(g70
g51
NtRp974
(dp975
g54
(dp976
g74
g75
ssg63
g970
sg56
(lp977
S'applications_parent'
p978
asbag49
(g70
g51
NtRp979
(dp980
g54
(dp981
g81
g82
ssg63
g970
sg56
(lp982
S':'
asbag49
(g70
g51
NtRp983
(dp984
g54
(dp985
sg63
g970
sg56
(lp986
g49
(g50
g51
NtRp987
(dp988
g54
(dp989
g62
I4
ssg63
g983
sg56
(lp990
S'/Users/abaric/Downloads/web2py/web2py.app/Contents/Resources'
p991
asbasbasbag49
(g65
g51
NtRp992
(dp993
g54
(dp994
sg63
g944
sg56
(lp995
g49
(g70
g51
NtRp996
(dp997
g54
(dp998
g74
g75
ssg63
g992
sg56
(lp999
S'cmd_args'
p1000
asbag49
(g70
g51
NtRp1001
(dp1002
g54
(dp1003
g81
g82
ssg63
g992
sg56
(lp1004
S':'
asbag49
(g70
g51
NtRp1005
(dp1006
g54
(dp1007
sg63
g992
sg56
(lp1008
g49
(g50
g51
NtRp1009
(dp1010
g54
(dp1011
g62
I4
ssg63
g1005
sg56
(lp1012
g49
(g58
g51
NtRp1013
(dp1014
g54
(dp1015
g62
I3
ssg63
Nsg56
(lp1016
sbasbasbasbag49
(g65
g51
NtRp1017
(dp1018
g54
(dp1019
sg63
g944
sg56
(lp1020
g49
(g70
g51
NtRp1021
(dp1022
g54
(dp1023
g74
g75
ssg63
g1017
sg56
(lp1024
S'cmd_options'
p1025
asbag49
(g70
g51
NtRp1026
(dp1027
g54
(dp1028
g81
g82
ssg63
g1017
sg56
(lp1029
S':'
asbag49
(g70
g51
NtRp1030
(dp1031
g54
(dp1032
sg63
g1017
sg56
(lp1033
g49
(g50
g51
NtRp1034
(dp1035
g54
(dp1036
g62
I4
ssg63
g1030
sg56
(lp1037
S"<Values at 0x455a1c0: {'verbose': False, 'ip': '127.0.0.1', 'with_scheduler': False, 'ips': ['158.130.105.160'], 'shutdown_timeout': 5, 'taskbar': False, 'port': 8000, 'maxthreads': None, 'softcron': False, 'server_name': 'seas415.wlan.seas.upenn.edu', 'bpython': False, 'nogui': False, 'pid_filename': 'httpserver.pid', 'extcron': False, 'runcron': False, 'run_system_tests': False, 'test': None, 'folder': '/Users/abaric/Downloads/web2py/web2py.app/Contents/Resources', 'config': '', 'import_models': False, 'winservice': '', 'shell': None, 'run': '', 'log_filename': 'httpserver.log', 'debuglevel': 30, 'args': [''], 'socket_timeout': 5, 'ssl_ca_certificate': None, 'scheduler': None, 'profiler_filename': None, 'ssl_private_key': '', 'scheduler_groups': None, 'password': '<ask>', 'request_queue_size': 5, 'ssl_certificate': '', 'cronjob': False, 'numthreads': None, 'quiet': False, 'interfaces': None, 'minthreads': None, 'timeout': 10, 'plain': False, 'nobanner': False}>"
p1038
asbasbasbag49
(g65
g51
NtRp1039
(dp1040
g54
(dp1041
sg63
g944
sg56
(lp1042
g49
(g70
g51
NtRp1043
(dp1044
g54
(dp1045
g74
g75
ssg63
g1039
sg56
(lp1046
S'db_sessions'
p1047
asbag49
(g70
g51
NtRp1048
(dp1049
g54
(dp1050
g81
g82
ssg63
g1039
sg56
(lp1051
S':'
asbag49
(g70
g51
NtRp1052
(dp1053
g54
(dp1054
sg63
g1039
sg56
(lp1055
g49
(g50
g51
NtRp1056
(dp1057
g54
(dp1058
g62
I4
ssg63
g1052
sg56
(lp1059
S'set([])'
p1060
asbasbasbag49
(g65
g51
NtRp1061
(dp1062
g54
(dp1063
sg63
g944
sg56
(lp1064
g49
(g70
g51
NtRp1065
(dp1066
g54
(dp1067
g74
g75
ssg63
g1061
sg56
(lp1068
S'debugging'
p1069
asbag49
(g70
g51
NtRp1070
(dp1071
g54
(dp1072
g81
g82
ssg63
g1061
sg56
(lp1073
S':'
asbag49
(g70
g51
NtRp1074
(dp1075
g54
(dp1076
sg63
g1061
sg56
(lp1077
g49
(g50
g51
NtRp1078
(dp1079
g54
(dp1080
g62
I4
ssg63
g1074
sg56
(lp1081
g92
asbasbasbag49
(g65
g51
NtRp1082
(dp1083
g54
(dp1084
sg63
g944
sg56
(lp1085
g49
(g70
g51
NtRp1086
(dp1087
g54
(dp1088
g74
g75
ssg63
g1082
sg56
(lp1089
S'gluon_parent'
p1090
asbag49
(g70
g51
NtRp1091
(dp1092
g54
(dp1093
g81
g82
ssg63
g1082
sg56
(lp1094
S':'
asbag49
(g70
g51
NtRp1095
(dp1096
g54
(dp1097
sg63
g1082
sg56
(lp1098
g49
(g50
g51
NtRp1099
(dp1100
g54
(dp1101
g62
I4
ssg63
g1095
sg56
(lp1102
S'/Users/abaric/Downloads/web2py/web2py.app/Contents/Resources'
p1103
asbasbasbag49
(g65
g51
NtRp1104
(dp1105
g54
(dp1106
sg63
g944
sg56
(lp1107
g49
(g70
g51
NtRp1108
(dp1109
g54
(dp1110
g74
g75
ssg63
g1104
sg56
(lp1111
S'http_accept'
p1112
asbag49
(g70
g51
NtRp1113
(dp1114
g54
(dp1115
g81
g82
ssg63
g1104
sg56
(lp1116
S':'
asbag49
(g70
g51
NtRp1117
(dp1118
g54
(dp1119
sg63
g1104
sg56
(lp1120
g49
(g50
g51
NtRp1121
(dp1122
g54
(dp1123
g62
I4
ssg63
g1117
sg56
(lp1124
S'text/html,application/xhtml+xml,application/xml;q=0.9,image/webp,*/*;q=0.8'
p1125
asbasbasbag49
(g65
g51
NtRp1126
(dp1127
g54
(dp1128
sg63
g944
sg56
(lp1129
g49
(g70
g51
NtRp1130
(dp1131
g54
(dp1132
g74
g75
ssg63
g1126
sg56
(lp1133
S'http_accept_encoding'
p1134
asbag49
(g70
g51
NtRp1135
(dp1136
g54
(dp1137
g81
g82
ssg63
g1126
sg56
(lp1138
S':'
asbag49
(g70
g51
NtRp1139
(dp1140
g54
(dp1141
sg63
g1126
sg56
(lp1142
g49
(g50
g51
NtRp1143
(dp1144
g54
(dp1145
g62
I4
ssg63
g1139
sg56
(lp1146
S'gzip, deflate, sdch'
p1147
asbasbasbag49
(g65
g51
NtRp1148
(dp1149
g54
(dp1150
sg63
g944
sg56
(lp1151
g49
(g70
g51
NtRp1152
(dp1153
g54
(dp1154
g74
g75
ssg63
g1148
sg56
(lp1155
S'http_accept_language'
p1156
asbag49
(g70
g51
NtRp1157
(dp1158
g54
(dp1159
g81
g82
ssg63
g1148
sg56
(lp1160
S':'
asbag49
(g70
g51
NtRp1161
(dp1162
g54
(dp1163
sg63
g1148
sg56
(lp1164
g49
(g50
g51
NtRp1165
(dp1166
g54
(dp1167
g62
I4
ssg63
g1161
sg56
(lp1168
S'en-US,en;q=0.8'
p1169
asbasbasbag49
(g65
g51
NtRp1170
(dp1171
g54
(dp1172
sg63
g944
sg56
(lp1173
g49
(g70
g51
NtRp1174
(dp1175
g54
(dp1176
g74
g75
ssg63
g1170
sg56
(lp1177
S'http_connection'
p1178
asbag49
(g70
g51
NtRp1179
(dp1180
g54
(dp1181
g81
g82
ssg63
g1170
sg56
(lp1182
S':'
asbag49
(g70
g51
NtRp1183
(dp1184
g54
(dp1185
sg63
g1170
sg56
(lp1186
g49
(g50
g51
NtRp1187
(dp1188
g54
(dp1189
g62
I4
ssg63
g1183
sg56
(lp1190
S'keep-alive'
p1191
asbasbasbag49
(g65
g51
NtRp1192
(dp1193
g54
(dp1194
sg63
g944
sg56
(lp1195
g49
(g70
g51
NtRp1196
(dp1197
g54
(dp1198
g74
g75
ssg63
g1192
sg56
(lp1199
S'http_cookie'
p1200
asbag49
(g70
g51
NtRp1201
(dp1202
g54
(dp1203
g81
g82
ssg63
g1192
sg56
(lp1204
S':'
asbag49
(g70
g51
NtRp1205
(dp1206
g54
(dp1207
sg63
g1192
sg56
(lp1208
g49
(g50
g51
NtRp1209
(dp1210
g54
(dp1211
g62
I4
ssg63
g1205
sg56
(lp1212
S'session_id_welcome=127.0.0.1-9f381e62-1d1b-41c8-a820-f99c820323ab; session_id_impulse_online2=127.0.0.1-9439a7ba-c9df-4027-82ea-6601972a4384; session_id_admin=127.0.0.1-1e1cfd1c-00ac-4a02-8885-691ad90135c8; session_id_final_impulse=127.0.0.1-19fc25e8-5096-4ab8-b354-d45592963b3f'
p1213
asbasbasbag49
(g65
g51
NtRp1214
(dp1215
g54
(dp1216
sg63
g944
sg56
(lp1217
g49
(g70
g51
NtRp1218
(dp1219
g54
(dp1220
g74
g75
ssg63
g1214
sg56
(lp1221
S'http_host'
p1222
asbag49
(g70
g51
NtRp1223
(dp1224
g54
(dp1225
g81
g82
ssg63
g1214
sg56
(lp1226
S':'
asbag49
(g70
g51
NtRp1227
(dp1228
g54
(dp1229
sg63
g1214
sg56
(lp1230
g49
(g50
g51
NtRp1231
(dp1232
g54
(dp1233
g62
I4
ssg63
g1227
sg56
(lp1234
S'127.0.0.1:8000'
p1235
asbasbasbag49
(g65
g51
NtRp1236
(dp1237
g54
(dp1238
sg63
g944
sg56
(lp1239
g49
(g70
g51
NtRp1240
(dp1241
g54
(dp1242
g74
g75
ssg63
g1236
sg56
(lp1243
S'http_referer'
p1244
asbag49
(g70
g51
NtRp1245
(dp1246
g54
(dp1247
g81
g82
ssg63
g1236
sg56
(lp1248
S':'
asbag49
(g70
g51
NtRp1249
(dp1250
g54
(dp1251
sg63
g1236
sg56
(lp1252
g49
(g50
g51
NtRp1253
(dp1254
g54
(dp1255
g62
I4
ssg63
g1249
sg56
(lp1256
S'http://127.0.0.1:8000/Final_Impulse/default/index'
p1257
asbasbasbag49
(g65
g51
NtRp1258
(dp1259
g54
(dp1260
sg63
g944
sg56
(lp1261
g49
(g70
g51
NtRp1262
(dp1263
g54
(dp1264
g74
g75
ssg63
g1258
sg56
(lp1265
S'http_upgrade_insecure_requests'
p1266
asbag49
(g70
g51
NtRp1267
(dp1268
g54
(dp1269
g81
g82
ssg63
g1258
sg56
(lp1270
S':'
asbag49
(g70
g51
NtRp1271
(dp1272
g54
(dp1273
sg63
g1258
sg56
(lp1274
g49
(g50
g51
NtRp1275
(dp1276
g54
(dp1277
g62
I4
ssg63
g1271
sg56
(lp1278
S'1'
asbasbasbag49
(g65
g51
NtRp1279
(dp1280
g54
(dp1281
sg63
g944
sg56
(lp1282
g49
(g70
g51
NtRp1283
(dp1284
g54
(dp1285
g74
g75
ssg63
g1279
sg56
(lp1286
S'http_user_agent'
p1287
asbag49
(g70
g51
NtRp1288
(dp1289
g54
(dp1290
g81
g82
ssg63
g1279
sg56
(lp1291
S':'
asbag49
(g70
g51
NtRp1292
(dp1293
g54
(dp1294
sg63
g1279
sg56
(lp1295
g49
(g50
g51
NtRp1296
(dp1297
g54
(dp1298
g62
I4
ssg63
g1292
sg56
(lp1299
S'Mozilla/5.0 (Macintosh; Intel Mac OS X 10_8_4) AppleWebKit/537.36 (KHTML, like Gecko) Chrome/47.0.2526.111 Safari/537.36'
p1300
asbasbasbag49
(g65
g51
NtRp1301
(dp1302
g54
(dp1303
sg63
g944
sg56
(lp1304
g49
(g70
g51
NtRp1305
(dp1306
g54
(dp1307
g74
g75
ssg63
g1301
sg56
(lp1308
S'is_jython'
p1309
asbag49
(g70
g51
NtRp1310
(dp1311
g54
(dp1312
g81
g82
ssg63
g1301
sg56
(lp1313
S':'
asbag49
(g70
g51
NtRp1314
(dp1315
g54
(dp1316
sg63
g1301
sg56
(lp1317
g49
(g50
g51
NtRp1318
(dp1319
g54
(dp1320
g62
I4
ssg63
g1314
sg56
(lp1321
g92
asbasbasbag49
(g65
g51
NtRp1322
(dp1323
g54
(dp1324
sg63
g944
sg56
(lp1325
g49
(g70
g51
NtRp1326
(dp1327
g54
(dp1328
g74
g75
ssg63
g1322
sg56
(lp1329
S'is_pypy'
p1330
asbag49
(g70
g51
NtRp1331
(dp1332
g54
(dp1333
g81
g82
ssg63
g1322
sg56
(lp1334
S':'
asbag49
(g70
g51
NtRp1335
(dp1336
g54
(dp1337
sg63
g1322
sg56
(lp1338
g49
(g50
g51
NtRp1339
(dp1340
g54
(dp1341
g62
I4
ssg63
g1335
sg56
(lp1342
g92
asbasbasbag49
(g65
g51
NtRp1343
(dp1344
g54
(dp1345
sg63
g944
sg56
(lp1346
g49
(g70
g51
NtRp1347
(dp1348
g54
(dp1349
g74
g75
ssg63
g1343
sg56
(lp1350
S'local_hosts'
p1351
asbag49
(g70
g51
NtRp1352
(dp1353
g54
(dp1354
g81
g82
ssg63
g1343
sg56
(lp1355
S':'
asbag49
(g70
g51
NtRp1356
(dp1357
g54
(dp1358
sg63
g1343
sg56
(lp1359
g49
(g50
g51
NtRp1360
(dp1361
g54
(dp1362
g62
I4
ssg63
g1356
sg56
(lp1363
g49
(g58
g51
NtRp1364
(dp1365
g54
(dp1366
g62
I3
ssg63
Nsg56
(lp1367
g49
(g65
g51
NtRp1368
(dp1369
g54
(dp1370
sg63
g1364
sg56
(lp1371
g49
(g70
g51
NtRp1372
(dp1373
g54
(dp1374
sg63
g1368
sg56
(lp1375
g49
(g50
g51
NtRp1376
(dp1377
g54
(dp1378
g62
I3
ssg63
g1372
sg56
(lp1379
S'127.0.0.1'
p1380
asbasbasbag49
(g65
g51
NtRp1381
(dp1382
g54
(dp1383
sg63
g1364
sg56
(lp1384
g49
(g70
g51
NtRp1385
(dp1386
g54
(dp1387
sg63
g1381
sg56
(lp1388
g49
(g50
g51
NtRp1389
(dp1390
g54
(dp1391
g62
I3
ssg63
g1385
sg56
(lp1392
S'::ffff:127.0.0.1'
p1393
asbasbasbag49
(g65
g51
NtRp1394
(dp1395
g54
(dp1396
sg63
g1364
sg56
(lp1397
g49
(g70
g51
NtRp1398
(dp1399
g54
(dp1400
sg63
g1394
sg56
(lp1401
g49
(g50
g51
NtRp1402
(dp1403
g54
(dp1404
g62
I3
ssg63
g1398
sg56
(lp1405
S'seas415.wlan.seas.upenn.edu'
p1406
asbasbasbag49
(g65
g51
NtRp1407
(dp1408
g54
(dp1409
sg63
g1364
sg56
(lp1410
g49
(g70
g51
NtRp1411
(dp1412
g54
(dp1413
sg63
g1407
sg56
(lp1414
g49
(g50
g51
NtRp1415
(dp1416
g54
(dp1417
g62
I3
ssg63
g1411
sg56
(lp1418
S'seas415.wlan.seas.upenn.edu'
p1419
asbasbasbag49
(g65
g51
NtRp1420
(dp1421
g54
(dp1422
sg63
g1364
sg56
(lp1423
g49
(g70
g51
NtRp1424
(dp1425
g54
(dp1426
sg63
g1420
sg56
(lp1427
g49
(g50
g51
NtRp1428
(dp1429
g54
(dp1430
g62
I3
ssg63
g1424
sg56
(lp1431
S'158.130.105.160'
p1432
asbasbasbasbasbasbasbag49
(g65
g51
NtRp1433
(dp1434
g54
(dp1435
sg63
g944
sg56
(lp1436
g49
(g70
g51
NtRp1437
(dp1438
g54
(dp1439
g74
g75
ssg63
g1433
sg56
(lp1440
S'path_info'
p1441
asbag49
(g70
g51
NtRp1442
(dp1443
g54
(dp1444
g81
g82
ssg63
g1433
sg56
(lp1445
S':'
asbag49
(g70
g51
NtRp1446
(dp1447
g54
(dp1448
sg63
g1433
sg56
(lp1449
g49
(g50
g51
NtRp1450
(dp1451
g54
(dp1452
g62
I4
ssg63
g1446
sg56
(lp1453
S'/Final_Impulse/default/show_image_comments'
p1454
asbasbasbag49
(g65
g51
NtRp1455
(dp1456
g54
(dp1457
sg63
g944
sg56
(lp1458
g49
(g70
g51
NtRp1459
(dp1460
g54
(dp1461
g74
g75
ssg63
g1455
sg56
(lp1462
S'query_string'
p1463
asbag49
(g70
g51
NtRp1464
(dp1465
g54
(dp1466
g81
g82
ssg63
g1455
sg56
(lp1467
S':'
asbag49
(g70
g51
NtRp1468
(dp1469
g54
(dp1470
sg63
g1455
sg56
(lp1471
g49
(g50
g51
NtRp1472
(dp1473
g54
(dp1474
g62
I4
ssg63
g1468
sg56
(lp1475
S''
asbasbasbag49
(g65
g51
NtRp1476
(dp1477
g54
(dp1478
sg63
g944
sg56
(lp1479
g49
(g70
g51
NtRp1480
(dp1481
g54
(dp1482
g74
g75
ssg63
g1476
sg56
(lp1483
S'remote_addr'
p1484
asbag49
(g70
g51
NtRp1485
(dp1486
g54
(dp1487
g81
g82
ssg63
g1476
sg56
(lp1488
S':'
asbag49
(g70
g51
NtRp1489
(dp1490
g54
(dp1491
sg63
g1476
sg56
(lp1492
g49
(g50
g51
NtRp1493
(dp1494
g54
(dp1495
g62
I4
ssg63
g1489
sg56
(lp1496
g204
asbasbasbag49
(g65
g51
NtRp1497
(dp1498
g54
(dp1499
sg63
g944
sg56
(lp1500
g49
(g70
g51
NtRp1501
(dp1502
g54
(dp1503
g74
g75
ssg63
g1497
sg56
(lp1504
S'remote_port'
p1505
asbag49
(g70
g51
NtRp1506
(dp1507
g54
(dp1508
g81
g82
ssg63
g1497
sg56
(lp1509
S':'
asbag49
(g70
g51
NtRp1510
(dp1511
g54
(dp1512
sg63
g1497
sg56
(lp1513
g49
(g50
g51
NtRp1514
(dp1515
g54
(dp1516
g62
I4
ssg63
g1510
sg56
(lp1517
S'58828'
p1518
asbasbasbag49
(g65
g51
NtRp1519
(dp1520
g54
(dp1521
sg63
g944
sg56
(lp1522
g49
(g70
g51
NtRp1523
(dp1524
g54
(dp1525
g74
g75
ssg63
g1519
sg56
(lp1526
S'request_method'
p1527
asbag49
(g70
g51
NtRp1528
(dp1529
g54
(dp1530
g81
g82
ssg63
g1519
sg56
(lp1531
S':'
asbag49
(g70
g51
NtRp1532
(dp1533
g54
(dp1534
sg63
g1519
sg56
(lp1535
g49
(g50
g51
NtRp1536
(dp1537
g54
(dp1538
g62
I4
ssg63
g1532
sg56
(lp1539
S'GET'
p1540
asbasbasbag49
(g65
g51
NtRp1541
(dp1542
g54
(dp1543
sg63
g944
sg56
(lp1544
g49
(g70
g51
NtRp1545
(dp1546
g54
(dp1547
g74
g75
ssg63
g1541
sg56
(lp1548
S'request_uri'
p1549
asbag49
(g70
g51
NtRp1550
(dp1551
g54
(dp1552
g81
g82
ssg63
g1541
sg56
(lp1553
S':'
asbag49
(g70
g51
NtRp1554
(dp1555
g54
(dp1556
sg63
g1541
sg56
(lp1557
g49
(g50
g51
NtRp1558
(dp1559
g54
(dp1560
g62
I4
ssg63
g1554
sg56
(lp1561
g1454
asbasbasbag49
(g65
g51
NtRp1562
(dp1563
g54
(dp1564
sg63
g944
sg56
(lp1565
g49
(g70
g51
NtRp1566
(dp1567
g54
(dp1568
g74
g75
ssg63
g1562
sg56
(lp1569
S'script_name'
p1570
asbag49
(g70
g51
NtRp1571
(dp1572
g54
(dp1573
g81
g82
ssg63
g1562
sg56
(lp1574
S':'
asbag49
(g70
g51
NtRp1575
(dp1576
g54
(dp1577
sg63
g1562
sg56
(lp1578
g49
(g50
g51
NtRp1579
(dp1580
g54
(dp1581
g62
I4
ssg63
g1575
sg56
(lp1582
S''
asbasbasbag49
(g65
g51
NtRp1583
(dp1584
g54
(dp1585
sg63
g944
sg56
(lp1586
g49
(g70
g51
NtRp1587
(dp1588
g54
(dp1589
g74
g75
ssg63
g1583
sg56
(lp1590
S'server_name'
p1591
asbag49
(g70
g51
NtRp1592
(dp1593
g54
(dp1594
g81
g82
ssg63
g1583
sg56
(lp1595
S':'
asbag49
(g70
g51
NtRp1596
(dp1597
g54
(dp1598
sg63
g1583
sg56
(lp1599
g49
(g50
g51
NtRp1600
(dp1601
g54
(dp1602
g62
I4
ssg63
g1596
sg56
(lp1603
g1419
asbasbasbag49
(g65
g51
NtRp1604
(dp1605
g54
(dp1606
sg63
g944
sg56
(lp1607
g49
(g70
g51
NtRp1608
(dp1609
g54
(dp1610
g74
g75
ssg63
g1604
sg56
(lp1611
S'server_port'
p1612
asbag49
(g70
g51
NtRp1613
(dp1614
g54
(dp1615
g81
g82
ssg63
g1604
sg56
(lp1616
S':'
asbag49
(g70
g51
NtRp1617
(dp1618
g54
(dp1619
sg63
g1604
sg56
(lp1620
g49
(g50
g51
NtRp1621
(dp1622
g54
(dp1623
g62
I4
ssg63
g1617
sg56
(lp1624
S'8000'
p1625
asbasbasbag49
(g65
g51
NtRp1626
(dp1627
g54
(dp1628
sg63
g944
sg56
(lp1629
g49
(g70
g51
NtRp1630
(dp1631
g54
(dp1632
g74
g75
ssg63
g1626
sg56
(lp1633
S'server_protocol'
p1634
asbag49
(g70
g51
NtRp1635
(dp1636
g54
(dp1637
g81
g82
ssg63
g1626
sg56
(lp1638
S':'
asbag49
(g70
g51
NtRp1639
(dp1640
g54
(dp1641
sg63
g1626
sg56
(lp1642
g49
(g50
g51
NtRp1643
(dp1644
g54
(dp1645
g62
I4
ssg63
g1639
sg56
(lp1646
S'HTTP/1.1'
p1647
asbasbasbag49
(g65
g51
NtRp1648
(dp1649
g54
(dp1650
sg63
g944
sg56
(lp1651
g49
(g70
g51
NtRp1652
(dp1653
g54
(dp1654
g74
g75
ssg63
g1648
sg56
(lp1655
S'server_software'
p1656
asbag49
(g70
g51
NtRp1657
(dp1658
g54
(dp1659
g81
g82
ssg63
g1648
sg56
(lp1660
S':'
asbag49
(g70
g51
NtRp1661
(dp1662
g54
(dp1663
sg63
g1648
sg56
(lp1664
g49
(g50
g51
NtRp1665
(dp1666
g54
(dp1667
g62
I4
ssg63
g1661
sg56
(lp1668
S'Rocket 1.2.5'
p1669
asbasbasbag49
(g65
g51
NtRp1670
(dp1671
g54
(dp1672
sg63
g944
sg56
(lp1673
g49
(g70
g51
NtRp1674
(dp1675
g54
(dp1676
g74
g75
ssg63
g1670
sg56
(lp1677
S'web2py_path'
p1678
asbag49
(g70
g51
NtRp1679
(dp1680
g54
(dp1681
g81
g82
ssg63
g1670
sg56
(lp1682
S':'
asbag49
(g70
g51
NtRp1683
(dp1684
g54
(dp1685
sg63
g1670
sg56
(lp1686
g49
(g50
g51
NtRp1687
(dp1688
g54
(dp1689
g62
I4
ssg63
g1683
sg56
(lp1690
g991
asbasbasbag49
(g65
g51
NtRp1691
(dp1692
g54
(dp1693
sg63
g944
sg56
(lp1694
g49
(g70
g51
NtRp1695
(dp1696
g54
(dp1697
g74
g75
ssg63
g1691
sg56
(lp1698
S'web2py_version'
p1699
asbag49
(g70
g51
NtRp1700
(dp1701
g54
(dp1702
g81
g82
ssg63
g1691
sg56
(lp1703
S':'
asbag49
(g70
g51
NtRp1704
(dp1705
g54
(dp1706
sg63
g1691
sg56
(lp1707
g49
(g50
g51
NtRp1708
(dp1709
g54
(dp1710
g62
I4
ssg63
g1704
sg56
(lp1711
g49
(g58
g51
NtRp1712
(dp1713
g54
(dp1714
g62
I3
ssg63
Nsg56
(lp1715
g49
(g65
g51
NtRp1716
(dp1717
g54
(dp1718
sg63
g1712
sg56
(lp1719
g49
(g70
g51
NtRp1720
(dp1721
g54
(dp1722
sg63
g1716
sg56
(lp1723
g49
(g50
g51
NtRp1724
(dp1725
g54
(dp1726
g62
I3
ssg63
g1720
sg56
(lp1727
S'2'
asbasbasbag49
(g65
g51
NtRp1728
(dp1729
g54
(dp1730
sg63
g1712
sg56
(lp1731
g49
(g70
g51
NtRp1732
(dp1733
g54
(dp1734
sg63
g1728
sg56
(lp1735
g49
(g50
g51
NtRp1736
(dp1737
g54
(dp1738
g62
I3
ssg63
g1732
sg56
(lp1739
S'2'
asbasbasbag49
(g65
g51
NtRp1740
(dp1741
g54
(dp1742
sg63
g1712
sg56
(lp1743
g49
(g70
g51
NtRp1744
(dp1745
g54
(dp1746
sg63
g1740
sg56
(lp1747
g49
(g50
g51
NtRp1748
(dp1749
g54
(dp1750
g62
I3
ssg63
g1744
sg56
(lp1751
S'1'
asbasbasbag49
(g65
g51
NtRp1752
(dp1753
g54
(dp1754
sg63
g1712
sg56
(lp1755
g49
(g70
g51
NtRp1756
(dp1757
g54
(dp1758
sg63
g1752
sg56
(lp1759
g49
(g50
g51
NtRp1760
(dp1761
g54
(dp1762
g62
I3
ssg63
g1756
sg56
(lp1763
S'datetime.datetime(2012, 10, 21, 16, 57, 4)'
p1764
asbasbasbag49
(g65
g51
NtRp1765
(dp1766
g54
(dp1767
sg63
g1712
sg56
(lp1768
g49
(g70
g51
NtRp1769
(dp1770
g54
(dp1771
sg63
g1765
sg56
(lp1772
g49
(g50
g51
NtRp1773
(dp1774
g54
(dp1775
g62
I3
ssg63
g1769
sg56
(lp1776
S'stable'
p1777
asbasbasbasbasbasbasbag49
(g65
g51
NtRp1778
(dp1779
g54
(dp1780
sg63
g944
sg56
(lp1781
g49
(g70
g51
NtRp1782
(dp1783
g54
(dp1784
g74
g75
ssg63
g1778
sg56
(lp1785
S'wsgi_errors'
p1786
asbag49
(g70
g51
NtRp1787
(dp1788
g54
(dp1789
g81
g82
ssg63
g1778
sg56
(lp1790
S':'
asbag49
(g70
g51
NtRp1791
(dp1792
g54
(dp1793
sg63
g1778
sg56
(lp1794
g49
(g50
g51
NtRp1795
(dp1796
g54
(dp1797
g62
I4
ssg63
g1791
sg56
(lp1798
S"<open file '<stderr>', mode 'w' at 0x540b0>"
p1799
asbasbasbag49
(g65
g51
NtRp1800
(dp1801
g54
(dp1802
sg63
g944
sg56
(lp1803
g49
(g70
g51
NtRp1804
(dp1805
g54
(dp1806
g74
g75
ssg63
g1800
sg56
(lp1807
S'wsgi_file_wrapper'
p1808
asbag49
(g70
g51
NtRp1809
(dp1810
g54
(dp1811
g81
g82
ssg63
g1800
sg56
(lp1812
S':'
asbag49
(g70
g51
NtRp1813
(dp1814
g54
(dp1815
sg63
g1800
sg56
(lp1816
g49
(g50
g51
NtRp1817
(dp1818
g54
(dp1819
g62
I4
ssg63
g1813
sg56
(lp1820
S'<class wsgiref.util.FileWrapper at 0x452c2d0>'
p1821
asbasbasbag49
(g65
g51
NtRp1822
(dp1823
g54
(dp1824
sg63
g944
sg56
(lp1825
g49
(g70
g51
NtRp1826
(dp1827
g54
(dp1828
g74
g75
ssg63
g1822
sg56
(lp1829
S'wsgi_input'
p1830
asbag49
(g70
g51
NtRp1831
(dp1832
g54
(dp1833
g81
g82
ssg63
g1822
sg56
(lp1834
S':'
asbag49
(g70
g51
NtRp1835
(dp1836
g54
(dp1837
sg63
g1822
sg56
(lp1838
g49
(g50
g51
NtRp1839
(dp1840
g54
(dp1841
g62
I4
ssg63
g1835
sg56
(lp1842
S'<socket._fileobject object at 0x9031030>'
p1843
asbasbasbag49
(g65
g51
NtRp1844
(dp1845
g54
(dp1846
sg63
g944
sg56
(lp1847
g49
(g70
g51
NtRp1848
(dp1849
g54
(dp1850
g74
g75
ssg63
g1844
sg56
(lp1851
S'wsgi_multiprocess'
p1852
asbag49
(g70
g51
NtRp1853
(dp1854
g54
(dp1855
g81
g82
ssg63
g1844
sg56
(lp1856
S':'
asbag49
(g70
g51
NtRp1857
(dp1858
g54
(dp1859
sg63
g1844
sg56
(lp1860
g49
(g50
g51
NtRp1861
(dp1862
g54
(dp1863
g62
I4
ssg63
g1857
sg56
(lp1864
g92
asbasbasbag49
(g65
g51
NtRp1865
(dp1866
g54
(dp1867
sg63
g944
sg56
(lp1868
g49
(g70
g51
NtRp1869
(dp1870
g54
(dp1871
g74
g75
ssg63
g1865
sg56
(lp1872
S'wsgi_multithread'
p1873
asbag49
(g70
g51
NtRp1874
(dp1875
g54
(dp1876
g81
g82
ssg63
g1865
sg56
(lp1877
S':'
asbag49
(g70
g51
NtRp1878
(dp1879
g54
(dp1880
sg63
g1865
sg56
(lp1881
g49
(g50
g51
NtRp1882
(dp1883
g54
(dp1884
g62
I4
ssg63
g1878
sg56
(lp1885
S'True'
p1886
asbasbasbag49
(g65
g51
NtRp1887
(dp1888
g54
(dp1889
sg63
g944
sg56
(lp1890
g49
(g70
g51
NtRp1891
(dp1892
g54
(dp1893
g74
g75
ssg63
g1887
sg56
(lp1894
S'wsgi_run_once'
p1895
asbag49
(g70
g51
NtRp1896
(dp1897
g54
(dp1898
g81
g82
ssg63
g1887
sg56
(lp1899
S':'
asbag49
(g70
g51
NtRp1900
(dp1901
g54
(dp1902
sg63
g1887
sg56
(lp1903
g49
(g50
g51
NtRp1904
(dp1905
g54
(dp1906
g62
I4
ssg63
g1900
sg56
(lp1907
g92
asbasbasbag49
(g65
g51
NtRp1908
(dp1909
g54
(dp1910
sg63
g944
sg56
(lp1911
g49
(g70
g51
NtRp1912
(dp1913
g54
(dp1914
g74
g75
ssg63
g1908
sg56
(lp1915
S'wsgi_url_scheme'
p1916
asbag49
(g70
g51
NtRp1917
(dp1918
g54
(dp1919
g81
g82
ssg63
g1908
sg56
(lp1920
S':'
asbag49
(g70
g51
NtRp1921
(dp1922
g54
(dp1923
sg63
g1908
sg56
(lp1924
g49
(g50
g51
NtRp1925
(dp1926
g54
(dp1927
g62
I4
ssg63
g1921
sg56
(lp1928
S'http'
p1929
asbasbasbag49
(g65
g51
NtRp1930
(dp1931
g54
(dp1932
sg63
g944
sg56
(lp1933
g49
(g70
g51
NtRp1934
(dp1935
g54
(dp1936
g74
g75
ssg63
g1930
sg56
(lp1937
S'wsgi_version'
p1938
asbag49
(g70
g51
NtRp1939
(dp1940
g54
(dp1941
g81
g82
ssg63
g1930
sg56
(lp1942
S':'
asbag49
(g70
g51
NtRp1943
(dp1944
g54
(dp1945
sg63
g1930
sg56
(lp1946
g49
(g50
g51
NtRp1947
(dp1948
g54
(dp1949
g62
I4
ssg63
g1943
sg56
(lp1950
g49
(g58
g51
NtRp1951
(dp1952
g54
(dp1953
g62
I3
ssg63
Nsg56
(lp1954
g49
(g65
g51
NtRp1955
(dp1956
g54
(dp1957
sg63
g1951
sg56
(lp1958
g49
(g70
g51
NtRp1959
(dp1960
g54
(dp1961
sg63
g1955
sg56
(lp1962
g49
(g50
g51
NtRp1963
(dp1964
g54
(dp1965
g62
I3
ssg63
g1959
sg56
(lp1966
S'1'
asbasbasbag49
(g65
g51
NtRp1967
(dp1968
g54
(dp1969
sg63
g1951
sg56
(lp1970
g49
(g70
g51
NtRp1971
(dp1972
g54
(dp1973
sg63
g1967
sg56
(lp1974
g49
(g50
g51
NtRp1975
(dp1976
g54
(dp1977
g62
I3
ssg63
g1971
sg56
(lp1978
S'0'
asbasbasbasbasbasbasbasbasbasbasbag49
(g65
g51
NtRp1979
(dp1980
g54
(dp1981
sg63
g59
sg56
(lp1982
g49
(g70
g51
NtRp1983
(dp1984
g54
(dp1985
g74
g75
ssg63
g1979
sg56
(lp1986
S'extension'
p1987
asbag49
(g70
g51
NtRp1988
(dp1989
g54
(dp1990
g81
g82
ssg63
g1979
sg56
(lp1991
S':'
asbag49
(g70
g51
NtRp1992
(dp1993
g54
(dp1994
sg63
g1979
sg56
(lp1995
g49
(g50
g51
NtRp1996
(dp1997
g54
(dp1998
g62
I5
ssg63
g1992
sg56
(lp1999
S'html'
p2000
asbasbasbag49
(g65
g51
NtRp2001
(dp2002
g54
(dp2003
sg63
g59
sg56
(lp2004
g49
(g70
g51
NtRp2005
(dp2006
g54
(dp2007
g74
g75
ssg63
g2001
sg56
(lp2008
S'folder'
p2009
asbag49
(g70
g51
NtRp2010
(dp2011
g54
(dp2012
g81
g82
ssg63
g2001
sg56
(lp2013
S':'
asbag49
(g70
g51
NtRp2014
(dp2015
g54
(dp2016
sg63
g2001
sg56
(lp2017
g49
(g50
g51
NtRp2018
(dp2019
g54
(dp2020
g62
I5
ssg63
g2014
sg56
(lp2021
S'/Users/abaric/Downloads/web2py/web2py.app/Contents/Resources/applications/Final_Impulse/'
p2022
asbasbasbag49
(g65
g51
NtRp2023
(dp2024
g54
(dp2025
sg63
g59
sg56
(lp2026
g49
(g70
g51
NtRp2027
(dp2028
g54
(dp2029
g74
g75
ssg63
g2023
sg56
(lp2030
S'function'
p2031
asbag49
(g70
g51
NtRp2032
(dp2033
g54
(dp2034
g81
g82
ssg63
g2023
sg56
(lp2035
S':'
asbag49
(g70
g51
NtRp2036
(dp2037
g54
(dp2038
sg63
g2023
sg56
(lp2039
g49
(g50
g51
NtRp2040
(dp2041
g54
(dp2042
g62
I5
ssg63
g2036
sg56
(lp2043
S'show_image_comments'
p2044
asbasbasbag49
(g65
g51
NtRp2045
(dp2046
g54
(dp2047
sg63
g59
sg56
(lp2048
g49
(g70
g51
NtRp2049
(dp2050
g54
(dp2051
g74
g75
ssg63
g2045
sg56
(lp2052
S'get_vars'
p2053
asbag49
(g70
g51
NtRp2054
(dp2055
g54
(dp2056
g81
g82
ssg63
g2045
sg56
(lp2057
S':'
asbag49
(g70
g51
NtRp2058
(dp2059
g54
(dp2060
sg63
g2045
sg56
(lp2061
g49
(g50
g51
NtRp2062
(dp2063
g54
(dp2064
g62
I5
ssg63
g2058
sg56
(lp2065
g49
(g58
g51
NtRp2066
(dp2067
g54
(dp2068
g62
I4
ssg63
Nsg56
(lp2069
sbasbasbasbag49
(g65
g51
NtRp2070
(dp2071
g54
(dp2072
sg63
g59
sg56
(lp2073
g49
(g70
g51
NtRp2074
(dp2075
g54
(dp2076
g74
g75
ssg63
g2070
sg56
(lp2077
S'global_settings'
p2078
asbag49
(g70
g51
NtRp2079
(dp2080
g54
(dp2081
g81
g82
ssg63
g2070
sg56
(lp2082
S':'
asbag49
(g70
g51
NtRp2083
(dp2084
g54
(dp2085
sg63
g2070
sg56
(lp2086
g49
(g50
g51
NtRp2087
(dp2088
g54
(dp2089
g62
I5
ssg63
g2083
sg56
(lp2090
g49
(g58
g51
NtRp2091
(dp2092
g54
(dp2093
g62
I4
ssg63
Nsg56
(lp2094
g49
(g65
g51
NtRp2095
(dp2096
g54
(dp2097
sg63
g2091
sg56
(lp2098
g49
(g70
g51
NtRp2099
(dp2100
g54
(dp2101
g74
g75
ssg63
g2095
sg56
(lp2102
g956
asbag49
(g70
g51
NtRp2103
(dp2104
g54
(dp2105
g81
g82
ssg63
g2095
sg56
(lp2106
S':'
asbag49
(g70
g51
NtRp2107
(dp2108
g54
(dp2109
sg63
g2095
sg56
(lp2110
g49
(g50
g51
NtRp2111
(dp2112
g54
(dp2113
g62
I4
ssg63
g2107
sg56
(lp2114
S"set(['/Users/abaric/Downloads/web2py/web2py.app/Contents/Resources/applications/Final_Impulse/', '/Users/abaric/Downloads/web2py/web2py.app/Contents/Resources/applications/Impulse_Online2/', '/Users/abaric/Downloads/web2py/web2py.app/Contents/Resources/applications/welcome/', '/Users/abaric/Downloads/web2py/web2py.app/Contents/Resources/applications/admin/'])"
p2115
asbasbasbag49
(g65
g51
NtRp2116
(dp2117
g54
(dp2118
sg63
g2091
sg56
(lp2119
g49
(g70
g51
NtRp2120
(dp2121
g54
(dp2122
g74
g75
ssg63
g2116
sg56
(lp2123
g978
asbag49
(g70
g51
NtRp2124
(dp2125
g54
(dp2126
g81
g82
ssg63
g2116
sg56
(lp2127
S':'
asbag49
(g70
g51
NtRp2128
(dp2129
g54
(dp2130
sg63
g2116
sg56
(lp2131
g49
(g50
g51
NtRp2132
(dp2133
g54
(dp2134
g62
I4
ssg63
g2128
sg56
(lp2135
g991
asbasbasbag49
(g65
g51
NtRp2136
(dp2137
g54
(dp2138
sg63
g2091
sg56
(lp2139
g49
(g70
g51
NtRp2140
(dp2141
g54
(dp2142
g74
g75
ssg63
g2136
sg56
(lp2143
g1000
asbag49
(g70
g51
NtRp2144
(dp2145
g54
(dp2146
g81
g82
ssg63
g2136
sg56
(lp2147
S':'
asbag49
(g70
g51
NtRp2148
(dp2149
g54
(dp2150
sg63
g2136
sg56
(lp2151
g49
(g50
g51
NtRp2152
(dp2153
g54
(dp2154
g62
I4
ssg63
g2148
sg56
(lp2155
g49
(g58
g51
NtRp2156
(dp2157
g54
(dp2158
g62
I3
ssg63
Nsg56
(lp2159
sbasbasbasbag49
(g65
g51
NtRp2160
(dp2161
g54
(dp2162
sg63
g2091
sg56
(lp2163
g49
(g70
g51
NtRp2164
(dp2165
g54
(dp2166
g74
g75
ssg63
g2160
sg56
(lp2167
g1025
asbag49
(g70
g51
NtRp2168
(dp2169
g54
(dp2170
g81
g82
ssg63
g2160
sg56
(lp2171
S':'
asbag49
(g70
g51
NtRp2172
(dp2173
g54
(dp2174
sg63
g2160
sg56
(lp2175
g49
(g50
g51
NtRp2176
(dp2177
g54
(dp2178
g62
I4
ssg63
g2172
sg56
(lp2179
S"<Values at 0x455a1c0: {'verbose': False, 'ip': '127.0.0.1', 'with_scheduler': False, 'ips': ['158.130.105.160'], 'shutdown_timeout': 5, 'taskbar': False, 'port': 8000, 'maxthreads': None, 'softcron': False, 'server_name': 'seas415.wlan.seas.upenn.edu', 'bpython': False, 'nogui': False, 'pid_filename': 'httpserver.pid', 'extcron': False, 'runcron': False, 'run_system_tests': False, 'test': None, 'folder': '/Users/abaric/Downloads/web2py/web2py.app/Contents/Resources', 'config': '', 'import_models': False, 'winservice': '', 'shell': None, 'run': '', 'log_filename': 'httpserver.log', 'debuglevel': 30, 'args': [''], 'socket_timeout': 5, 'ssl_ca_certificate': None, 'scheduler': None, 'profiler_filename': None, 'ssl_private_key': '', 'scheduler_groups': None, 'password': '<ask>', 'request_queue_size': 5, 'ssl_certificate': '', 'cronjob': False, 'numthreads': None, 'quiet': False, 'interfaces': None, 'minthreads': None, 'timeout': 10, 'plain': False, 'nobanner': False}>"
p2180
asbasbasbag49
(g65
g51
NtRp2181
(dp2182
g54
(dp2183
sg63
g2091
sg56
(lp2184
g49
(g70
g51
NtRp2185
(dp2186
g54
(dp2187
g74
g75
ssg63
g2181
sg56
(lp2188
g1047
asbag49
(g70
g51
NtRp2189
(dp2190
g54
(dp2191
g81
g82
ssg63
g2181
sg56
(lp2192
S':'
asbag49
(g70
g51
NtRp2193
(dp2194
g54
(dp2195
sg63
g2181
sg56
(lp2196
g49
(g50
g51
NtRp2197
(dp2198
g54
(dp2199
g62
I4
ssg63
g2193
sg56
(lp2200
S'set([])'
p2201
asbasbasbag49
(g65
g51
NtRp2202
(dp2203
g54
(dp2204
sg63
g2091
sg56
(lp2205
g49
(g70
g51
NtRp2206
(dp2207
g54
(dp2208
g74
g75
ssg63
g2202
sg56
(lp2209
g1069
asbag49
(g70
g51
NtRp2210
(dp2211
g54
(dp2212
g81
g82
ssg63
g2202
sg56
(lp2213
S':'
asbag49
(g70
g51
NtRp2214
(dp2215
g54
(dp2216
sg63
g2202
sg56
(lp2217
g49
(g50
g51
NtRp2218
(dp2219
g54
(dp2220
g62
I4
ssg63
g2214
sg56
(lp2221
g92
asbasbasbag49
(g65
g51
NtRp2222
(dp2223
g54
(dp2224
sg63
g2091
sg56
(lp2225
g49
(g70
g51
NtRp2226
(dp2227
g54
(dp2228
g74
g75
ssg63
g2222
sg56
(lp2229
g1090
asbag49
(g70
g51
NtRp2230
(dp2231
g54
(dp2232
g81
g82
ssg63
g2222
sg56
(lp2233
S':'
asbag49
(g70
g51
NtRp2234
(dp2235
g54
(dp2236
sg63
g2222
sg56
(lp2237
g49
(g50
g51
NtRp2238
(dp2239
g54
(dp2240
g62
I4
ssg63
g2234
sg56
(lp2241
g1103
asbasbasbag49
(g65
g51
NtRp2242
(dp2243
g54
(dp2244
sg63
g2091
sg56
(lp2245
g49
(g70
g51
NtRp2246
(dp2247
g54
(dp2248
g74
g75
ssg63
g2242
sg56
(lp2249
g1309
asbag49
(g70
g51
NtRp2250
(dp2251
g54
(dp2252
g81
g82
ssg63
g2242
sg56
(lp2253
S':'
asbag49
(g70
g51
NtRp2254
(dp2255
g54
(dp2256
sg63
g2242
sg56
(lp2257
g49
(g50
g51
NtRp2258
(dp2259
g54
(dp2260
g62
I4
ssg63
g2254
sg56
(lp2261
g92
asbasbasbag49
(g65
g51
NtRp2262
(dp2263
g54
(dp2264
sg63
g2091
sg56
(lp2265
g49
(g70
g51
NtRp2266
(dp2267
g54
(dp2268
g74
g75
ssg63
g2262
sg56
(lp2269
g1330
asbag49
(g70
g51
NtRp2270
(dp2271
g54
(dp2272
g81
g82
ssg63
g2262
sg56
(lp2273
S':'
asbag49
(g70
g51
NtRp2274
(dp2275
g54
(dp2276
sg63
g2262
sg56
(lp2277
g49
(g50
g51
NtRp2278
(dp2279
g54
(dp2280
g62
I4
ssg63
g2274
sg56
(lp2281
g92
asbasbasbag49
(g65
g51
NtRp2282
(dp2283
g54
(dp2284
sg63
g2091
sg56
(lp2285
g49
(g70
g51
NtRp2286
(dp2287
g54
(dp2288
g74
g75
ssg63
g2282
sg56
(lp2289
g1351
asbag49
(g70
g51
NtRp2290
(dp2291
g54
(dp2292
g81
g82
ssg63
g2282
sg56
(lp2293
S':'
asbag49
(g70
g51
NtRp2294
(dp2295
g54
(dp2296
sg63
g2282
sg56
(lp2297
g49
(g50
g51
NtRp2298
(dp2299
g54
(dp2300
g62
I4
ssg63
g2294
sg56
(lp2301
g49
(g58
g51
NtRp2302
(dp2303
g54
(dp2304
g62
I3
ssg63
Nsg56
(lp2305
g49
(g65
g51
NtRp2306
(dp2307
g54
(dp2308
sg63
g2302
sg56
(lp2309
g49
(g70
g51
NtRp2310
(dp2311
g54
(dp2312
sg63
g2306
sg56
(lp2313
g49
(g50
g51
NtRp2314
(dp2315
g54
(dp2316
g62
I3
ssg63
g2310
sg56
(lp2317
g1380
asbasbasbag49
(g65
g51
NtRp2318
(dp2319
g54
(dp2320
sg63
g2302
sg56
(lp2321
g49
(g70
g51
NtRp2322
(dp2323
g54
(dp2324
sg63
g2318
sg56
(lp2325
g49
(g50
g51
NtRp2326
(dp2327
g54
(dp2328
g62
I3
ssg63
g2322
sg56
(lp2329
g1393
asbasbasbag49
(g65
g51
NtRp2330
(dp2331
g54
(dp2332
sg63
g2302
sg56
(lp2333
g49
(g70
g51
NtRp2334
(dp2335
g54
(dp2336
sg63
g2330
sg56
(lp2337
g49
(g50
g51
NtRp2338
(dp2339
g54
(dp2340
g62
I3
ssg63
g2334
sg56
(lp2341
g1406
asbasbasbag49
(g65
g51
NtRp2342
(dp2343
g54
(dp2344
sg63
g2302
sg56
(lp2345
g49
(g70
g51
NtRp2346
(dp2347
g54
(dp2348
sg63
g2342
sg56
(lp2349
g49
(g50
g51
NtRp2350
(dp2351
g54
(dp2352
g62
I3
ssg63
g2346
sg56
(lp2353
g1419
asbasbasbag49
(g65
g51
NtRp2354
(dp2355
g54
(dp2356
sg63
g2302
sg56
(lp2357
g49
(g70
g51
NtRp2358
(dp2359
g54
(dp2360
sg63
g2354
sg56
(lp2361
g49
(g50
g51
NtRp2362
(dp2363
g54
(dp2364
g62
I3
ssg63
g2358
sg56
(lp2365
g1432
asbasbasbasbasbasbasbag49
(g65
g51
NtRp2366
(dp2367
g54
(dp2368
sg63
g2091
sg56
(lp2369
g49
(g70
g51
NtRp2370
(dp2371
g54
(dp2372
g74
g75
ssg63
g2366
sg56
(lp2373
g1699
asbag49
(g70
g51
NtRp2374
(dp2375
g54
(dp2376
g81
g82
ssg63
g2366
sg56
(lp2377
S':'
asbag49
(g70
g51
NtRp2378
(dp2379
g54
(dp2380
sg63
g2366
sg56
(lp2381
g49
(g50
g51
NtRp2382
(dp2383
g54
(dp2384
g62
I4
ssg63
g2378
sg56
(lp2385
g49
(g58
g51
NtRp2386
(dp2387
g54
(dp2388
g62
I3
ssg63
Nsg56
(lp2389
g49
(g65
g51
NtRp2390
(dp2391
g54
(dp2392
sg63
g2386
sg56
(lp2393
g49
(g70
g51
NtRp2394
(dp2395
g54
(dp2396
sg63
g2390
sg56
(lp2397
g49
(g50
g51
NtRp2398
(dp2399
g54
(dp2400
g62
I3
ssg63
g2394
sg56
(lp2401
S'2'
asbasbasbag49
(g65
g51
NtRp2402
(dp2403
g54
(dp2404
sg63
g2386
sg56
(lp2405
g49
(g70
g51
NtRp2406
(dp2407
g54
(dp2408
sg63
g2402
sg56
(lp2409
g49
(g50
g51
NtRp2410
(dp2411
g54
(dp2412
g62
I3
ssg63
g2406
sg56
(lp2413
S'2'
asbasbasbag49
(g65
g51
NtRp2414
(dp2415
g54
(dp2416
sg63
g2386
sg56
(lp2417
g49
(g70
g51
NtRp2418
(dp2419
g54
(dp2420
sg63
g2414
sg56
(lp2421
g49
(g50
g51
NtRp2422
(dp2423
g54
(dp2424
g62
I3
ssg63
g2418
sg56
(lp2425
S'1'
asbasbasbag49
(g65
g51
NtRp2426
(dp2427
g54
(dp2428
sg63
g2386
sg56
(lp2429
g49
(g70
g51
NtRp2430
(dp2431
g54
(dp2432
sg63
g2426
sg56
(lp2433
g49
(g50
g51
NtRp2434
(dp2435
g54
(dp2436
g62
I3
ssg63
g2430
sg56
(lp2437
S'datetime.datetime(2012, 10, 21, 16, 57, 4)'
p2438
asbasbasbag49
(g65
g51
NtRp2439
(dp2440
g54
(dp2441
sg63
g2386
sg56
(lp2442
g49
(g70
g51
NtRp2443
(dp2444
g54
(dp2445
sg63
g2439
sg56
(lp2446
g49
(g50
g51
NtRp2447
(dp2448
g54
(dp2449
g62
I3
ssg63
g2443
sg56
(lp2450
g1777
asbasbasbasbasbasbasbasbasbasbasbag49
(g65
g51
NtRp2451
(dp2452
g54
(dp2453
sg63
g59
sg56
(lp2454
g49
(g70
g51
NtRp2455
(dp2456
g54
(dp2457
g74
g75
ssg63
g2451
sg56
(lp2458
S'is_https'
p2459
asbag49
(g70
g51
NtRp2460
(dp2461
g54
(dp2462
g81
g82
ssg63
g2451
sg56
(lp2463
S':'
asbag49
(g70
g51
NtRp2464
(dp2465
g54
(dp2466
sg63
g2451
sg56
(lp2467
g49
(g50
g51
NtRp2468
(dp2469
g54
(dp2470
g62
I5
ssg63
g2464
sg56
(lp2471
g92
asbasbasbag49
(g65
g51
NtRp2472
(dp2473
g54
(dp2474
sg63
g59
sg56
(lp2475
g49
(g70
g51
NtRp2476
(dp2477
g54
(dp2478
g74
g75
ssg63
g2472
sg56
(lp2479
S'is_local'
p2480
asbag49
(g70
g51
NtRp2481
(dp2482
g54
(dp2483
g81
g82
ssg63
g2472
sg56
(lp2484
S':'
asbag49
(g70
g51
NtRp2485
(dp2486
g54
(dp2487
sg63
g2472
sg56
(lp2488
g49
(g50
g51
NtRp2489
(dp2490
g54
(dp2491
g62
I5
ssg63
g2485
sg56
(lp2492
g1886
asbasbasbag49
(g65
g51
NtRp2493
(dp2494
g54
(dp2495
sg63
g59
sg56
(lp2496
g49
(g70
g51
NtRp2497
(dp2498
g54
(dp2499
g74
g75
ssg63
g2493
sg56
(lp2500
S'is_restful'
p2501
asbag49
(g70
g51
NtRp2502
(dp2503
g54
(dp2504
g81
g82
ssg63
g2493
sg56
(lp2505
S':'
asbag49
(g70
g51
NtRp2506
(dp2507
g54
(dp2508
sg63
g2493
sg56
(lp2509
g49
(g50
g51
NtRp2510
(dp2511
g54
(dp2512
g62
I5
ssg63
g2506
sg56
(lp2513
g92
asbasbasbag49
(g65
g51
NtRp2514
(dp2515
g54
(dp2516
sg63
g59
sg56
(lp2517
g49
(g70
g51
NtRp2518
(dp2519
g54
(dp2520
g74
g75
ssg63
g2514
sg56
(lp2521
S'now'
p2522
asbag49
(g70
g51
NtRp2523
(dp2524
g54
(dp2525
g81
g82
ssg63
g2514
sg56
(lp2526
S':'
asbag49
(g70
g51
NtRp2527
(dp2528
g54
(dp2529
sg63
g2514
sg56
(lp2530
g49
(g50
g51
NtRp2531
(dp2532
g54
(dp2533
g62
I5
ssg63
g2527
sg56
(lp2534
S'datetime.datetime(2016, 1, 23, 1, 19, 29, 594692)'
p2535
asbasbasbag49
(g65
g51
NtRp2536
(dp2537
g54
(dp2538
sg63
g59
sg56
(lp2539
g49
(g70
g51
NtRp2540
(dp2541
g54
(dp2542
g74
g75
ssg63
g2536
sg56
(lp2543
S'post_vars'
p2544
asbag49
(g70
g51
NtRp2545
(dp2546
g54
(dp2547
g81
g82
ssg63
g2536
sg56
(lp2548
S':'
asbag49
(g70
g51
NtRp2549
(dp2550
g54
(dp2551
sg63
g2536
sg56
(lp2552
g49
(g50
g51
NtRp2553
(dp2554
g54
(dp2555
g62
I5
ssg63
g2549
sg56
(lp2556
g49
(g58
g51
NtRp2557
(dp2558
g54
(dp2559
g62
I4
ssg63
Nsg56
(lp2560
sbasbasbasbag49
(g65
g51
NtRp2561
(dp2562
g54
(dp2563
sg63
g59
sg56
(lp2564
g49
(g70
g51
NtRp2565
(dp2566
g54
(dp2567
g74
g75
ssg63
g2561
sg56
(lp2568
S'raw_args'
p2569
asbag49
(g70
g51
NtRp2570
(dp2571
g54
(dp2572
g81
g82
ssg63
g2561
sg56
(lp2573
S':'
asbag49
(g70
g51
NtRp2574
(dp2575
g54
(dp2576
sg63
g2561
sg56
(lp2577
g49
(g50
g51
NtRp2578
(dp2579
g54
(dp2580
g62
I5
ssg63
g2574
sg56
(lp2581
S''
asbasbasbag49
(g65
g51
NtRp2582
(dp2583
g54
(dp2584
sg63
g59
sg56
(lp2585
g49
(g70
g51
NtRp2586
(dp2587
g54
(dp2588
g74
g75
ssg63
g2582
sg56
(lp2589
S'raw_extension'
p2590
asbag49
(g70
g51
NtRp2591
(dp2592
g54
(dp2593
g81
g82
ssg63
g2582
sg56
(lp2594
S':'
asbag49
(g70
g51
NtRp2595
(dp2596
g54
(dp2597
sg63
g2582
sg56
(lp2598
g49
(g50
g51
NtRp2599
(dp2600
g54
(dp2601
g62
I5
ssg63
g2595
sg56
(lp2602
S'None'
p2603
asbasbasbag49
(g65
g51
NtRp2604
(dp2605
g54
(dp2606
sg63
g59
sg56
(lp2607
g49
(g70
g51
NtRp2608
(dp2609
g54
(dp2610
g74
g75
ssg63
g2604
sg56
(lp2611
S'url'
p2612
asbag49
(g70
g51
NtRp2613
(dp2614
g54
(dp2615
g81
g82
ssg63
g2604
sg56
(lp2616
S':'
asbag49
(g70
g51
NtRp2617
(dp2618
g54
(dp2619
sg63
g2604
sg56
(lp2620
g49
(g50
g51
NtRp2621
(dp2622
g54
(dp2623
g62
I5
ssg63
g2617
sg56
(lp2624
g1454
asbasbasbag49
(g65
g51
NtRp2625
(dp2626
g54
(dp2627
sg63
g59
sg56
(lp2628
g49
(g70
g51
NtRp2629
(dp2630
g54
(dp2631
g74
g75
ssg63
g2625
sg56
(lp2632
S'utcnow'
p2633
asbag49
(g70
g51
NtRp2634
(dp2635
g54
(dp2636
g81
g82
ssg63
g2625
sg56
(lp2637
S':'
asbag49
(g70
g51
NtRp2638
(dp2639
g54
(dp2640
sg63
g2625
sg56
(lp2641
g49
(g50
g51
NtRp2642
(dp2643
g54
(dp2644
g62
I5
ssg63
g2638
sg56
(lp2645
S'datetime.datetime(2016, 1, 23, 6, 19, 29, 594703)'
p2646
asbasbasbag49
(g65
g51
NtRp2647
(dp2648
g54
(dp2649
sg63
g59
sg56
(lp2650
g49
(g70
g51
NtRp2651
(dp2652
g54
(dp2653
g74
g75
ssg63
g2647
sg56
(lp2654
S'uuid'
p2655
asbag49
(g70
g51
NtRp2656
(dp2657
g54
(dp2658
g81
g82
ssg63
g2647
sg56
(lp2659
S':'
asbag49
(g70
g51
NtRp2660
(dp2661
g54
(dp2662
sg63
g2647
sg56
(lp2663
g49
(g50
g51
NtRp2664
(dp2665
g54
(dp2666
g62
I5
ssg63
g2660
sg56
(lp2667
S'Final_Impulse/127.0.0.1.2016-01-23.01-19-29.5ea1a13f-c313-4bba-86ab-9d0a4d3d5f5a'
p2668
asbasbasbag49
(g65
g51
NtRp2669
(dp2670
g54
(dp2671
sg63
g59
sg56
(lp2672
g49
(g70
g51
NtRp2673
(dp2674
g54
(dp2675
g74
g75
ssg63
g2669
sg56
(lp2676
S'vars'
p2677
asbag49
(g70
g51
NtRp2678
(dp2679
g54
(dp2680
g81
g82
ssg63
g2669
sg56
(lp2681
S':'
asbag49
(g70
g51
NtRp2682
(dp2683
g54
(dp2684
sg63
g2669
sg56
(lp2685
g49
(g50
g51
NtRp2686
(dp2687
g54
(dp2688
g62
I5
ssg63
g2682
sg56
(lp2689
g49
(g58
g51
NtRp2690
(dp2691
g54
(dp2692
g62
I4
ssg63
Nsg56
(lp2693
sbasbasbasbag49
(g65
g51
NtRp2694
(dp2695
g54
(dp2696
sg63
g59
sg56
(lp2697
g49
(g70
g51
NtRp2698
(dp2699
g54
(dp2700
g74
g75
ssg63
g2694
sg56
(lp2701
S'wsgi'
p2702
asbag49
(g70
g51
NtRp2703
(dp2704
g54
(dp2705
g81
g82
ssg63
g2694
sg56
(lp2706
S':'
asbag49
(g70
g51
NtRp2707
(dp2708
g54
(dp2709
sg63
g2694
sg56
(lp2710
g49
(g50
g51
NtRp2711
(dp2712
g54
(dp2713
g62
I5
ssg63
g2707
sg56
(lp2714
g49
(g58
g51
NtRp2715
(dp2716
g54
(dp2717
g62
I4
ssg63
Nsg56
(lp2718
g49
(g65
g51
NtRp2719
(dp2720
g54
(dp2721
sg63
g2715
sg56
(lp2722
g49
(g70
g51
NtRp2723
(dp2724
g54
(dp2725
g74
g75
ssg63
g2719
sg56
(lp2726
S'environ'
p2727
asbag49
(g70
g51
NtRp2728
(dp2729
g54
(dp2730
g81
g82
ssg63
g2719
sg56
(lp2731
S':'
asbag49
(g70
g51
NtRp2732
(dp2733
g54
(dp2734
sg63
g2719
sg56
(lp2735
g49
(g50
g51
NtRp2736
(dp2737
g54
(dp2738
g62
I4
ssg63
g2732
sg56
(lp2739
g49
(g58
g51
NtRp2740
(dp2741
g54
(dp2742
g62
I3
ssg63
Nsg56
(lp2743
g49
(g65
g51
NtRp2744
(dp2745
g54
(dp2746
sg63
g2740
sg56
(lp2747
g49
(g70
g51
NtRp2748
(dp2749
g54
(dp2750
g74
g75
ssg63
g2744
sg56
(lp2751
S'HTTP_ACCEPT'
p2752
asbag49
(g70
g51
NtRp2753
(dp2754
g54
(dp2755
g81
g82
ssg63
g2744
sg56
(lp2756
S':'
asbag49
(g70
g51
NtRp2757
(dp2758
g54
(dp2759
sg63
g2744
sg56
(lp2760
g49
(g50
g51
NtRp2761
(dp2762
g54
(dp2763
g62
I3
ssg63
g2757
sg56
(lp2764
g1125
asbasbasbag49
(g65
g51
NtRp2765
(dp2766
g54
(dp2767
sg63
g2740
sg56
(lp2768
g49
(g70
g51
NtRp2769
(dp2770
g54
(dp2771
g74
g75
ssg63
g2765
sg56
(lp2772
S'HTTP_ACCEPT_ENCODING'
p2773
asbag49
(g70
g51
NtRp2774
(dp2775
g54
(dp2776
g81
g82
ssg63
g2765
sg56
(lp2777
S':'
asbag49
(g70
g51
NtRp2778
(dp2779
g54
(dp2780
sg63
g2765
sg56
(lp2781
g49
(g50
g51
NtRp2782
(dp2783
g54
(dp2784
g62
I3
ssg63
g2778
sg56
(lp2785
g1147
asbasbasbag49
(g65
g51
NtRp2786
(dp2787
g54
(dp2788
sg63
g2740
sg56
(lp2789
g49
(g70
g51
NtRp2790
(dp2791
g54
(dp2792
g74
g75
ssg63
g2786
sg56
(lp2793
S'HTTP_ACCEPT_LANGUAGE'
p2794
asbag49
(g70
g51
NtRp2795
(dp2796
g54
(dp2797
g81
g82
ssg63
g2786
sg56
(lp2798
S':'
asbag49
(g70
g51
NtRp2799
(dp2800
g54
(dp2801
sg63
g2786
sg56
(lp2802
g49
(g50
g51
NtRp2803
(dp2804
g54
(dp2805
g62
I3
ssg63
g2799
sg56
(lp2806
g1169
asbasbasbag49
(g65
g51
NtRp2807
(dp2808
g54
(dp2809
sg63
g2740
sg56
(lp2810
g49
(g70
g51
NtRp2811
(dp2812
g54
(dp2813
g74
g75
ssg63
g2807
sg56
(lp2814
S'HTTP_CONNECTION'
p2815
asbag49
(g70
g51
NtRp2816
(dp2817
g54
(dp2818
g81
g82
ssg63
g2807
sg56
(lp2819
S':'
asbag49
(g70
g51
NtRp2820
(dp2821
g54
(dp2822
sg63
g2807
sg56
(lp2823
g49
(g50
g51
NtRp2824
(dp2825
g54
(dp2826
g62
I3
ssg63
g2820
sg56
(lp2827
g1191
asbasbasbag49
(g65
g51
NtRp2828
(dp2829
g54
(dp2830
sg63
g2740
sg56
(lp2831
g49
(g70
g51
NtRp2832
(dp2833
g54
(dp2834
g74
g75
ssg63
g2828
sg56
(lp2835
S'HTTP_COOKIE'
p2836
asbag49
(g70
g51
NtRp2837
(dp2838
g54
(dp2839
g81
g82
ssg63
g2828
sg56
(lp2840
S':'
asbag49
(g70
g51
NtRp2841
(dp2842
g54
(dp2843
sg63
g2828
sg56
(lp2844
g49
(g50
g51
NtRp2845
(dp2846
g54
(dp2847
g62
I3
ssg63
g2841
sg56
(lp2848
g1213
asbasbasbag49
(g65
g51
NtRp2849
(dp2850
g54
(dp2851
sg63
g2740
sg56
(lp2852
g49
(g70
g51
NtRp2853
(dp2854
g54
(dp2855
g74
g75
ssg63
g2849
sg56
(lp2856
S'HTTP_HOST'
p2857
asbag49
(g70
g51
NtRp2858
(dp2859
g54
(dp2860
g81
g82
ssg63
g2849
sg56
(lp2861
S':'
asbag49
(g70
g51
NtRp2862
(dp2863
g54
(dp2864
sg63
g2849
sg56
(lp2865
g49
(g50
g51
NtRp2866
(dp2867
g54
(dp2868
g62
I3
ssg63
g2862
sg56
(lp2869
g1235
asbasbasbag49
(g65
g51
NtRp2870
(dp2871
g54
(dp2872
sg63
g2740
sg56
(lp2873
g49
(g70
g51
NtRp2874
(dp2875
g54
(dp2876
g74
g75
ssg63
g2870
sg56
(lp2877
S'HTTP_REFERER'
p2878
asbag49
(g70
g51
NtRp2879
(dp2880
g54
(dp2881
g81
g82
ssg63
g2870
sg56
(lp2882
S':'
asbag49
(g70
g51
NtRp2883
(dp2884
g54
(dp2885
sg63
g2870
sg56
(lp2886
g49
(g50
g51
NtRp2887
(dp2888
g54
(dp2889
g62
I3
ssg63
g2883
sg56
(lp2890
g1257
asbasbasbag49
(g65
g51
NtRp2891
(dp2892
g54
(dp2893
sg63
g2740
sg56
(lp2894
g49
(g70
g51
NtRp2895
(dp2896
g54
(dp2897
g74
g75
ssg63
g2891
sg56
(lp2898
S'HTTP_UPGRADE_INSECURE_REQUESTS'
p2899
asbag49
(g70
g51
NtRp2900
(dp2901
g54
(dp2902
g81
g82
ssg63
g2891
sg56
(lp2903
S':'
asbag49
(g70
g51
NtRp2904
(dp2905
g54
(dp2906
sg63
g2891
sg56
(lp2907
g49
(g50
g51
NtRp2908
(dp2909
g54
(dp2910
g62
I3
ssg63
g2904
sg56
(lp2911
S'1'
asbasbasbag49
(g65
g51
NtRp2912
(dp2913
g54
(dp2914
sg63
g2740
sg56
(lp2915
g49
(g70
g51
NtRp2916
(dp2917
g54
(dp2918
g74
g75
ssg63
g2912
sg56
(lp2919
S'HTTP_USER_AGENT'
p2920
asbag49
(g70
g51
NtRp2921
(dp2922
g54
(dp2923
g81
g82
ssg63
g2912
sg56
(lp2924
S':'
asbag49
(g70
g51
NtRp2925
(dp2926
g54
(dp2927
sg63
g2912
sg56
(lp2928
g49
(g50
g51
NtRp2929
(dp2930
g54
(dp2931
g62
I3
ssg63
g2925
sg56
(lp2932
g1300
asbasbasbag49
(g65
g51
NtRp2933
(dp2934
g54
(dp2935
sg63
g2740
sg56
(lp2936
g49
(g70
g51
NtRp2937
(dp2938
g54
(dp2939
g74
g75
ssg63
g2933
sg56
(lp2940
S'PATH_INFO'
p2941
asbag49
(g70
g51
NtRp2942
(dp2943
g54
(dp2944
g81
g82
ssg63
g2933
sg56
(lp2945
S':'
asbag49
(g70
g51
NtRp2946
(dp2947
g54
(dp2948
sg63
g2933
sg56
(lp2949
g49
(g50
g51
NtRp2950
(dp2951
g54
(dp2952
g62
I3
ssg63
g2946
sg56
(lp2953
g1454
asbasbasbag49
(g65
g51
NtRp2954
(dp2955
g54
(dp2956
sg63
g2740
sg56
(lp2957
g49
(g70
g51
NtRp2958
(dp2959
g54
(dp2960
g74
g75
ssg63
g2954
sg56
(lp2961
S'QUERY_STRING'
p2962
asbag49
(g70
g51
NtRp2963
(dp2964
g54
(dp2965
g81
g82
ssg63
g2954
sg56
(lp2966
S':'
asbag49
(g70
g51
NtRp2967
(dp2968
g54
(dp2969
sg63
g2954
sg56
(lp2970
g49
(g50
g51
NtRp2971
(dp2972
g54
(dp2973
g62
I3
ssg63
g2967
sg56
(lp2974
S''
asbasbasbag49
(g65
g51
NtRp2975
(dp2976
g54
(dp2977
sg63
g2740
sg56
(lp2978
g49
(g70
g51
NtRp2979
(dp2980
g54
(dp2981
g74
g75
ssg63
g2975
sg56
(lp2982
S'REMOTE_ADDR'
p2983
asbag49
(g70
g51
NtRp2984
(dp2985
g54
(dp2986
g81
g82
ssg63
g2975
sg56
(lp2987
S':'
asbag49
(g70
g51
NtRp2988
(dp2989
g54
(dp2990
sg63
g2975
sg56
(lp2991
g49
(g50
g51
NtRp2992
(dp2993
g54
(dp2994
g62
I3
ssg63
g2988
sg56
(lp2995
g204
asbasbasbag49
(g65
g51
NtRp2996
(dp2997
g54
(dp2998
sg63
g2740
sg56
(lp2999
g49
(g70
g51
NtRp3000
(dp3001
g54
(dp3002
g74
g75
ssg63
g2996
sg56
(lp3003
S'REMOTE_PORT'
p3004
asbag49
(g70
g51
NtRp3005
(dp3006
g54
(dp3007
g81
g82
ssg63
g2996
sg56
(lp3008
S':'
asbag49
(g70
g51
NtRp3009
(dp3010
g54
(dp3011
sg63
g2996
sg56
(lp3012
g49
(g50
g51
NtRp3013
(dp3014
g54
(dp3015
g62
I3
ssg63
g3009
sg56
(lp3016
g1518
asbasbasbag49
(g65
g51
NtRp3017
(dp3018
g54
(dp3019
sg63
g2740
sg56
(lp3020
g49
(g70
g51
NtRp3021
(dp3022
g54
(dp3023
g74
g75
ssg63
g3017
sg56
(lp3024
S'REQUEST_METHOD'
p3025
asbag49
(g70
g51
NtRp3026
(dp3027
g54
(dp3028
g81
g82
ssg63
g3017
sg56
(lp3029
S':'
asbag49
(g70
g51
NtRp3030
(dp3031
g54
(dp3032
sg63
g3017
sg56
(lp3033
g49
(g50
g51
NtRp3034
(dp3035
g54
(dp3036
g62
I3
ssg63
g3030
sg56
(lp3037
g1540
asbasbasbag49
(g65
g51
NtRp3038
(dp3039
g54
(dp3040
sg63
g2740
sg56
(lp3041
g49
(g70
g51
NtRp3042
(dp3043
g54
(dp3044
g74
g75
ssg63
g3038
sg56
(lp3045
S'REQUEST_URI'
p3046
asbag49
(g70
g51
NtRp3047
(dp3048
g54
(dp3049
g81
g82
ssg63
g3038
sg56
(lp3050
S':'
asbag49
(g70
g51
NtRp3051
(dp3052
g54
(dp3053
sg63
g3038
sg56
(lp3054
g49
(g50
g51
NtRp3055
(dp3056
g54
(dp3057
g62
I3
ssg63
g3051
sg56
(lp3058
g1454
asbasbasbag49
(g65
g51
NtRp3059
(dp3060
g54
(dp3061
sg63
g2740
sg56
(lp3062
g49
(g70
g51
NtRp3063
(dp3064
g54
(dp3065
g74
g75
ssg63
g3059
sg56
(lp3066
S'SCRIPT_NAME'
p3067
asbag49
(g70
g51
NtRp3068
(dp3069
g54
(dp3070
g81
g82
ssg63
g3059
sg56
(lp3071
S':'
asbag49
(g70
g51
NtRp3072
(dp3073
g54
(dp3074
sg63
g3059
sg56
(lp3075
g49
(g50
g51
NtRp3076
(dp3077
g54
(dp3078
g62
I3
ssg63
g3072
sg56
(lp3079
S''
asbasbasbag49
(g65
g51
NtRp3080
(dp3081
g54
(dp3082
sg63
g2740
sg56
(lp3083
g49
(g70
g51
NtRp3084
(dp3085
g54
(dp3086
g74
g75
ssg63
g3080
sg56
(lp3087
S'SERVER_NAME'
p3088
asbag49
(g70
g51
NtRp3089
(dp3090
g54
(dp3091
g81
g82
ssg63
g3080
sg56
(lp3092
S':'
asbag49
(g70
g51
NtRp3093
(dp3094
g54
(dp3095
sg63
g3080
sg56
(lp3096
g49
(g50
g51
NtRp3097
(dp3098
g54
(dp3099
g62
I3
ssg63
g3093
sg56
(lp3100
g1419
asbasbasbag49
(g65
g51
NtRp3101
(dp3102
g54
(dp3103
sg63
g2740
sg56
(lp3104
g49
(g70
g51
NtRp3105
(dp3106
g54
(dp3107
g74
g75
ssg63
g3101
sg56
(lp3108
S'SERVER_PORT'
p3109
asbag49
(g70
g51
NtRp3110
(dp3111
g54
(dp3112
g81
g82
ssg63
g3101
sg56
(lp3113
S':'
asbag49
(g70
g51
NtRp3114
(dp3115
g54
(dp3116
sg63
g3101
sg56
(lp3117
g49
(g50
g51
NtRp3118
(dp3119
g54
(dp3120
g62
I3
ssg63
g3114
sg56
(lp3121
g1625
asbasbasbag49
(g65
g51
NtRp3122
(dp3123
g54
(dp3124
sg63
g2740
sg56
(lp3125
g49
(g70
g51
NtRp3126
(dp3127
g54
(dp3128
g74
g75
ssg63
g3122
sg56
(lp3129
S'SERVER_PROTOCOL'
p3130
asbag49
(g70
g51
NtRp3131
(dp3132
g54
(dp3133
g81
g82
ssg63
g3122
sg56
(lp3134
S':'
asbag49
(g70
g51
NtRp3135
(dp3136
g54
(dp3137
sg63
g3122
sg56
(lp3138
g49
(g50
g51
NtRp3139
(dp3140
g54
(dp3141
g62
I3
ssg63
g3135
sg56
(lp3142
g1647
asbasbasbag49
(g65
g51
NtRp3143
(dp3144
g54
(dp3145
sg63
g2740
sg56
(lp3146
g49
(g70
g51
NtRp3147
(dp3148
g54
(dp3149
g74
g75
ssg63
g3143
sg56
(lp3150
S'SERVER_SOFTWARE'
p3151
asbag49
(g70
g51
NtRp3152
(dp3153
g54
(dp3154
g81
g82
ssg63
g3143
sg56
(lp3155
S':'
asbag49
(g70
g51
NtRp3156
(dp3157
g54
(dp3158
sg63
g3143
sg56
(lp3159
g49
(g50
g51
NtRp3160
(dp3161
g54
(dp3162
g62
I3
ssg63
g3156
sg56
(lp3163
g1669
asbasbasbag49
(g65
g51
NtRp3164
(dp3165
g54
(dp3166
sg63
g2740
sg56
(lp3167
g49
(g70
g51
NtRp3168
(dp3169
g54
(dp3170
g74
g75
ssg63
g3164
sg56
(lp3171
S'wsgi.errors'
p3172
asbag49
(g70
g51
NtRp3173
(dp3174
g54
(dp3175
g81
g82
ssg63
g3164
sg56
(lp3176
S':'
asbag49
(g70
g51
NtRp3177
(dp3178
g54
(dp3179
sg63
g3164
sg56
(lp3180
g49
(g50
g51
NtRp3181
(dp3182
g54
(dp3183
g62
I3
ssg63
g3177
sg56
(lp3184
S"<open file '<stderr>', mode 'w' at 0x540b0>"
p3185
asbasbasbag49
(g65
g51
NtRp3186
(dp3187
g54
(dp3188
sg63
g2740
sg56
(lp3189
g49
(g70
g51
NtRp3190
(dp3191
g54
(dp3192
g74
g75
ssg63
g3186
sg56
(lp3193
S'wsgi.file_wrapper'
p3194
asbag49
(g70
g51
NtRp3195
(dp3196
g54
(dp3197
g81
g82
ssg63
g3186
sg56
(lp3198
S':'
asbag49
(g70
g51
NtRp3199
(dp3200
g54
(dp3201
sg63
g3186
sg56
(lp3202
g49
(g50
g51
NtRp3203
(dp3204
g54
(dp3205
g62
I3
ssg63
g3199
sg56
(lp3206
S'<class wsgiref.util.FileWrapper at 0x452c2d0>'
p3207
asbasbasbag49
(g65
g51
NtRp3208
(dp3209
g54
(dp3210
sg63
g2740
sg56
(lp3211
g49
(g70
g51
NtRp3212
(dp3213
g54
(dp3214
g74
g75
ssg63
g3208
sg56
(lp3215
S'wsgi.input'
p3216
asbag49
(g70
g51
NtRp3217
(dp3218
g54
(dp3219
g81
g82
ssg63
g3208
sg56
(lp3220
S':'
asbag49
(g70
g51
NtRp3221
(dp3222
g54
(dp3223
sg63
g3208
sg56
(lp3224
g49
(g50
g51
NtRp3225
(dp3226
g54
(dp3227
g62
I3
ssg63
g3221
sg56
(lp3228
S'<cStringIO.StringO object at 0x902f1a0>'
p3229
asbasbasbag49
(g65
g51
NtRp3230
(dp3231
g54
(dp3232
sg63
g2740
sg56
(lp3233
g49
(g70
g51
NtRp3234
(dp3235
g54
(dp3236
g74
g75
ssg63
g3230
sg56
(lp3237
S'wsgi.multiprocess'
p3238
asbag49
(g70
g51
NtRp3239
(dp3240
g54
(dp3241
g81
g82
ssg63
g3230
sg56
(lp3242
S':'
asbag49
(g70
g51
NtRp3243
(dp3244
g54
(dp3245
sg63
g3230
sg56
(lp3246
g49
(g50
g51
NtRp3247
(dp3248
g54
(dp3249
g62
I3
ssg63
g3243
sg56
(lp3250
g92
asbasbasbag49
(g65
g51
NtRp3251
(dp3252
g54
(dp3253
sg63
g2740
sg56
(lp3254
g49
(g70
g51
NtRp3255
(dp3256
g54
(dp3257
g74
g75
ssg63
g3251
sg56
(lp3258
S'wsgi.multithread'
p3259
asbag49
(g70
g51
NtRp3260
(dp3261
g54
(dp3262
g81
g82
ssg63
g3251
sg56
(lp3263
S':'
asbag49
(g70
g51
NtRp3264
(dp3265
g54
(dp3266
sg63
g3251
sg56
(lp3267
g49
(g50
g51
NtRp3268
(dp3269
g54
(dp3270
g62
I3
ssg63
g3264
sg56
(lp3271
g1886
asbasbasbag49
(g65
g51
NtRp3272
(dp3273
g54
(dp3274
sg63
g2740
sg56
(lp3275
g49
(g70
g51
NtRp3276
(dp3277
g54
(dp3278
g74
g75
ssg63
g3272
sg56
(lp3279
S'wsgi.run_once'
p3280
asbag49
(g70
g51
NtRp3281
(dp3282
g54
(dp3283
g81
g82
ssg63
g3272
sg56
(lp3284
S':'
asbag49
(g70
g51
NtRp3285
(dp3286
g54
(dp3287
sg63
g3272
sg56
(lp3288
g49
(g50
g51
NtRp3289
(dp3290
g54
(dp3291
g62
I3
ssg63
g3285
sg56
(lp3292
g92
asbasbasbag49
(g65
g51
NtRp3293
(dp3294
g54
(dp3295
sg63
g2740
sg56
(lp3296
g49
(g70
g51
NtRp3297
(dp3298
g54
(dp3299
g74
g75
ssg63
g3293
sg56
(lp3300
S'wsgi.url_scheme'
p3301
asbag49
(g70
g51
NtRp3302
(dp3303
g54
(dp3304
g81
g82
ssg63
g3293
sg56
(lp3305
S':'
asbag49
(g70
g51
NtRp3306
(dp3307
g54
(dp3308
sg63
g3293
sg56
(lp3309
g49
(g50
g51
NtRp3310
(dp3311
g54
(dp3312
g62
I3
ssg63
g3306
sg56
(lp3313
g1929
asbasbasbag49
(g65
g51
NtRp3314
(dp3315
g54
(dp3316
sg63
g2740
sg56
(lp3317
g49
(g70
g51
NtRp3318
(dp3319
g54
(dp3320
g74
g75
ssg63
g3314
sg56
(lp3321
S'wsgi.version'
p3322
asbag49
(g70
g51
NtRp3323
(dp3324
g54
(dp3325
g81
g82
ssg63
g3314
sg56
(lp3326
S':'
asbag49
(g70
g51
NtRp3327
(dp3328
g54
(dp3329
sg63
g3314
sg56
(lp3330
g49
(g50
g51
NtRp3331
(dp3332
g54
(dp3333
g62
I3
ssg63
g3327
sg56
(lp3334
S'1'
asbasbasbasbasbasbasbasbasbasbasbasbasbsS'frames'
p3335
(lp3336
(dp3337
S'file'
p3338
S'/Users/abaric/Downloads/web2py/web2py.app/Contents/Resources/gluon/restricted.py'
p3339
sS'dump'
p3340
(dp3341
sS'lnum'
p3342
I212
sS'lines'
p3343
(dp3344
sS'call'
p3345
S"(code='from gluon.tools import datetime\\nfrom gluon.tool...onse._vars=response._caller(show_image_comments)\\n', environment={'A': <class 'gluon.html.A'>, 'Auth': <class 'gluon.tools.Auth'>, 'B': <class 'gluon.html.B'>, 'BEAUTIFY': <class 'gluon.html.BEAUTIFY'>, 'BODY': <class 'gluon.html.BODY'>, 'BR': <class 'gluon.html.BR'>, 'BUTTON': <class 'gluon.html.BUTTON'>, 'CAT': <class 'gluon.html.CAT'>, 'CENTER': <class 'gluon.html.CENTER'>, 'CLEANUP': <class 'gluon.validators.CLEANUP'>, ...}, layer='/Users/abaric/Downloads/web2py/web2py.app/Conten...applications/Final_Impulse/controllers/default.py')"
p3346
sS'func'
p3347
S'restricted'
p3348
sa(dp3349
g3338
S'/Users/abaric/Downloads/web2py/web2py.app/Contents/Resources/applications/Final_Impulse/controllers/default.py'
p3350
sg3340
(dp3351
sg3342
I181
sg3343
(dp3352
I170
S'    for writing in wristing:'
p3353
sI171
S'        if writing.writing.approved:'
p3354
sI172
S'            writings_w_app.append(writing)'
p3355
sI173
S'        else:'
p3356
sI174
S'            writings_wo_app.append(writing)'
p3357
sI175
S''
sI176
S'    return locals()'
p3358
sI177
S''
sI178
S''
sI179
S'#def update_approve():'
p3359
ssg3345
S'()'
p3360
sg3347
S'<module>'
p3361
sa(dp3362
g3338
S'/Users/abaric/Downloads/web2py/web2py.app/Contents/Resources/gluon/globals.py'
p3363
sg3340
(dp3364
sg3342
I188
sg3343
(dp3365
sg3345
S'(f=<function show_image_comments at 0x902e570>)'
p3366
sg3347
S'<lambda>'
p3367
sa(dp3368
g3338
S'/Users/abaric/Downloads/web2py/web2py.app/Contents/Resources/applications/Final_Impulse/controllers/default.py'
p3369
sg3340
(dp3370
sg3342
I24
sg3343
(dp3371
I19
S'def download():'
p3372
sI20
S'    return response.download(request, db)'
p3373
sI21
S''
sI22
S'def show_image_comments():'
p3374
sI23
S"    image_form=SQLFORM(db.image,fields=['title','file'],labels={'file':'Your Image'})"
p3375
sI24
S'    image_form.vars.author_id=auth.user.id'
p3376
sI25
S"    image_form.add_button('Back', URL('index'))"
p3377
sI26
S'    if image_form.process().accepted:'
p3378
sI27
S"        response.flash='image post submitted!'"
p3379
sI28
S'    images=db(db.image).select(db.image.ALL, orderby=db.image.id)'
p3380
ssg3345
S'()'
p3381
sg3347
S'show_image_comments'
p3382
sasS'pyver'
p3383
S'Python 2.5.1: /Users/abaric/Downloads/web2py/web2py.app/Contents/MacOS/python'
p3384
sS'session'
p3385
g49
(g50
g51
NtRp3386
(dp3387
g54
(dp3388
sg56
(lp3389
g49
(g58
g51
NtRp3390
(dp3391
g54
(dp3392
g62
I5
ssg63
Nsg56
(lp3393
sbasbsS'etype'
p3394
S"<type 'exceptions.AttributeError'>"
p3395
sS'date'
p3396
S'Sat Jan 23 01:19:29 2016'
p3397
sS'response'
p3398
g49
(g50
g51
NtRp3399
(dp3400
g54
(dp3401
sg56
(lp3402
g49
(g58
g51
NtRp3403
(dp3404
g54
(dp3405
g62
I5
ssg63
Nsg56
(lp3406
g49
(g65
g51
NtRp3407
(dp3408
g54
(dp3409
sg63
g3403
sg56
(lp3410
g49
(g70
g51
NtRp3411
(dp3412
g54
(dp3413
g74
g75
ssg63
g3407
sg56
(lp3414
g147
asbag49
(g70
g51
NtRp3415
(dp3416
g54
(dp3417
g81
g82
ssg63
g3407
sg56
(lp3418
S':'
asbag49
(g70
g51
NtRp3419
(dp3420
g54
(dp3421
sg63
g3407
sg56
(lp3422
g49
(g50
g51
NtRp3423
(dp3424
g54
(dp3425
g62
I5
ssg63
g3419
sg56
(lp3426
S'<cStringIO.StringO object at 0x902f2c0>'
p3427
asbasbasbag49
(g65
g51
NtRp3428
(dp3429
g54
(dp3430
sg63
g3403
sg56
(lp3431
g49
(g70
g51
NtRp3432
(dp3433
g54
(dp3434
g74
g75
ssg63
g3428
sg56
(lp3435
g235
asbag49
(g70
g51
NtRp3436
(dp3437
g54
(dp3438
g81
g82
ssg63
g3428
sg56
(lp3439
S':'
asbag49
(g70
g51
NtRp3440
(dp3441
g54
(dp3442
sg63
g3428
sg56
(lp3443
g49
(g50
g51
NtRp3444
(dp3445
g54
(dp3446
g62
I5
ssg63
g3440
sg56
(lp3447
g49
(g58
g51
NtRp3448
(dp3449
g54
(dp3450
g62
I4
ssg63
Nsg56
(lp3451
g49
(g65
g51
NtRp3452
(dp3453
g54
(dp3454
sg63
g3448
sg56
(lp3455
g49
(g70
g51
NtRp3456
(dp3457
g54
(dp3458
g74
g75
ssg63
g3452
sg56
(lp3459
S'session_id_final_impulse'
p3460
asbag49
(g70
g51
NtRp3461
(dp3462
g54
(dp3463
g81
g82
ssg63
g3452
sg56
(lp3464
S':'
asbag49
(g70
g51
NtRp3465
(dp3466
g54
(dp3467
sg63
g3452
sg56
(lp3468
g49
(g50
g51
NtRp3469
(dp3470
g54
(dp3471
g62
I4
ssg63
g3465
sg56
(lp3472
S'127.0.0.1-d73af29c-c6de-4c7c-855e-2d4726b0ffa3'
p3473
ag49
(g58
g51
NtRp3474
(dp3475
g54
(dp3476
g62
I3
ssg63
Nsg56
(lp3477
g49
(g65
g51
NtRp3478
(dp3479
g54
(dp3480
sg63
g3474
sg56
(lp3481
g49
(g70
g51
NtRp3482
(dp3483
g54
(dp3484
g74
g75
ssg63
g3478
sg56
(lp3485
g286
asbag49
(g70
g51
NtRp3486
(dp3487
g54
(dp3488
g81
g82
ssg63
g3478
sg56
(lp3489
S':'
asbag49
(g70
g51
NtRp3490
(dp3491
g54
(dp3492
sg63
g3478
sg56
(lp3493
g49
(g50
g51
NtRp3494
(dp3495
g54
(dp3496
g62
I3
ssg63
g3490
sg56
(lp3497
S''
asbasbasbag49
(g65
g51
NtRp3498
(dp3499
g54
(dp3500
sg63
g3474
sg56
(lp3501
g49
(g70
g51
NtRp3502
(dp3503
g54
(dp3504
g74
g75
ssg63
g3498
sg56
(lp3505
g307
asbag49
(g70
g51
NtRp3506
(dp3507
g54
(dp3508
g81
g82
ssg63
g3498
sg56
(lp3509
S':'
asbag49
(g70
g51
NtRp3510
(dp3511
g54
(dp3512
sg63
g3498
sg56
(lp3513
g49
(g50
g51
NtRp3514
(dp3515
g54
(dp3516
g62
I3
ssg63
g3510
sg56
(lp3517
S''
asbasbasbag49
(g65
g51
NtRp3518
(dp3519
g54
(dp3520
sg63
g3474
sg56
(lp3521
g49
(g70
g51
NtRp3522
(dp3523
g54
(dp3524
g74
g75
ssg63
g3518
sg56
(lp3525
g328
asbag49
(g70
g51
NtRp3526
(dp3527
g54
(dp3528
g81
g82
ssg63
g3518
sg56
(lp3529
S':'
asbag49
(g70
g51
NtRp3530
(dp3531
g54
(dp3532
sg63
g3518
sg56
(lp3533
g49
(g50
g51
NtRp3534
(dp3535
g54
(dp3536
g62
I3
ssg63
g3530
sg56
(lp3537
S''
asbasbasbag49
(g65
g51
NtRp3538
(dp3539
g54
(dp3540
sg63
g3474
sg56
(lp3541
g49
(g70
g51
NtRp3542
(dp3543
g54
(dp3544
g74
g75
ssg63
g3538
sg56
(lp3545
g349
asbag49
(g70
g51
NtRp3546
(dp3547
g54
(dp3548
g81
g82
ssg63
g3538
sg56
(lp3549
S':'
asbag49
(g70
g51
NtRp3550
(dp3551
g54
(dp3552
sg63
g3538
sg56
(lp3553
g49
(g50
g51
NtRp3554
(dp3555
g54
(dp3556
g62
I3
ssg63
g3550
sg56
(lp3557
S''
asbasbasbag49
(g65
g51
NtRp3558
(dp3559
g54
(dp3560
sg63
g3474
sg56
(lp3561
g49
(g70
g51
NtRp3562
(dp3563
g54
(dp3564
g74
g75
ssg63
g3558
sg56
(lp3565
g370
asbag49
(g70
g51
NtRp3566
(dp3567
g54
(dp3568
g81
g82
ssg63
g3558
sg56
(lp3569
S':'
asbag49
(g70
g51
NtRp3570
(dp3571
g54
(dp3572
sg63
g3558
sg56
(lp3573
g49
(g50
g51
NtRp3574
(dp3575
g54
(dp3576
g62
I3
ssg63
g3570
sg56
(lp3577
S'/'
asbasbasbag49
(g65
g51
NtRp3578
(dp3579
g54
(dp3580
sg63
g3474
sg56
(lp3581
g49
(g70
g51
NtRp3582
(dp3583
g54
(dp3584
g74
g75
ssg63
g3578
sg56
(lp3585
g391
asbag49
(g70
g51
NtRp3586
(dp3587
g54
(dp3588
g81
g82
ssg63
g3578
sg56
(lp3589
S':'
asbag49
(g70
g51
NtRp3590
(dp3591
g54
(dp3592
sg63
g3578
sg56
(lp3593
g49
(g50
g51
NtRp3594
(dp3595
g54
(dp3596
g62
I3
ssg63
g3590
sg56
(lp3597
S''
asbasbasbag49
(g65
g51
NtRp3598
(dp3599
g54
(dp3600
sg63
g3474
sg56
(lp3601
g49
(g70
g51
NtRp3602
(dp3603
g54
(dp3604
g74
g75
ssg63
g3598
sg56
(lp3605
g412
asbag49
(g70
g51
NtRp3606
(dp3607
g54
(dp3608
g81
g82
ssg63
g3598
sg56
(lp3609
S':'
asbag49
(g70
g51
NtRp3610
(dp3611
g54
(dp3612
sg63
g3598
sg56
(lp3613
g49
(g50
g51
NtRp3614
(dp3615
g54
(dp3616
g62
I3
ssg63
g3610
sg56
(lp3617
S''
asbasbasbasbasbasbasbasbasbasbasbag49
(g65
g51
NtRp3618
(dp3619
g54
(dp3620
sg63
g3403
sg56
(lp3621
g49
(g70
g51
NtRp3622
(dp3623
g54
(dp3624
g74
g75
ssg63
g3618
sg56
(lp3625
S'delimiters'
p3626
asbag49
(g70
g51
NtRp3627
(dp3628
g54
(dp3629
g81
g82
ssg63
g3618
sg56
(lp3630
S':'
asbag49
(g70
g51
NtRp3631
(dp3632
g54
(dp3633
sg63
g3618
sg56
(lp3634
g49
(g50
g51
NtRp3635
(dp3636
g54
(dp3637
g62
I5
ssg63
g3631
sg56
(lp3638
g49
(g58
g51
NtRp3639
(dp3640
g54
(dp3641
g62
I4
ssg63
Nsg56
(lp3642
g49
(g65
g51
NtRp3643
(dp3644
g54
(dp3645
sg63
g3639
sg56
(lp3646
g49
(g70
g51
NtRp3647
(dp3648
g54
(dp3649
sg63
g3643
sg56
(lp3650
g49
(g50
g51
NtRp3651
(dp3652
g54
(dp3653
g62
I4
ssg63
g3647
sg56
(lp3654
S'{{'
p3655
asbasbasbag49
(g65
g51
NtRp3656
(dp3657
g54
(dp3658
sg63
g3639
sg56
(lp3659
g49
(g70
g51
NtRp3660
(dp3661
g54
(dp3662
sg63
g3656
sg56
(lp3663
g49
(g50
g51
NtRp3664
(dp3665
g54
(dp3666
g62
I4
ssg63
g3660
sg56
(lp3667
S'}}'
p3668
asbasbasbasbasbasbasbag49
(g65
g51
NtRp3669
(dp3670
g54
(dp3671
sg63
g3403
sg56
(lp3672
g49
(g70
g51
NtRp3673
(dp3674
g54
(dp3675
g74
g75
ssg63
g3669
sg56
(lp3676
S'files'
p3677
asbag49
(g70
g51
NtRp3678
(dp3679
g54
(dp3680
g81
g82
ssg63
g3669
sg56
(lp3681
S':'
asbag49
(g70
g51
NtRp3682
(dp3683
g54
(dp3684
sg63
g3669
sg56
(lp3685
g49
(g50
g51
NtRp3686
(dp3687
g54
(dp3688
g62
I5
ssg63
g3682
sg56
(lp3689
g49
(g58
g51
NtRp3690
(dp3691
g54
(dp3692
g62
I4
ssg63
Nsg56
(lp3693
sbasbasbasbag49
(g65
g51
NtRp3694
(dp3695
g54
(dp3696
sg63
g3403
sg56
(lp3697
g49
(g70
g51
NtRp3698
(dp3699
g54
(dp3700
g74
g75
ssg63
g3694
sg56
(lp3701
S'flash'
p3702
asbag49
(g70
g51
NtRp3703
(dp3704
g54
(dp3705
g81
g82
ssg63
g3694
sg56
(lp3706
S':'
asbag49
(g70
g51
NtRp3707
(dp3708
g54
(dp3709
sg63
g3694
sg56
(lp3710
g49
(g50
g51
NtRp3711
(dp3712
g54
(dp3713
g62
I5
ssg63
g3707
sg56
(lp3714
S''
asbasbasbag49
(g65
g51
NtRp3715
(dp3716
g54
(dp3717
sg63
g3403
sg56
(lp3718
g49
(g70
g51
NtRp3719
(dp3720
g54
(dp3721
g74
g75
ssg63
g3715
sg56
(lp3722
S'generic_patterns'
p3723
asbag49
(g70
g51
NtRp3724
(dp3725
g54
(dp3726
g81
g82
ssg63
g3715
sg56
(lp3727
S':'
asbag49
(g70
g51
NtRp3728
(dp3729
g54
(dp3730
sg63
g3715
sg56
(lp3731
g49
(g50
g51
NtRp3732
(dp3733
g54
(dp3734
g62
I5
ssg63
g3728
sg56
(lp3735
g49
(g58
g51
NtRp3736
(dp3737
g54
(dp3738
g62
I4
ssg63
Nsg56
(lp3739
sbasbasbasbag49
(g65
g51
NtRp3740
(dp3741
g54
(dp3742
sg63
g3403
sg56
(lp3743
g49
(g70
g51
NtRp3744
(dp3745
g54
(dp3746
g74
g75
ssg63
g3740
sg56
(lp3747
S'google_analytics_id'
p3748
asbag49
(g70
g51
NtRp3749
(dp3750
g54
(dp3751
g81
g82
ssg63
g3740
sg56
(lp3752
S':'
asbag49
(g70
g51
NtRp3753
(dp3754
g54
(dp3755
sg63
g3740
sg56
(lp3756
g49
(g50
g51
NtRp3757
(dp3758
g54
(dp3759
g62
I5
ssg63
g3753
sg56
(lp3760
S'None'
p3761
asbasbasbag49
(g65
g51
NtRp3762
(dp3763
g54
(dp3764
sg63
g3403
sg56
(lp3765
g49
(g70
g51
NtRp3766
(dp3767
g54
(dp3768
g74
g75
ssg63
g3762
sg56
(lp3769
S'headers'
p3770
asbag49
(g70
g51
NtRp3771
(dp3772
g54
(dp3773
g81
g82
ssg63
g3762
sg56
(lp3774
S':'
asbag49
(g70
g51
NtRp3775
(dp3776
g54
(dp3777
sg63
g3762
sg56
(lp3778
g49
(g50
g51
NtRp3779
(dp3780
g54
(dp3781
g62
I5
ssg63
g3775
sg56
(lp3782
g49
(g58
g51
NtRp3783
(dp3784
g54
(dp3785
g62
I4
ssg63
Nsg56
(lp3786
g49
(g65
g51
NtRp3787
(dp3788
g54
(dp3789
sg63
g3783
sg56
(lp3790
g49
(g70
g51
NtRp3791
(dp3792
g54
(dp3793
g74
g75
ssg63
g3787
sg56
(lp3794
S'X-Powered-By'
p3795
asbag49
(g70
g51
NtRp3796
(dp3797
g54
(dp3798
g81
g82
ssg63
g3787
sg56
(lp3799
S':'
asbag49
(g70
g51
NtRp3800
(dp3801
g54
(dp3802
sg63
g3787
sg56
(lp3803
g49
(g50
g51
NtRp3804
(dp3805
g54
(dp3806
g62
I4
ssg63
g3800
sg56
(lp3807
S'web2py'
p3808
asbasbasbasbasbasbasbag49
(g65
g51
NtRp3809
(dp3810
g54
(dp3811
sg63
g3403
sg56
(lp3812
g49
(g70
g51
NtRp3813
(dp3814
g54
(dp3815
g74
g75
ssg63
g3809
sg56
(lp3816
S'menu'
p3817
asbag49
(g70
g51
NtRp3818
(dp3819
g54
(dp3820
g81
g82
ssg63
g3809
sg56
(lp3821
S':'
asbag49
(g70
g51
NtRp3822
(dp3823
g54
(dp3824
sg63
g3809
sg56
(lp3825
g49
(g50
g51
NtRp3826
(dp3827
g54
(dp3828
g62
I5
ssg63
g3822
sg56
(lp3829
g49
(g58
g51
NtRp3830
(dp3831
g54
(dp3832
g62
I4
ssg63
Nsg56
(lp3833
g49
(g65
g51
NtRp3834
(dp3835
g54
(dp3836
sg63
g3830
sg56
(lp3837
g49
(g70
g51
NtRp3838
(dp3839
g54
(dp3840
sg63
g3834
sg56
(lp3841
g49
(g50
g51
NtRp3842
(dp3843
g54
(dp3844
g62
I4
ssg63
g3838
sg56
(lp3845
g49
(g58
g51
NtRp3846
(dp3847
g54
(dp3848
g62
I3
ssg63
Nsg56
(lp3849
g49
(g65
g51
NtRp3850
(dp3851
g54
(dp3852
sg63
g3846
sg56
(lp3853
g49
(g70
g51
NtRp3854
(dp3855
g54
(dp3856
sg63
g3850
sg56
(lp3857
g49
(g50
g51
NtRp3858
(dp3859
g54
(dp3860
g62
I3
ssg63
g3854
sg56
(lp3861
cgluon.languages
lazyT_unpickle
p3862
(S't\x04\x00\x00\x00Home'
tRp3863
asbasbasbag49
(g65
g51
NtRp3864
(dp3865
g54
(dp3866
sg63
g3846
sg56
(lp3867
g49
(g70
g51
NtRp3868
(dp3869
g54
(dp3870
sg63
g3864
sg56
(lp3871
g49
(g50
g51
NtRp3872
(dp3873
g54
(dp3874
g62
I3
ssg63
g3868
sg56
(lp3875
g92
asbasbasbag49
(g65
g51
NtRp3876
(dp3877
g54
(dp3878
sg63
g3846
sg56
(lp3879
g49
(g70
g51
NtRp3880
(dp3881
g54
(dp3882
sg63
g3876
sg56
(lp3883
g49
(g50
g51
NtRp3884
(dp3885
g54
(dp3886
g62
I3
ssg63
g3880
sg56
(lp3887
S'/Final_Impulse/default/index'
p3888
asbasbasbag49
(g65
g51
NtRp3889
(dp3890
g54
(dp3891
sg63
g3846
sg56
(lp3892
g49
(g70
g51
NtRp3893
(dp3894
g54
(dp3895
sg63
g3889
sg56
(lp3896
g49
(g50
g51
NtRp3897
(dp3898
g54
(dp3899
g62
I3
ssg63
g3893
sg56
(lp3900
g49
(g58
g51
NtRp3901
(dp3902
g54
(dp3903
g62
I2
ssg63
Nsg56
(lp3904
sbasbasbasbasbasbasbasbag49
(g65
g51
NtRp3905
(dp3906
g54
(dp3907
sg63
g3830
sg56
(lp3908
g49
(g70
g51
NtRp3909
(dp3910
g54
(dp3911
sg63
g3905
sg56
(lp3912
g49
(g50
g51
NtRp3913
(dp3914
g54
(dp3915
g62
I4
ssg63
g3909
sg56
(lp3916
g49
(g58
g51
NtRp3917
(dp3918
g54
(dp3919
g62
I3
ssg63
Nsg56
(lp3920
g49
(g65
g51
NtRp3921
(dp3922
g54
(dp3923
sg63
g3917
sg56
(lp3924
g49
(g70
g51
NtRp3925
(dp3926
g54
(dp3927
sg63
g3921
sg56
(lp3928
g49
(g50
g51
NtRp3929
(dp3930
g54
(dp3931
g62
I3
ssg63
g3925
sg56
(lp3932
g49
(cgluon.html
SPAN
p3933
g51
NtRp3934
(dp3935
g54
(dp3936
S'_class'
p3937
S'highlighted'
p3938
ssg63
Nsg56
(lp3939
g3808
asbasbasbasbag49
(g65
g51
NtRp3940
(dp3941
g54
(dp3942
sg63
g3917
sg56
(lp3943
g49
(g70
g51
NtRp3944
(dp3945
g54
(dp3946
sg63
g3940
sg56
(lp3947
g49
(g50
g51
NtRp3948
(dp3949
g54
(dp3950
g62
I3
ssg63
g3944
sg56
(lp3951
g92
asbasbasbag49
(g65
g51
NtRp3952
(dp3953
g54
(dp3954
sg63
g3917
sg56
(lp3955
g49
(g70
g51
NtRp3956
(dp3957
g54
(dp3958
sg63
g3952
sg56
(lp3959
g49
(g50
g51
NtRp3960
(dp3961
g54
(dp3962
g62
I3
ssg63
g3956
sg56
(lp3963
S'http://web2py.com'
p3964
asbasbasbag49
(g65
g51
NtRp3965
(dp3966
g54
(dp3967
sg63
g3917
sg56
(lp3968
g49
(g70
g51
NtRp3969
(dp3970
g54
(dp3971
sg63
g3965
sg56
(lp3972
g49
(g50
g51
NtRp3973
(dp3974
g54
(dp3975
g62
I3
ssg63
g3969
sg56
(lp3976
g49
(g58
g51
NtRp3977
(dp3978
g54
(dp3979
g62
I2
ssg63
Nsg56
(lp3980
g49
(g65
g51
NtRp3981
(dp3982
g54
(dp3983
sg63
g3977
sg56
(lp3984
g49
(g70
g51
NtRp3985
(dp3986
g54
(dp3987
sg63
g3981
sg56
(lp3988
g49
(g50
g51
NtRp3989
(dp3990
g54
(dp3991
g62
I2
ssg63
g3985
sg56
(lp3992
g49
(g58
g51
NtRp3993
(dp3994
g54
(dp3995
g62
I1
ssg63
Nsg56
(lp3996
g49
(g65
g51
NtRp3997
(dp3998
g54
(dp3999
sg63
g3993
sg56
(lp4000
g49
(g70
g51
NtRp4001
(dp4002
g54
(dp4003
sg63
g3997
sg56
(lp4004
g49
(g50
g51
NtRp4005
(dp4006
g54
(dp4007
g62
I1
ssg63
g4001
sg56
(lp4008
g3862
(S's\x08\x00\x00\x00My Sites'
tRp4009
asbasbasbag49
(g65
g51
NtRp4010
(dp4011
g54
(dp4012
sg63
g3993
sg56
(lp4013
g49
(g70
g51
NtRp4014
(dp4015
g54
(dp4016
sg63
g4010
sg56
(lp4017
g49
(g50
g51
NtRp4018
(dp4019
g54
(dp4020
g62
I1
ssg63
g4014
sg56
(lp4021
I00
asbasbasbag49
(g65
g51
NtRp4022
(dp4023
g54
(dp4024
sg63
g3993
sg56
(lp4025
g49
(g70
g51
NtRp4026
(dp4027
g54
(dp4028
sg63
g4022
sg56
(lp4029
g49
(g50
g51
NtRp4030
(dp4031
g54
(dp4032
g62
I1
ssg63
g4026
sg56
(lp4033
S'/admin/default/site'
p4034
asbasbasbasbasbasbasbag49
(g65
g51
NtRp4035
(dp4036
g54
(dp4037
sg63
g3977
sg56
(lp4038
g49
(g70
g51
NtRp4039
(dp4040
g54
(dp4041
sg63
g4035
sg56
(lp4042
g49
(g50
g51
NtRp4043
(dp4044
g54
(dp4045
g62
I2
ssg63
g4039
sg56
(lp4046
g49
(g58
g51
NtRp4047
(dp4048
g54
(dp4049
g62
I1
ssg63
Nsg56
(lp4050
g49
(g65
g51
NtRp4051
(dp4052
g54
(dp4053
sg63
g4047
sg56
(lp4054
g49
(g70
g51
NtRp4055
(dp4056
g54
(dp4057
sg63
g4051
sg56
(lp4058
g49
(g50
g51
NtRp4059
(dp4060
g54
(dp4061
g62
I1
ssg63
g4055
sg56
(lp4062
g3862
(S's\x08\x00\x00\x00This App'
tRp4063
asbasbasbag49
(g65
g51
NtRp4064
(dp4065
g54
(dp4066
sg63
g4047
sg56
(lp4067
g49
(g70
g51
NtRp4068
(dp4069
g54
(dp4070
sg63
g4064
sg56
(lp4071
g49
(g50
g51
NtRp4072
(dp4073
g54
(dp4074
g62
I1
ssg63
g4068
sg56
(lp4075
I00
asbasbasbag49
(g65
g51
NtRp4076
(dp4077
g54
(dp4078
sg63
g4047
sg56
(lp4079
g49
(g70
g51
NtRp4080
(dp4081
g54
(dp4082
sg63
g4076
sg56
(lp4083
g49
(g50
g51
NtRp4084
(dp4085
g54
(dp4086
g62
I1
ssg63
g4080
sg56
(lp4087
S'/admin/default/design/Final_Impulse'
p4088
asbasbasbag49
(g65
g51
NtRp4089
(dp4090
g54
(dp4091
sg63
g4047
sg56
(lp4092
g49
(g70
g51
NtRp4093
(dp4094
g54
(dp4095
sg63
g4089
sg56
(lp4096
g49
(g50
g51
NtRp4097
(dp4098
g54
(dp4099
g62
I1
ssg63
g4093
sg56
(lp4100
(lp4101
(g3862
(S't\n\x00\x00\x00Controller'
tRp4102
I00
S'/admin/default/edit/Final_Impulse/controllers/default.py'
tp4103
a(g3862
(S't\x04\x00\x00\x00View'
tRp4104
I00
S'/admin/default/edit/Final_Impulse/views/default/show_image_comments.html'
tp4105
a(g3862
(S't\x06\x00\x00\x00Layout'
tRp4106
I00
S'/admin/default/edit/Final_Impulse/views/layout.html'
tp4107
a(g3862
(S't\n\x00\x00\x00Stylesheet'
tRp4108
I00
S'/admin/default/edit/Final_Impulse/static/css/web2py.css'
tp4109
a(g3862
(S's\x08\x00\x00\x00DB Model'
tRp4110
I00
S'/admin/default/edit/Final_Impulse/models/db.py'
tp4111
a(g3862
(S's\n\x00\x00\x00Menu Model'
tRp4112
I00
S'/admin/default/edit/Final_Impulse/models/menu.py'
tp4113
a(g3862
(S't\x08\x00\x00\x00Database'
tRp4114
I00
S'/Final_Impulse/appadmin/index'
tp4115
a(g3862
(S't\x06\x00\x00\x00Errors'
tRp4116
I00
S'/admin/default/errors/Final_Impulse'
tp4117
a(g3862
(S't\x05\x00\x00\x00About'
tRp4118
I00
S'/admin/default/about/Final_Impulse'
tp4119
aasbasbasbasbasbasbasbag49
(g65
g51
NtRp4120
(dp4121
g54
(dp4122
sg63
g3977
sg56
(lp4123
g49
(g70
g51
NtRp4124
(dp4125
g54
(dp4126
sg63
g4120
sg56
(lp4127
g49
(g50
g51
NtRp4128
(dp4129
g54
(dp4130
g62
I2
ssg63
g4124
sg56
(lp4131
g49
(g58
g51
NtRp4132
(dp4133
g54
(dp4134
g62
I1
ssg63
Nsg56
(lp4135
g49
(g65
g51
NtRp4136
(dp4137
g54
(dp4138
sg63
g4132
sg56
(lp4139
g49
(g70
g51
NtRp4140
(dp4141
g54
(dp4142
sg63
g4136
sg56
(lp4143
g49
(g50
g51
NtRp4144
(dp4145
g54
(dp4146
g62
I1
ssg63
g4140
sg56
(lp4147
S'web2py.com'
p4148
asbasbasbag49
(g65
g51
NtRp4149
(dp4150
g54
(dp4151
sg63
g4132
sg56
(lp4152
g49
(g70
g51
NtRp4153
(dp4154
g54
(dp4155
sg63
g4149
sg56
(lp4156
g49
(g50
g51
NtRp4157
(dp4158
g54
(dp4159
g62
I1
ssg63
g4153
sg56
(lp4160
I00
asbasbasbag49
(g65
g51
NtRp4161
(dp4162
g54
(dp4163
sg63
g4132
sg56
(lp4164
g49
(g70
g51
NtRp4165
(dp4166
g54
(dp4167
sg63
g4161
sg56
(lp4168
g49
(g50
g51
NtRp4169
(dp4170
g54
(dp4171
g62
I1
ssg63
g4165
sg56
(lp4172
S'http://www.web2py.com'
p4173
asbasbasbag49
(g65
g51
NtRp4174
(dp4175
g54
(dp4176
sg63
g4132
sg56
(lp4177
g49
(g70
g51
NtRp4178
(dp4179
g54
(dp4180
sg63
g4174
sg56
(lp4181
g49
(g50
g51
NtRp4182
(dp4183
g54
(dp4184
g62
I1
ssg63
g4178
sg56
(lp4185
(lp4186
(g3862
(S't\x08\x00\x00\x00Download'
tRp4187
I00
S'http://www.web2py.com/examples/default/download'
p4188
tp4189
a(g3862
(S't\x07\x00\x00\x00Support'
tRp4190
I00
S'http://www.web2py.com/examples/default/support'
p4191
tp4192
a(g3862
(S't\x04\x00\x00\x00Demo'
tRp4193
I00
S'http://web2py.com/demo_admin'
p4194
tp4195
a(g3862
(S's\x0e\x00\x00\x00Quick Examples'
tRp4196
I00
S'http://web2py.com/examples/default/examples'
p4197
tp4198
a(g3862
(S't\x03\x00\x00\x00FAQ'
tRp4199
I00
S'http://web2py.com/AlterEgo'
p4200
tp4201
a(g3862
(S't\x06\x00\x00\x00Videos'
tRp4202
I00
S'http://www.web2py.com/examples/default/videos/'
p4203
tp4204
a(g3862
(S's\x11\x00\x00\x00Free Applications'
tRp4205
I00
S'http://web2py.com/appliances'
p4206
tp4207
a(g3862
(S't\x07\x00\x00\x00Plugins'
tRp4208
I00
S'http://web2py.com/plugins'
p4209
tp4210
a(g3862
(S't\x07\x00\x00\x00Layouts'
tRp4211
I00
S'http://web2py.com/layouts'
p4212
tp4213
a(g3862
(S't\x07\x00\x00\x00Recipes'
tRp4214
I00
S'http://web2pyslices.com/'
p4215
tp4216
a(g3862
(S't\x08\x00\x00\x00Semantic'
tRp4217
I00
S'http://web2py.com/semantic'
p4218
tp4219
aasbasbasbasbasbasbasbag49
(g65
g51
NtRp4220
(dp4221
g54
(dp4222
sg63
g3977
sg56
(lp4223
g49
(g70
g51
NtRp4224
(dp4225
g54
(dp4226
sg63
g4220
sg56
(lp4227
g49
(g50
g51
NtRp4228
(dp4229
g54
(dp4230
g62
I2
ssg63
g4224
sg56
(lp4231
g49
(g58
g51
NtRp4232
(dp4233
g54
(dp4234
g62
I1
ssg63
Nsg56
(lp4235
g49
(g65
g51
NtRp4236
(dp4237
g54
(dp4238
sg63
g4232
sg56
(lp4239
g49
(g70
g51
NtRp4240
(dp4241
g54
(dp4242
sg63
g4236
sg56
(lp4243
g49
(g50
g51
NtRp4244
(dp4245
g54
(dp4246
g62
I1
ssg63
g4240
sg56
(lp4247
g3862
(S't\r\x00\x00\x00Documentation'
tRp4248
asbasbasbag49
(g65
g51
NtRp4249
(dp4250
g54
(dp4251
sg63
g4232
sg56
(lp4252
g49
(g70
g51
NtRp4253
(dp4254
g54
(dp4255
sg63
g4249
sg56
(lp4256
g49
(g50
g51
NtRp4257
(dp4258
g54
(dp4259
g62
I1
ssg63
g4253
sg56
(lp4260
I00
asbasbasbag49
(g65
g51
NtRp4261
(dp4262
g54
(dp4263
sg63
g4232
sg56
(lp4264
g49
(g70
g51
NtRp4265
(dp4266
g54
(dp4267
sg63
g4261
sg56
(lp4268
g49
(g50
g51
NtRp4269
(dp4270
g54
(dp4271
g62
I1
ssg63
g4265
sg56
(lp4272
S'http://www.web2py.com/book'
p4273
asbasbasbag49
(g65
g51
NtRp4274
(dp4275
g54
(dp4276
sg63
g4232
sg56
(lp4277
g49
(g70
g51
NtRp4278
(dp4279
g54
(dp4280
sg63
g4274
sg56
(lp4281
g49
(g50
g51
NtRp4282
(dp4283
g54
(dp4284
g62
I1
ssg63
g4278
sg56
(lp4285
(lp4286
(g3862
(S't\x07\x00\x00\x00Preface'
tRp4287
I00
S'http://www.web2py.com/book/default/chapter/00'
p4288
tp4289
a(g3862
(S't\x0c\x00\x00\x00Introduction'
tRp4290
I00
S'http://www.web2py.com/book/default/chapter/01'
p4291
tp4292
a(g3862
(S't\x06\x00\x00\x00Python'
tRp4293
I00
S'http://www.web2py.com/book/default/chapter/02'
p4294
tp4295
a(g3862
(S't\x08\x00\x00\x00Overview'
tRp4296
I00
S'http://www.web2py.com/book/default/chapter/03'
p4297
tp4298
a(g3862
(S's\x08\x00\x00\x00The Core'
tRp4299
I00
S'http://www.web2py.com/book/default/chapter/04'
p4300
tp4301
a(g3862
(S's\t\x00\x00\x00The Views'
tRp4302
I00
S'http://www.web2py.com/book/default/chapter/05'
p4303
tp4304
a(g3862
(S't\x08\x00\x00\x00Database'
tRp4305
I00
S'http://www.web2py.com/book/default/chapter/06'
p4306
tp4307
a(g3862
(S's\x14\x00\x00\x00Forms and Validators'
tRp4308
I00
S'http://www.web2py.com/book/default/chapter/07'
p4309
tp4310
a(g3862
(S's\r\x00\x00\x00Email and SMS'
tRp4311
I00
S'http://www.web2py.com/book/default/chapter/08'
p4312
tp4313
a(g3862
(S's\x0e\x00\x00\x00Access Control'
tRp4314
I00
S'http://www.web2py.com/book/default/chapter/09'
p4315
tp4316
a(g3862
(S't\x08\x00\x00\x00Services'
tRp4317
I00
S'http://www.web2py.com/book/default/chapter/10'
p4318
tp4319
a(g3862
(S's\x0c\x00\x00\x00Ajax Recipes'
tRp4320
I00
S'http://www.web2py.com/book/default/chapter/11'
p4321
tp4322
a(g3862
(S's\x16\x00\x00\x00Components and Plugins'
tRp4323
I00
S'http://www.web2py.com/book/default/chapter/12'
p4324
tp4325
a(g3862
(S's\x12\x00\x00\x00Deployment Recipes'
tRp4326
I00
S'http://www.web2py.com/book/default/chapter/13'
p4327
tp4328
a(g3862
(S's\r\x00\x00\x00Other Recipes'
tRp4329
I00
S'http://www.web2py.com/book/default/chapter/14'
p4330
tp4331
a(g3862
(S's\r\x00\x00\x00Buy this book'
tRp4332
I00
S'http://stores.lulu.com/web2py'
p4333
tp4334
aasbasbasbasbasbasbasbag49
(g65
g51
NtRp4335
(dp4336
g54
(dp4337
sg63
g3977
sg56
(lp4338
g49
(g70
g51
NtRp4339
(dp4340
g54
(dp4341
sg63
g4335
sg56
(lp4342
g49
(g50
g51
NtRp4343
(dp4344
g54
(dp4345
g62
I2
ssg63
g4339
sg56
(lp4346
g49
(g58
g51
NtRp4347
(dp4348
g54
(dp4349
g62
I1
ssg63
Nsg56
(lp4350
g49
(g65
g51
NtRp4351
(dp4352
g54
(dp4353
sg63
g4347
sg56
(lp4354
g49
(g70
g51
NtRp4355
(dp4356
g54
(dp4357
sg63
g4351
sg56
(lp4358
g49
(g50
g51
NtRp4359
(dp4360
g54
(dp4361
g62
I1
ssg63
g4355
sg56
(lp4362
g3862
(S't\t\x00\x00\x00Community'
tRp4363
asbasbasbag49
(g65
g51
NtRp4364
(dp4365
g54
(dp4366
sg63
g4347
sg56
(lp4367
g49
(g70
g51
NtRp4368
(dp4369
g54
(dp4370
sg63
g4364
sg56
(lp4371
g49
(g50
g51
NtRp4372
(dp4373
g54
(dp4374
g62
I1
ssg63
g4368
sg56
(lp4375
I00
asbasbasbag49
(g65
g51
NtRp4376
(dp4377
g54
(dp4378
sg63
g4347
sg56
(lp4379
g49
(g70
g51
NtRp4380
(dp4381
g54
(dp4382
sg63
g4376
sg56
(lp4383
g49
(g50
g51
NtRp4384
(dp4385
g54
(dp4386
g62
I1
ssg63
g4380
sg56
(lp4387
Nasbasbasbag49
(g65
g51
NtRp4388
(dp4389
g54
(dp4390
sg63
g4347
sg56
(lp4391
g49
(g70
g51
NtRp4392
(dp4393
g54
(dp4394
sg63
g4388
sg56
(lp4395
g49
(g50
g51
NtRp4396
(dp4397
g54
(dp4398
g62
I1
ssg63
g4392
sg56
(lp4399
(lp4400
(g3862
(S't\x06\x00\x00\x00Groups'
tRp4401
I00
S'http://www.web2py.com/examples/default/usergroups'
p4402
tp4403
a(g3862
(S't\x07\x00\x00\x00Twitter'
tRp4404
I00
S'http://twitter.com/web2py'
p4405
tp4406
a(g3862
(S's\t\x00\x00\x00Live Chat'
tRp4407
I00
S'http://webchat.freenode.net/?channels=web2py'
p4408
tp4409
aasbasbasbasbasbasbasbag49
(g65
g51
NtRp4410
(dp4411
g54
(dp4412
sg63
g3977
sg56
(lp4413
g49
(g70
g51
NtRp4414
(dp4415
g54
(dp4416
sg63
g4410
sg56
(lp4417
g49
(g50
g51
NtRp4418
(dp4419
g54
(dp4420
g62
I2
ssg63
g4414
sg56
(lp4421
g49
(g58
g51
NtRp4422
(dp4423
g54
(dp4424
g62
I1
ssg63
Nsg56
(lp4425
g49
(g65
g51
NtRp4426
(dp4427
g54
(dp4428
sg63
g4422
sg56
(lp4429
g49
(g70
g51
NtRp4430
(dp4431
g54
(dp4432
sg63
g4426
sg56
(lp4433
g49
(g50
g51
NtRp4434
(dp4435
g54
(dp4436
g62
I1
ssg63
g4430
sg56
(lp4437
g3862
(S't\x07\x00\x00\x00Plugins'
tRp4438
asbasbasbag49
(g65
g51
NtRp4439
(dp4440
g54
(dp4441
sg63
g4422
sg56
(lp4442
g49
(g70
g51
NtRp4443
(dp4444
g54
(dp4445
sg63
g4439
sg56
(lp4446
g49
(g50
g51
NtRp4447
(dp4448
g54
(dp4449
g62
I1
ssg63
g4443
sg56
(lp4450
I00
asbasbasbag49
(g65
g51
NtRp4451
(dp4452
g54
(dp4453
sg63
g4422
sg56
(lp4454
g49
(g70
g51
NtRp4455
(dp4456
g54
(dp4457
sg63
g4451
sg56
(lp4458
g49
(g50
g51
NtRp4459
(dp4460
g54
(dp4461
g62
I1
ssg63
g4455
sg56
(lp4462
Nasbasbasbag49
(g65
g51
NtRp4463
(dp4464
g54
(dp4465
sg63
g4422
sg56
(lp4466
g49
(g70
g51
NtRp4467
(dp4468
g54
(dp4469
sg63
g4463
sg56
(lp4470
g49
(g50
g51
NtRp4471
(dp4472
g54
(dp4473
g62
I1
ssg63
g4467
sg56
(lp4474
(lp4475
(S'plugin_wiki'
p4476
I00
S'http://web2py.com/examples/default/download'
p4477
tp4478
a(g3862
(S's\r\x00\x00\x00Other Plugins'
tRp4479
I00
g4209
tp4480
a(g3862
(S's\x0e\x00\x00\x00Layout Plugins'
tRp4481
I00
g4212
tp4482
aasbasbasbasbasbasbasbasbasbasbasbasbasbasbasbasbasbasbasbag49
(g65
g51
NtRp4483
(dp4484
g54
(dp4485
sg63
g3403
sg56
(lp4486
g49
(g70
g51
NtRp4487
(dp4488
g54
(dp4489
g74
g75
ssg63
g4483
sg56
(lp4490
S'meta'
p4491
asbag49
(g70
g51
NtRp4492
(dp4493
g54
(dp4494
g81
g82
ssg63
g4483
sg56
(lp4495
S':'
asbag49
(g70
g51
NtRp4496
(dp4497
g54
(dp4498
sg63
g4483
sg56
(lp4499
g49
(g50
g51
NtRp4500
(dp4501
g54
(dp4502
g62
I5
ssg63
g4496
sg56
(lp4503
g49
(g58
g51
NtRp4504
(dp4505
g54
(dp4506
g62
I4
ssg63
Nsg56
(lp4507
g49
(g65
g51
NtRp4508
(dp4509
g54
(dp4510
sg63
g4504
sg56
(lp4511
g49
(g70
g51
NtRp4512
(dp4513
g54
(dp4514
g74
g75
ssg63
g4508
sg56
(lp4515
S'author'
p4516
asbag49
(g70
g51
NtRp4517
(dp4518
g54
(dp4519
g81
g82
ssg63
g4508
sg56
(lp4520
S':'
asbag49
(g70
g51
NtRp4521
(dp4522
g54
(dp4523
sg63
g4508
sg56
(lp4524
g49
(g50
g51
NtRp4525
(dp4526
g54
(dp4527
g62
I4
ssg63
g4521
sg56
(lp4528
S'Your Name <you@example.com>'
p4529
asbasbasbag49
(g65
g51
NtRp4530
(dp4531
g54
(dp4532
sg63
g4504
sg56
(lp4533
g49
(g70
g51
NtRp4534
(dp4535
g54
(dp4536
g74
g75
ssg63
g4530
sg56
(lp4537
S'description'
p4538
asbag49
(g70
g51
NtRp4539
(dp4540
g54
(dp4541
g81
g82
ssg63
g4530
sg56
(lp4542
S':'
asbag49
(g70
g51
NtRp4543
(dp4544
g54
(dp4545
sg63
g4530
sg56
(lp4546
g49
(g50
g51
NtRp4547
(dp4548
g54
(dp4549
g62
I4
ssg63
g4543
sg56
(lp4550
S'a cool new app'
p4551
asbasbasbag49
(g65
g51
NtRp4552
(dp4553
g54
(dp4554
sg63
g4504
sg56
(lp4555
g49
(g70
g51
NtRp4556
(dp4557
g54
(dp4558
g74
g75
ssg63
g4552
sg56
(lp4559
S'generator'
p4560
asbag49
(g70
g51
NtRp4561
(dp4562
g54
(dp4563
g81
g82
ssg63
g4552
sg56
(lp4564
S':'
asbag49
(g70
g51
NtRp4565
(dp4566
g54
(dp4567
sg63
g4552
sg56
(lp4568
g49
(g50
g51
NtRp4569
(dp4570
g54
(dp4571
g62
I4
ssg63
g4565
sg56
(lp4572
S'Web2py Web Framework'
p4573
asbasbasbag49
(g65
g51
NtRp4574
(dp4575
g54
(dp4576
sg63
g4504
sg56
(lp4577
g49
(g70
g51
NtRp4578
(dp4579
g54
(dp4580
g74
g75
ssg63
g4574
sg56
(lp4581
S'keywords'
p4582
asbag49
(g70
g51
NtRp4583
(dp4584
g54
(dp4585
g81
g82
ssg63
g4574
sg56
(lp4586
S':'
asbag49
(g70
g51
NtRp4587
(dp4588
g54
(dp4589
sg63
g4574
sg56
(lp4590
g49
(g50
g51
NtRp4591
(dp4592
g54
(dp4593
g62
I4
ssg63
g4587
sg56
(lp4594
S'web2py, python, framework'
p4595
asbasbasbasbasbasbasbag49
(g65
g51
NtRp4596
(dp4597
g54
(dp4598
sg63
g3403
sg56
(lp4599
g49
(g70
g51
NtRp4600
(dp4601
g54
(dp4602
g74
g75
ssg63
g4596
sg56
(lp4603
S'models_to_run'
p4604
asbag49
(g70
g51
NtRp4605
(dp4606
g54
(dp4607
g81
g82
ssg63
g4596
sg56
(lp4608
S':'
asbag49
(g70
g51
NtRp4609
(dp4610
g54
(dp4611
sg63
g4596
sg56
(lp4612
g49
(g50
g51
NtRp4613
(dp4614
g54
(dp4615
g62
I5
ssg63
g4609
sg56
(lp4616
g49
(g58
g51
NtRp4617
(dp4618
g54
(dp4619
g62
I4
ssg63
Nsg56
(lp4620
g49
(g65
g51
NtRp4621
(dp4622
g54
(dp4623
sg63
g4617
sg56
(lp4624
g49
(g70
g51
NtRp4625
(dp4626
g54
(dp4627
sg63
g4621
sg56
(lp4628
g49
(g50
g51
NtRp4629
(dp4630
g54
(dp4631
g62
I4
ssg63
g4625
sg56
(lp4632
S'^\\w+\\.py$'
p4633
asbasbasbag49
(g65
g51
NtRp4634
(dp4635
g54
(dp4636
sg63
g4617
sg56
(lp4637
g49
(g70
g51
NtRp4638
(dp4639
g54
(dp4640
sg63
g4634
sg56
(lp4641
g49
(g50
g51
NtRp4642
(dp4643
g54
(dp4644
g62
I4
ssg63
g4638
sg56
(lp4645
S'^default/\\w+\\.py$'
p4646
asbasbasbag49
(g65
g51
NtRp4647
(dp4648
g54
(dp4649
sg63
g4617
sg56
(lp4650
g49
(g70
g51
NtRp4651
(dp4652
g54
(dp4653
sg63
g4647
sg56
(lp4654
g49
(g50
g51
NtRp4655
(dp4656
g54
(dp4657
g62
I4
ssg63
g4651
sg56
(lp4658
S'^default/show_image_comments/\\w+\\.py$'
p4659
asbasbasbasbasbasbasbag49
(g65
g51
NtRp4660
(dp4661
g54
(dp4662
sg63
g3403
sg56
(lp4663
g49
(g70
g51
NtRp4664
(dp4665
g54
(dp4666
g74
g75
ssg63
g4660
sg56
(lp4667
S'postprocessing'
p4668
asbag49
(g70
g51
NtRp4669
(dp4670
g54
(dp4671
g81
g82
ssg63
g4660
sg56
(lp4672
S':'
asbag49
(g70
g51
NtRp4673
(dp4674
g54
(dp4675
sg63
g4660
sg56
(lp4676
g49
(g50
g51
NtRp4677
(dp4678
g54
(dp4679
g62
I5
ssg63
g4673
sg56
(lp4680
g49
(g58
g51
NtRp4681
(dp4682
g54
(dp4683
g62
I4
ssg63
Nsg56
(lp4684
sbasbasbasbag49
(g65
g51
NtRp4685
(dp4686
g54
(dp4687
sg63
g3403
sg56
(lp4688
g49
(g70
g51
NtRp4689
(dp4690
g54
(dp4691
g74
g75
ssg63
g4685
sg56
(lp4692
S'session_cookie_expires'
p4693
asbag49
(g70
g51
NtRp4694
(dp4695
g54
(dp4696
g81
g82
ssg63
g4685
sg56
(lp4697
S':'
asbag49
(g70
g51
NtRp4698
(dp4699
g54
(dp4700
sg63
g4685
sg56
(lp4701
g49
(g50
g51
NtRp4702
(dp4703
g54
(dp4704
g62
I5
ssg63
g4698
sg56
(lp4705
S'None'
p4706
asbasbasbag49
(g65
g51
NtRp4707
(dp4708
g54
(dp4709
sg63
g3403
sg56
(lp4710
g49
(g70
g51
NtRp4711
(dp4712
g54
(dp4713
g74
g75
ssg63
g4707
sg56
(lp4714
S'session_data_name'
p4715
asbag49
(g70
g51
NtRp4716
(dp4717
g54
(dp4718
g81
g82
ssg63
g4707
sg56
(lp4719
S':'
asbag49
(g70
g51
NtRp4720
(dp4721
g54
(dp4722
sg63
g4707
sg56
(lp4723
g49
(g50
g51
NtRp4724
(dp4725
g54
(dp4726
g62
I5
ssg63
g4720
sg56
(lp4727
S'session_data_final_impulse'
p4728
asbasbasbag49
(g65
g51
NtRp4729
(dp4730
g54
(dp4731
sg63
g3403
sg56
(lp4732
g49
(g70
g51
NtRp4733
(dp4734
g54
(dp4735
g74
g75
ssg63
g4729
sg56
(lp4736
S'session_filename'
p4737
asbag49
(g70
g51
NtRp4738
(dp4739
g54
(dp4740
g81
g82
ssg63
g4729
sg56
(lp4741
S':'
asbag49
(g70
g51
NtRp4742
(dp4743
g54
(dp4744
sg63
g4729
sg56
(lp4745
g49
(g50
g51
NtRp4746
(dp4747
g54
(dp4748
g62
I5
ssg63
g4742
sg56
(lp4749
S'/Users/abaric/Downloads/web2py/web2py.app/Contents/Resources/applications/Final_Impulse/sessions/127.0.0.1-d73af29c-c6de-4c7c-855e-2d4726b0ffa3'
p4750
asbasbasbag49
(g65
g51
NtRp4751
(dp4752
g54
(dp4753
sg63
g3403
sg56
(lp4754
g49
(g70
g51
NtRp4755
(dp4756
g54
(dp4757
g74
g75
ssg63
g4751
sg56
(lp4758
S'session_id'
p4759
asbag49
(g70
g51
NtRp4760
(dp4761
g54
(dp4762
g81
g82
ssg63
g4751
sg56
(lp4763
S':'
asbag49
(g70
g51
NtRp4764
(dp4765
g54
(dp4766
sg63
g4751
sg56
(lp4767
g49
(g50
g51
NtRp4768
(dp4769
g54
(dp4770
g62
I5
ssg63
g4764
sg56
(lp4771
g3473
asbasbasbag49
(g65
g51
NtRp4772
(dp4773
g54
(dp4774
sg63
g3403
sg56
(lp4775
g49
(g70
g51
NtRp4776
(dp4777
g54
(dp4778
g74
g75
ssg63
g4772
sg56
(lp4779
S'session_id_name'
p4780
asbag49
(g70
g51
NtRp4781
(dp4782
g54
(dp4783
g81
g82
ssg63
g4772
sg56
(lp4784
S':'
asbag49
(g70
g51
NtRp4785
(dp4786
g54
(dp4787
sg63
g4772
sg56
(lp4788
g49
(g50
g51
NtRp4789
(dp4790
g54
(dp4791
g62
I5
ssg63
g4785
sg56
(lp4792
g3460
asbasbasbag49
(g65
g51
NtRp4793
(dp4794
g54
(dp4795
sg63
g3403
sg56
(lp4796
g49
(g70
g51
NtRp4797
(dp4798
g54
(dp4799
g74
g75
ssg63
g4793
sg56
(lp4800
S'session_new'
p4801
asbag49
(g70
g51
NtRp4802
(dp4803
g54
(dp4804
g81
g82
ssg63
g4793
sg56
(lp4805
S':'
asbag49
(g70
g51
NtRp4806
(dp4807
g54
(dp4808
sg63
g4793
sg56
(lp4809
g49
(g50
g51
NtRp4810
(dp4811
g54
(dp4812
g62
I5
ssg63
g4806
sg56
(lp4813
g1886
asbasbasbag49
(g65
g51
NtRp4814
(dp4815
g54
(dp4816
sg63
g3403
sg56
(lp4817
g49
(g70
g51
NtRp4818
(dp4819
g54
(dp4820
g74
g75
ssg63
g4814
sg56
(lp4821
S'session_storage_type'
p4822
asbag49
(g70
g51
NtRp4823
(dp4824
g54
(dp4825
g81
g82
ssg63
g4814
sg56
(lp4826
S':'
asbag49
(g70
g51
NtRp4827
(dp4828
g54
(dp4829
sg63
g4814
sg56
(lp4830
g49
(g50
g51
NtRp4831
(dp4832
g54
(dp4833
g62
I5
ssg63
g4827
sg56
(lp4834
g3338
asbasbasbag49
(g65
g51
NtRp4835
(dp4836
g54
(dp4837
sg63
g3403
sg56
(lp4838
g49
(g70
g51
NtRp4839
(dp4840
g54
(dp4841
g74
g75
ssg63
g4835
sg56
(lp4842
S'status'
p4843
asbag49
(g70
g51
NtRp4844
(dp4845
g54
(dp4846
g81
g82
ssg63
g4835
sg56
(lp4847
S':'
asbag49
(g70
g51
NtRp4848
(dp4849
g54
(dp4850
sg63
g4835
sg56
(lp4851
g49
(g50
g51
NtRp4852
(dp4853
g54
(dp4854
g62
I5
ssg63
g4848
sg56
(lp4855
S'200'
p4856
asbasbasbag49
(g65
g51
NtRp4857
(dp4858
g54
(dp4859
sg63
g3403
sg56
(lp4860
g49
(g70
g51
NtRp4861
(dp4862
g54
(dp4863
g74
g75
ssg63
g4857
sg56
(lp4864
S'subtitle'
p4865
asbag49
(g70
g51
NtRp4866
(dp4867
g54
(dp4868
g81
g82
ssg63
g4857
sg56
(lp4869
S':'
asbag49
(g70
g51
NtRp4870
(dp4871
g54
(dp4872
sg63
g4857
sg56
(lp4873
g49
(g50
g51
NtRp4874
(dp4875
g54
(dp4876
g62
I5
ssg63
g4870
sg56
(lp4877
g3862
(S's\r\x00\x00\x00customize me!'
tRp4878
asbasbasbag49
(g65
g51
NtRp4879
(dp4880
g54
(dp4881
sg63
g3403
sg56
(lp4882
g49
(g70
g51
NtRp4883
(dp4884
g54
(dp4885
g74
g75
ssg63
g4879
sg56
(lp4886
S'title'
p4887
asbag49
(g70
g51
NtRp4888
(dp4889
g54
(dp4890
g81
g82
ssg63
g4879
sg56
(lp4891
S':'
asbag49
(g70
g51
NtRp4892
(dp4893
g54
(dp4894
sg63
g4879
sg56
(lp4895
g49
(g50
g51
NtRp4896
(dp4897
g54
(dp4898
g62
I5
ssg63
g4892
sg56
(lp4899
S'Final Impulse'
p4900
asbasbasbag49
(g65
g51
NtRp4901
(dp4902
g54
(dp4903
sg63
g3403
sg56
(lp4904
g49
(g70
g51
NtRp4905
(dp4906
g54
(dp4907
g74
g75
ssg63
g4901
sg56
(lp4908
S'view'
p4909
asbag49
(g70
g51
NtRp4910
(dp4911
g54
(dp4912
g81
g82
ssg63
g4901
sg56
(lp4913
S':'
asbag49
(g70
g51
NtRp4914
(dp4915
g54
(dp4916
sg63
g4901
sg56
(lp4917
g49
(g50
g51
NtRp4918
(dp4919
g54
(dp4920
g62
I5
ssg63
g4914
sg56
(lp4921
S'default/show_image_comments.html'
p4922
asbasbasbasbasbsS'locals'
p4923
(dp4924
S'image_form'
p4925
S'<gluon.sqlhtml.SQLFORM object at 0x8fd5c10>'
p4926
sssS'traceback'
p4927
S'Traceback (most recent call last):\n  File "gluon/restricted.py", line 212, in restricted\n  File "/Users/abaric/Downloads/web2py/web2py.app/Contents/Resources/applications/Final_Impulse/controllers/default.py", line 181, in <module>\n  File "gluon/globals.py", line 188, in <lambda>\n  File "/Users/abaric/Downloads/web2py/web2py.app/Contents/Resources/applications/Final_Impulse/controllers/default.py", line 24, in show_image_comments\nAttributeError: \'NoneType\' object has no attribute \'id\'\n'
p4928
s.