(dp1
S'output'
p2
S"<type 'exceptions.NameError'> name 'student' is not defined"
p3
sS'layer'
p4
S'/Users/abaric/Downloads/web2py/web2py.app/Contents/Resources/applications/Final_Impulse/views/default/show_writing_comments.html'
p5
sS'code'
p6
S'response.write(\'<!DOCTYPE html>\\n<!-- paulirish.com/2008/conditional-stylesheets-vs-css-hacks-answer-neither/ -->\\n<!--[if lt IE 7]><html class="ie ie6 ie-lte9 ie-lte8 ie-lte7 no-js" lang="\', escape=False)\nresponse.write(T.accepted_language or \'en\')\nresponse.write(\'"> <![endif]-->\\n<!--[if IE 7]><html class="ie ie7 ie-lte9 ie-lte8 ie-lte7 no-js" lang="\', escape=False)\nresponse.write(T.accepted_language or \'en\')\nresponse.write(\'"> <![endif]-->\\n<!--[if IE 8]><html class="ie ie8 ie-lte9 ie-lte8 no-js" lang="\', escape=False)\nresponse.write(T.accepted_language or \'en\')\nresponse.write(\'"> <![endif]-->\\n<!--[if IE 9]><html class="ie9 ie-lte9 no-js" lang="\', escape=False)\nresponse.write(T.accepted_language or \'en\')\nresponse.write(\'"> <![endif]-->\\n<!--[if (gt IE 9)|!(IE)]><!--> <html class="no-js" lang="\', escape=False)\nresponse.write(T.accepted_language or \'en\')\nresponse.write(\'"> <!--<![endif]-->\\n<head>\\n  <meta charset="utf-8" />\\n  <!-- www.phpied.com/conditional-comments-block-downloads/ -->\\n  <!-- Always force latest IE rendering engine\\n       (even in intranet) & Chrome Frame\\n       Remove this if you use the .htaccess -->\\n  <!--[if IE]>\\n      <meta http-equiv="X-UA-Compatible" content="IE=edge\', escape=False)\nresponse.write(not request.is_local and \',chrome=1\' or \'\')\nresponse.write(\'">\\n      <![endif]-->\\n\\n  <title>\', escape=False)\nresponse.write(response.title or request.application)\nresponse.write(\'</title>\\n\\n  <!-- http://dev.w3.org/html5/markup/meta.name.html -->\\n  <meta name="application-name" content="\', escape=False)\nresponse.write(request.application)\nresponse.write(\'" />\\n\\n  <!-- Speaking of Google, don\\\'t forget to set your site up:\\n       http://google.com/webmasters -->\\n  <meta name="google-site-verification" content="" />\\n\\n  <!--  Mobile Viewport Fix\\n        j.mp/mobileviewport & davidbcalhoun.com/2010/viewport-metatag\\n        device-width: Occupy full width of the screen in its current orientation\\n        initial-scale = 1.0 retains dimensions instead of zooming out if page height > device height\\n        user-scalable = yes allows the user to zoom in -->\\n  <meta name="viewport" content="width=device-width, initial-scale=1.0">\\n\\n  <link rel="shortcut icon" href="\', escape=False)\nresponse.write(URL(\'static\',\'images/favicon.ico\'))\nresponse.write(\'" type="image/x-icon">\\n  <link rel="apple-touch-icon" href="\', escape=False)\nresponse.write(URL(\'static\',\'images/favicon.png\'))\nresponse.write(\'">\\n\\n  <!-- All JavaScript at the bottom, except for Modernizr which enables\\n       HTML5 elements & feature detects -->\\n  <script src="\', escape=False)\nresponse.write(URL(\'static\',\'js/modernizr.custom.js\'))\nresponse.write(\'"></script>\\n\\n  <!-- include stylesheets -->\\n  \', escape=False)\nresponse.files.append(URL(\'static\',\'css/web2py.css\'))\nresponse.files.append(URL(\'static\',\'css/bootstrap.min.css\'))\nresponse.files.append(URL(\'static\',\'css/bootstrap-responsive.min.css\'))\nresponse.files.append(URL(\'static\',\'css/web2py_bootstrap.css\'))\nresponse.write(\'\\n\\n  \', escape=False)\nresponse.write(\'<script type="text/javascript"><!--\\n    // These variables are used by the web2py_ajax_init function in web2py_ajax.js (which is loaded below).\\n    var w2p_ajax_confirm_message = "\', escape=False)\nresponse.write(T(\'Are you sure you want to delete this object?\'))\nresponse.write(\'";\\n    var w2p_ajax_date_format = "\', escape=False)\nresponse.write(T(\'%Y-%m-%d\'))\nresponse.write(\'";\\n    var w2p_ajax_datetime_format = "\', escape=False)\nresponse.write(T(\'%Y-%m-%d %H:%M:%S\'))\nresponse.write(\'";\\n    //--></script>\\n\', escape=False)\nresponse.files.insert(0,URL(\'static\',\'js/jquery.js\'))\nresponse.files.insert(1,URL(\'static\',\'css/calendar.css\'))\nresponse.files.insert(2,URL(\'static\',\'js/calendar.js\'))\nresponse.files.insert(3,URL(\'static\',\'js/web2py.js\'))\nresponse.include_meta()\nresponse.include_files()\nresponse.write(\'\\n\', escape=False)\nresponse.write(\'\\n\\n  \', escape=False)\n# using sidebars need to know what sidebar you want to use\nleft_sidebar_enabled = globals().get(\'left_sidebar_enabled\',False)\nright_sidebar_enabled = globals().get(\'right_sidebar_enabled\',False)\nmiddle_columns = {0:\'span12\',1:\'span9\',2:\'span6\'}[\n(left_sidebar_enabled and 1 or 0)+(right_sidebar_enabled and 1 or 0)]\nresponse.write(\'\\n\\n  <!-- uncomment here to load jquery-ui\\n       <link rel="stylesheet" href="http://ajax.googleapis.com/ajax/libs/jqueryui/1.8.16/themes/base/jquery-ui.css" type="text/css" media="all" />\\n       <script src="http://ajax.googleapis.com/ajax/libs/jqueryui/1.8.16/jquery-ui.min.js" type="text/javascript"></script>\\n       uncomment to load jquery-ui //-->\\n  <noscript><link href="\', escape=False)\nresponse.write(URL(\'static\', \'css/web2py_bootstrap_nojs.css\'))\nresponse.write(\'" rel="stylesheet" type="text/css" /></noscript>\\n  \', escape=False)\nresponse.write(\'\\n</head>\\n\\n<body>\\n  <!-- Navbar ================================================== -->\\n  <div class="navbar navbar-inverse navbar-fixed-top">\\n    <div class="flash">\', escape=False)\nresponse.write(response.flash or \'\')\nresponse.write(\'</div>\\n    <div class="navbar-inner">\\n      <div class="container">\\n        <!-- the next tag is necessary for bootstrap menus, do not remove -->\\n        <button type="button" class="btn btn-navbar" data-toggle="collapse" data-target=".nav-collapse">\\n          <span class="icon-bar"></span>\\n          <span class="icon-bar"></span>\\n          <span class="icon-bar"></span>\\n        </button>\\n        <a class="brand" href="http://www.web2py.com/"><b>web<span>2</span>py</b>&trade;&nbsp;</a>\\n        <ul id="navbar" class="nav pull-right">\', escape=False)\nresponse.write(\'auth\' in globals() and auth.navbar(mode="dropdown") or \'\')\nresponse.write(\'</ul>\\n        <div class="nav-collapse">\\n          \', escape=False)\nis_mobile=request.user_agent().is_mobile\nresponse.write(\'\\n          \', escape=False)\nif response.menu:\n    response.write(\'\\n          \', escape=False)\n    response.write(MENU(response.menu, _class=\'mobile-menu nav\' if is_mobile else \'nav\',mobile=is_mobile,li_class=\'dropdown\',ul_class=\'dropdown-menu\'))\n    response.write(\'\\n          \', escape=False)\n    pass\nresponse.write(\'\\n        </div><!--/.nav-collapse -->\\n      </div>\\n    </div>\\n  </div><!--/top navbar -->\\n\\n  <div class="container">\\n    <!-- Masthead ================================================== -->\\n    <header class="mastheader row" id="header">\\n        <div class="span12">\\n            <div class="page-header">\\n                <h1>\\n                    \', escape=False)\nresponse.write(response.title or request.application)\nresponse.write(\'\\n                    <small>\', escape=False)\nresponse.write(response.subtitle or \'\')\nresponse.write(\'</small>\\n                </h1>\\n            </div>\\n        </div>\\n    </header>\\n\\n    <section id="main" class="main row">\\n        \', escape=False)\nif left_sidebar_enabled:\n    response.write(\'\\n        <div class="span3 left-sidebar">\\n            \', escape=False)\n    response.write(\'\\n            <h3>Left Sidebar</h3>\\n            <p></p>\\n            \', escape=False)\n    response.write(\'\\n        </div>\\n        \', escape=False)\n    pass\nresponse.write(\'\\n\\n        <div class="\', escape=False)\nresponse.write(middle_columns)\nresponse.write(\'">\\n            \', escape=False)\nresponse.write(\'\\n            \', escape=False)\nresponse.write("\\n\\n<h1>Da Writing Posts</h1>\\n\\n<table width=\'100%\' border=\'1\'>\\n  \\n    ", escape=False)\nfor writing in writings:\n    response.write(\'\\n    \\n    <tr>\\n       \\n        <td><center><b><i>\', escape=False)\n    response.write(writing.title)\n    response.write(\'</i></b> </center></td>\\n       \\n    </tr>\\n    \\n\\t<tr>  \\n      \\n          <td><center>\', escape=False)\n    response.write(writing.body)\n    response.write(\'</center></td>\\n        \\n    </tr>\\n    \\n        \', escape=False)\n    if len(d[writing.id]):\n        response.write("\\n        <tr>\\n        <td>\\n        <table width=\'100%\'>\\n            ", escape=False)\n        for t in d[writing.id]:\n            response.write(\'\\n                        <tr>\\n                       \\n                            <td><center>\', escape=False)\n            response.write(("%s says, \'%s\'")%(t[0],t[1]))\n            response.write(\'</center></td>\\n                        \\t\\n                        </tr>\\n            \', escape=False)\n            pass\n        response.write(\'\\n    \\n        </table>\\n               <tr>\\n          \\t\\t\\t<form enctype="multipart/form-data" action="\', escape=False)\n        response.write(URL(\'insert_rec\',args=(student.student.id,course.id)))\n        response.write(\'" method="post"> \\n                 \\n              \\t\\t<td><input name="seq" type="text"></td>\\n               \\n                 \\t<td><input formmethod="post" name="recform" type="submit"><br></td>\\n          </form>\\n    \\t</tr>\\n        </td>\\n        </tr>\\n\\n         \', escape=False)\n        pass\n    response.write(\'\\n    \', escape=False)\n    pass\nresponse.write(\' \\n    \\n</table>\\n\', escape=False)\nresponse.write(\'\\n            \', escape=False)\nresponse.write(\'\\n        </div>\\n\\n        \', escape=False)\nif right_sidebar_enabled:\n    response.write(\'\\n        <div class="span3">\\n            \', escape=False)\n    response.write(\'\\n            <h3>Right Sidebar</h3>\\n            <p></p>\\n            \', escape=False)\n    response.write(\'\\n        </div>\\n        \', escape=False)\n    pass\nresponse.write(\'\\n    </section><!--/main-->\\n\\n    <!-- Footer ================================================== -->\\n    <div class="row">\\n        <footer class="footer span12" id="footer">\\n            <div class="footer-content">\\n                \', escape=False)\nresponse.write(\' <!-- this is default footer -->\\n                <div class="copyright pull-left">\', escape=False)\nresponse.write(T(\'Copyright\'))\nresponse.write(\' &#169; \', escape=False)\nresponse.write(request.now.year)\nresponse.write(\'</div>\\n                <div id="poweredBy" class="pull-right">\\n                    \', escape=False)\nresponse.write(T(\'Powered by\'))\nresponse.write(\'\\n                    <a href="http://www.web2py.com/">web2py</a>\\n                </div>\\n                \', escape=False)\nresponse.write(\'\\n            </div>\\n        </footer>\\n    </div>\\n\\n  </div> <!-- /container -->\\n\\n  <!-- The javascript =============================================\\n       (Placed at the end of the document so the pages load faster) -->\\n  <script src="\', escape=False)\nresponse.write(URL(\'static\',\'js/bootstrap.min.js\'))\nresponse.write(\'"></script>\\n  <script src="\', escape=False)\nresponse.write(URL(\'static\',\'js/web2py_bootstrap.js\'))\nresponse.write(\'"></script>\\n  <!--[if lt IE 7 ]>\\n      <script src="\', escape=False)\nresponse.write(URL(\'static\',\'js/dd_belatedpng.js\'))\nresponse.write(\'"></script>\\n      <script> DD_belatedPNG.fix(\\\'img, .png_bg\\\'); //fix any <img> or .png_bg background-images </script>\\n      <![endif]-->\\n  \', escape=False)\nif response.google_analytics_id:\n    response.write(\'<script type="text/javascript"> var _gaq = _gaq || []; _gaq.push([\\\'_setAccount\\\', \\\'\', escape=False)\n    response.write(response.google_analytics_id)\n    response.write("\']); _gaq.push([\'_trackPageview\']); (function() { var ga = document.createElement(\'script\'); ga.type = \'text/javascript\'; ga.async = true; ga.src = (\'https:\' == document.location.protocol ? \'https://ssl\' : \'http://www\') + \'.google-analytics.com/ga.js\'; var s = document.getElementsByTagName(\'script\')[0]; s.parentNode.insertBefore(ga, s); })(); </script> ", escape=False)\n    pass\nresponse.write(\'\\n  <script src="\', escape=False)\nresponse.write(URL(\'static\',\'js/share.js\',vars=dict(static=URL(\'static\',\'images\'))))\nresponse.write(\'"></script>\\n</body>\\n</html>\\n\\n<style>\\nbody { background: url(\\\'images/background.png\\\') repeat-x #E5E4E2; }\\na { color: #0C090A; }\\n.header h1 { color: #0C090A; }\\n.header h2 { color: white; font-style: italic; font-size: 14px;}\\n.statusbar { background: #333333; border-bottom: 5px #349C01 solid; }\\n.statusbar a { color: white; }\\n.footer { border-top: 5px #349C01 solid; }\\n</style>\\n\', escape=False)'
p7
sS'snapshot'
p8
(dp9
S'exception'
p10
(dp11
S'__hash__'
p12
S"<method-wrapper '__hash__' of exceptions.NameError object at 0x8d49030>"
p13
sS'__setattr__'
p14
S"<method-wrapper '__setattr__' of exceptions.NameError object at 0x8d49030>"
p15
sS'__reduce_ex__'
p16
S'<built-in method __reduce_ex__ of exceptions.NameError object at 0x8d49030>'
p17
sS'__getslice__'
p18
S"<method-wrapper '__getslice__' of exceptions.NameError object at 0x8d49030>"
p19
sS'__getitem__'
p20
S"<method-wrapper '__getitem__' of exceptions.NameError object at 0x8d49030>"
p21
sS'__setstate__'
p22
S'<built-in method __setstate__ of exceptions.NameError object at 0x8d49030>'
p23
sS'__reduce__'
p24
S'<built-in method __reduce__ of exceptions.NameError object at 0x8d49030>'
p25
sS'__str__'
p26
S"<method-wrapper '__str__' of exceptions.NameError object at 0x8d49030>"
p27
sS'args'
p28
S'("name \'student\' is not defined",)'
p29
sS'__getattribute__'
p30
S"<method-wrapper '__getattribute__' of exceptions.NameError object at 0x8d49030>"
p31
sS'__class__'
p32
S"<type 'exceptions.NameError'>"
p33
sS'__delattr__'
p34
S"<method-wrapper '__delattr__' of exceptions.NameError object at 0x8d49030>"
p35
sS'__repr__'
p36
S"<method-wrapper '__repr__' of exceptions.NameError object at 0x8d49030>"
p37
sS'__dict__'
p38
S'{}'
p39
sS'__doc__'
p40
S"'Name not found globally.'"
p41
sS'__init__'
p42
S"<method-wrapper '__init__' of exceptions.NameError object at 0x8d49030>"
p43
sS'__new__'
p44
S'<built-in method __new__ of type object at 0x5f9640>'
p45
ssS'evalue'
p46
S"name 'student' is not defined"
p47
sS'request'
p48
ccopy_reg
_reconstructor
p49
(cgluon.html
BEAUTIFY
p50
c__builtin__
object
p51
NtRp52
(dp53
S'attributes'
p54
(dp55
sS'components'
p56
(lp57
g49
(cgluon.html
TABLE
p58
g51
NtRp59
(dp60
g54
(dp61
S'level'
p62
I5
ssS'parent'
p63
Nsg56
(lp64
g49
(cgluon.html
TR
p65
g51
NtRp66
(dp67
g54
(dp68
sg63
g59
sg56
(lp69
g49
(cgluon.html
TD
p70
g51
NtRp71
(dp72
g54
(dp73
S'_style'
p74
S'font-weight:bold;vertical-align:top'
p75
ssg63
g66
sg56
(lp76
S'ajax'
p77
asbag49
(g70
g51
NtRp78
(dp79
g54
(dp80
S'_valign'
p81
S'top'
p82
ssg63
g66
sg56
(lp83
S':'
asbag49
(g70
g51
NtRp84
(dp85
g54
(dp86
sg63
g66
sg56
(lp87
g49
(g50
g51
NtRp88
(dp89
g54
(dp90
g62
I5
ssg63
g84
sg56
(lp91
S'False'
p92
asbasbasbag49
(g65
g51
NtRp93
(dp94
g54
(dp95
sg63
g59
sg56
(lp96
g49
(g70
g51
NtRp97
(dp98
g54
(dp99
g74
g75
ssg63
g93
sg56
(lp100
S'application'
p101
asbag49
(g70
g51
NtRp102
(dp103
g54
(dp104
g81
g82
ssg63
g93
sg56
(lp105
S':'
asbag49
(g70
g51
NtRp106
(dp107
g54
(dp108
sg63
g93
sg56
(lp109
g49
(g50
g51
NtRp110
(dp111
g54
(dp112
g62
I5
ssg63
g106
sg56
(lp113
S'Final_Impulse'
p114
asbasbasbag49
(g65
g51
NtRp115
(dp116
g54
(dp117
sg63
g59
sg56
(lp118
g49
(g70
g51
NtRp119
(dp120
g54
(dp121
g74
g75
ssg63
g115
sg56
(lp122
g28
asbag49
(g70
g51
NtRp123
(dp124
g54
(dp125
g81
g82
ssg63
g115
sg56
(lp126
S':'
asbag49
(g70
g51
NtRp127
(dp128
g54
(dp129
sg63
g115
sg56
(lp130
g49
(g50
g51
NtRp131
(dp132
g54
(dp133
g62
I5
ssg63
g127
sg56
(lp134
g49
(g58
g51
NtRp135
(dp136
g54
(dp137
g62
I4
ssg63
Nsg56
(lp138
sbasbasbasbag49
(g65
g51
NtRp139
(dp140
g54
(dp141
sg63
g59
sg56
(lp142
g49
(g70
g51
NtRp143
(dp144
g54
(dp145
g74
g75
ssg63
g139
sg56
(lp146
S'body'
p147
asbag49
(g70
g51
NtRp148
(dp149
g54
(dp150
g81
g82
ssg63
g139
sg56
(lp151
S':'
asbag49
(g70
g51
NtRp152
(dp153
g54
(dp154
sg63
g139
sg56
(lp155
g49
(g50
g51
NtRp156
(dp157
g54
(dp158
g62
I5
ssg63
g152
sg56
(lp159
S'<cStringIO.StringO object at 0x8954480>'
p160
asbasbasbag49
(g65
g51
NtRp161
(dp162
g54
(dp163
sg63
g59
sg56
(lp164
g49
(g70
g51
NtRp165
(dp166
g54
(dp167
g74
g75
ssg63
g161
sg56
(lp168
S'cid'
p169
asbag49
(g70
g51
NtRp170
(dp171
g54
(dp172
g81
g82
ssg63
g161
sg56
(lp173
S':'
asbag49
(g70
g51
NtRp174
(dp175
g54
(dp176
sg63
g161
sg56
(lp177
g49
(g50
g51
NtRp178
(dp179
g54
(dp180
g62
I5
ssg63
g174
sg56
(lp181
S'None'
p182
asbasbasbag49
(g65
g51
NtRp183
(dp184
g54
(dp185
sg63
g59
sg56
(lp186
g49
(g70
g51
NtRp187
(dp188
g54
(dp189
g74
g75
ssg63
g183
sg56
(lp190
S'client'
p191
asbag49
(g70
g51
NtRp192
(dp193
g54
(dp194
g81
g82
ssg63
g183
sg56
(lp195
S':'
asbag49
(g70
g51
NtRp196
(dp197
g54
(dp198
sg63
g183
sg56
(lp199
g49
(g50
g51
NtRp200
(dp201
g54
(dp202
g62
I5
ssg63
g196
sg56
(lp203
S'127.0.0.1'
p204
asbasbasbag49
(g65
g51
NtRp205
(dp206
g54
(dp207
sg63
g59
sg56
(lp208
g49
(g70
g51
NtRp209
(dp210
g54
(dp211
g74
g75
ssg63
g205
sg56
(lp212
S'controller'
p213
asbag49
(g70
g51
NtRp214
(dp215
g54
(dp216
g81
g82
ssg63
g205
sg56
(lp217
S':'
asbag49
(g70
g51
NtRp218
(dp219
g54
(dp220
sg63
g205
sg56
(lp221
g49
(g50
g51
NtRp222
(dp223
g54
(dp224
g62
I5
ssg63
g218
sg56
(lp225
S'default'
p226
asbasbasbag49
(g65
g51
NtRp227
(dp228
g54
(dp229
sg63
g59
sg56
(lp230
g49
(g70
g51
NtRp231
(dp232
g54
(dp233
g74
g75
ssg63
g227
sg56
(lp234
S'cookies'
p235
asbag49
(g70
g51
NtRp236
(dp237
g54
(dp238
g81
g82
ssg63
g227
sg56
(lp239
S':'
asbag49
(g70
g51
NtRp240
(dp241
g54
(dp242
sg63
g227
sg56
(lp243
g49
(g50
g51
NtRp244
(dp245
g54
(dp246
g62
I5
ssg63
g240
sg56
(lp247
g49
(g58
g51
NtRp248
(dp249
g54
(dp250
g62
I4
ssg63
Nsg56
(lp251
g49
(g65
g51
NtRp252
(dp253
g54
(dp254
sg63
g248
sg56
(lp255
g49
(g70
g51
NtRp256
(dp257
g54
(dp258
g74
g75
ssg63
g252
sg56
(lp259
S'session_id_admin'
p260
asbag49
(g70
g51
NtRp261
(dp262
g54
(dp263
g81
g82
ssg63
g252
sg56
(lp264
S':'
asbag49
(g70
g51
NtRp265
(dp266
g54
(dp267
sg63
g252
sg56
(lp268
g49
(g50
g51
NtRp269
(dp270
g54
(dp271
g62
I4
ssg63
g265
sg56
(lp272
S'127.0.0.1-e2ac865f-62ef-4ea6-b78a-22dbce601125'
p273
ag49
(g58
g51
NtRp274
(dp275
g54
(dp276
g62
I3
ssg63
Nsg56
(lp277
g49
(g65
g51
NtRp278
(dp279
g54
(dp280
sg63
g274
sg56
(lp281
g49
(g70
g51
NtRp282
(dp283
g54
(dp284
g74
g75
ssg63
g278
sg56
(lp285
S'comment'
p286
asbag49
(g70
g51
NtRp287
(dp288
g54
(dp289
g81
g82
ssg63
g278
sg56
(lp290
S':'
asbag49
(g70
g51
NtRp291
(dp292
g54
(dp293
sg63
g278
sg56
(lp294
g49
(g50
g51
NtRp295
(dp296
g54
(dp297
g62
I3
ssg63
g291
sg56
(lp298
S''
asbasbasbag49
(g65
g51
NtRp299
(dp300
g54
(dp301
sg63
g274
sg56
(lp302
g49
(g70
g51
NtRp303
(dp304
g54
(dp305
g74
g75
ssg63
g299
sg56
(lp306
S'domain'
p307
asbag49
(g70
g51
NtRp308
(dp309
g54
(dp310
g81
g82
ssg63
g299
sg56
(lp311
S':'
asbag49
(g70
g51
NtRp312
(dp313
g54
(dp314
sg63
g299
sg56
(lp315
g49
(g50
g51
NtRp316
(dp317
g54
(dp318
g62
I3
ssg63
g312
sg56
(lp319
S''
asbasbasbag49
(g65
g51
NtRp320
(dp321
g54
(dp322
sg63
g274
sg56
(lp323
g49
(g70
g51
NtRp324
(dp325
g54
(dp326
g74
g75
ssg63
g320
sg56
(lp327
S'expires'
p328
asbag49
(g70
g51
NtRp329
(dp330
g54
(dp331
g81
g82
ssg63
g320
sg56
(lp332
S':'
asbag49
(g70
g51
NtRp333
(dp334
g54
(dp335
sg63
g320
sg56
(lp336
g49
(g50
g51
NtRp337
(dp338
g54
(dp339
g62
I3
ssg63
g333
sg56
(lp340
S''
asbasbasbag49
(g65
g51
NtRp341
(dp342
g54
(dp343
sg63
g274
sg56
(lp344
g49
(g70
g51
NtRp345
(dp346
g54
(dp347
g74
g75
ssg63
g341
sg56
(lp348
S'max-age'
p349
asbag49
(g70
g51
NtRp350
(dp351
g54
(dp352
g81
g82
ssg63
g341
sg56
(lp353
S':'
asbag49
(g70
g51
NtRp354
(dp355
g54
(dp356
sg63
g341
sg56
(lp357
g49
(g50
g51
NtRp358
(dp359
g54
(dp360
g62
I3
ssg63
g354
sg56
(lp361
S''
asbasbasbag49
(g65
g51
NtRp362
(dp363
g54
(dp364
sg63
g274
sg56
(lp365
g49
(g70
g51
NtRp366
(dp367
g54
(dp368
g74
g75
ssg63
g362
sg56
(lp369
S'path'
p370
asbag49
(g70
g51
NtRp371
(dp372
g54
(dp373
g81
g82
ssg63
g362
sg56
(lp374
S':'
asbag49
(g70
g51
NtRp375
(dp376
g54
(dp377
sg63
g362
sg56
(lp378
g49
(g50
g51
NtRp379
(dp380
g54
(dp381
g62
I3
ssg63
g375
sg56
(lp382
S''
asbasbasbag49
(g65
g51
NtRp383
(dp384
g54
(dp385
sg63
g274
sg56
(lp386
g49
(g70
g51
NtRp387
(dp388
g54
(dp389
g74
g75
ssg63
g383
sg56
(lp390
S'secure'
p391
asbag49
(g70
g51
NtRp392
(dp393
g54
(dp394
g81
g82
ssg63
g383
sg56
(lp395
S':'
asbag49
(g70
g51
NtRp396
(dp397
g54
(dp398
sg63
g383
sg56
(lp399
g49
(g50
g51
NtRp400
(dp401
g54
(dp402
g62
I3
ssg63
g396
sg56
(lp403
S''
asbasbasbag49
(g65
g51
NtRp404
(dp405
g54
(dp406
sg63
g274
sg56
(lp407
g49
(g70
g51
NtRp408
(dp409
g54
(dp410
g74
g75
ssg63
g404
sg56
(lp411
S'version'
p412
asbag49
(g70
g51
NtRp413
(dp414
g54
(dp415
g81
g82
ssg63
g404
sg56
(lp416
S':'
asbag49
(g70
g51
NtRp417
(dp418
g54
(dp419
sg63
g404
sg56
(lp420
g49
(g50
g51
NtRp421
(dp422
g54
(dp423
g62
I3
ssg63
g417
sg56
(lp424
S''
asbasbasbasbasbasbasbag49
(g65
g51
NtRp425
(dp426
g54
(dp427
sg63
g248
sg56
(lp428
g49
(g70
g51
NtRp429
(dp430
g54
(dp431
g74
g75
ssg63
g425
sg56
(lp432
S'session_id_final_impulse'
p433
asbag49
(g70
g51
NtRp434
(dp435
g54
(dp436
g81
g82
ssg63
g425
sg56
(lp437
S':'
asbag49
(g70
g51
NtRp438
(dp439
g54
(dp440
sg63
g425
sg56
(lp441
g49
(g50
g51
NtRp442
(dp443
g54
(dp444
g62
I4
ssg63
g438
sg56
(lp445
S'127.0.0.1-5aceb5e9-2875-4462-b8f1-a71729f93584'
p446
ag49
(g58
g51
NtRp447
(dp448
g54
(dp449
g62
I3
ssg63
Nsg56
(lp450
g49
(g65
g51
NtRp451
(dp452
g54
(dp453
sg63
g447
sg56
(lp454
g49
(g70
g51
NtRp455
(dp456
g54
(dp457
g74
g75
ssg63
g451
sg56
(lp458
g286
asbag49
(g70
g51
NtRp459
(dp460
g54
(dp461
g81
g82
ssg63
g451
sg56
(lp462
S':'
asbag49
(g70
g51
NtRp463
(dp464
g54
(dp465
sg63
g451
sg56
(lp466
g49
(g50
g51
NtRp467
(dp468
g54
(dp469
g62
I3
ssg63
g463
sg56
(lp470
S''
asbasbasbag49
(g65
g51
NtRp471
(dp472
g54
(dp473
sg63
g447
sg56
(lp474
g49
(g70
g51
NtRp475
(dp476
g54
(dp477
g74
g75
ssg63
g471
sg56
(lp478
g307
asbag49
(g70
g51
NtRp479
(dp480
g54
(dp481
g81
g82
ssg63
g471
sg56
(lp482
S':'
asbag49
(g70
g51
NtRp483
(dp484
g54
(dp485
sg63
g471
sg56
(lp486
g49
(g50
g51
NtRp487
(dp488
g54
(dp489
g62
I3
ssg63
g483
sg56
(lp490
S''
asbasbasbag49
(g65
g51
NtRp491
(dp492
g54
(dp493
sg63
g447
sg56
(lp494
g49
(g70
g51
NtRp495
(dp496
g54
(dp497
g74
g75
ssg63
g491
sg56
(lp498
g328
asbag49
(g70
g51
NtRp499
(dp500
g54
(dp501
g81
g82
ssg63
g491
sg56
(lp502
S':'
asbag49
(g70
g51
NtRp503
(dp504
g54
(dp505
sg63
g491
sg56
(lp506
g49
(g50
g51
NtRp507
(dp508
g54
(dp509
g62
I3
ssg63
g503
sg56
(lp510
S''
asbasbasbag49
(g65
g51
NtRp511
(dp512
g54
(dp513
sg63
g447
sg56
(lp514
g49
(g70
g51
NtRp515
(dp516
g54
(dp517
g74
g75
ssg63
g511
sg56
(lp518
g349
asbag49
(g70
g51
NtRp519
(dp520
g54
(dp521
g81
g82
ssg63
g511
sg56
(lp522
S':'
asbag49
(g70
g51
NtRp523
(dp524
g54
(dp525
sg63
g511
sg56
(lp526
g49
(g50
g51
NtRp527
(dp528
g54
(dp529
g62
I3
ssg63
g523
sg56
(lp530
S''
asbasbasbag49
(g65
g51
NtRp531
(dp532
g54
(dp533
sg63
g447
sg56
(lp534
g49
(g70
g51
NtRp535
(dp536
g54
(dp537
g74
g75
ssg63
g531
sg56
(lp538
g370
asbag49
(g70
g51
NtRp539
(dp540
g54
(dp541
g81
g82
ssg63
g531
sg56
(lp542
S':'
asbag49
(g70
g51
NtRp543
(dp544
g54
(dp545
sg63
g531
sg56
(lp546
g49
(g50
g51
NtRp547
(dp548
g54
(dp549
g62
I3
ssg63
g543
sg56
(lp550
S''
asbasbasbag49
(g65
g51
NtRp551
(dp552
g54
(dp553
sg63
g447
sg56
(lp554
g49
(g70
g51
NtRp555
(dp556
g54
(dp557
g74
g75
ssg63
g551
sg56
(lp558
g391
asbag49
(g70
g51
NtRp559
(dp560
g54
(dp561
g81
g82
ssg63
g551
sg56
(lp562
S':'
asbag49
(g70
g51
NtRp563
(dp564
g54
(dp565
sg63
g551
sg56
(lp566
g49
(g50
g51
NtRp567
(dp568
g54
(dp569
g62
I3
ssg63
g563
sg56
(lp570
S''
asbasbasbag49
(g65
g51
NtRp571
(dp572
g54
(dp573
sg63
g447
sg56
(lp574
g49
(g70
g51
NtRp575
(dp576
g54
(dp577
g74
g75
ssg63
g571
sg56
(lp578
g412
asbag49
(g70
g51
NtRp579
(dp580
g54
(dp581
g81
g82
ssg63
g571
sg56
(lp582
S':'
asbag49
(g70
g51
NtRp583
(dp584
g54
(dp585
sg63
g571
sg56
(lp586
g49
(g50
g51
NtRp587
(dp588
g54
(dp589
g62
I3
ssg63
g583
sg56
(lp590
S''
asbasbasbasbasbasbasbag49
(g65
g51
NtRp591
(dp592
g54
(dp593
sg63
g248
sg56
(lp594
g49
(g70
g51
NtRp595
(dp596
g54
(dp597
g74
g75
ssg63
g591
sg56
(lp598
S'session_id_welcome'
p599
asbag49
(g70
g51
NtRp600
(dp601
g54
(dp602
g81
g82
ssg63
g591
sg56
(lp603
S':'
asbag49
(g70
g51
NtRp604
(dp605
g54
(dp606
sg63
g591
sg56
(lp607
g49
(g50
g51
NtRp608
(dp609
g54
(dp610
g62
I4
ssg63
g604
sg56
(lp611
S'127.0.0.1-6e944f2f-f11b-449c-9585-9def07ed3c13'
p612
ag49
(g58
g51
NtRp613
(dp614
g54
(dp615
g62
I3
ssg63
Nsg56
(lp616
g49
(g65
g51
NtRp617
(dp618
g54
(dp619
sg63
g613
sg56
(lp620
g49
(g70
g51
NtRp621
(dp622
g54
(dp623
g74
g75
ssg63
g617
sg56
(lp624
g286
asbag49
(g70
g51
NtRp625
(dp626
g54
(dp627
g81
g82
ssg63
g617
sg56
(lp628
S':'
asbag49
(g70
g51
NtRp629
(dp630
g54
(dp631
sg63
g617
sg56
(lp632
g49
(g50
g51
NtRp633
(dp634
g54
(dp635
g62
I3
ssg63
g629
sg56
(lp636
S''
asbasbasbag49
(g65
g51
NtRp637
(dp638
g54
(dp639
sg63
g613
sg56
(lp640
g49
(g70
g51
NtRp641
(dp642
g54
(dp643
g74
g75
ssg63
g637
sg56
(lp644
g307
asbag49
(g70
g51
NtRp645
(dp646
g54
(dp647
g81
g82
ssg63
g637
sg56
(lp648
S':'
asbag49
(g70
g51
NtRp649
(dp650
g54
(dp651
sg63
g637
sg56
(lp652
g49
(g50
g51
NtRp653
(dp654
g54
(dp655
g62
I3
ssg63
g649
sg56
(lp656
S''
asbasbasbag49
(g65
g51
NtRp657
(dp658
g54
(dp659
sg63
g613
sg56
(lp660
g49
(g70
g51
NtRp661
(dp662
g54
(dp663
g74
g75
ssg63
g657
sg56
(lp664
g328
asbag49
(g70
g51
NtRp665
(dp666
g54
(dp667
g81
g82
ssg63
g657
sg56
(lp668
S':'
asbag49
(g70
g51
NtRp669
(dp670
g54
(dp671
sg63
g657
sg56
(lp672
g49
(g50
g51
NtRp673
(dp674
g54
(dp675
g62
I3
ssg63
g669
sg56
(lp676
S''
asbasbasbag49
(g65
g51
NtRp677
(dp678
g54
(dp679
sg63
g613
sg56
(lp680
g49
(g70
g51
NtRp681
(dp682
g54
(dp683
g74
g75
ssg63
g677
sg56
(lp684
g349
asbag49
(g70
g51
NtRp685
(dp686
g54
(dp687
g81
g82
ssg63
g677
sg56
(lp688
S':'
asbag49
(g70
g51
NtRp689
(dp690
g54
(dp691
sg63
g677
sg56
(lp692
g49
(g50
g51
NtRp693
(dp694
g54
(dp695
g62
I3
ssg63
g689
sg56
(lp696
S''
asbasbasbag49
(g65
g51
NtRp697
(dp698
g54
(dp699
sg63
g613
sg56
(lp700
g49
(g70
g51
NtRp701
(dp702
g54
(dp703
g74
g75
ssg63
g697
sg56
(lp704
g370
asbag49
(g70
g51
NtRp705
(dp706
g54
(dp707
g81
g82
ssg63
g697
sg56
(lp708
S':'
asbag49
(g70
g51
NtRp709
(dp710
g54
(dp711
sg63
g697
sg56
(lp712
g49
(g50
g51
NtRp713
(dp714
g54
(dp715
g62
I3
ssg63
g709
sg56
(lp716
S''
asbasbasbag49
(g65
g51
NtRp717
(dp718
g54
(dp719
sg63
g613
sg56
(lp720
g49
(g70
g51
NtRp721
(dp722
g54
(dp723
g74
g75
ssg63
g717
sg56
(lp724
g391
asbag49
(g70
g51
NtRp725
(dp726
g54
(dp727
g81
g82
ssg63
g717
sg56
(lp728
S':'
asbag49
(g70
g51
NtRp729
(dp730
g54
(dp731
sg63
g717
sg56
(lp732
g49
(g50
g51
NtRp733
(dp734
g54
(dp735
g62
I3
ssg63
g729
sg56
(lp736
S''
asbasbasbag49
(g65
g51
NtRp737
(dp738
g54
(dp739
sg63
g613
sg56
(lp740
g49
(g70
g51
NtRp741
(dp742
g54
(dp743
g74
g75
ssg63
g737
sg56
(lp744
g412
asbag49
(g70
g51
NtRp745
(dp746
g54
(dp747
g81
g82
ssg63
g737
sg56
(lp748
S':'
asbag49
(g70
g51
NtRp749
(dp750
g54
(dp751
sg63
g737
sg56
(lp752
g49
(g50
g51
NtRp753
(dp754
g54
(dp755
g62
I3
ssg63
g749
sg56
(lp756
S''
asbasbasbasbasbasbasbasbasbasbasbag49
(g65
g51
NtRp757
(dp758
g54
(dp759
sg63
g59
sg56
(lp760
g49
(g70
g51
NtRp761
(dp762
g54
(dp763
g74
g75
ssg63
g757
sg56
(lp764
S'env'
p765
asbag49
(g70
g51
NtRp766
(dp767
g54
(dp768
g81
g82
ssg63
g757
sg56
(lp769
S':'
asbag49
(g70
g51
NtRp770
(dp771
g54
(dp772
sg63
g757
sg56
(lp773
g49
(g50
g51
NtRp774
(dp775
g54
(dp776
g62
I5
ssg63
g770
sg56
(lp777
g49
(g58
g51
NtRp778
(dp779
g54
(dp780
g62
I4
ssg63
Nsg56
(lp781
g49
(g65
g51
NtRp782
(dp783
g54
(dp784
sg63
g778
sg56
(lp785
g49
(g70
g51
NtRp786
(dp787
g54
(dp788
g74
g75
ssg63
g782
sg56
(lp789
S'app_folders'
p790
asbag49
(g70
g51
NtRp791
(dp792
g54
(dp793
g81
g82
ssg63
g782
sg56
(lp794
S':'
asbag49
(g70
g51
NtRp795
(dp796
g54
(dp797
sg63
g782
sg56
(lp798
g49
(g50
g51
NtRp799
(dp800
g54
(dp801
g62
I4
ssg63
g795
sg56
(lp802
S"set(['/Users/abaric/Downloads/web2py/web2py.app/Contents/Resources/applications/Final_Impulse/', '/Users/abaric/Downloads/web2py/web2py.app/Contents/Resources/applications/welcome/', '/Users/abaric/Downloads/web2py/web2py.app/Contents/Resources/applications/admin/'])"
p803
asbasbasbag49
(g65
g51
NtRp804
(dp805
g54
(dp806
sg63
g778
sg56
(lp807
g49
(g70
g51
NtRp808
(dp809
g54
(dp810
g74
g75
ssg63
g804
sg56
(lp811
S'applications_parent'
p812
asbag49
(g70
g51
NtRp813
(dp814
g54
(dp815
g81
g82
ssg63
g804
sg56
(lp816
S':'
asbag49
(g70
g51
NtRp817
(dp818
g54
(dp819
sg63
g804
sg56
(lp820
g49
(g50
g51
NtRp821
(dp822
g54
(dp823
g62
I4
ssg63
g817
sg56
(lp824
S'/Users/abaric/Downloads/web2py/web2py.app/Contents/Resources'
p825
asbasbasbag49
(g65
g51
NtRp826
(dp827
g54
(dp828
sg63
g778
sg56
(lp829
g49
(g70
g51
NtRp830
(dp831
g54
(dp832
g74
g75
ssg63
g826
sg56
(lp833
S'cmd_args'
p834
asbag49
(g70
g51
NtRp835
(dp836
g54
(dp837
g81
g82
ssg63
g826
sg56
(lp838
S':'
asbag49
(g70
g51
NtRp839
(dp840
g54
(dp841
sg63
g826
sg56
(lp842
g49
(g50
g51
NtRp843
(dp844
g54
(dp845
g62
I4
ssg63
g839
sg56
(lp846
g49
(g58
g51
NtRp847
(dp848
g54
(dp849
g62
I3
ssg63
Nsg56
(lp850
sbasbasbasbag49
(g65
g51
NtRp851
(dp852
g54
(dp853
sg63
g778
sg56
(lp854
g49
(g70
g51
NtRp855
(dp856
g54
(dp857
g74
g75
ssg63
g851
sg56
(lp858
S'cmd_options'
p859
asbag49
(g70
g51
NtRp860
(dp861
g54
(dp862
g81
g82
ssg63
g851
sg56
(lp863
S':'
asbag49
(g70
g51
NtRp864
(dp865
g54
(dp866
sg63
g851
sg56
(lp867
g49
(g50
g51
NtRp868
(dp869
g54
(dp870
g62
I4
ssg63
g864
sg56
(lp871
S"<Values at 0x442e1c0: {'verbose': False, 'ip': '127.0.0.1', 'with_scheduler': False, 'ips': ['10.1.10.113'], 'shutdown_timeout': 5, 'taskbar': False, 'port': 8000, 'maxthreads': None, 'softcron': False, 'server_name': 'Andrea-Barics-MacBook-Pro.local', 'bpython': False, 'nogui': False, 'pid_filename': 'httpserver.pid', 'extcron': False, 'runcron': False, 'run_system_tests': False, 'test': None, 'folder': '/Users/abaric/Downloads/web2py/web2py.app/Contents/Resources', 'config': '', 'import_models': False, 'winservice': '', 'shell': None, 'run': '', 'log_filename': 'httpserver.log', 'debuglevel': 30, 'args': [''], 'socket_timeout': 5, 'ssl_ca_certificate': None, 'scheduler': None, 'profiler_filename': None, 'ssl_private_key': '', 'scheduler_groups': None, 'password': '<ask>', 'request_queue_size': 5, 'ssl_certificate': '', 'cronjob': False, 'numthreads': None, 'quiet': False, 'interfaces': None, 'minthreads': None, 'timeout': 10, 'plain': False, 'nobanner': False}>"
p872
asbasbasbag49
(g65
g51
NtRp873
(dp874
g54
(dp875
sg63
g778
sg56
(lp876
g49
(g70
g51
NtRp877
(dp878
g54
(dp879
g74
g75
ssg63
g873
sg56
(lp880
S'db_sessions'
p881
asbag49
(g70
g51
NtRp882
(dp883
g54
(dp884
g81
g82
ssg63
g873
sg56
(lp885
S':'
asbag49
(g70
g51
NtRp886
(dp887
g54
(dp888
sg63
g873
sg56
(lp889
g49
(g50
g51
NtRp890
(dp891
g54
(dp892
g62
I4
ssg63
g886
sg56
(lp893
S'set([])'
p894
asbasbasbag49
(g65
g51
NtRp895
(dp896
g54
(dp897
sg63
g778
sg56
(lp898
g49
(g70
g51
NtRp899
(dp900
g54
(dp901
g74
g75
ssg63
g895
sg56
(lp902
S'debugging'
p903
asbag49
(g70
g51
NtRp904
(dp905
g54
(dp906
g81
g82
ssg63
g895
sg56
(lp907
S':'
asbag49
(g70
g51
NtRp908
(dp909
g54
(dp910
sg63
g895
sg56
(lp911
g49
(g50
g51
NtRp912
(dp913
g54
(dp914
g62
I4
ssg63
g908
sg56
(lp915
g92
asbasbasbag49
(g65
g51
NtRp916
(dp917
g54
(dp918
sg63
g778
sg56
(lp919
g49
(g70
g51
NtRp920
(dp921
g54
(dp922
g74
g75
ssg63
g916
sg56
(lp923
S'gluon_parent'
p924
asbag49
(g70
g51
NtRp925
(dp926
g54
(dp927
g81
g82
ssg63
g916
sg56
(lp928
S':'
asbag49
(g70
g51
NtRp929
(dp930
g54
(dp931
sg63
g916
sg56
(lp932
g49
(g50
g51
NtRp933
(dp934
g54
(dp935
g62
I4
ssg63
g929
sg56
(lp936
S'/Users/abaric/Downloads/web2py/web2py.app/Contents/Resources'
p937
asbasbasbag49
(g65
g51
NtRp938
(dp939
g54
(dp940
sg63
g778
sg56
(lp941
g49
(g70
g51
NtRp942
(dp943
g54
(dp944
g74
g75
ssg63
g938
sg56
(lp945
S'http_accept'
p946
asbag49
(g70
g51
NtRp947
(dp948
g54
(dp949
g81
g82
ssg63
g938
sg56
(lp950
S':'
asbag49
(g70
g51
NtRp951
(dp952
g54
(dp953
sg63
g938
sg56
(lp954
g49
(g50
g51
NtRp955
(dp956
g54
(dp957
g62
I4
ssg63
g951
sg56
(lp958
S'text/html,application/xhtml+xml,application/xml;q=0.9,*/*;q=0.8'
p959
asbasbasbag49
(g65
g51
NtRp960
(dp961
g54
(dp962
sg63
g778
sg56
(lp963
g49
(g70
g51
NtRp964
(dp965
g54
(dp966
g74
g75
ssg63
g960
sg56
(lp967
S'http_accept_encoding'
p968
asbag49
(g70
g51
NtRp969
(dp970
g54
(dp971
g81
g82
ssg63
g960
sg56
(lp972
S':'
asbag49
(g70
g51
NtRp973
(dp974
g54
(dp975
sg63
g960
sg56
(lp976
g49
(g50
g51
NtRp977
(dp978
g54
(dp979
g62
I4
ssg63
g973
sg56
(lp980
S'gzip, deflate'
p981
asbasbasbag49
(g65
g51
NtRp982
(dp983
g54
(dp984
sg63
g778
sg56
(lp985
g49
(g70
g51
NtRp986
(dp987
g54
(dp988
g74
g75
ssg63
g982
sg56
(lp989
S'http_accept_language'
p990
asbag49
(g70
g51
NtRp991
(dp992
g54
(dp993
g81
g82
ssg63
g982
sg56
(lp994
S':'
asbag49
(g70
g51
NtRp995
(dp996
g54
(dp997
sg63
g982
sg56
(lp998
g49
(g50
g51
NtRp999
(dp1000
g54
(dp1001
g62
I4
ssg63
g995
sg56
(lp1002
S'en-us'
p1003
asbasbasbag49
(g65
g51
NtRp1004
(dp1005
g54
(dp1006
sg63
g778
sg56
(lp1007
g49
(g70
g51
NtRp1008
(dp1009
g54
(dp1010
g74
g75
ssg63
g1004
sg56
(lp1011
S'http_connection'
p1012
asbag49
(g70
g51
NtRp1013
(dp1014
g54
(dp1015
g81
g82
ssg63
g1004
sg56
(lp1016
S':'
asbag49
(g70
g51
NtRp1017
(dp1018
g54
(dp1019
sg63
g1004
sg56
(lp1020
g49
(g50
g51
NtRp1021
(dp1022
g54
(dp1023
g62
I4
ssg63
g1017
sg56
(lp1024
S'keep-alive'
p1025
asbasbasbag49
(g65
g51
NtRp1026
(dp1027
g54
(dp1028
sg63
g778
sg56
(lp1029
g49
(g70
g51
NtRp1030
(dp1031
g54
(dp1032
g74
g75
ssg63
g1026
sg56
(lp1033
S'http_cookie'
p1034
asbag49
(g70
g51
NtRp1035
(dp1036
g54
(dp1037
g81
g82
ssg63
g1026
sg56
(lp1038
S':'
asbag49
(g70
g51
NtRp1039
(dp1040
g54
(dp1041
sg63
g1026
sg56
(lp1042
g49
(g50
g51
NtRp1043
(dp1044
g54
(dp1045
g62
I4
ssg63
g1039
sg56
(lp1046
S'session_id_final_impulse=127.0.0.1-5aceb5e9-2875-4462-b8f1-a71729f93584; session_id_admin=127.0.0.1-e2ac865f-62ef-4ea6-b78a-22dbce601125; session_id_welcome=127.0.0.1-6e944f2f-f11b-449c-9585-9def07ed3c13'
p1047
asbasbasbag49
(g65
g51
NtRp1048
(dp1049
g54
(dp1050
sg63
g778
sg56
(lp1051
g49
(g70
g51
NtRp1052
(dp1053
g54
(dp1054
g74
g75
ssg63
g1048
sg56
(lp1055
S'http_host'
p1056
asbag49
(g70
g51
NtRp1057
(dp1058
g54
(dp1059
g81
g82
ssg63
g1048
sg56
(lp1060
S':'
asbag49
(g70
g51
NtRp1061
(dp1062
g54
(dp1063
sg63
g1048
sg56
(lp1064
g49
(g50
g51
NtRp1065
(dp1066
g54
(dp1067
g62
I4
ssg63
g1061
sg56
(lp1068
S'127.0.0.1:8000'
p1069
asbasbasbag49
(g65
g51
NtRp1070
(dp1071
g54
(dp1072
sg63
g778
sg56
(lp1073
g49
(g70
g51
NtRp1074
(dp1075
g54
(dp1076
g74
g75
ssg63
g1070
sg56
(lp1077
S'http_referer'
p1078
asbag49
(g70
g51
NtRp1079
(dp1080
g54
(dp1081
g81
g82
ssg63
g1070
sg56
(lp1082
S':'
asbag49
(g70
g51
NtRp1083
(dp1084
g54
(dp1085
sg63
g1070
sg56
(lp1086
g49
(g50
g51
NtRp1087
(dp1088
g54
(dp1089
g62
I4
ssg63
g1083
sg56
(lp1090
S'http://127.0.0.1:8000/Final_Impulse/default/index'
p1091
asbasbasbag49
(g65
g51
NtRp1092
(dp1093
g54
(dp1094
sg63
g778
sg56
(lp1095
g49
(g70
g51
NtRp1096
(dp1097
g54
(dp1098
g74
g75
ssg63
g1092
sg56
(lp1099
S'http_user_agent'
p1100
asbag49
(g70
g51
NtRp1101
(dp1102
g54
(dp1103
g81
g82
ssg63
g1092
sg56
(lp1104
S':'
asbag49
(g70
g51
NtRp1105
(dp1106
g54
(dp1107
sg63
g1092
sg56
(lp1108
g49
(g50
g51
NtRp1109
(dp1110
g54
(dp1111
g62
I4
ssg63
g1105
sg56
(lp1112
S'Mozilla/5.0 (Macintosh; Intel Mac OS X 10_8_4) AppleWebKit/536.30.1 (KHTML, like Gecko) Version/6.0.5 Safari/536.30.1'
p1113
asbasbasbag49
(g65
g51
NtRp1114
(dp1115
g54
(dp1116
sg63
g778
sg56
(lp1117
g49
(g70
g51
NtRp1118
(dp1119
g54
(dp1120
g74
g75
ssg63
g1114
sg56
(lp1121
S'is_jython'
p1122
asbag49
(g70
g51
NtRp1123
(dp1124
g54
(dp1125
g81
g82
ssg63
g1114
sg56
(lp1126
S':'
asbag49
(g70
g51
NtRp1127
(dp1128
g54
(dp1129
sg63
g1114
sg56
(lp1130
g49
(g50
g51
NtRp1131
(dp1132
g54
(dp1133
g62
I4
ssg63
g1127
sg56
(lp1134
g92
asbasbasbag49
(g65
g51
NtRp1135
(dp1136
g54
(dp1137
sg63
g778
sg56
(lp1138
g49
(g70
g51
NtRp1139
(dp1140
g54
(dp1141
g74
g75
ssg63
g1135
sg56
(lp1142
S'is_pypy'
p1143
asbag49
(g70
g51
NtRp1144
(dp1145
g54
(dp1146
g81
g82
ssg63
g1135
sg56
(lp1147
S':'
asbag49
(g70
g51
NtRp1148
(dp1149
g54
(dp1150
sg63
g1135
sg56
(lp1151
g49
(g50
g51
NtRp1152
(dp1153
g54
(dp1154
g62
I4
ssg63
g1148
sg56
(lp1155
g92
asbasbasbag49
(g65
g51
NtRp1156
(dp1157
g54
(dp1158
sg63
g778
sg56
(lp1159
g49
(g70
g51
NtRp1160
(dp1161
g54
(dp1162
g74
g75
ssg63
g1156
sg56
(lp1163
S'local_hosts'
p1164
asbag49
(g70
g51
NtRp1165
(dp1166
g54
(dp1167
g81
g82
ssg63
g1156
sg56
(lp1168
S':'
asbag49
(g70
g51
NtRp1169
(dp1170
g54
(dp1171
sg63
g1156
sg56
(lp1172
g49
(g50
g51
NtRp1173
(dp1174
g54
(dp1175
g62
I4
ssg63
g1169
sg56
(lp1176
g49
(g58
g51
NtRp1177
(dp1178
g54
(dp1179
g62
I3
ssg63
Nsg56
(lp1180
g49
(g65
g51
NtRp1181
(dp1182
g54
(dp1183
sg63
g1177
sg56
(lp1184
g49
(g70
g51
NtRp1185
(dp1186
g54
(dp1187
sg63
g1181
sg56
(lp1188
g49
(g50
g51
NtRp1189
(dp1190
g54
(dp1191
g62
I3
ssg63
g1185
sg56
(lp1192
S'127.0.0.1'
p1193
asbasbasbag49
(g65
g51
NtRp1194
(dp1195
g54
(dp1196
sg63
g1177
sg56
(lp1197
g49
(g70
g51
NtRp1198
(dp1199
g54
(dp1200
sg63
g1194
sg56
(lp1201
g49
(g50
g51
NtRp1202
(dp1203
g54
(dp1204
g62
I3
ssg63
g1198
sg56
(lp1205
S'::ffff:127.0.0.1'
p1206
asbasbasbag49
(g65
g51
NtRp1207
(dp1208
g54
(dp1209
sg63
g1177
sg56
(lp1210
g49
(g70
g51
NtRp1211
(dp1212
g54
(dp1213
sg63
g1207
sg56
(lp1214
g49
(g50
g51
NtRp1215
(dp1216
g54
(dp1217
g62
I3
ssg63
g1211
sg56
(lp1218
S'Andrea-Barics-MacBook-Pro.local'
p1219
asbasbasbag49
(g65
g51
NtRp1220
(dp1221
g54
(dp1222
sg63
g1177
sg56
(lp1223
g49
(g70
g51
NtRp1224
(dp1225
g54
(dp1226
sg63
g1220
sg56
(lp1227
g49
(g50
g51
NtRp1228
(dp1229
g54
(dp1230
g62
I3
ssg63
g1224
sg56
(lp1231
S'Andrea-Barics-MacBook-Pro.local'
p1232
asbasbasbag49
(g65
g51
NtRp1233
(dp1234
g54
(dp1235
sg63
g1177
sg56
(lp1236
g49
(g70
g51
NtRp1237
(dp1238
g54
(dp1239
sg63
g1233
sg56
(lp1240
g49
(g50
g51
NtRp1241
(dp1242
g54
(dp1243
g62
I3
ssg63
g1237
sg56
(lp1244
S'10.1.10.113'
p1245
asbasbasbasbasbasbasbag49
(g65
g51
NtRp1246
(dp1247
g54
(dp1248
sg63
g778
sg56
(lp1249
g49
(g70
g51
NtRp1250
(dp1251
g54
(dp1252
g74
g75
ssg63
g1246
sg56
(lp1253
S'path_info'
p1254
asbag49
(g70
g51
NtRp1255
(dp1256
g54
(dp1257
g81
g82
ssg63
g1246
sg56
(lp1258
S':'
asbag49
(g70
g51
NtRp1259
(dp1260
g54
(dp1261
sg63
g1246
sg56
(lp1262
g49
(g50
g51
NtRp1263
(dp1264
g54
(dp1265
g62
I4
ssg63
g1259
sg56
(lp1266
S'/Final_Impulse/default/show_writing_comments'
p1267
asbasbasbag49
(g65
g51
NtRp1268
(dp1269
g54
(dp1270
sg63
g778
sg56
(lp1271
g49
(g70
g51
NtRp1272
(dp1273
g54
(dp1274
g74
g75
ssg63
g1268
sg56
(lp1275
S'query_string'
p1276
asbag49
(g70
g51
NtRp1277
(dp1278
g54
(dp1279
g81
g82
ssg63
g1268
sg56
(lp1280
S':'
asbag49
(g70
g51
NtRp1281
(dp1282
g54
(dp1283
sg63
g1268
sg56
(lp1284
g49
(g50
g51
NtRp1285
(dp1286
g54
(dp1287
g62
I4
ssg63
g1281
sg56
(lp1288
S''
asbasbasbag49
(g65
g51
NtRp1289
(dp1290
g54
(dp1291
sg63
g778
sg56
(lp1292
g49
(g70
g51
NtRp1293
(dp1294
g54
(dp1295
g74
g75
ssg63
g1289
sg56
(lp1296
S'remote_addr'
p1297
asbag49
(g70
g51
NtRp1298
(dp1299
g54
(dp1300
g81
g82
ssg63
g1289
sg56
(lp1301
S':'
asbag49
(g70
g51
NtRp1302
(dp1303
g54
(dp1304
sg63
g1289
sg56
(lp1305
g49
(g50
g51
NtRp1306
(dp1307
g54
(dp1308
g62
I4
ssg63
g1302
sg56
(lp1309
g204
asbasbasbag49
(g65
g51
NtRp1310
(dp1311
g54
(dp1312
sg63
g778
sg56
(lp1313
g49
(g70
g51
NtRp1314
(dp1315
g54
(dp1316
g74
g75
ssg63
g1310
sg56
(lp1317
S'remote_port'
p1318
asbag49
(g70
g51
NtRp1319
(dp1320
g54
(dp1321
g81
g82
ssg63
g1310
sg56
(lp1322
S':'
asbag49
(g70
g51
NtRp1323
(dp1324
g54
(dp1325
sg63
g1310
sg56
(lp1326
g49
(g50
g51
NtRp1327
(dp1328
g54
(dp1329
g62
I4
ssg63
g1323
sg56
(lp1330
S'51897'
p1331
asbasbasbag49
(g65
g51
NtRp1332
(dp1333
g54
(dp1334
sg63
g778
sg56
(lp1335
g49
(g70
g51
NtRp1336
(dp1337
g54
(dp1338
g74
g75
ssg63
g1332
sg56
(lp1339
S'request_method'
p1340
asbag49
(g70
g51
NtRp1341
(dp1342
g54
(dp1343
g81
g82
ssg63
g1332
sg56
(lp1344
S':'
asbag49
(g70
g51
NtRp1345
(dp1346
g54
(dp1347
sg63
g1332
sg56
(lp1348
g49
(g50
g51
NtRp1349
(dp1350
g54
(dp1351
g62
I4
ssg63
g1345
sg56
(lp1352
S'GET'
p1353
asbasbasbag49
(g65
g51
NtRp1354
(dp1355
g54
(dp1356
sg63
g778
sg56
(lp1357
g49
(g70
g51
NtRp1358
(dp1359
g54
(dp1360
g74
g75
ssg63
g1354
sg56
(lp1361
S'request_uri'
p1362
asbag49
(g70
g51
NtRp1363
(dp1364
g54
(dp1365
g81
g82
ssg63
g1354
sg56
(lp1366
S':'
asbag49
(g70
g51
NtRp1367
(dp1368
g54
(dp1369
sg63
g1354
sg56
(lp1370
g49
(g50
g51
NtRp1371
(dp1372
g54
(dp1373
g62
I4
ssg63
g1367
sg56
(lp1374
g1267
asbasbasbag49
(g65
g51
NtRp1375
(dp1376
g54
(dp1377
sg63
g778
sg56
(lp1378
g49
(g70
g51
NtRp1379
(dp1380
g54
(dp1381
g74
g75
ssg63
g1375
sg56
(lp1382
S'script_name'
p1383
asbag49
(g70
g51
NtRp1384
(dp1385
g54
(dp1386
g81
g82
ssg63
g1375
sg56
(lp1387
S':'
asbag49
(g70
g51
NtRp1388
(dp1389
g54
(dp1390
sg63
g1375
sg56
(lp1391
g49
(g50
g51
NtRp1392
(dp1393
g54
(dp1394
g62
I4
ssg63
g1388
sg56
(lp1395
S''
asbasbasbag49
(g65
g51
NtRp1396
(dp1397
g54
(dp1398
sg63
g778
sg56
(lp1399
g49
(g70
g51
NtRp1400
(dp1401
g54
(dp1402
g74
g75
ssg63
g1396
sg56
(lp1403
S'server_name'
p1404
asbag49
(g70
g51
NtRp1405
(dp1406
g54
(dp1407
g81
g82
ssg63
g1396
sg56
(lp1408
S':'
asbag49
(g70
g51
NtRp1409
(dp1410
g54
(dp1411
sg63
g1396
sg56
(lp1412
g49
(g50
g51
NtRp1413
(dp1414
g54
(dp1415
g62
I4
ssg63
g1409
sg56
(lp1416
g1232
asbasbasbag49
(g65
g51
NtRp1417
(dp1418
g54
(dp1419
sg63
g778
sg56
(lp1420
g49
(g70
g51
NtRp1421
(dp1422
g54
(dp1423
g74
g75
ssg63
g1417
sg56
(lp1424
S'server_port'
p1425
asbag49
(g70
g51
NtRp1426
(dp1427
g54
(dp1428
g81
g82
ssg63
g1417
sg56
(lp1429
S':'
asbag49
(g70
g51
NtRp1430
(dp1431
g54
(dp1432
sg63
g1417
sg56
(lp1433
g49
(g50
g51
NtRp1434
(dp1435
g54
(dp1436
g62
I4
ssg63
g1430
sg56
(lp1437
S'8000'
p1438
asbasbasbag49
(g65
g51
NtRp1439
(dp1440
g54
(dp1441
sg63
g778
sg56
(lp1442
g49
(g70
g51
NtRp1443
(dp1444
g54
(dp1445
g74
g75
ssg63
g1439
sg56
(lp1446
S'server_protocol'
p1447
asbag49
(g70
g51
NtRp1448
(dp1449
g54
(dp1450
g81
g82
ssg63
g1439
sg56
(lp1451
S':'
asbag49
(g70
g51
NtRp1452
(dp1453
g54
(dp1454
sg63
g1439
sg56
(lp1455
g49
(g50
g51
NtRp1456
(dp1457
g54
(dp1458
g62
I4
ssg63
g1452
sg56
(lp1459
S'HTTP/1.1'
p1460
asbasbasbag49
(g65
g51
NtRp1461
(dp1462
g54
(dp1463
sg63
g778
sg56
(lp1464
g49
(g70
g51
NtRp1465
(dp1466
g54
(dp1467
g74
g75
ssg63
g1461
sg56
(lp1468
S'server_software'
p1469
asbag49
(g70
g51
NtRp1470
(dp1471
g54
(dp1472
g81
g82
ssg63
g1461
sg56
(lp1473
S':'
asbag49
(g70
g51
NtRp1474
(dp1475
g54
(dp1476
sg63
g1461
sg56
(lp1477
g49
(g50
g51
NtRp1478
(dp1479
g54
(dp1480
g62
I4
ssg63
g1474
sg56
(lp1481
S'Rocket 1.2.5'
p1482
asbasbasbag49
(g65
g51
NtRp1483
(dp1484
g54
(dp1485
sg63
g778
sg56
(lp1486
g49
(g70
g51
NtRp1487
(dp1488
g54
(dp1489
g74
g75
ssg63
g1483
sg56
(lp1490
S'web2py_path'
p1491
asbag49
(g70
g51
NtRp1492
(dp1493
g54
(dp1494
g81
g82
ssg63
g1483
sg56
(lp1495
S':'
asbag49
(g70
g51
NtRp1496
(dp1497
g54
(dp1498
sg63
g1483
sg56
(lp1499
g49
(g50
g51
NtRp1500
(dp1501
g54
(dp1502
g62
I4
ssg63
g1496
sg56
(lp1503
g825
asbasbasbag49
(g65
g51
NtRp1504
(dp1505
g54
(dp1506
sg63
g778
sg56
(lp1507
g49
(g70
g51
NtRp1508
(dp1509
g54
(dp1510
g74
g75
ssg63
g1504
sg56
(lp1511
S'web2py_version'
p1512
asbag49
(g70
g51
NtRp1513
(dp1514
g54
(dp1515
g81
g82
ssg63
g1504
sg56
(lp1516
S':'
asbag49
(g70
g51
NtRp1517
(dp1518
g54
(dp1519
sg63
g1504
sg56
(lp1520
g49
(g50
g51
NtRp1521
(dp1522
g54
(dp1523
g62
I4
ssg63
g1517
sg56
(lp1524
g49
(g58
g51
NtRp1525
(dp1526
g54
(dp1527
g62
I3
ssg63
Nsg56
(lp1528
g49
(g65
g51
NtRp1529
(dp1530
g54
(dp1531
sg63
g1525
sg56
(lp1532
g49
(g70
g51
NtRp1533
(dp1534
g54
(dp1535
sg63
g1529
sg56
(lp1536
g49
(g50
g51
NtRp1537
(dp1538
g54
(dp1539
g62
I3
ssg63
g1533
sg56
(lp1540
S'2'
asbasbasbag49
(g65
g51
NtRp1541
(dp1542
g54
(dp1543
sg63
g1525
sg56
(lp1544
g49
(g70
g51
NtRp1545
(dp1546
g54
(dp1547
sg63
g1541
sg56
(lp1548
g49
(g50
g51
NtRp1549
(dp1550
g54
(dp1551
g62
I3
ssg63
g1545
sg56
(lp1552
S'2'
asbasbasbag49
(g65
g51
NtRp1553
(dp1554
g54
(dp1555
sg63
g1525
sg56
(lp1556
g49
(g70
g51
NtRp1557
(dp1558
g54
(dp1559
sg63
g1553
sg56
(lp1560
g49
(g50
g51
NtRp1561
(dp1562
g54
(dp1563
g62
I3
ssg63
g1557
sg56
(lp1564
S'1'
asbasbasbag49
(g65
g51
NtRp1565
(dp1566
g54
(dp1567
sg63
g1525
sg56
(lp1568
g49
(g70
g51
NtRp1569
(dp1570
g54
(dp1571
sg63
g1565
sg56
(lp1572
g49
(g50
g51
NtRp1573
(dp1574
g54
(dp1575
g62
I3
ssg63
g1569
sg56
(lp1576
S'datetime.datetime(2012, 10, 21, 16, 57, 4)'
p1577
asbasbasbag49
(g65
g51
NtRp1578
(dp1579
g54
(dp1580
sg63
g1525
sg56
(lp1581
g49
(g70
g51
NtRp1582
(dp1583
g54
(dp1584
sg63
g1578
sg56
(lp1585
g49
(g50
g51
NtRp1586
(dp1587
g54
(dp1588
g62
I3
ssg63
g1582
sg56
(lp1589
S'stable'
p1590
asbasbasbasbasbasbasbag49
(g65
g51
NtRp1591
(dp1592
g54
(dp1593
sg63
g778
sg56
(lp1594
g49
(g70
g51
NtRp1595
(dp1596
g54
(dp1597
g74
g75
ssg63
g1591
sg56
(lp1598
S'wsgi_errors'
p1599
asbag49
(g70
g51
NtRp1600
(dp1601
g54
(dp1602
g81
g82
ssg63
g1591
sg56
(lp1603
S':'
asbag49
(g70
g51
NtRp1604
(dp1605
g54
(dp1606
sg63
g1591
sg56
(lp1607
g49
(g50
g51
NtRp1608
(dp1609
g54
(dp1610
g62
I4
ssg63
g1604
sg56
(lp1611
S"<open file '<stderr>', mode 'w' at 0x540b0>"
p1612
asbasbasbag49
(g65
g51
NtRp1613
(dp1614
g54
(dp1615
sg63
g778
sg56
(lp1616
g49
(g70
g51
NtRp1617
(dp1618
g54
(dp1619
g74
g75
ssg63
g1613
sg56
(lp1620
S'wsgi_file_wrapper'
p1621
asbag49
(g70
g51
NtRp1622
(dp1623
g54
(dp1624
g81
g82
ssg63
g1613
sg56
(lp1625
S':'
asbag49
(g70
g51
NtRp1626
(dp1627
g54
(dp1628
sg63
g1613
sg56
(lp1629
g49
(g50
g51
NtRp1630
(dp1631
g54
(dp1632
g62
I4
ssg63
g1626
sg56
(lp1633
S'<class wsgiref.util.FileWrapper at 0x44002d0>'
p1634
asbasbasbag49
(g65
g51
NtRp1635
(dp1636
g54
(dp1637
sg63
g778
sg56
(lp1638
g49
(g70
g51
NtRp1639
(dp1640
g54
(dp1641
g74
g75
ssg63
g1635
sg56
(lp1642
S'wsgi_input'
p1643
asbag49
(g70
g51
NtRp1644
(dp1645
g54
(dp1646
g81
g82
ssg63
g1635
sg56
(lp1647
S':'
asbag49
(g70
g51
NtRp1648
(dp1649
g54
(dp1650
sg63
g1635
sg56
(lp1651
g49
(g50
g51
NtRp1652
(dp1653
g54
(dp1654
g62
I4
ssg63
g1648
sg56
(lp1655
S'<socket._fileobject object at 0x7763070>'
p1656
asbasbasbag49
(g65
g51
NtRp1657
(dp1658
g54
(dp1659
sg63
g778
sg56
(lp1660
g49
(g70
g51
NtRp1661
(dp1662
g54
(dp1663
g74
g75
ssg63
g1657
sg56
(lp1664
S'wsgi_multiprocess'
p1665
asbag49
(g70
g51
NtRp1666
(dp1667
g54
(dp1668
g81
g82
ssg63
g1657
sg56
(lp1669
S':'
asbag49
(g70
g51
NtRp1670
(dp1671
g54
(dp1672
sg63
g1657
sg56
(lp1673
g49
(g50
g51
NtRp1674
(dp1675
g54
(dp1676
g62
I4
ssg63
g1670
sg56
(lp1677
g92
asbasbasbag49
(g65
g51
NtRp1678
(dp1679
g54
(dp1680
sg63
g778
sg56
(lp1681
g49
(g70
g51
NtRp1682
(dp1683
g54
(dp1684
g74
g75
ssg63
g1678
sg56
(lp1685
S'wsgi_multithread'
p1686
asbag49
(g70
g51
NtRp1687
(dp1688
g54
(dp1689
g81
g82
ssg63
g1678
sg56
(lp1690
S':'
asbag49
(g70
g51
NtRp1691
(dp1692
g54
(dp1693
sg63
g1678
sg56
(lp1694
g49
(g50
g51
NtRp1695
(dp1696
g54
(dp1697
g62
I4
ssg63
g1691
sg56
(lp1698
S'True'
p1699
asbasbasbag49
(g65
g51
NtRp1700
(dp1701
g54
(dp1702
sg63
g778
sg56
(lp1703
g49
(g70
g51
NtRp1704
(dp1705
g54
(dp1706
g74
g75
ssg63
g1700
sg56
(lp1707
S'wsgi_run_once'
p1708
asbag49
(g70
g51
NtRp1709
(dp1710
g54
(dp1711
g81
g82
ssg63
g1700
sg56
(lp1712
S':'
asbag49
(g70
g51
NtRp1713
(dp1714
g54
(dp1715
sg63
g1700
sg56
(lp1716
g49
(g50
g51
NtRp1717
(dp1718
g54
(dp1719
g62
I4
ssg63
g1713
sg56
(lp1720
g92
asbasbasbag49
(g65
g51
NtRp1721
(dp1722
g54
(dp1723
sg63
g778
sg56
(lp1724
g49
(g70
g51
NtRp1725
(dp1726
g54
(dp1727
g74
g75
ssg63
g1721
sg56
(lp1728
S'wsgi_url_scheme'
p1729
asbag49
(g70
g51
NtRp1730
(dp1731
g54
(dp1732
g81
g82
ssg63
g1721
sg56
(lp1733
S':'
asbag49
(g70
g51
NtRp1734
(dp1735
g54
(dp1736
sg63
g1721
sg56
(lp1737
g49
(g50
g51
NtRp1738
(dp1739
g54
(dp1740
g62
I4
ssg63
g1734
sg56
(lp1741
S'http'
p1742
asbasbasbag49
(g65
g51
NtRp1743
(dp1744
g54
(dp1745
sg63
g778
sg56
(lp1746
g49
(g70
g51
NtRp1747
(dp1748
g54
(dp1749
g74
g75
ssg63
g1743
sg56
(lp1750
S'wsgi_version'
p1751
asbag49
(g70
g51
NtRp1752
(dp1753
g54
(dp1754
g81
g82
ssg63
g1743
sg56
(lp1755
S':'
asbag49
(g70
g51
NtRp1756
(dp1757
g54
(dp1758
sg63
g1743
sg56
(lp1759
g49
(g50
g51
NtRp1760
(dp1761
g54
(dp1762
g62
I4
ssg63
g1756
sg56
(lp1763
g49
(g58
g51
NtRp1764
(dp1765
g54
(dp1766
g62
I3
ssg63
Nsg56
(lp1767
g49
(g65
g51
NtRp1768
(dp1769
g54
(dp1770
sg63
g1764
sg56
(lp1771
g49
(g70
g51
NtRp1772
(dp1773
g54
(dp1774
sg63
g1768
sg56
(lp1775
g49
(g50
g51
NtRp1776
(dp1777
g54
(dp1778
g62
I3
ssg63
g1772
sg56
(lp1779
S'1'
asbasbasbag49
(g65
g51
NtRp1780
(dp1781
g54
(dp1782
sg63
g1764
sg56
(lp1783
g49
(g70
g51
NtRp1784
(dp1785
g54
(dp1786
sg63
g1780
sg56
(lp1787
g49
(g50
g51
NtRp1788
(dp1789
g54
(dp1790
g62
I3
ssg63
g1784
sg56
(lp1791
S'0'
asbasbasbasbasbasbasbasbasbasbasbag49
(g65
g51
NtRp1792
(dp1793
g54
(dp1794
sg63
g59
sg56
(lp1795
g49
(g70
g51
NtRp1796
(dp1797
g54
(dp1798
g74
g75
ssg63
g1792
sg56
(lp1799
S'extension'
p1800
asbag49
(g70
g51
NtRp1801
(dp1802
g54
(dp1803
g81
g82
ssg63
g1792
sg56
(lp1804
S':'
asbag49
(g70
g51
NtRp1805
(dp1806
g54
(dp1807
sg63
g1792
sg56
(lp1808
g49
(g50
g51
NtRp1809
(dp1810
g54
(dp1811
g62
I5
ssg63
g1805
sg56
(lp1812
S'html'
p1813
asbasbasbag49
(g65
g51
NtRp1814
(dp1815
g54
(dp1816
sg63
g59
sg56
(lp1817
g49
(g70
g51
NtRp1818
(dp1819
g54
(dp1820
g74
g75
ssg63
g1814
sg56
(lp1821
S'folder'
p1822
asbag49
(g70
g51
NtRp1823
(dp1824
g54
(dp1825
g81
g82
ssg63
g1814
sg56
(lp1826
S':'
asbag49
(g70
g51
NtRp1827
(dp1828
g54
(dp1829
sg63
g1814
sg56
(lp1830
g49
(g50
g51
NtRp1831
(dp1832
g54
(dp1833
g62
I5
ssg63
g1827
sg56
(lp1834
S'/Users/abaric/Downloads/web2py/web2py.app/Contents/Resources/applications/Final_Impulse/'
p1835
asbasbasbag49
(g65
g51
NtRp1836
(dp1837
g54
(dp1838
sg63
g59
sg56
(lp1839
g49
(g70
g51
NtRp1840
(dp1841
g54
(dp1842
g74
g75
ssg63
g1836
sg56
(lp1843
S'function'
p1844
asbag49
(g70
g51
NtRp1845
(dp1846
g54
(dp1847
g81
g82
ssg63
g1836
sg56
(lp1848
S':'
asbag49
(g70
g51
NtRp1849
(dp1850
g54
(dp1851
sg63
g1836
sg56
(lp1852
g49
(g50
g51
NtRp1853
(dp1854
g54
(dp1855
g62
I5
ssg63
g1849
sg56
(lp1856
S'show_writing_comments'
p1857
asbasbasbag49
(g65
g51
NtRp1858
(dp1859
g54
(dp1860
sg63
g59
sg56
(lp1861
g49
(g70
g51
NtRp1862
(dp1863
g54
(dp1864
g74
g75
ssg63
g1858
sg56
(lp1865
S'get_vars'
p1866
asbag49
(g70
g51
NtRp1867
(dp1868
g54
(dp1869
g81
g82
ssg63
g1858
sg56
(lp1870
S':'
asbag49
(g70
g51
NtRp1871
(dp1872
g54
(dp1873
sg63
g1858
sg56
(lp1874
g49
(g50
g51
NtRp1875
(dp1876
g54
(dp1877
g62
I5
ssg63
g1871
sg56
(lp1878
g49
(g58
g51
NtRp1879
(dp1880
g54
(dp1881
g62
I4
ssg63
Nsg56
(lp1882
sbasbasbasbag49
(g65
g51
NtRp1883
(dp1884
g54
(dp1885
sg63
g59
sg56
(lp1886
g49
(g70
g51
NtRp1887
(dp1888
g54
(dp1889
g74
g75
ssg63
g1883
sg56
(lp1890
S'global_settings'
p1891
asbag49
(g70
g51
NtRp1892
(dp1893
g54
(dp1894
g81
g82
ssg63
g1883
sg56
(lp1895
S':'
asbag49
(g70
g51
NtRp1896
(dp1897
g54
(dp1898
sg63
g1883
sg56
(lp1899
g49
(g50
g51
NtRp1900
(dp1901
g54
(dp1902
g62
I5
ssg63
g1896
sg56
(lp1903
g49
(g58
g51
NtRp1904
(dp1905
g54
(dp1906
g62
I4
ssg63
Nsg56
(lp1907
g49
(g65
g51
NtRp1908
(dp1909
g54
(dp1910
sg63
g1904
sg56
(lp1911
g49
(g70
g51
NtRp1912
(dp1913
g54
(dp1914
g74
g75
ssg63
g1908
sg56
(lp1915
g790
asbag49
(g70
g51
NtRp1916
(dp1917
g54
(dp1918
g81
g82
ssg63
g1908
sg56
(lp1919
S':'
asbag49
(g70
g51
NtRp1920
(dp1921
g54
(dp1922
sg63
g1908
sg56
(lp1923
g49
(g50
g51
NtRp1924
(dp1925
g54
(dp1926
g62
I4
ssg63
g1920
sg56
(lp1927
S"set(['/Users/abaric/Downloads/web2py/web2py.app/Contents/Resources/applications/Final_Impulse/', '/Users/abaric/Downloads/web2py/web2py.app/Contents/Resources/applications/welcome/', '/Users/abaric/Downloads/web2py/web2py.app/Contents/Resources/applications/admin/'])"
p1928
asbasbasbag49
(g65
g51
NtRp1929
(dp1930
g54
(dp1931
sg63
g1904
sg56
(lp1932
g49
(g70
g51
NtRp1933
(dp1934
g54
(dp1935
g74
g75
ssg63
g1929
sg56
(lp1936
g812
asbag49
(g70
g51
NtRp1937
(dp1938
g54
(dp1939
g81
g82
ssg63
g1929
sg56
(lp1940
S':'
asbag49
(g70
g51
NtRp1941
(dp1942
g54
(dp1943
sg63
g1929
sg56
(lp1944
g49
(g50
g51
NtRp1945
(dp1946
g54
(dp1947
g62
I4
ssg63
g1941
sg56
(lp1948
g825
asbasbasbag49
(g65
g51
NtRp1949
(dp1950
g54
(dp1951
sg63
g1904
sg56
(lp1952
g49
(g70
g51
NtRp1953
(dp1954
g54
(dp1955
g74
g75
ssg63
g1949
sg56
(lp1956
g834
asbag49
(g70
g51
NtRp1957
(dp1958
g54
(dp1959
g81
g82
ssg63
g1949
sg56
(lp1960
S':'
asbag49
(g70
g51
NtRp1961
(dp1962
g54
(dp1963
sg63
g1949
sg56
(lp1964
g49
(g50
g51
NtRp1965
(dp1966
g54
(dp1967
g62
I4
ssg63
g1961
sg56
(lp1968
g49
(g58
g51
NtRp1969
(dp1970
g54
(dp1971
g62
I3
ssg63
Nsg56
(lp1972
sbasbasbasbag49
(g65
g51
NtRp1973
(dp1974
g54
(dp1975
sg63
g1904
sg56
(lp1976
g49
(g70
g51
NtRp1977
(dp1978
g54
(dp1979
g74
g75
ssg63
g1973
sg56
(lp1980
g859
asbag49
(g70
g51
NtRp1981
(dp1982
g54
(dp1983
g81
g82
ssg63
g1973
sg56
(lp1984
S':'
asbag49
(g70
g51
NtRp1985
(dp1986
g54
(dp1987
sg63
g1973
sg56
(lp1988
g49
(g50
g51
NtRp1989
(dp1990
g54
(dp1991
g62
I4
ssg63
g1985
sg56
(lp1992
S"<Values at 0x442e1c0: {'verbose': False, 'ip': '127.0.0.1', 'with_scheduler': False, 'ips': ['10.1.10.113'], 'shutdown_timeout': 5, 'taskbar': False, 'port': 8000, 'maxthreads': None, 'softcron': False, 'server_name': 'Andrea-Barics-MacBook-Pro.local', 'bpython': False, 'nogui': False, 'pid_filename': 'httpserver.pid', 'extcron': False, 'runcron': False, 'run_system_tests': False, 'test': None, 'folder': '/Users/abaric/Downloads/web2py/web2py.app/Contents/Resources', 'config': '', 'import_models': False, 'winservice': '', 'shell': None, 'run': '', 'log_filename': 'httpserver.log', 'debuglevel': 30, 'args': [''], 'socket_timeout': 5, 'ssl_ca_certificate': None, 'scheduler': None, 'profiler_filename': None, 'ssl_private_key': '', 'scheduler_groups': None, 'password': '<ask>', 'request_queue_size': 5, 'ssl_certificate': '', 'cronjob': False, 'numthreads': None, 'quiet': False, 'interfaces': None, 'minthreads': None, 'timeout': 10, 'plain': False, 'nobanner': False}>"
p1993
asbasbasbag49
(g65
g51
NtRp1994
(dp1995
g54
(dp1996
sg63
g1904
sg56
(lp1997
g49
(g70
g51
NtRp1998
(dp1999
g54
(dp2000
g74
g75
ssg63
g1994
sg56
(lp2001
g881
asbag49
(g70
g51
NtRp2002
(dp2003
g54
(dp2004
g81
g82
ssg63
g1994
sg56
(lp2005
S':'
asbag49
(g70
g51
NtRp2006
(dp2007
g54
(dp2008
sg63
g1994
sg56
(lp2009
g49
(g50
g51
NtRp2010
(dp2011
g54
(dp2012
g62
I4
ssg63
g2006
sg56
(lp2013
S'set([])'
p2014
asbasbasbag49
(g65
g51
NtRp2015
(dp2016
g54
(dp2017
sg63
g1904
sg56
(lp2018
g49
(g70
g51
NtRp2019
(dp2020
g54
(dp2021
g74
g75
ssg63
g2015
sg56
(lp2022
g903
asbag49
(g70
g51
NtRp2023
(dp2024
g54
(dp2025
g81
g82
ssg63
g2015
sg56
(lp2026
S':'
asbag49
(g70
g51
NtRp2027
(dp2028
g54
(dp2029
sg63
g2015
sg56
(lp2030
g49
(g50
g51
NtRp2031
(dp2032
g54
(dp2033
g62
I4
ssg63
g2027
sg56
(lp2034
g92
asbasbasbag49
(g65
g51
NtRp2035
(dp2036
g54
(dp2037
sg63
g1904
sg56
(lp2038
g49
(g70
g51
NtRp2039
(dp2040
g54
(dp2041
g74
g75
ssg63
g2035
sg56
(lp2042
g924
asbag49
(g70
g51
NtRp2043
(dp2044
g54
(dp2045
g81
g82
ssg63
g2035
sg56
(lp2046
S':'
asbag49
(g70
g51
NtRp2047
(dp2048
g54
(dp2049
sg63
g2035
sg56
(lp2050
g49
(g50
g51
NtRp2051
(dp2052
g54
(dp2053
g62
I4
ssg63
g2047
sg56
(lp2054
g937
asbasbasbag49
(g65
g51
NtRp2055
(dp2056
g54
(dp2057
sg63
g1904
sg56
(lp2058
g49
(g70
g51
NtRp2059
(dp2060
g54
(dp2061
g74
g75
ssg63
g2055
sg56
(lp2062
g1122
asbag49
(g70
g51
NtRp2063
(dp2064
g54
(dp2065
g81
g82
ssg63
g2055
sg56
(lp2066
S':'
asbag49
(g70
g51
NtRp2067
(dp2068
g54
(dp2069
sg63
g2055
sg56
(lp2070
g49
(g50
g51
NtRp2071
(dp2072
g54
(dp2073
g62
I4
ssg63
g2067
sg56
(lp2074
g92
asbasbasbag49
(g65
g51
NtRp2075
(dp2076
g54
(dp2077
sg63
g1904
sg56
(lp2078
g49
(g70
g51
NtRp2079
(dp2080
g54
(dp2081
g74
g75
ssg63
g2075
sg56
(lp2082
g1143
asbag49
(g70
g51
NtRp2083
(dp2084
g54
(dp2085
g81
g82
ssg63
g2075
sg56
(lp2086
S':'
asbag49
(g70
g51
NtRp2087
(dp2088
g54
(dp2089
sg63
g2075
sg56
(lp2090
g49
(g50
g51
NtRp2091
(dp2092
g54
(dp2093
g62
I4
ssg63
g2087
sg56
(lp2094
g92
asbasbasbag49
(g65
g51
NtRp2095
(dp2096
g54
(dp2097
sg63
g1904
sg56
(lp2098
g49
(g70
g51
NtRp2099
(dp2100
g54
(dp2101
g74
g75
ssg63
g2095
sg56
(lp2102
g1164
asbag49
(g70
g51
NtRp2103
(dp2104
g54
(dp2105
g81
g82
ssg63
g2095
sg56
(lp2106
S':'
asbag49
(g70
g51
NtRp2107
(dp2108
g54
(dp2109
sg63
g2095
sg56
(lp2110
g49
(g50
g51
NtRp2111
(dp2112
g54
(dp2113
g62
I4
ssg63
g2107
sg56
(lp2114
g49
(g58
g51
NtRp2115
(dp2116
g54
(dp2117
g62
I3
ssg63
Nsg56
(lp2118
g49
(g65
g51
NtRp2119
(dp2120
g54
(dp2121
sg63
g2115
sg56
(lp2122
g49
(g70
g51
NtRp2123
(dp2124
g54
(dp2125
sg63
g2119
sg56
(lp2126
g49
(g50
g51
NtRp2127
(dp2128
g54
(dp2129
g62
I3
ssg63
g2123
sg56
(lp2130
g1193
asbasbasbag49
(g65
g51
NtRp2131
(dp2132
g54
(dp2133
sg63
g2115
sg56
(lp2134
g49
(g70
g51
NtRp2135
(dp2136
g54
(dp2137
sg63
g2131
sg56
(lp2138
g49
(g50
g51
NtRp2139
(dp2140
g54
(dp2141
g62
I3
ssg63
g2135
sg56
(lp2142
g1206
asbasbasbag49
(g65
g51
NtRp2143
(dp2144
g54
(dp2145
sg63
g2115
sg56
(lp2146
g49
(g70
g51
NtRp2147
(dp2148
g54
(dp2149
sg63
g2143
sg56
(lp2150
g49
(g50
g51
NtRp2151
(dp2152
g54
(dp2153
g62
I3
ssg63
g2147
sg56
(lp2154
g1219
asbasbasbag49
(g65
g51
NtRp2155
(dp2156
g54
(dp2157
sg63
g2115
sg56
(lp2158
g49
(g70
g51
NtRp2159
(dp2160
g54
(dp2161
sg63
g2155
sg56
(lp2162
g49
(g50
g51
NtRp2163
(dp2164
g54
(dp2165
g62
I3
ssg63
g2159
sg56
(lp2166
g1232
asbasbasbag49
(g65
g51
NtRp2167
(dp2168
g54
(dp2169
sg63
g2115
sg56
(lp2170
g49
(g70
g51
NtRp2171
(dp2172
g54
(dp2173
sg63
g2167
sg56
(lp2174
g49
(g50
g51
NtRp2175
(dp2176
g54
(dp2177
g62
I3
ssg63
g2171
sg56
(lp2178
g1245
asbasbasbasbasbasbasbag49
(g65
g51
NtRp2179
(dp2180
g54
(dp2181
sg63
g1904
sg56
(lp2182
g49
(g70
g51
NtRp2183
(dp2184
g54
(dp2185
g74
g75
ssg63
g2179
sg56
(lp2186
g1512
asbag49
(g70
g51
NtRp2187
(dp2188
g54
(dp2189
g81
g82
ssg63
g2179
sg56
(lp2190
S':'
asbag49
(g70
g51
NtRp2191
(dp2192
g54
(dp2193
sg63
g2179
sg56
(lp2194
g49
(g50
g51
NtRp2195
(dp2196
g54
(dp2197
g62
I4
ssg63
g2191
sg56
(lp2198
g49
(g58
g51
NtRp2199
(dp2200
g54
(dp2201
g62
I3
ssg63
Nsg56
(lp2202
g49
(g65
g51
NtRp2203
(dp2204
g54
(dp2205
sg63
g2199
sg56
(lp2206
g49
(g70
g51
NtRp2207
(dp2208
g54
(dp2209
sg63
g2203
sg56
(lp2210
g49
(g50
g51
NtRp2211
(dp2212
g54
(dp2213
g62
I3
ssg63
g2207
sg56
(lp2214
S'2'
asbasbasbag49
(g65
g51
NtRp2215
(dp2216
g54
(dp2217
sg63
g2199
sg56
(lp2218
g49
(g70
g51
NtRp2219
(dp2220
g54
(dp2221
sg63
g2215
sg56
(lp2222
g49
(g50
g51
NtRp2223
(dp2224
g54
(dp2225
g62
I3
ssg63
g2219
sg56
(lp2226
S'2'
asbasbasbag49
(g65
g51
NtRp2227
(dp2228
g54
(dp2229
sg63
g2199
sg56
(lp2230
g49
(g70
g51
NtRp2231
(dp2232
g54
(dp2233
sg63
g2227
sg56
(lp2234
g49
(g50
g51
NtRp2235
(dp2236
g54
(dp2237
g62
I3
ssg63
g2231
sg56
(lp2238
S'1'
asbasbasbag49
(g65
g51
NtRp2239
(dp2240
g54
(dp2241
sg63
g2199
sg56
(lp2242
g49
(g70
g51
NtRp2243
(dp2244
g54
(dp2245
sg63
g2239
sg56
(lp2246
g49
(g50
g51
NtRp2247
(dp2248
g54
(dp2249
g62
I3
ssg63
g2243
sg56
(lp2250
S'datetime.datetime(2012, 10, 21, 16, 57, 4)'
p2251
asbasbasbag49
(g65
g51
NtRp2252
(dp2253
g54
(dp2254
sg63
g2199
sg56
(lp2255
g49
(g70
g51
NtRp2256
(dp2257
g54
(dp2258
sg63
g2252
sg56
(lp2259
g49
(g50
g51
NtRp2260
(dp2261
g54
(dp2262
g62
I3
ssg63
g2256
sg56
(lp2263
g1590
asbasbasbasbasbasbasbasbasbasbasbag49
(g65
g51
NtRp2264
(dp2265
g54
(dp2266
sg63
g59
sg56
(lp2267
g49
(g70
g51
NtRp2268
(dp2269
g54
(dp2270
g74
g75
ssg63
g2264
sg56
(lp2271
S'is_https'
p2272
asbag49
(g70
g51
NtRp2273
(dp2274
g54
(dp2275
g81
g82
ssg63
g2264
sg56
(lp2276
S':'
asbag49
(g70
g51
NtRp2277
(dp2278
g54
(dp2279
sg63
g2264
sg56
(lp2280
g49
(g50
g51
NtRp2281
(dp2282
g54
(dp2283
g62
I5
ssg63
g2277
sg56
(lp2284
g92
asbasbasbag49
(g65
g51
NtRp2285
(dp2286
g54
(dp2287
sg63
g59
sg56
(lp2288
g49
(g70
g51
NtRp2289
(dp2290
g54
(dp2291
g74
g75
ssg63
g2285
sg56
(lp2292
S'is_local'
p2293
asbag49
(g70
g51
NtRp2294
(dp2295
g54
(dp2296
g81
g82
ssg63
g2285
sg56
(lp2297
S':'
asbag49
(g70
g51
NtRp2298
(dp2299
g54
(dp2300
sg63
g2285
sg56
(lp2301
g49
(g50
g51
NtRp2302
(dp2303
g54
(dp2304
g62
I5
ssg63
g2298
sg56
(lp2305
g1699
asbasbasbag49
(g65
g51
NtRp2306
(dp2307
g54
(dp2308
sg63
g59
sg56
(lp2309
g49
(g70
g51
NtRp2310
(dp2311
g54
(dp2312
g74
g75
ssg63
g2306
sg56
(lp2313
S'is_restful'
p2314
asbag49
(g70
g51
NtRp2315
(dp2316
g54
(dp2317
g81
g82
ssg63
g2306
sg56
(lp2318
S':'
asbag49
(g70
g51
NtRp2319
(dp2320
g54
(dp2321
sg63
g2306
sg56
(lp2322
g49
(g50
g51
NtRp2323
(dp2324
g54
(dp2325
g62
I5
ssg63
g2319
sg56
(lp2326
g92
asbasbasbag49
(g65
g51
NtRp2327
(dp2328
g54
(dp2329
sg63
g59
sg56
(lp2330
g49
(g70
g51
NtRp2331
(dp2332
g54
(dp2333
g74
g75
ssg63
g2327
sg56
(lp2334
S'now'
p2335
asbag49
(g70
g51
NtRp2336
(dp2337
g54
(dp2338
g81
g82
ssg63
g2327
sg56
(lp2339
S':'
asbag49
(g70
g51
NtRp2340
(dp2341
g54
(dp2342
sg63
g2327
sg56
(lp2343
g49
(g50
g51
NtRp2344
(dp2345
g54
(dp2346
g62
I5
ssg63
g2340
sg56
(lp2347
S'datetime.datetime(2014, 4, 8, 13, 21, 2, 928334)'
p2348
asbasbasbag49
(g65
g51
NtRp2349
(dp2350
g54
(dp2351
sg63
g59
sg56
(lp2352
g49
(g70
g51
NtRp2353
(dp2354
g54
(dp2355
g74
g75
ssg63
g2349
sg56
(lp2356
S'post_vars'
p2357
asbag49
(g70
g51
NtRp2358
(dp2359
g54
(dp2360
g81
g82
ssg63
g2349
sg56
(lp2361
S':'
asbag49
(g70
g51
NtRp2362
(dp2363
g54
(dp2364
sg63
g2349
sg56
(lp2365
g49
(g50
g51
NtRp2366
(dp2367
g54
(dp2368
g62
I5
ssg63
g2362
sg56
(lp2369
g49
(g58
g51
NtRp2370
(dp2371
g54
(dp2372
g62
I4
ssg63
Nsg56
(lp2373
sbasbasbasbag49
(g65
g51
NtRp2374
(dp2375
g54
(dp2376
sg63
g59
sg56
(lp2377
g49
(g70
g51
NtRp2378
(dp2379
g54
(dp2380
g74
g75
ssg63
g2374
sg56
(lp2381
S'raw_args'
p2382
asbag49
(g70
g51
NtRp2383
(dp2384
g54
(dp2385
g81
g82
ssg63
g2374
sg56
(lp2386
S':'
asbag49
(g70
g51
NtRp2387
(dp2388
g54
(dp2389
sg63
g2374
sg56
(lp2390
g49
(g50
g51
NtRp2391
(dp2392
g54
(dp2393
g62
I5
ssg63
g2387
sg56
(lp2394
S''
asbasbasbag49
(g65
g51
NtRp2395
(dp2396
g54
(dp2397
sg63
g59
sg56
(lp2398
g49
(g70
g51
NtRp2399
(dp2400
g54
(dp2401
g74
g75
ssg63
g2395
sg56
(lp2402
S'raw_extension'
p2403
asbag49
(g70
g51
NtRp2404
(dp2405
g54
(dp2406
g81
g82
ssg63
g2395
sg56
(lp2407
S':'
asbag49
(g70
g51
NtRp2408
(dp2409
g54
(dp2410
sg63
g2395
sg56
(lp2411
g49
(g50
g51
NtRp2412
(dp2413
g54
(dp2414
g62
I5
ssg63
g2408
sg56
(lp2415
S'None'
p2416
asbasbasbag49
(g65
g51
NtRp2417
(dp2418
g54
(dp2419
sg63
g59
sg56
(lp2420
g49
(g70
g51
NtRp2421
(dp2422
g54
(dp2423
g74
g75
ssg63
g2417
sg56
(lp2424
S'url'
p2425
asbag49
(g70
g51
NtRp2426
(dp2427
g54
(dp2428
g81
g82
ssg63
g2417
sg56
(lp2429
S':'
asbag49
(g70
g51
NtRp2430
(dp2431
g54
(dp2432
sg63
g2417
sg56
(lp2433
g49
(g50
g51
NtRp2434
(dp2435
g54
(dp2436
g62
I5
ssg63
g2430
sg56
(lp2437
g1267
asbasbasbag49
(g65
g51
NtRp2438
(dp2439
g54
(dp2440
sg63
g59
sg56
(lp2441
g49
(g70
g51
NtRp2442
(dp2443
g54
(dp2444
g74
g75
ssg63
g2438
sg56
(lp2445
S'utcnow'
p2446
asbag49
(g70
g51
NtRp2447
(dp2448
g54
(dp2449
g81
g82
ssg63
g2438
sg56
(lp2450
S':'
asbag49
(g70
g51
NtRp2451
(dp2452
g54
(dp2453
sg63
g2438
sg56
(lp2454
g49
(g50
g51
NtRp2455
(dp2456
g54
(dp2457
g62
I5
ssg63
g2451
sg56
(lp2458
S'datetime.datetime(2014, 4, 8, 17, 21, 2, 928345)'
p2459
asbasbasbag49
(g65
g51
NtRp2460
(dp2461
g54
(dp2462
sg63
g59
sg56
(lp2463
g49
(g70
g51
NtRp2464
(dp2465
g54
(dp2466
g74
g75
ssg63
g2460
sg56
(lp2467
S'uuid'
p2468
asbag49
(g70
g51
NtRp2469
(dp2470
g54
(dp2471
g81
g82
ssg63
g2460
sg56
(lp2472
S':'
asbag49
(g70
g51
NtRp2473
(dp2474
g54
(dp2475
sg63
g2460
sg56
(lp2476
g49
(g50
g51
NtRp2477
(dp2478
g54
(dp2479
g62
I5
ssg63
g2473
sg56
(lp2480
S'Final_Impulse/127.0.0.1.2014-04-08.13-21-02.3fd90029-26a1-4461-a23a-6ac4f9f5e9df'
p2481
asbasbasbag49
(g65
g51
NtRp2482
(dp2483
g54
(dp2484
sg63
g59
sg56
(lp2485
g49
(g70
g51
NtRp2486
(dp2487
g54
(dp2488
g74
g75
ssg63
g2482
sg56
(lp2489
S'vars'
p2490
asbag49
(g70
g51
NtRp2491
(dp2492
g54
(dp2493
g81
g82
ssg63
g2482
sg56
(lp2494
S':'
asbag49
(g70
g51
NtRp2495
(dp2496
g54
(dp2497
sg63
g2482
sg56
(lp2498
g49
(g50
g51
NtRp2499
(dp2500
g54
(dp2501
g62
I5
ssg63
g2495
sg56
(lp2502
g49
(g58
g51
NtRp2503
(dp2504
g54
(dp2505
g62
I4
ssg63
Nsg56
(lp2506
sbasbasbasbag49
(g65
g51
NtRp2507
(dp2508
g54
(dp2509
sg63
g59
sg56
(lp2510
g49
(g70
g51
NtRp2511
(dp2512
g54
(dp2513
g74
g75
ssg63
g2507
sg56
(lp2514
S'wsgi'
p2515
asbag49
(g70
g51
NtRp2516
(dp2517
g54
(dp2518
g81
g82
ssg63
g2507
sg56
(lp2519
S':'
asbag49
(g70
g51
NtRp2520
(dp2521
g54
(dp2522
sg63
g2507
sg56
(lp2523
g49
(g50
g51
NtRp2524
(dp2525
g54
(dp2526
g62
I5
ssg63
g2520
sg56
(lp2527
g49
(g58
g51
NtRp2528
(dp2529
g54
(dp2530
g62
I4
ssg63
Nsg56
(lp2531
g49
(g65
g51
NtRp2532
(dp2533
g54
(dp2534
sg63
g2528
sg56
(lp2535
g49
(g70
g51
NtRp2536
(dp2537
g54
(dp2538
g74
g75
ssg63
g2532
sg56
(lp2539
S'environ'
p2540
asbag49
(g70
g51
NtRp2541
(dp2542
g54
(dp2543
g81
g82
ssg63
g2532
sg56
(lp2544
S':'
asbag49
(g70
g51
NtRp2545
(dp2546
g54
(dp2547
sg63
g2532
sg56
(lp2548
g49
(g50
g51
NtRp2549
(dp2550
g54
(dp2551
g62
I4
ssg63
g2545
sg56
(lp2552
g49
(g58
g51
NtRp2553
(dp2554
g54
(dp2555
g62
I3
ssg63
Nsg56
(lp2556
g49
(g65
g51
NtRp2557
(dp2558
g54
(dp2559
sg63
g2553
sg56
(lp2560
g49
(g70
g51
NtRp2561
(dp2562
g54
(dp2563
g74
g75
ssg63
g2557
sg56
(lp2564
S'HTTP_ACCEPT'
p2565
asbag49
(g70
g51
NtRp2566
(dp2567
g54
(dp2568
g81
g82
ssg63
g2557
sg56
(lp2569
S':'
asbag49
(g70
g51
NtRp2570
(dp2571
g54
(dp2572
sg63
g2557
sg56
(lp2573
g49
(g50
g51
NtRp2574
(dp2575
g54
(dp2576
g62
I3
ssg63
g2570
sg56
(lp2577
g959
asbasbasbag49
(g65
g51
NtRp2578
(dp2579
g54
(dp2580
sg63
g2553
sg56
(lp2581
g49
(g70
g51
NtRp2582
(dp2583
g54
(dp2584
g74
g75
ssg63
g2578
sg56
(lp2585
S'HTTP_ACCEPT_ENCODING'
p2586
asbag49
(g70
g51
NtRp2587
(dp2588
g54
(dp2589
g81
g82
ssg63
g2578
sg56
(lp2590
S':'
asbag49
(g70
g51
NtRp2591
(dp2592
g54
(dp2593
sg63
g2578
sg56
(lp2594
g49
(g50
g51
NtRp2595
(dp2596
g54
(dp2597
g62
I3
ssg63
g2591
sg56
(lp2598
g981
asbasbasbag49
(g65
g51
NtRp2599
(dp2600
g54
(dp2601
sg63
g2553
sg56
(lp2602
g49
(g70
g51
NtRp2603
(dp2604
g54
(dp2605
g74
g75
ssg63
g2599
sg56
(lp2606
S'HTTP_ACCEPT_LANGUAGE'
p2607
asbag49
(g70
g51
NtRp2608
(dp2609
g54
(dp2610
g81
g82
ssg63
g2599
sg56
(lp2611
S':'
asbag49
(g70
g51
NtRp2612
(dp2613
g54
(dp2614
sg63
g2599
sg56
(lp2615
g49
(g50
g51
NtRp2616
(dp2617
g54
(dp2618
g62
I3
ssg63
g2612
sg56
(lp2619
g1003
asbasbasbag49
(g65
g51
NtRp2620
(dp2621
g54
(dp2622
sg63
g2553
sg56
(lp2623
g49
(g70
g51
NtRp2624
(dp2625
g54
(dp2626
g74
g75
ssg63
g2620
sg56
(lp2627
S'HTTP_CONNECTION'
p2628
asbag49
(g70
g51
NtRp2629
(dp2630
g54
(dp2631
g81
g82
ssg63
g2620
sg56
(lp2632
S':'
asbag49
(g70
g51
NtRp2633
(dp2634
g54
(dp2635
sg63
g2620
sg56
(lp2636
g49
(g50
g51
NtRp2637
(dp2638
g54
(dp2639
g62
I3
ssg63
g2633
sg56
(lp2640
g1025
asbasbasbag49
(g65
g51
NtRp2641
(dp2642
g54
(dp2643
sg63
g2553
sg56
(lp2644
g49
(g70
g51
NtRp2645
(dp2646
g54
(dp2647
g74
g75
ssg63
g2641
sg56
(lp2648
S'HTTP_COOKIE'
p2649
asbag49
(g70
g51
NtRp2650
(dp2651
g54
(dp2652
g81
g82
ssg63
g2641
sg56
(lp2653
S':'
asbag49
(g70
g51
NtRp2654
(dp2655
g54
(dp2656
sg63
g2641
sg56
(lp2657
g49
(g50
g51
NtRp2658
(dp2659
g54
(dp2660
g62
I3
ssg63
g2654
sg56
(lp2661
g1047
asbasbasbag49
(g65
g51
NtRp2662
(dp2663
g54
(dp2664
sg63
g2553
sg56
(lp2665
g49
(g70
g51
NtRp2666
(dp2667
g54
(dp2668
g74
g75
ssg63
g2662
sg56
(lp2669
S'HTTP_HOST'
p2670
asbag49
(g70
g51
NtRp2671
(dp2672
g54
(dp2673
g81
g82
ssg63
g2662
sg56
(lp2674
S':'
asbag49
(g70
g51
NtRp2675
(dp2676
g54
(dp2677
sg63
g2662
sg56
(lp2678
g49
(g50
g51
NtRp2679
(dp2680
g54
(dp2681
g62
I3
ssg63
g2675
sg56
(lp2682
g1069
asbasbasbag49
(g65
g51
NtRp2683
(dp2684
g54
(dp2685
sg63
g2553
sg56
(lp2686
g49
(g70
g51
NtRp2687
(dp2688
g54
(dp2689
g74
g75
ssg63
g2683
sg56
(lp2690
S'HTTP_REFERER'
p2691
asbag49
(g70
g51
NtRp2692
(dp2693
g54
(dp2694
g81
g82
ssg63
g2683
sg56
(lp2695
S':'
asbag49
(g70
g51
NtRp2696
(dp2697
g54
(dp2698
sg63
g2683
sg56
(lp2699
g49
(g50
g51
NtRp2700
(dp2701
g54
(dp2702
g62
I3
ssg63
g2696
sg56
(lp2703
g1091
asbasbasbag49
(g65
g51
NtRp2704
(dp2705
g54
(dp2706
sg63
g2553
sg56
(lp2707
g49
(g70
g51
NtRp2708
(dp2709
g54
(dp2710
g74
g75
ssg63
g2704
sg56
(lp2711
S'HTTP_USER_AGENT'
p2712
asbag49
(g70
g51
NtRp2713
(dp2714
g54
(dp2715
g81
g82
ssg63
g2704
sg56
(lp2716
S':'
asbag49
(g70
g51
NtRp2717
(dp2718
g54
(dp2719
sg63
g2704
sg56
(lp2720
g49
(g50
g51
NtRp2721
(dp2722
g54
(dp2723
g62
I3
ssg63
g2717
sg56
(lp2724
g1113
asbasbasbag49
(g65
g51
NtRp2725
(dp2726
g54
(dp2727
sg63
g2553
sg56
(lp2728
g49
(g70
g51
NtRp2729
(dp2730
g54
(dp2731
g74
g75
ssg63
g2725
sg56
(lp2732
S'PATH_INFO'
p2733
asbag49
(g70
g51
NtRp2734
(dp2735
g54
(dp2736
g81
g82
ssg63
g2725
sg56
(lp2737
S':'
asbag49
(g70
g51
NtRp2738
(dp2739
g54
(dp2740
sg63
g2725
sg56
(lp2741
g49
(g50
g51
NtRp2742
(dp2743
g54
(dp2744
g62
I3
ssg63
g2738
sg56
(lp2745
g1267
asbasbasbag49
(g65
g51
NtRp2746
(dp2747
g54
(dp2748
sg63
g2553
sg56
(lp2749
g49
(g70
g51
NtRp2750
(dp2751
g54
(dp2752
g74
g75
ssg63
g2746
sg56
(lp2753
S'QUERY_STRING'
p2754
asbag49
(g70
g51
NtRp2755
(dp2756
g54
(dp2757
g81
g82
ssg63
g2746
sg56
(lp2758
S':'
asbag49
(g70
g51
NtRp2759
(dp2760
g54
(dp2761
sg63
g2746
sg56
(lp2762
g49
(g50
g51
NtRp2763
(dp2764
g54
(dp2765
g62
I3
ssg63
g2759
sg56
(lp2766
S''
asbasbasbag49
(g65
g51
NtRp2767
(dp2768
g54
(dp2769
sg63
g2553
sg56
(lp2770
g49
(g70
g51
NtRp2771
(dp2772
g54
(dp2773
g74
g75
ssg63
g2767
sg56
(lp2774
S'REMOTE_ADDR'
p2775
asbag49
(g70
g51
NtRp2776
(dp2777
g54
(dp2778
g81
g82
ssg63
g2767
sg56
(lp2779
S':'
asbag49
(g70
g51
NtRp2780
(dp2781
g54
(dp2782
sg63
g2767
sg56
(lp2783
g49
(g50
g51
NtRp2784
(dp2785
g54
(dp2786
g62
I3
ssg63
g2780
sg56
(lp2787
g204
asbasbasbag49
(g65
g51
NtRp2788
(dp2789
g54
(dp2790
sg63
g2553
sg56
(lp2791
g49
(g70
g51
NtRp2792
(dp2793
g54
(dp2794
g74
g75
ssg63
g2788
sg56
(lp2795
S'REMOTE_PORT'
p2796
asbag49
(g70
g51
NtRp2797
(dp2798
g54
(dp2799
g81
g82
ssg63
g2788
sg56
(lp2800
S':'
asbag49
(g70
g51
NtRp2801
(dp2802
g54
(dp2803
sg63
g2788
sg56
(lp2804
g49
(g50
g51
NtRp2805
(dp2806
g54
(dp2807
g62
I3
ssg63
g2801
sg56
(lp2808
g1331
asbasbasbag49
(g65
g51
NtRp2809
(dp2810
g54
(dp2811
sg63
g2553
sg56
(lp2812
g49
(g70
g51
NtRp2813
(dp2814
g54
(dp2815
g74
g75
ssg63
g2809
sg56
(lp2816
S'REQUEST_METHOD'
p2817
asbag49
(g70
g51
NtRp2818
(dp2819
g54
(dp2820
g81
g82
ssg63
g2809
sg56
(lp2821
S':'
asbag49
(g70
g51
NtRp2822
(dp2823
g54
(dp2824
sg63
g2809
sg56
(lp2825
g49
(g50
g51
NtRp2826
(dp2827
g54
(dp2828
g62
I3
ssg63
g2822
sg56
(lp2829
g1353
asbasbasbag49
(g65
g51
NtRp2830
(dp2831
g54
(dp2832
sg63
g2553
sg56
(lp2833
g49
(g70
g51
NtRp2834
(dp2835
g54
(dp2836
g74
g75
ssg63
g2830
sg56
(lp2837
S'REQUEST_URI'
p2838
asbag49
(g70
g51
NtRp2839
(dp2840
g54
(dp2841
g81
g82
ssg63
g2830
sg56
(lp2842
S':'
asbag49
(g70
g51
NtRp2843
(dp2844
g54
(dp2845
sg63
g2830
sg56
(lp2846
g49
(g50
g51
NtRp2847
(dp2848
g54
(dp2849
g62
I3
ssg63
g2843
sg56
(lp2850
g1267
asbasbasbag49
(g65
g51
NtRp2851
(dp2852
g54
(dp2853
sg63
g2553
sg56
(lp2854
g49
(g70
g51
NtRp2855
(dp2856
g54
(dp2857
g74
g75
ssg63
g2851
sg56
(lp2858
S'SCRIPT_NAME'
p2859
asbag49
(g70
g51
NtRp2860
(dp2861
g54
(dp2862
g81
g82
ssg63
g2851
sg56
(lp2863
S':'
asbag49
(g70
g51
NtRp2864
(dp2865
g54
(dp2866
sg63
g2851
sg56
(lp2867
g49
(g50
g51
NtRp2868
(dp2869
g54
(dp2870
g62
I3
ssg63
g2864
sg56
(lp2871
S''
asbasbasbag49
(g65
g51
NtRp2872
(dp2873
g54
(dp2874
sg63
g2553
sg56
(lp2875
g49
(g70
g51
NtRp2876
(dp2877
g54
(dp2878
g74
g75
ssg63
g2872
sg56
(lp2879
S'SERVER_NAME'
p2880
asbag49
(g70
g51
NtRp2881
(dp2882
g54
(dp2883
g81
g82
ssg63
g2872
sg56
(lp2884
S':'
asbag49
(g70
g51
NtRp2885
(dp2886
g54
(dp2887
sg63
g2872
sg56
(lp2888
g49
(g50
g51
NtRp2889
(dp2890
g54
(dp2891
g62
I3
ssg63
g2885
sg56
(lp2892
g1232
asbasbasbag49
(g65
g51
NtRp2893
(dp2894
g54
(dp2895
sg63
g2553
sg56
(lp2896
g49
(g70
g51
NtRp2897
(dp2898
g54
(dp2899
g74
g75
ssg63
g2893
sg56
(lp2900
S'SERVER_PORT'
p2901
asbag49
(g70
g51
NtRp2902
(dp2903
g54
(dp2904
g81
g82
ssg63
g2893
sg56
(lp2905
S':'
asbag49
(g70
g51
NtRp2906
(dp2907
g54
(dp2908
sg63
g2893
sg56
(lp2909
g49
(g50
g51
NtRp2910
(dp2911
g54
(dp2912
g62
I3
ssg63
g2906
sg56
(lp2913
g1438
asbasbasbag49
(g65
g51
NtRp2914
(dp2915
g54
(dp2916
sg63
g2553
sg56
(lp2917
g49
(g70
g51
NtRp2918
(dp2919
g54
(dp2920
g74
g75
ssg63
g2914
sg56
(lp2921
S'SERVER_PROTOCOL'
p2922
asbag49
(g70
g51
NtRp2923
(dp2924
g54
(dp2925
g81
g82
ssg63
g2914
sg56
(lp2926
S':'
asbag49
(g70
g51
NtRp2927
(dp2928
g54
(dp2929
sg63
g2914
sg56
(lp2930
g49
(g50
g51
NtRp2931
(dp2932
g54
(dp2933
g62
I3
ssg63
g2927
sg56
(lp2934
g1460
asbasbasbag49
(g65
g51
NtRp2935
(dp2936
g54
(dp2937
sg63
g2553
sg56
(lp2938
g49
(g70
g51
NtRp2939
(dp2940
g54
(dp2941
g74
g75
ssg63
g2935
sg56
(lp2942
S'SERVER_SOFTWARE'
p2943
asbag49
(g70
g51
NtRp2944
(dp2945
g54
(dp2946
g81
g82
ssg63
g2935
sg56
(lp2947
S':'
asbag49
(g70
g51
NtRp2948
(dp2949
g54
(dp2950
sg63
g2935
sg56
(lp2951
g49
(g50
g51
NtRp2952
(dp2953
g54
(dp2954
g62
I3
ssg63
g2948
sg56
(lp2955
g1482
asbasbasbag49
(g65
g51
NtRp2956
(dp2957
g54
(dp2958
sg63
g2553
sg56
(lp2959
g49
(g70
g51
NtRp2960
(dp2961
g54
(dp2962
g74
g75
ssg63
g2956
sg56
(lp2963
S'wsgi.errors'
p2964
asbag49
(g70
g51
NtRp2965
(dp2966
g54
(dp2967
g81
g82
ssg63
g2956
sg56
(lp2968
S':'
asbag49
(g70
g51
NtRp2969
(dp2970
g54
(dp2971
sg63
g2956
sg56
(lp2972
g49
(g50
g51
NtRp2973
(dp2974
g54
(dp2975
g62
I3
ssg63
g2969
sg56
(lp2976
S"<open file '<stderr>', mode 'w' at 0x540b0>"
p2977
asbasbasbag49
(g65
g51
NtRp2978
(dp2979
g54
(dp2980
sg63
g2553
sg56
(lp2981
g49
(g70
g51
NtRp2982
(dp2983
g54
(dp2984
g74
g75
ssg63
g2978
sg56
(lp2985
S'wsgi.file_wrapper'
p2986
asbag49
(g70
g51
NtRp2987
(dp2988
g54
(dp2989
g81
g82
ssg63
g2978
sg56
(lp2990
S':'
asbag49
(g70
g51
NtRp2991
(dp2992
g54
(dp2993
sg63
g2978
sg56
(lp2994
g49
(g50
g51
NtRp2995
(dp2996
g54
(dp2997
g62
I3
ssg63
g2991
sg56
(lp2998
S'<class wsgiref.util.FileWrapper at 0x44002d0>'
p2999
asbasbasbag49
(g65
g51
NtRp3000
(dp3001
g54
(dp3002
sg63
g2553
sg56
(lp3003
g49
(g70
g51
NtRp3004
(dp3005
g54
(dp3006
g74
g75
ssg63
g3000
sg56
(lp3007
S'wsgi.input'
p3008
asbag49
(g70
g51
NtRp3009
(dp3010
g54
(dp3011
g81
g82
ssg63
g3000
sg56
(lp3012
S':'
asbag49
(g70
g51
NtRp3013
(dp3014
g54
(dp3015
sg63
g3000
sg56
(lp3016
g49
(g50
g51
NtRp3017
(dp3018
g54
(dp3019
g62
I3
ssg63
g3013
sg56
(lp3020
S'<cStringIO.StringO object at 0x8954480>'
p3021
asbasbasbag49
(g65
g51
NtRp3022
(dp3023
g54
(dp3024
sg63
g2553
sg56
(lp3025
g49
(g70
g51
NtRp3026
(dp3027
g54
(dp3028
g74
g75
ssg63
g3022
sg56
(lp3029
S'wsgi.multiprocess'
p3030
asbag49
(g70
g51
NtRp3031
(dp3032
g54
(dp3033
g81
g82
ssg63
g3022
sg56
(lp3034
S':'
asbag49
(g70
g51
NtRp3035
(dp3036
g54
(dp3037
sg63
g3022
sg56
(lp3038
g49
(g50
g51
NtRp3039
(dp3040
g54
(dp3041
g62
I3
ssg63
g3035
sg56
(lp3042
g92
asbasbasbag49
(g65
g51
NtRp3043
(dp3044
g54
(dp3045
sg63
g2553
sg56
(lp3046
g49
(g70
g51
NtRp3047
(dp3048
g54
(dp3049
g74
g75
ssg63
g3043
sg56
(lp3050
S'wsgi.multithread'
p3051
asbag49
(g70
g51
NtRp3052
(dp3053
g54
(dp3054
g81
g82
ssg63
g3043
sg56
(lp3055
S':'
asbag49
(g70
g51
NtRp3056
(dp3057
g54
(dp3058
sg63
g3043
sg56
(lp3059
g49
(g50
g51
NtRp3060
(dp3061
g54
(dp3062
g62
I3
ssg63
g3056
sg56
(lp3063
g1699
asbasbasbag49
(g65
g51
NtRp3064
(dp3065
g54
(dp3066
sg63
g2553
sg56
(lp3067
g49
(g70
g51
NtRp3068
(dp3069
g54
(dp3070
g74
g75
ssg63
g3064
sg56
(lp3071
S'wsgi.run_once'
p3072
asbag49
(g70
g51
NtRp3073
(dp3074
g54
(dp3075
g81
g82
ssg63
g3064
sg56
(lp3076
S':'
asbag49
(g70
g51
NtRp3077
(dp3078
g54
(dp3079
sg63
g3064
sg56
(lp3080
g49
(g50
g51
NtRp3081
(dp3082
g54
(dp3083
g62
I3
ssg63
g3077
sg56
(lp3084
g92
asbasbasbag49
(g65
g51
NtRp3085
(dp3086
g54
(dp3087
sg63
g2553
sg56
(lp3088
g49
(g70
g51
NtRp3089
(dp3090
g54
(dp3091
g74
g75
ssg63
g3085
sg56
(lp3092
S'wsgi.url_scheme'
p3093
asbag49
(g70
g51
NtRp3094
(dp3095
g54
(dp3096
g81
g82
ssg63
g3085
sg56
(lp3097
S':'
asbag49
(g70
g51
NtRp3098
(dp3099
g54
(dp3100
sg63
g3085
sg56
(lp3101
g49
(g50
g51
NtRp3102
(dp3103
g54
(dp3104
g62
I3
ssg63
g3098
sg56
(lp3105
g1742
asbasbasbag49
(g65
g51
NtRp3106
(dp3107
g54
(dp3108
sg63
g2553
sg56
(lp3109
g49
(g70
g51
NtRp3110
(dp3111
g54
(dp3112
g74
g75
ssg63
g3106
sg56
(lp3113
S'wsgi.version'
p3114
asbag49
(g70
g51
NtRp3115
(dp3116
g54
(dp3117
g81
g82
ssg63
g3106
sg56
(lp3118
S':'
asbag49
(g70
g51
NtRp3119
(dp3120
g54
(dp3121
sg63
g3106
sg56
(lp3122
g49
(g50
g51
NtRp3123
(dp3124
g54
(dp3125
g62
I3
ssg63
g3119
sg56
(lp3126
S'1'
asbasbasbasbasbasbasbasbasbasbasbasbasbsS'frames'
p3127
(lp3128
(dp3129
S'file'
p3130
S'/Users/abaric/Downloads/web2py/web2py.app/Contents/Resources/gluon/restricted.py'
p3131
sS'dump'
p3132
(dp3133
sS'lnum'
p3134
I212
sS'lines'
p3135
(dp3136
sS'call'
p3137
S'(code=r"response.write(\'<!DOCTYPE html>\\n<!-- paulirish.... 5px #349C01 solid; }\\n</style>\\n\', escape=False)", environment={\'A\': <class \'gluon.html.A\'>, \'Auth\': <class \'gluon.tools.Auth\'>, \'B\': <class \'gluon.html.B\'>, \'BEAUTIFY\': <class \'gluon.html.BEAUTIFY\'>, \'BODY\': <class \'gluon.html.BODY\'>, \'BR\': <class \'gluon.html.BR\'>, \'BUTTON\': <class \'gluon.html.BUTTON\'>, \'CAT\': <class \'gluon.html.CAT\'>, \'CENTER\': <class \'gluon.html.CENTER\'>, \'CLEANUP\': <class \'gluon.validators.CLEANUP\'>, ...}, layer=\'/Users/abaric/Downloads/web2py/web2py.app/Conten..._Impulse/views/default/show_writing_comments.html\')'
p3138
sS'func'
p3139
S'restricted'
p3140
sa(dp3141
g3130
S'/Users/abaric/Downloads/web2py/web2py.app/Contents/Resources/applications/Final_Impulse/views/default/show_writing_comments.html'
p3142
sg3132
(dp3143
sg3134
I93
sg3135
(dp3144
I96
S"    response.write('\\n    ', escape=False)"
p3145
sI97
S'    pass'
p3146
sI98
S"response.write(' \\n    \\n</table>\\n', escape=False)"
p3147
sI99
S"response.write('\\n            ', escape=False)"
p3148
sI100
S"response.write('\\n        </div>\\n\\n        ', escape=False)"
p3149
sI101
S'if right_sidebar_enabled:'
p3150
sI102
S'    response.write(\'\\n        <div class="span3">\\n            \', escape=False)'
p3151
sI103
S"    response.write('\\n            <h3>Right Sidebar</h3>\\n            <p></p>\\n            ', escape=False)"
p3152
sI84
S"    response.write('</center></td>\\n        \\n    </tr>\\n    \\n        ', escape=False)"
p3153
sI85
S'    if len(d[writing.id]):'
p3154
sI86
S'        response.write("\\n        <tr>\\n        <td>\\n        <table width=\'100%\'>\\n            ", escape=False)'
p3155
sI87
S'        for t in d[writing.id]:'
p3156
sI88
S"            response.write('\\n                        <tr>\\n                       \\n                            <td><center>', escape=False)"
p3157
sI89
S'            response.write(("%s says, \'%s\'")%(t[0],t[1]))'
p3158
sI90
S"            response.write('</center></td>\\n                        \\t\\n                        </tr>\\n            ', escape=False)"
p3159
sI91
S'            pass'
p3160
sI92
S'        response.write(\'\\n    \\n        </table>\\n               <tr>\\n          \\t\\t\\t<form enctype="multipart/form-data" action="\', escape=False)'
p3161
sI93
S"        response.write(URL('insert_rec',args=(student.student.id,course.id)))"
p3162
sI94
S'        response.write(\'" method="post"> \\n                 \\n              \\t\\t<td><input name="seq" type="text"></td>\\n               \\n                 \\t<td><input formmethod="post" name="recform" type="submit"><br></td>\\n          </form>\\n    \\t</tr>\\n        </td>\\n        </tr>\\n\\n         \', escape=False)'
p3163
sI95
S'        pass'
p3164
ssg3137
S'()'
p3165
sg3139
S'<module>'
p3166
sasS'pyver'
p3167
S'Python 2.5.1: /Users/abaric/Downloads/web2py/web2py.app/Contents/MacOS/python'
p3168
sS'session'
p3169
g49
(g50
g51
NtRp3170
(dp3171
g54
(dp3172
sg56
(lp3173
g49
(g58
g51
NtRp3174
(dp3175
g54
(dp3176
g62
I5
ssg63
Nsg56
(lp3177
sbasbsS'etype'
p3178
S"<type 'exceptions.NameError'>"
p3179
sS'date'
p3180
S'Tue Apr  8 13:21:02 2014'
p3181
sS'response'
p3182
g49
(g50
g51
NtRp3183
(dp3184
g54
(dp3185
sg56
(lp3186
g49
(g58
g51
NtRp3187
(dp3188
g54
(dp3189
g62
I5
ssg63
Nsg56
(lp3190
g49
(g65
g51
NtRp3191
(dp3192
g54
(dp3193
sg63
g3187
sg56
(lp3194
g49
(g70
g51
NtRp3195
(dp3196
g54
(dp3197
g74
g75
ssg63
g3191
sg56
(lp3198
g147
asbag49
(g70
g51
NtRp3199
(dp3200
g54
(dp3201
g81
g82
ssg63
g3191
sg56
(lp3202
S':'
asbag49
(g70
g51
NtRp3203
(dp3204
g54
(dp3205
sg63
g3191
sg56
(lp3206
g49
(g50
g51
NtRp3207
(dp3208
g54
(dp3209
g62
I5
ssg63
g3203
sg56
(lp3210
S'<cStringIO.StringO object at 0x8954700>'
p3211
asbasbasbag49
(g65
g51
NtRp3212
(dp3213
g54
(dp3214
sg63
g3187
sg56
(lp3215
g49
(g70
g51
NtRp3216
(dp3217
g54
(dp3218
g74
g75
ssg63
g3212
sg56
(lp3219
g235
asbag49
(g70
g51
NtRp3220
(dp3221
g54
(dp3222
g81
g82
ssg63
g3212
sg56
(lp3223
S':'
asbag49
(g70
g51
NtRp3224
(dp3225
g54
(dp3226
sg63
g3212
sg56
(lp3227
g49
(g50
g51
NtRp3228
(dp3229
g54
(dp3230
g62
I5
ssg63
g3224
sg56
(lp3231
g49
(g58
g51
NtRp3232
(dp3233
g54
(dp3234
g62
I4
ssg63
Nsg56
(lp3235
g49
(g65
g51
NtRp3236
(dp3237
g54
(dp3238
sg63
g3232
sg56
(lp3239
g49
(g70
g51
NtRp3240
(dp3241
g54
(dp3242
g74
g75
ssg63
g3236
sg56
(lp3243
S'session_id_final_impulse'
p3244
asbag49
(g70
g51
NtRp3245
(dp3246
g54
(dp3247
g81
g82
ssg63
g3236
sg56
(lp3248
S':'
asbag49
(g70
g51
NtRp3249
(dp3250
g54
(dp3251
sg63
g3236
sg56
(lp3252
g49
(g50
g51
NtRp3253
(dp3254
g54
(dp3255
g62
I4
ssg63
g3249
sg56
(lp3256
g446
ag49
(g58
g51
NtRp3257
(dp3258
g54
(dp3259
g62
I3
ssg63
Nsg56
(lp3260
g49
(g65
g51
NtRp3261
(dp3262
g54
(dp3263
sg63
g3257
sg56
(lp3264
g49
(g70
g51
NtRp3265
(dp3266
g54
(dp3267
g74
g75
ssg63
g3261
sg56
(lp3268
g286
asbag49
(g70
g51
NtRp3269
(dp3270
g54
(dp3271
g81
g82
ssg63
g3261
sg56
(lp3272
S':'
asbag49
(g70
g51
NtRp3273
(dp3274
g54
(dp3275
sg63
g3261
sg56
(lp3276
g49
(g50
g51
NtRp3277
(dp3278
g54
(dp3279
g62
I3
ssg63
g3273
sg56
(lp3280
S''
asbasbasbag49
(g65
g51
NtRp3281
(dp3282
g54
(dp3283
sg63
g3257
sg56
(lp3284
g49
(g70
g51
NtRp3285
(dp3286
g54
(dp3287
g74
g75
ssg63
g3281
sg56
(lp3288
g307
asbag49
(g70
g51
NtRp3289
(dp3290
g54
(dp3291
g81
g82
ssg63
g3281
sg56
(lp3292
S':'
asbag49
(g70
g51
NtRp3293
(dp3294
g54
(dp3295
sg63
g3281
sg56
(lp3296
g49
(g50
g51
NtRp3297
(dp3298
g54
(dp3299
g62
I3
ssg63
g3293
sg56
(lp3300
S''
asbasbasbag49
(g65
g51
NtRp3301
(dp3302
g54
(dp3303
sg63
g3257
sg56
(lp3304
g49
(g70
g51
NtRp3305
(dp3306
g54
(dp3307
g74
g75
ssg63
g3301
sg56
(lp3308
g328
asbag49
(g70
g51
NtRp3309
(dp3310
g54
(dp3311
g81
g82
ssg63
g3301
sg56
(lp3312
S':'
asbag49
(g70
g51
NtRp3313
(dp3314
g54
(dp3315
sg63
g3301
sg56
(lp3316
g49
(g50
g51
NtRp3317
(dp3318
g54
(dp3319
g62
I3
ssg63
g3313
sg56
(lp3320
S''
asbasbasbag49
(g65
g51
NtRp3321
(dp3322
g54
(dp3323
sg63
g3257
sg56
(lp3324
g49
(g70
g51
NtRp3325
(dp3326
g54
(dp3327
g74
g75
ssg63
g3321
sg56
(lp3328
g349
asbag49
(g70
g51
NtRp3329
(dp3330
g54
(dp3331
g81
g82
ssg63
g3321
sg56
(lp3332
S':'
asbag49
(g70
g51
NtRp3333
(dp3334
g54
(dp3335
sg63
g3321
sg56
(lp3336
g49
(g50
g51
NtRp3337
(dp3338
g54
(dp3339
g62
I3
ssg63
g3333
sg56
(lp3340
S''
asbasbasbag49
(g65
g51
NtRp3341
(dp3342
g54
(dp3343
sg63
g3257
sg56
(lp3344
g49
(g70
g51
NtRp3345
(dp3346
g54
(dp3347
g74
g75
ssg63
g3341
sg56
(lp3348
g370
asbag49
(g70
g51
NtRp3349
(dp3350
g54
(dp3351
g81
g82
ssg63
g3341
sg56
(lp3352
S':'
asbag49
(g70
g51
NtRp3353
(dp3354
g54
(dp3355
sg63
g3341
sg56
(lp3356
g49
(g50
g51
NtRp3357
(dp3358
g54
(dp3359
g62
I3
ssg63
g3353
sg56
(lp3360
S'/'
asbasbasbag49
(g65
g51
NtRp3361
(dp3362
g54
(dp3363
sg63
g3257
sg56
(lp3364
g49
(g70
g51
NtRp3365
(dp3366
g54
(dp3367
g74
g75
ssg63
g3361
sg56
(lp3368
g391
asbag49
(g70
g51
NtRp3369
(dp3370
g54
(dp3371
g81
g82
ssg63
g3361
sg56
(lp3372
S':'
asbag49
(g70
g51
NtRp3373
(dp3374
g54
(dp3375
sg63
g3361
sg56
(lp3376
g49
(g50
g51
NtRp3377
(dp3378
g54
(dp3379
g62
I3
ssg63
g3373
sg56
(lp3380
S''
asbasbasbag49
(g65
g51
NtRp3381
(dp3382
g54
(dp3383
sg63
g3257
sg56
(lp3384
g49
(g70
g51
NtRp3385
(dp3386
g54
(dp3387
g74
g75
ssg63
g3381
sg56
(lp3388
g412
asbag49
(g70
g51
NtRp3389
(dp3390
g54
(dp3391
g81
g82
ssg63
g3381
sg56
(lp3392
S':'
asbag49
(g70
g51
NtRp3393
(dp3394
g54
(dp3395
sg63
g3381
sg56
(lp3396
g49
(g50
g51
NtRp3397
(dp3398
g54
(dp3399
g62
I3
ssg63
g3393
sg56
(lp3400
S''
asbasbasbasbasbasbasbasbasbasbasbag49
(g65
g51
NtRp3401
(dp3402
g54
(dp3403
sg63
g3187
sg56
(lp3404
g49
(g70
g51
NtRp3405
(dp3406
g54
(dp3407
g74
g75
ssg63
g3401
sg56
(lp3408
S'delimiters'
p3409
asbag49
(g70
g51
NtRp3410
(dp3411
g54
(dp3412
g81
g82
ssg63
g3401
sg56
(lp3413
S':'
asbag49
(g70
g51
NtRp3414
(dp3415
g54
(dp3416
sg63
g3401
sg56
(lp3417
g49
(g50
g51
NtRp3418
(dp3419
g54
(dp3420
g62
I5
ssg63
g3414
sg56
(lp3421
g49
(g58
g51
NtRp3422
(dp3423
g54
(dp3424
g62
I4
ssg63
Nsg56
(lp3425
g49
(g65
g51
NtRp3426
(dp3427
g54
(dp3428
sg63
g3422
sg56
(lp3429
g49
(g70
g51
NtRp3430
(dp3431
g54
(dp3432
sg63
g3426
sg56
(lp3433
g49
(g50
g51
NtRp3434
(dp3435
g54
(dp3436
g62
I4
ssg63
g3430
sg56
(lp3437
S'{{'
p3438
asbasbasbag49
(g65
g51
NtRp3439
(dp3440
g54
(dp3441
sg63
g3422
sg56
(lp3442
g49
(g70
g51
NtRp3443
(dp3444
g54
(dp3445
sg63
g3439
sg56
(lp3446
g49
(g50
g51
NtRp3447
(dp3448
g54
(dp3449
g62
I4
ssg63
g3443
sg56
(lp3450
S'}}'
p3451
asbasbasbasbasbasbasbag49
(g65
g51
NtRp3452
(dp3453
g54
(dp3454
sg63
g3187
sg56
(lp3455
g49
(g70
g51
NtRp3456
(dp3457
g54
(dp3458
g74
g75
ssg63
g3452
sg56
(lp3459
S'files'
p3460
asbag49
(g70
g51
NtRp3461
(dp3462
g54
(dp3463
g81
g82
ssg63
g3452
sg56
(lp3464
S':'
asbag49
(g70
g51
NtRp3465
(dp3466
g54
(dp3467
sg63
g3452
sg56
(lp3468
g49
(g50
g51
NtRp3469
(dp3470
g54
(dp3471
g62
I5
ssg63
g3465
sg56
(lp3472
g49
(g58
g51
NtRp3473
(dp3474
g54
(dp3475
g62
I4
ssg63
Nsg56
(lp3476
g49
(g65
g51
NtRp3477
(dp3478
g54
(dp3479
sg63
g3473
sg56
(lp3480
g49
(g70
g51
NtRp3481
(dp3482
g54
(dp3483
sg63
g3477
sg56
(lp3484
g49
(g50
g51
NtRp3485
(dp3486
g54
(dp3487
g62
I4
ssg63
g3481
sg56
(lp3488
S'/Final_Impulse/static/js/jquery.js'
p3489
asbasbasbag49
(g65
g51
NtRp3490
(dp3491
g54
(dp3492
sg63
g3473
sg56
(lp3493
g49
(g70
g51
NtRp3494
(dp3495
g54
(dp3496
sg63
g3490
sg56
(lp3497
g49
(g50
g51
NtRp3498
(dp3499
g54
(dp3500
g62
I4
ssg63
g3494
sg56
(lp3501
S'/Final_Impulse/static/css/calendar.css'
p3502
asbasbasbag49
(g65
g51
NtRp3503
(dp3504
g54
(dp3505
sg63
g3473
sg56
(lp3506
g49
(g70
g51
NtRp3507
(dp3508
g54
(dp3509
sg63
g3503
sg56
(lp3510
g49
(g50
g51
NtRp3511
(dp3512
g54
(dp3513
g62
I4
ssg63
g3507
sg56
(lp3514
S'/Final_Impulse/static/js/calendar.js'
p3515
asbasbasbag49
(g65
g51
NtRp3516
(dp3517
g54
(dp3518
sg63
g3473
sg56
(lp3519
g49
(g70
g51
NtRp3520
(dp3521
g54
(dp3522
sg63
g3516
sg56
(lp3523
g49
(g50
g51
NtRp3524
(dp3525
g54
(dp3526
g62
I4
ssg63
g3520
sg56
(lp3527
S'/Final_Impulse/static/js/web2py.js'
p3528
asbasbasbag49
(g65
g51
NtRp3529
(dp3530
g54
(dp3531
sg63
g3473
sg56
(lp3532
g49
(g70
g51
NtRp3533
(dp3534
g54
(dp3535
sg63
g3529
sg56
(lp3536
g49
(g50
g51
NtRp3537
(dp3538
g54
(dp3539
g62
I4
ssg63
g3533
sg56
(lp3540
S'/Final_Impulse/static/css/web2py.css'
p3541
asbasbasbag49
(g65
g51
NtRp3542
(dp3543
g54
(dp3544
sg63
g3473
sg56
(lp3545
g49
(g70
g51
NtRp3546
(dp3547
g54
(dp3548
sg63
g3542
sg56
(lp3549
g49
(g50
g51
NtRp3550
(dp3551
g54
(dp3552
g62
I4
ssg63
g3546
sg56
(lp3553
S'/Final_Impulse/static/css/bootstrap.min.css'
p3554
asbasbasbag49
(g65
g51
NtRp3555
(dp3556
g54
(dp3557
sg63
g3473
sg56
(lp3558
g49
(g70
g51
NtRp3559
(dp3560
g54
(dp3561
sg63
g3555
sg56
(lp3562
g49
(g50
g51
NtRp3563
(dp3564
g54
(dp3565
g62
I4
ssg63
g3559
sg56
(lp3566
S'/Final_Impulse/static/css/bootstrap-responsive.min.css'
p3567
asbasbasbag49
(g65
g51
NtRp3568
(dp3569
g54
(dp3570
sg63
g3473
sg56
(lp3571
g49
(g70
g51
NtRp3572
(dp3573
g54
(dp3574
sg63
g3568
sg56
(lp3575
g49
(g50
g51
NtRp3576
(dp3577
g54
(dp3578
g62
I4
ssg63
g3572
sg56
(lp3579
S'/Final_Impulse/static/css/web2py_bootstrap.css'
p3580
asbasbasbasbasbasbasbag49
(g65
g51
NtRp3581
(dp3582
g54
(dp3583
sg63
g3187
sg56
(lp3584
g49
(g70
g51
NtRp3585
(dp3586
g54
(dp3587
g74
g75
ssg63
g3581
sg56
(lp3588
S'flash'
p3589
asbag49
(g70
g51
NtRp3590
(dp3591
g54
(dp3592
g81
g82
ssg63
g3581
sg56
(lp3593
S':'
asbag49
(g70
g51
NtRp3594
(dp3595
g54
(dp3596
sg63
g3581
sg56
(lp3597
g49
(g50
g51
NtRp3598
(dp3599
g54
(dp3600
g62
I5
ssg63
g3594
sg56
(lp3601
S''
asbasbasbag49
(g65
g51
NtRp3602
(dp3603
g54
(dp3604
sg63
g3187
sg56
(lp3605
g49
(g70
g51
NtRp3606
(dp3607
g54
(dp3608
g74
g75
ssg63
g3602
sg56
(lp3609
S'generic_patterns'
p3610
asbag49
(g70
g51
NtRp3611
(dp3612
g54
(dp3613
g81
g82
ssg63
g3602
sg56
(lp3614
S':'
asbag49
(g70
g51
NtRp3615
(dp3616
g54
(dp3617
sg63
g3602
sg56
(lp3618
g49
(g50
g51
NtRp3619
(dp3620
g54
(dp3621
g62
I5
ssg63
g3615
sg56
(lp3622
g49
(g58
g51
NtRp3623
(dp3624
g54
(dp3625
g62
I4
ssg63
Nsg56
(lp3626
sbasbasbasbag49
(g65
g51
NtRp3627
(dp3628
g54
(dp3629
sg63
g3187
sg56
(lp3630
g49
(g70
g51
NtRp3631
(dp3632
g54
(dp3633
g74
g75
ssg63
g3627
sg56
(lp3634
S'google_analytics_id'
p3635
asbag49
(g70
g51
NtRp3636
(dp3637
g54
(dp3638
g81
g82
ssg63
g3627
sg56
(lp3639
S':'
asbag49
(g70
g51
NtRp3640
(dp3641
g54
(dp3642
sg63
g3627
sg56
(lp3643
g49
(g50
g51
NtRp3644
(dp3645
g54
(dp3646
g62
I5
ssg63
g3640
sg56
(lp3647
S'None'
p3648
asbasbasbag49
(g65
g51
NtRp3649
(dp3650
g54
(dp3651
sg63
g3187
sg56
(lp3652
g49
(g70
g51
NtRp3653
(dp3654
g54
(dp3655
g74
g75
ssg63
g3649
sg56
(lp3656
S'headers'
p3657
asbag49
(g70
g51
NtRp3658
(dp3659
g54
(dp3660
g81
g82
ssg63
g3649
sg56
(lp3661
S':'
asbag49
(g70
g51
NtRp3662
(dp3663
g54
(dp3664
sg63
g3649
sg56
(lp3665
g49
(g50
g51
NtRp3666
(dp3667
g54
(dp3668
g62
I5
ssg63
g3662
sg56
(lp3669
g49
(g58
g51
NtRp3670
(dp3671
g54
(dp3672
g62
I4
ssg63
Nsg56
(lp3673
g49
(g65
g51
NtRp3674
(dp3675
g54
(dp3676
sg63
g3670
sg56
(lp3677
g49
(g70
g51
NtRp3678
(dp3679
g54
(dp3680
g74
g75
ssg63
g3674
sg56
(lp3681
S'X-Powered-By'
p3682
asbag49
(g70
g51
NtRp3683
(dp3684
g54
(dp3685
g81
g82
ssg63
g3674
sg56
(lp3686
S':'
asbag49
(g70
g51
NtRp3687
(dp3688
g54
(dp3689
sg63
g3674
sg56
(lp3690
g49
(g50
g51
NtRp3691
(dp3692
g54
(dp3693
g62
I4
ssg63
g3687
sg56
(lp3694
S'web2py'
p3695
asbasbasbasbasbasbasbag49
(g65
g51
NtRp3696
(dp3697
g54
(dp3698
sg63
g3187
sg56
(lp3699
g49
(g70
g51
NtRp3700
(dp3701
g54
(dp3702
g74
g75
ssg63
g3696
sg56
(lp3703
S'menu'
p3704
asbag49
(g70
g51
NtRp3705
(dp3706
g54
(dp3707
g81
g82
ssg63
g3696
sg56
(lp3708
S':'
asbag49
(g70
g51
NtRp3709
(dp3710
g54
(dp3711
sg63
g3696
sg56
(lp3712
g49
(g50
g51
NtRp3713
(dp3714
g54
(dp3715
g62
I5
ssg63
g3709
sg56
(lp3716
g49
(g58
g51
NtRp3717
(dp3718
g54
(dp3719
g62
I4
ssg63
Nsg56
(lp3720
g49
(g65
g51
NtRp3721
(dp3722
g54
(dp3723
sg63
g3717
sg56
(lp3724
g49
(g70
g51
NtRp3725
(dp3726
g54
(dp3727
sg63
g3721
sg56
(lp3728
g49
(g50
g51
NtRp3729
(dp3730
g54
(dp3731
g62
I4
ssg63
g3725
sg56
(lp3732
g49
(g58
g51
NtRp3733
(dp3734
g54
(dp3735
g62
I3
ssg63
Nsg56
(lp3736
g49
(g65
g51
NtRp3737
(dp3738
g54
(dp3739
sg63
g3733
sg56
(lp3740
g49
(g70
g51
NtRp3741
(dp3742
g54
(dp3743
sg63
g3737
sg56
(lp3744
g49
(g50
g51
NtRp3745
(dp3746
g54
(dp3747
g62
I3
ssg63
g3741
sg56
(lp3748
cgluon.languages
lazyT_unpickle
p3749
(S't\x04\x00\x00\x00Home'
tRp3750
asbasbasbag49
(g65
g51
NtRp3751
(dp3752
g54
(dp3753
sg63
g3733
sg56
(lp3754
g49
(g70
g51
NtRp3755
(dp3756
g54
(dp3757
sg63
g3751
sg56
(lp3758
g49
(g50
g51
NtRp3759
(dp3760
g54
(dp3761
g62
I3
ssg63
g3755
sg56
(lp3762
g92
asbasbasbag49
(g65
g51
NtRp3763
(dp3764
g54
(dp3765
sg63
g3733
sg56
(lp3766
g49
(g70
g51
NtRp3767
(dp3768
g54
(dp3769
sg63
g3763
sg56
(lp3770
g49
(g50
g51
NtRp3771
(dp3772
g54
(dp3773
g62
I3
ssg63
g3767
sg56
(lp3774
S'/Final_Impulse/default/index'
p3775
asbasbasbag49
(g65
g51
NtRp3776
(dp3777
g54
(dp3778
sg63
g3733
sg56
(lp3779
g49
(g70
g51
NtRp3780
(dp3781
g54
(dp3782
sg63
g3776
sg56
(lp3783
g49
(g50
g51
NtRp3784
(dp3785
g54
(dp3786
g62
I3
ssg63
g3780
sg56
(lp3787
g49
(g58
g51
NtRp3788
(dp3789
g54
(dp3790
g62
I2
ssg63
Nsg56
(lp3791
sbasbasbasbasbasbasbasbag49
(g65
g51
NtRp3792
(dp3793
g54
(dp3794
sg63
g3717
sg56
(lp3795
g49
(g70
g51
NtRp3796
(dp3797
g54
(dp3798
sg63
g3792
sg56
(lp3799
g49
(g50
g51
NtRp3800
(dp3801
g54
(dp3802
g62
I4
ssg63
g3796
sg56
(lp3803
g49
(g58
g51
NtRp3804
(dp3805
g54
(dp3806
g62
I3
ssg63
Nsg56
(lp3807
g49
(g65
g51
NtRp3808
(dp3809
g54
(dp3810
sg63
g3804
sg56
(lp3811
g49
(g70
g51
NtRp3812
(dp3813
g54
(dp3814
sg63
g3808
sg56
(lp3815
g49
(g50
g51
NtRp3816
(dp3817
g54
(dp3818
g62
I3
ssg63
g3812
sg56
(lp3819
g49
(cgluon.html
SPAN
p3820
g51
NtRp3821
(dp3822
g54
(dp3823
S'_class'
p3824
S'highlighted'
p3825
ssg63
g49
(cgluon.html
A
p3826
g51
NtRp3827
(dp3828
g54
(dp3829
S'_href'
p3830
S'http://web2py.com'
p3831
ssg63
g49
(cgluon.html
LI
p3832
g51
NtRp3833
(dp3834
g54
(dp3835
g3824
S'dropdown'
p3836
ssg63
g49
(cgluon.html
UL
p3837
g51
NtRp3838
(dp3839
g54
(dp3840
S'li_class'
p3841
g3836
sS'mobile'
p3842
I00
sg3824
S'nav'
p3843
sS'ul_class'
p3844
S'dropdown-menu'
p3845
sS'li_active'
p3846
S'web2py-menu-active'
p3847
ssg63
Nsg56
(lp3848
g49
(g3832
g51
NtRp3849
(dp3850
g54
(dp3851
sg63
g3838
sg56
(lp3852
g49
(g3826
g51
NtRp3853
(dp3854
g54
(dp3855
g3830
g3775
ssg63
g3849
sg56
(lp3856
g3750
asbasbag3833
asbsg56
(lp3857
g3827
ag49
(g3837
g51
NtRp3858
(dp3859
g54
(dp3860
g3824
g3845
ssg63
g3833
sg56
(lp3861
g49
(g3832
g51
NtRp3862
(dp3863
g54
(dp3864
sg63
g3858
sg56
(lp3865
g49
(g3826
g51
NtRp3866
(dp3867
g54
(dp3868
g3830
S'/admin/default/site'
p3869
ssg63
g3862
sg56
(lp3870
g3749
(S's\x08\x00\x00\x00My Sites'
tRp3871
asbasbag49
(g3832
g51
NtRp3872
(dp3873
g54
(dp3874
g3824
g3836
ssg63
g3858
sg56
(lp3875
g49
(g3826
g51
NtRp3876
(dp3877
g54
(dp3878
g3830
S'/admin/default/design/Final_Impulse'
p3879
ssg63
g3872
sg56
(lp3880
g3749
(S's\x08\x00\x00\x00This App'
tRp3881
asbag49
(g3837
g51
NtRp3882
(dp3883
g54
(dp3884
g3824
g3845
ssg63
g3872
sg56
(lp3885
g49
(g3832
g51
NtRp3886
(dp3887
g54
(dp3888
sg63
g3882
sg56
(lp3889
g49
(g3826
g51
NtRp3890
(dp3891
g54
(dp3892
g3830
S'/admin/default/edit/Final_Impulse/controllers/default.py'
p3893
ssg63
g3886
sg56
(lp3894
g3749
(S't\n\x00\x00\x00Controller'
tRp3895
asbasbag49
(g3832
g51
NtRp3896
(dp3897
g54
(dp3898
sg63
g3882
sg56
(lp3899
g49
(g3826
g51
NtRp3900
(dp3901
g54
(dp3902
g3830
S'/admin/default/edit/Final_Impulse/views/default/show_writing_comments.html'
p3903
ssg63
g3896
sg56
(lp3904
g3749
(S't\x04\x00\x00\x00View'
tRp3905
asbasbag49
(g3832
g51
NtRp3906
(dp3907
g54
(dp3908
sg63
g3882
sg56
(lp3909
g49
(g3826
g51
NtRp3910
(dp3911
g54
(dp3912
g3830
S'/admin/default/edit/Final_Impulse/views/layout.html'
p3913
ssg63
g3906
sg56
(lp3914
g3749
(S't\x06\x00\x00\x00Layout'
tRp3915
asbasbag49
(g3832
g51
NtRp3916
(dp3917
g54
(dp3918
sg63
g3882
sg56
(lp3919
g49
(g3826
g51
NtRp3920
(dp3921
g54
(dp3922
g3830
S'/admin/default/edit/Final_Impulse/static/css/web2py.css'
p3923
ssg63
g3916
sg56
(lp3924
g3749
(S't\n\x00\x00\x00Stylesheet'
tRp3925
asbasbag49
(g3832
g51
NtRp3926
(dp3927
g54
(dp3928
sg63
g3882
sg56
(lp3929
g49
(g3826
g51
NtRp3930
(dp3931
g54
(dp3932
g3830
S'/admin/default/edit/Final_Impulse/models/db.py'
p3933
ssg63
g3926
sg56
(lp3934
g3749
(S's\x08\x00\x00\x00DB Model'
tRp3935
asbasbag49
(g3832
g51
NtRp3936
(dp3937
g54
(dp3938
sg63
g3882
sg56
(lp3939
g49
(g3826
g51
NtRp3940
(dp3941
g54
(dp3942
g3830
S'/admin/default/edit/Final_Impulse/models/menu.py'
p3943
ssg63
g3936
sg56
(lp3944
g3749
(S's\n\x00\x00\x00Menu Model'
tRp3945
asbasbag49
(g3832
g51
NtRp3946
(dp3947
g54
(dp3948
sg63
g3882
sg56
(lp3949
g49
(g3826
g51
NtRp3950
(dp3951
g54
(dp3952
g3830
S'/Final_Impulse/appadmin/index'
p3953
ssg63
g3946
sg56
(lp3954
g3749
(S't\x08\x00\x00\x00Database'
tRp3955
asbasbag49
(g3832
g51
NtRp3956
(dp3957
g54
(dp3958
sg63
g3882
sg56
(lp3959
g49
(g3826
g51
NtRp3960
(dp3961
g54
(dp3962
g3830
S'/admin/default/errors/Final_Impulse'
p3963
ssg63
g3956
sg56
(lp3964
g3749
(S't\x06\x00\x00\x00Errors'
tRp3965
asbasbag49
(g3832
g51
NtRp3966
(dp3967
g54
(dp3968
sg63
g3882
sg56
(lp3969
g49
(g3826
g51
NtRp3970
(dp3971
g54
(dp3972
g3830
S'/admin/default/about/Final_Impulse'
p3973
ssg63
g3966
sg56
(lp3974
g3749
(S't\x05\x00\x00\x00About'
tRp3975
asbasbasbasbag49
(g3832
g51
NtRp3976
(dp3977
g54
(dp3978
g3824
g3836
ssg63
g3858
sg56
(lp3979
g49
(g3826
g51
NtRp3980
(dp3981
g54
(dp3982
g3830
S'http://www.web2py.com'
p3983
ssg63
g3976
sg56
(lp3984
S'web2py.com'
p3985
asbag49
(g3837
g51
NtRp3986
(dp3987
g54
(dp3988
g3824
g3845
ssg63
g3976
sg56
(lp3989
g49
(g3832
g51
NtRp3990
(dp3991
g54
(dp3992
sg63
g3986
sg56
(lp3993
g49
(g3826
g51
NtRp3994
(dp3995
g54
(dp3996
g3830
S'http://www.web2py.com/examples/default/download'
p3997
ssg63
g3990
sg56
(lp3998
g3749
(S't\x08\x00\x00\x00Download'
tRp3999
asbasbag49
(g3832
g51
NtRp4000
(dp4001
g54
(dp4002
sg63
g3986
sg56
(lp4003
g49
(g3826
g51
NtRp4004
(dp4005
g54
(dp4006
g3830
S'http://www.web2py.com/examples/default/support'
p4007
ssg63
g4000
sg56
(lp4008
g3749
(S't\x07\x00\x00\x00Support'
tRp4009
asbasbag49
(g3832
g51
NtRp4010
(dp4011
g54
(dp4012
sg63
g3986
sg56
(lp4013
g49
(g3826
g51
NtRp4014
(dp4015
g54
(dp4016
g3830
S'http://web2py.com/demo_admin'
p4017
ssg63
g4010
sg56
(lp4018
g3749
(S't\x04\x00\x00\x00Demo'
tRp4019
asbasbag49
(g3832
g51
NtRp4020
(dp4021
g54
(dp4022
sg63
g3986
sg56
(lp4023
g49
(g3826
g51
NtRp4024
(dp4025
g54
(dp4026
g3830
S'http://web2py.com/examples/default/examples'
p4027
ssg63
g4020
sg56
(lp4028
g3749
(S's\x0e\x00\x00\x00Quick Examples'
tRp4029
asbasbag49
(g3832
g51
NtRp4030
(dp4031
g54
(dp4032
sg63
g3986
sg56
(lp4033
g49
(g3826
g51
NtRp4034
(dp4035
g54
(dp4036
g3830
S'http://web2py.com/AlterEgo'
p4037
ssg63
g4030
sg56
(lp4038
g3749
(S't\x03\x00\x00\x00FAQ'
tRp4039
asbasbag49
(g3832
g51
NtRp4040
(dp4041
g54
(dp4042
sg63
g3986
sg56
(lp4043
g49
(g3826
g51
NtRp4044
(dp4045
g54
(dp4046
g3830
S'http://www.web2py.com/examples/default/videos/'
p4047
ssg63
g4040
sg56
(lp4048
g3749
(S't\x06\x00\x00\x00Videos'
tRp4049
asbasbag49
(g3832
g51
NtRp4050
(dp4051
g54
(dp4052
sg63
g3986
sg56
(lp4053
g49
(g3826
g51
NtRp4054
(dp4055
g54
(dp4056
g3830
S'http://web2py.com/appliances'
p4057
ssg63
g4050
sg56
(lp4058
g3749
(S's\x11\x00\x00\x00Free Applications'
tRp4059
asbasbag49
(g3832
g51
NtRp4060
(dp4061
g54
(dp4062
sg63
g3986
sg56
(lp4063
g49
(g3826
g51
NtRp4064
(dp4065
g54
(dp4066
g3830
S'http://web2py.com/plugins'
p4067
ssg63
g4060
sg56
(lp4068
g3749
(S't\x07\x00\x00\x00Plugins'
tRp4069
asbasbag49
(g3832
g51
NtRp4070
(dp4071
g54
(dp4072
sg63
g3986
sg56
(lp4073
g49
(g3826
g51
NtRp4074
(dp4075
g54
(dp4076
g3830
S'http://web2py.com/layouts'
p4077
ssg63
g4070
sg56
(lp4078
g3749
(S't\x07\x00\x00\x00Layouts'
tRp4079
asbasbag49
(g3832
g51
NtRp4080
(dp4081
g54
(dp4082
sg63
g3986
sg56
(lp4083
g49
(g3826
g51
NtRp4084
(dp4085
g54
(dp4086
g3830
S'http://web2pyslices.com/'
p4087
ssg63
g4080
sg56
(lp4088
g3749
(S't\x07\x00\x00\x00Recipes'
tRp4089
asbasbag49
(g3832
g51
NtRp4090
(dp4091
g54
(dp4092
sg63
g3986
sg56
(lp4093
g49
(g3826
g51
NtRp4094
(dp4095
g54
(dp4096
g3830
S'http://web2py.com/semantic'
p4097
ssg63
g4090
sg56
(lp4098
g3749
(S't\x08\x00\x00\x00Semantic'
tRp4099
asbasbasbasbag49
(g3832
g51
NtRp4100
(dp4101
g54
(dp4102
g3824
g3836
ssg63
g3858
sg56
(lp4103
g49
(g3826
g51
NtRp4104
(dp4105
g54
(dp4106
g3830
S'http://www.web2py.com/book'
p4107
ssg63
g4100
sg56
(lp4108
g3749
(S't\r\x00\x00\x00Documentation'
tRp4109
asbag49
(g3837
g51
NtRp4110
(dp4111
g54
(dp4112
g3824
g3845
ssg63
g4100
sg56
(lp4113
g49
(g3832
g51
NtRp4114
(dp4115
g54
(dp4116
sg63
g4110
sg56
(lp4117
g49
(g3826
g51
NtRp4118
(dp4119
g54
(dp4120
g3830
S'http://www.web2py.com/book/default/chapter/00'
p4121
ssg63
g4114
sg56
(lp4122
g3749
(S't\x07\x00\x00\x00Preface'
tRp4123
asbasbag49
(g3832
g51
NtRp4124
(dp4125
g54
(dp4126
sg63
g4110
sg56
(lp4127
g49
(g3826
g51
NtRp4128
(dp4129
g54
(dp4130
g3830
S'http://www.web2py.com/book/default/chapter/01'
p4131
ssg63
g4124
sg56
(lp4132
g3749
(S't\x0c\x00\x00\x00Introduction'
tRp4133
asbasbag49
(g3832
g51
NtRp4134
(dp4135
g54
(dp4136
sg63
g4110
sg56
(lp4137
g49
(g3826
g51
NtRp4138
(dp4139
g54
(dp4140
g3830
S'http://www.web2py.com/book/default/chapter/02'
p4141
ssg63
g4134
sg56
(lp4142
g3749
(S't\x06\x00\x00\x00Python'
tRp4143
asbasbag49
(g3832
g51
NtRp4144
(dp4145
g54
(dp4146
sg63
g4110
sg56
(lp4147
g49
(g3826
g51
NtRp4148
(dp4149
g54
(dp4150
g3830
S'http://www.web2py.com/book/default/chapter/03'
p4151
ssg63
g4144
sg56
(lp4152
g3749
(S't\x08\x00\x00\x00Overview'
tRp4153
asbasbag49
(g3832
g51
NtRp4154
(dp4155
g54
(dp4156
sg63
g4110
sg56
(lp4157
g49
(g3826
g51
NtRp4158
(dp4159
g54
(dp4160
g3830
S'http://www.web2py.com/book/default/chapter/04'
p4161
ssg63
g4154
sg56
(lp4162
g3749
(S's\x08\x00\x00\x00The Core'
tRp4163
asbasbag49
(g3832
g51
NtRp4164
(dp4165
g54
(dp4166
sg63
g4110
sg56
(lp4167
g49
(g3826
g51
NtRp4168
(dp4169
g54
(dp4170
g3830
S'http://www.web2py.com/book/default/chapter/05'
p4171
ssg63
g4164
sg56
(lp4172
g3749
(S's\t\x00\x00\x00The Views'
tRp4173
asbasbag49
(g3832
g51
NtRp4174
(dp4175
g54
(dp4176
sg63
g4110
sg56
(lp4177
g49
(g3826
g51
NtRp4178
(dp4179
g54
(dp4180
g3830
S'http://www.web2py.com/book/default/chapter/06'
p4181
ssg63
g4174
sg56
(lp4182
g3749
(S't\x08\x00\x00\x00Database'
tRp4183
asbasbag49
(g3832
g51
NtRp4184
(dp4185
g54
(dp4186
sg63
g4110
sg56
(lp4187
g49
(g3826
g51
NtRp4188
(dp4189
g54
(dp4190
g3830
S'http://www.web2py.com/book/default/chapter/07'
p4191
ssg63
g4184
sg56
(lp4192
g3749
(S's\x14\x00\x00\x00Forms and Validators'
tRp4193
asbasbag49
(g3832
g51
NtRp4194
(dp4195
g54
(dp4196
sg63
g4110
sg56
(lp4197
g49
(g3826
g51
NtRp4198
(dp4199
g54
(dp4200
g3830
S'http://www.web2py.com/book/default/chapter/08'
p4201
ssg63
g4194
sg56
(lp4202
g3749
(S's\r\x00\x00\x00Email and SMS'
tRp4203
asbasbag49
(g3832
g51
NtRp4204
(dp4205
g54
(dp4206
sg63
g4110
sg56
(lp4207
g49
(g3826
g51
NtRp4208
(dp4209
g54
(dp4210
g3830
S'http://www.web2py.com/book/default/chapter/09'
p4211
ssg63
g4204
sg56
(lp4212
g3749
(S's\x0e\x00\x00\x00Access Control'
tRp4213
asbasbag49
(g3832
g51
NtRp4214
(dp4215
g54
(dp4216
sg63
g4110
sg56
(lp4217
g49
(g3826
g51
NtRp4218
(dp4219
g54
(dp4220
g3830
S'http://www.web2py.com/book/default/chapter/10'
p4221
ssg63
g4214
sg56
(lp4222
g3749
(S't\x08\x00\x00\x00Services'
tRp4223
asbasbag49
(g3832
g51
NtRp4224
(dp4225
g54
(dp4226
sg63
g4110
sg56
(lp4227
g49
(g3826
g51
NtRp4228
(dp4229
g54
(dp4230
g3830
S'http://www.web2py.com/book/default/chapter/11'
p4231
ssg63
g4224
sg56
(lp4232
g3749
(S's\x0c\x00\x00\x00Ajax Recipes'
tRp4233
asbasbag49
(g3832
g51
NtRp4234
(dp4235
g54
(dp4236
sg63
g4110
sg56
(lp4237
g49
(g3826
g51
NtRp4238
(dp4239
g54
(dp4240
g3830
S'http://www.web2py.com/book/default/chapter/12'
p4241
ssg63
g4234
sg56
(lp4242
g3749
(S's\x16\x00\x00\x00Components and Plugins'
tRp4243
asbasbag49
(g3832
g51
NtRp4244
(dp4245
g54
(dp4246
sg63
g4110
sg56
(lp4247
g49
(g3826
g51
NtRp4248
(dp4249
g54
(dp4250
g3830
S'http://www.web2py.com/book/default/chapter/13'
p4251
ssg63
g4244
sg56
(lp4252
g3749
(S's\x12\x00\x00\x00Deployment Recipes'
tRp4253
asbasbag49
(g3832
g51
NtRp4254
(dp4255
g54
(dp4256
sg63
g4110
sg56
(lp4257
g49
(g3826
g51
NtRp4258
(dp4259
g54
(dp4260
g3830
S'http://www.web2py.com/book/default/chapter/14'
p4261
ssg63
g4254
sg56
(lp4262
g3749
(S's\r\x00\x00\x00Other Recipes'
tRp4263
asbasbag49
(g3832
g51
NtRp4264
(dp4265
g54
(dp4266
sg63
g4110
sg56
(lp4267
g49
(g3826
g51
NtRp4268
(dp4269
g54
(dp4270
g3830
S'http://stores.lulu.com/web2py'
p4271
ssg63
g4264
sg56
(lp4272
g3749
(S's\r\x00\x00\x00Buy this book'
tRp4273
asbasbasbasbag49
(g3832
g51
NtRp4274
(dp4275
g54
(dp4276
g3824
g3836
ssg63
g3858
sg56
(lp4277
g49
(g3826
g51
NtRp4278
(dp4279
g54
(dp4280
S'_onclick'
p4281
S'javascript:void(0);return false;'
p4282
sg3830
S'#'
ssg63
g4274
sg56
(lp4283
g3749
(S't\t\x00\x00\x00Community'
tRp4284
asbag49
(g3837
g51
NtRp4285
(dp4286
g54
(dp4287
g3824
g3845
ssg63
g4274
sg56
(lp4288
g49
(g3832
g51
NtRp4289
(dp4290
g54
(dp4291
sg63
g4285
sg56
(lp4292
g49
(g3826
g51
NtRp4293
(dp4294
g54
(dp4295
g3830
S'http://www.web2py.com/examples/default/usergroups'
p4296
ssg63
g4289
sg56
(lp4297
g3749
(S't\x06\x00\x00\x00Groups'
tRp4298
asbasbag49
(g3832
g51
NtRp4299
(dp4300
g54
(dp4301
sg63
g4285
sg56
(lp4302
g49
(g3826
g51
NtRp4303
(dp4304
g54
(dp4305
g3830
S'http://twitter.com/web2py'
p4306
ssg63
g4299
sg56
(lp4307
g3749
(S't\x07\x00\x00\x00Twitter'
tRp4308
asbasbag49
(g3832
g51
NtRp4309
(dp4310
g54
(dp4311
sg63
g4285
sg56
(lp4312
g49
(g3826
g51
NtRp4313
(dp4314
g54
(dp4315
g3830
S'http://webchat.freenode.net/?channels=web2py'
p4316
ssg63
g4309
sg56
(lp4317
g3749
(S's\t\x00\x00\x00Live Chat'
tRp4318
asbasbasbasbag49
(g3832
g51
NtRp4319
(dp4320
g54
(dp4321
g3824
g3836
ssg63
g3858
sg56
(lp4322
g49
(g3826
g51
NtRp4323
(dp4324
g54
(dp4325
g4281
g4282
sg3830
S'#'
ssg63
g4319
sg56
(lp4326
g3749
(S't\x07\x00\x00\x00Plugins'
tRp4327
asbag49
(g3837
g51
NtRp4328
(dp4329
g54
(dp4330
g3824
g3845
ssg63
g4319
sg56
(lp4331
g49
(g3832
g51
NtRp4332
(dp4333
g54
(dp4334
sg63
g4328
sg56
(lp4335
g49
(g3826
g51
NtRp4336
(dp4337
g54
(dp4338
g3830
S'http://web2py.com/examples/default/download'
p4339
ssg63
g4332
sg56
(lp4340
S'plugin_wiki'
p4341
asbasbag49
(g3832
g51
NtRp4342
(dp4343
g54
(dp4344
sg63
g4328
sg56
(lp4345
g49
(g3826
g51
NtRp4346
(dp4347
g54
(dp4348
g3830
g4067
ssg63
g4342
sg56
(lp4349
g3749
(S's\r\x00\x00\x00Other Plugins'
tRp4350
asbasbag49
(g3832
g51
NtRp4351
(dp4352
g54
(dp4353
sg63
g4328
sg56
(lp4354
g49
(g3826
g51
NtRp4355
(dp4356
g54
(dp4357
g3830
g4077
ssg63
g4351
sg56
(lp4358
g3749
(S's\x0e\x00\x00\x00Layout Plugins'
tRp4359
asbasbasbasbasbasbsg56
(lp4360
g3821
asbsg56
(lp4361
g3695
asbasbasbasbag49
(g65
g51
NtRp4362
(dp4363
g54
(dp4364
sg63
g3804
sg56
(lp4365
g49
(g70
g51
NtRp4366
(dp4367
g54
(dp4368
sg63
g4362
sg56
(lp4369
g49
(g50
g51
NtRp4370
(dp4371
g54
(dp4372
g62
I3
ssg63
g4366
sg56
(lp4373
g92
asbasbasbag49
(g65
g51
NtRp4374
(dp4375
g54
(dp4376
sg63
g3804
sg56
(lp4377
g49
(g70
g51
NtRp4378
(dp4379
g54
(dp4380
sg63
g4374
sg56
(lp4381
g49
(g50
g51
NtRp4382
(dp4383
g54
(dp4384
g62
I3
ssg63
g4378
sg56
(lp4385
g3831
asbasbasbag49
(g65
g51
NtRp4386
(dp4387
g54
(dp4388
sg63
g3804
sg56
(lp4389
g49
(g70
g51
NtRp4390
(dp4391
g54
(dp4392
sg63
g4386
sg56
(lp4393
g49
(g50
g51
NtRp4394
(dp4395
g54
(dp4396
g62
I3
ssg63
g4390
sg56
(lp4397
g49
(g58
g51
NtRp4398
(dp4399
g54
(dp4400
g62
I2
ssg63
Nsg56
(lp4401
g49
(g65
g51
NtRp4402
(dp4403
g54
(dp4404
sg63
g4398
sg56
(lp4405
g49
(g70
g51
NtRp4406
(dp4407
g54
(dp4408
sg63
g4402
sg56
(lp4409
g49
(g50
g51
NtRp4410
(dp4411
g54
(dp4412
g62
I2
ssg63
g4406
sg56
(lp4413
g49
(g58
g51
NtRp4414
(dp4415
g54
(dp4416
g62
I1
ssg63
Nsg56
(lp4417
g49
(g65
g51
NtRp4418
(dp4419
g54
(dp4420
sg63
g4414
sg56
(lp4421
g49
(g70
g51
NtRp4422
(dp4423
g54
(dp4424
sg63
g4418
sg56
(lp4425
g49
(g50
g51
NtRp4426
(dp4427
g54
(dp4428
g62
I1
ssg63
g4422
sg56
(lp4429
g3871
asbasbasbag49
(g65
g51
NtRp4430
(dp4431
g54
(dp4432
sg63
g4414
sg56
(lp4433
g49
(g70
g51
NtRp4434
(dp4435
g54
(dp4436
sg63
g4430
sg56
(lp4437
g49
(g50
g51
NtRp4438
(dp4439
g54
(dp4440
g62
I1
ssg63
g4434
sg56
(lp4441
I00
asbasbasbag49
(g65
g51
NtRp4442
(dp4443
g54
(dp4444
sg63
g4414
sg56
(lp4445
g49
(g70
g51
NtRp4446
(dp4447
g54
(dp4448
sg63
g4442
sg56
(lp4449
g49
(g50
g51
NtRp4450
(dp4451
g54
(dp4452
g62
I1
ssg63
g4446
sg56
(lp4453
g3869
asbasbasbasbasbasbasbag49
(g65
g51
NtRp4454
(dp4455
g54
(dp4456
sg63
g4398
sg56
(lp4457
g49
(g70
g51
NtRp4458
(dp4459
g54
(dp4460
sg63
g4454
sg56
(lp4461
g49
(g50
g51
NtRp4462
(dp4463
g54
(dp4464
g62
I2
ssg63
g4458
sg56
(lp4465
g49
(g58
g51
NtRp4466
(dp4467
g54
(dp4468
g62
I1
ssg63
Nsg56
(lp4469
g49
(g65
g51
NtRp4470
(dp4471
g54
(dp4472
sg63
g4466
sg56
(lp4473
g49
(g70
g51
NtRp4474
(dp4475
g54
(dp4476
sg63
g4470
sg56
(lp4477
g49
(g50
g51
NtRp4478
(dp4479
g54
(dp4480
g62
I1
ssg63
g4474
sg56
(lp4481
g3881
asbasbasbag49
(g65
g51
NtRp4482
(dp4483
g54
(dp4484
sg63
g4466
sg56
(lp4485
g49
(g70
g51
NtRp4486
(dp4487
g54
(dp4488
sg63
g4482
sg56
(lp4489
g49
(g50
g51
NtRp4490
(dp4491
g54
(dp4492
g62
I1
ssg63
g4486
sg56
(lp4493
I00
asbasbasbag49
(g65
g51
NtRp4494
(dp4495
g54
(dp4496
sg63
g4466
sg56
(lp4497
g49
(g70
g51
NtRp4498
(dp4499
g54
(dp4500
sg63
g4494
sg56
(lp4501
g49
(g50
g51
NtRp4502
(dp4503
g54
(dp4504
g62
I1
ssg63
g4498
sg56
(lp4505
g3879
asbasbasbag49
(g65
g51
NtRp4506
(dp4507
g54
(dp4508
sg63
g4466
sg56
(lp4509
g49
(g70
g51
NtRp4510
(dp4511
g54
(dp4512
sg63
g4506
sg56
(lp4513
g49
(g50
g51
NtRp4514
(dp4515
g54
(dp4516
g62
I1
ssg63
g4510
sg56
(lp4517
(lp4518
(g3895
I00
g3893
tp4519
a(g3905
I00
g3903
tp4520
a(g3915
I00
g3913
tp4521
a(g3925
I00
g3923
tp4522
a(g3935
I00
g3933
tp4523
a(g3945
I00
g3943
tp4524
a(g3955
I00
g3953
tp4525
a(g3965
I00
g3963
tp4526
a(g3975
I00
g3973
tp4527
aasbasbasbasbasbasbasbag49
(g65
g51
NtRp4528
(dp4529
g54
(dp4530
sg63
g4398
sg56
(lp4531
g49
(g70
g51
NtRp4532
(dp4533
g54
(dp4534
sg63
g4528
sg56
(lp4535
g49
(g50
g51
NtRp4536
(dp4537
g54
(dp4538
g62
I2
ssg63
g4532
sg56
(lp4539
g49
(g58
g51
NtRp4540
(dp4541
g54
(dp4542
g62
I1
ssg63
Nsg56
(lp4543
g49
(g65
g51
NtRp4544
(dp4545
g54
(dp4546
sg63
g4540
sg56
(lp4547
g49
(g70
g51
NtRp4548
(dp4549
g54
(dp4550
sg63
g4544
sg56
(lp4551
g49
(g50
g51
NtRp4552
(dp4553
g54
(dp4554
g62
I1
ssg63
g4548
sg56
(lp4555
g3985
asbasbasbag49
(g65
g51
NtRp4556
(dp4557
g54
(dp4558
sg63
g4540
sg56
(lp4559
g49
(g70
g51
NtRp4560
(dp4561
g54
(dp4562
sg63
g4556
sg56
(lp4563
g49
(g50
g51
NtRp4564
(dp4565
g54
(dp4566
g62
I1
ssg63
g4560
sg56
(lp4567
I00
asbasbasbag49
(g65
g51
NtRp4568
(dp4569
g54
(dp4570
sg63
g4540
sg56
(lp4571
g49
(g70
g51
NtRp4572
(dp4573
g54
(dp4574
sg63
g4568
sg56
(lp4575
g49
(g50
g51
NtRp4576
(dp4577
g54
(dp4578
g62
I1
ssg63
g4572
sg56
(lp4579
g3983
asbasbasbag49
(g65
g51
NtRp4580
(dp4581
g54
(dp4582
sg63
g4540
sg56
(lp4583
g49
(g70
g51
NtRp4584
(dp4585
g54
(dp4586
sg63
g4580
sg56
(lp4587
g49
(g50
g51
NtRp4588
(dp4589
g54
(dp4590
g62
I1
ssg63
g4584
sg56
(lp4591
(lp4592
(g3999
I00
g3997
tp4593
a(g4009
I00
g4007
tp4594
a(g4019
I00
g4017
tp4595
a(g4029
I00
g4027
tp4596
a(g4039
I00
g4037
tp4597
a(g4049
I00
g4047
tp4598
a(g4059
I00
g4057
tp4599
a(g4069
I00
g4067
tp4600
a(g4079
I00
g4077
tp4601
a(g4089
I00
g4087
tp4602
a(g4099
I00
g4097
tp4603
aasbasbasbasbasbasbasbag49
(g65
g51
NtRp4604
(dp4605
g54
(dp4606
sg63
g4398
sg56
(lp4607
g49
(g70
g51
NtRp4608
(dp4609
g54
(dp4610
sg63
g4604
sg56
(lp4611
g49
(g50
g51
NtRp4612
(dp4613
g54
(dp4614
g62
I2
ssg63
g4608
sg56
(lp4615
g49
(g58
g51
NtRp4616
(dp4617
g54
(dp4618
g62
I1
ssg63
Nsg56
(lp4619
g49
(g65
g51
NtRp4620
(dp4621
g54
(dp4622
sg63
g4616
sg56
(lp4623
g49
(g70
g51
NtRp4624
(dp4625
g54
(dp4626
sg63
g4620
sg56
(lp4627
g49
(g50
g51
NtRp4628
(dp4629
g54
(dp4630
g62
I1
ssg63
g4624
sg56
(lp4631
g4109
asbasbasbag49
(g65
g51
NtRp4632
(dp4633
g54
(dp4634
sg63
g4616
sg56
(lp4635
g49
(g70
g51
NtRp4636
(dp4637
g54
(dp4638
sg63
g4632
sg56
(lp4639
g49
(g50
g51
NtRp4640
(dp4641
g54
(dp4642
g62
I1
ssg63
g4636
sg56
(lp4643
I00
asbasbasbag49
(g65
g51
NtRp4644
(dp4645
g54
(dp4646
sg63
g4616
sg56
(lp4647
g49
(g70
g51
NtRp4648
(dp4649
g54
(dp4650
sg63
g4644
sg56
(lp4651
g49
(g50
g51
NtRp4652
(dp4653
g54
(dp4654
g62
I1
ssg63
g4648
sg56
(lp4655
g4107
asbasbasbag49
(g65
g51
NtRp4656
(dp4657
g54
(dp4658
sg63
g4616
sg56
(lp4659
g49
(g70
g51
NtRp4660
(dp4661
g54
(dp4662
sg63
g4656
sg56
(lp4663
g49
(g50
g51
NtRp4664
(dp4665
g54
(dp4666
g62
I1
ssg63
g4660
sg56
(lp4667
(lp4668
(g4123
I00
g4121
tp4669
a(g4133
I00
g4131
tp4670
a(g4143
I00
g4141
tp4671
a(g4153
I00
g4151
tp4672
a(g4163
I00
g4161
tp4673
a(g4173
I00
g4171
tp4674
a(g4183
I00
g4181
tp4675
a(g4193
I00
g4191
tp4676
a(g4203
I00
g4201
tp4677
a(g4213
I00
g4211
tp4678
a(g4223
I00
g4221
tp4679
a(g4233
I00
g4231
tp4680
a(g4243
I00
g4241
tp4681
a(g4253
I00
g4251
tp4682
a(g4263
I00
g4261
tp4683
a(g4273
I00
g4271
tp4684
aasbasbasbasbasbasbasbag49
(g65
g51
NtRp4685
(dp4686
g54
(dp4687
sg63
g4398
sg56
(lp4688
g49
(g70
g51
NtRp4689
(dp4690
g54
(dp4691
sg63
g4685
sg56
(lp4692
g49
(g50
g51
NtRp4693
(dp4694
g54
(dp4695
g62
I2
ssg63
g4689
sg56
(lp4696
g49
(g58
g51
NtRp4697
(dp4698
g54
(dp4699
g62
I1
ssg63
Nsg56
(lp4700
g49
(g65
g51
NtRp4701
(dp4702
g54
(dp4703
sg63
g4697
sg56
(lp4704
g49
(g70
g51
NtRp4705
(dp4706
g54
(dp4707
sg63
g4701
sg56
(lp4708
g49
(g50
g51
NtRp4709
(dp4710
g54
(dp4711
g62
I1
ssg63
g4705
sg56
(lp4712
g4284
asbasbasbag49
(g65
g51
NtRp4713
(dp4714
g54
(dp4715
sg63
g4697
sg56
(lp4716
g49
(g70
g51
NtRp4717
(dp4718
g54
(dp4719
sg63
g4713
sg56
(lp4720
g49
(g50
g51
NtRp4721
(dp4722
g54
(dp4723
g62
I1
ssg63
g4717
sg56
(lp4724
I00
asbasbasbag49
(g65
g51
NtRp4725
(dp4726
g54
(dp4727
sg63
g4697
sg56
(lp4728
g49
(g70
g51
NtRp4729
(dp4730
g54
(dp4731
sg63
g4725
sg56
(lp4732
g49
(g50
g51
NtRp4733
(dp4734
g54
(dp4735
g62
I1
ssg63
g4729
sg56
(lp4736
Nasbasbasbag49
(g65
g51
NtRp4737
(dp4738
g54
(dp4739
sg63
g4697
sg56
(lp4740
g49
(g70
g51
NtRp4741
(dp4742
g54
(dp4743
sg63
g4737
sg56
(lp4744
g49
(g50
g51
NtRp4745
(dp4746
g54
(dp4747
g62
I1
ssg63
g4741
sg56
(lp4748
(lp4749
(g4298
I00
g4296
tp4750
a(g4308
I00
g4306
tp4751
a(g4318
I00
g4316
tp4752
aasbasbasbasbasbasbasbag49
(g65
g51
NtRp4753
(dp4754
g54
(dp4755
sg63
g4398
sg56
(lp4756
g49
(g70
g51
NtRp4757
(dp4758
g54
(dp4759
sg63
g4753
sg56
(lp4760
g49
(g50
g51
NtRp4761
(dp4762
g54
(dp4763
g62
I2
ssg63
g4757
sg56
(lp4764
g49
(g58
g51
NtRp4765
(dp4766
g54
(dp4767
g62
I1
ssg63
Nsg56
(lp4768
g49
(g65
g51
NtRp4769
(dp4770
g54
(dp4771
sg63
g4765
sg56
(lp4772
g49
(g70
g51
NtRp4773
(dp4774
g54
(dp4775
sg63
g4769
sg56
(lp4776
g49
(g50
g51
NtRp4777
(dp4778
g54
(dp4779
g62
I1
ssg63
g4773
sg56
(lp4780
g4327
asbasbasbag49
(g65
g51
NtRp4781
(dp4782
g54
(dp4783
sg63
g4765
sg56
(lp4784
g49
(g70
g51
NtRp4785
(dp4786
g54
(dp4787
sg63
g4781
sg56
(lp4788
g49
(g50
g51
NtRp4789
(dp4790
g54
(dp4791
g62
I1
ssg63
g4785
sg56
(lp4792
I00
asbasbasbag49
(g65
g51
NtRp4793
(dp4794
g54
(dp4795
sg63
g4765
sg56
(lp4796
g49
(g70
g51
NtRp4797
(dp4798
g54
(dp4799
sg63
g4793
sg56
(lp4800
g49
(g50
g51
NtRp4801
(dp4802
g54
(dp4803
g62
I1
ssg63
g4797
sg56
(lp4804
Nasbasbasbag49
(g65
g51
NtRp4805
(dp4806
g54
(dp4807
sg63
g4765
sg56
(lp4808
g49
(g70
g51
NtRp4809
(dp4810
g54
(dp4811
sg63
g4805
sg56
(lp4812
g49
(g50
g51
NtRp4813
(dp4814
g54
(dp4815
g62
I1
ssg63
g4809
sg56
(lp4816
(lp4817
(g4341
I00
g4339
tp4818
a(g4350
I00
g4067
tp4819
a(g4359
I00
g4077
tp4820
aasbasbasbasbasbasbasbasbasbasbasbasbasbasbasbasbasbasbasbag49
(g65
g51
NtRp4821
(dp4822
g54
(dp4823
sg63
g3187
sg56
(lp4824
g49
(g70
g51
NtRp4825
(dp4826
g54
(dp4827
g74
g75
ssg63
g4821
sg56
(lp4828
S'meta'
p4829
asbag49
(g70
g51
NtRp4830
(dp4831
g54
(dp4832
g81
g82
ssg63
g4821
sg56
(lp4833
S':'
asbag49
(g70
g51
NtRp4834
(dp4835
g54
(dp4836
sg63
g4821
sg56
(lp4837
g49
(g50
g51
NtRp4838
(dp4839
g54
(dp4840
g62
I5
ssg63
g4834
sg56
(lp4841
g49
(g58
g51
NtRp4842
(dp4843
g54
(dp4844
g62
I4
ssg63
Nsg56
(lp4845
g49
(g65
g51
NtRp4846
(dp4847
g54
(dp4848
sg63
g4842
sg56
(lp4849
g49
(g70
g51
NtRp4850
(dp4851
g54
(dp4852
g74
g75
ssg63
g4846
sg56
(lp4853
S'author'
p4854
asbag49
(g70
g51
NtRp4855
(dp4856
g54
(dp4857
g81
g82
ssg63
g4846
sg56
(lp4858
S':'
asbag49
(g70
g51
NtRp4859
(dp4860
g54
(dp4861
sg63
g4846
sg56
(lp4862
g49
(g50
g51
NtRp4863
(dp4864
g54
(dp4865
g62
I4
ssg63
g4859
sg56
(lp4866
S'Your Name <you@example.com>'
p4867
asbasbasbag49
(g65
g51
NtRp4868
(dp4869
g54
(dp4870
sg63
g4842
sg56
(lp4871
g49
(g70
g51
NtRp4872
(dp4873
g54
(dp4874
g74
g75
ssg63
g4868
sg56
(lp4875
S'description'
p4876
asbag49
(g70
g51
NtRp4877
(dp4878
g54
(dp4879
g81
g82
ssg63
g4868
sg56
(lp4880
S':'
asbag49
(g70
g51
NtRp4881
(dp4882
g54
(dp4883
sg63
g4868
sg56
(lp4884
g49
(g50
g51
NtRp4885
(dp4886
g54
(dp4887
g62
I4
ssg63
g4881
sg56
(lp4888
S'a cool new app'
p4889
asbasbasbag49
(g65
g51
NtRp4890
(dp4891
g54
(dp4892
sg63
g4842
sg56
(lp4893
g49
(g70
g51
NtRp4894
(dp4895
g54
(dp4896
g74
g75
ssg63
g4890
sg56
(lp4897
S'generator'
p4898
asbag49
(g70
g51
NtRp4899
(dp4900
g54
(dp4901
g81
g82
ssg63
g4890
sg56
(lp4902
S':'
asbag49
(g70
g51
NtRp4903
(dp4904
g54
(dp4905
sg63
g4890
sg56
(lp4906
g49
(g50
g51
NtRp4907
(dp4908
g54
(dp4909
g62
I4
ssg63
g4903
sg56
(lp4910
S'Web2py Web Framework'
p4911
asbasbasbag49
(g65
g51
NtRp4912
(dp4913
g54
(dp4914
sg63
g4842
sg56
(lp4915
g49
(g70
g51
NtRp4916
(dp4917
g54
(dp4918
g74
g75
ssg63
g4912
sg56
(lp4919
S'keywords'
p4920
asbag49
(g70
g51
NtRp4921
(dp4922
g54
(dp4923
g81
g82
ssg63
g4912
sg56
(lp4924
S':'
asbag49
(g70
g51
NtRp4925
(dp4926
g54
(dp4927
sg63
g4912
sg56
(lp4928
g49
(g50
g51
NtRp4929
(dp4930
g54
(dp4931
g62
I4
ssg63
g4925
sg56
(lp4932
S'web2py, python, framework'
p4933
asbasbasbasbasbasbasbag49
(g65
g51
NtRp4934
(dp4935
g54
(dp4936
sg63
g3187
sg56
(lp4937
g49
(g70
g51
NtRp4938
(dp4939
g54
(dp4940
g74
g75
ssg63
g4934
sg56
(lp4941
S'models_to_run'
p4942
asbag49
(g70
g51
NtRp4943
(dp4944
g54
(dp4945
g81
g82
ssg63
g4934
sg56
(lp4946
S':'
asbag49
(g70
g51
NtRp4947
(dp4948
g54
(dp4949
sg63
g4934
sg56
(lp4950
g49
(g50
g51
NtRp4951
(dp4952
g54
(dp4953
g62
I5
ssg63
g4947
sg56
(lp4954
g49
(g58
g51
NtRp4955
(dp4956
g54
(dp4957
g62
I4
ssg63
Nsg56
(lp4958
g49
(g65
g51
NtRp4959
(dp4960
g54
(dp4961
sg63
g4955
sg56
(lp4962
g49
(g70
g51
NtRp4963
(dp4964
g54
(dp4965
sg63
g4959
sg56
(lp4966
g49
(g50
g51
NtRp4967
(dp4968
g54
(dp4969
g62
I4
ssg63
g4963
sg56
(lp4970
S'^\\w+\\.py$'
p4971
asbasbasbag49
(g65
g51
NtRp4972
(dp4973
g54
(dp4974
sg63
g4955
sg56
(lp4975
g49
(g70
g51
NtRp4976
(dp4977
g54
(dp4978
sg63
g4972
sg56
(lp4979
g49
(g50
g51
NtRp4980
(dp4981
g54
(dp4982
g62
I4
ssg63
g4976
sg56
(lp4983
S'^default/\\w+\\.py$'
p4984
asbasbasbag49
(g65
g51
NtRp4985
(dp4986
g54
(dp4987
sg63
g4955
sg56
(lp4988
g49
(g70
g51
NtRp4989
(dp4990
g54
(dp4991
sg63
g4985
sg56
(lp4992
g49
(g50
g51
NtRp4993
(dp4994
g54
(dp4995
g62
I4
ssg63
g4989
sg56
(lp4996
S'^default/show_writing_comments/\\w+\\.py$'
p4997
asbasbasbasbasbasbasbag49
(g65
g51
NtRp4998
(dp4999
g54
(dp5000
sg63
g3187
sg56
(lp5001
g49
(g70
g51
NtRp5002
(dp5003
g54
(dp5004
g74
g75
ssg63
g4998
sg56
(lp5005
S'postprocessing'
p5006
asbag49
(g70
g51
NtRp5007
(dp5008
g54
(dp5009
g81
g82
ssg63
g4998
sg56
(lp5010
S':'
asbag49
(g70
g51
NtRp5011
(dp5012
g54
(dp5013
sg63
g4998
sg56
(lp5014
g49
(g50
g51
NtRp5015
(dp5016
g54
(dp5017
g62
I5
ssg63
g5011
sg56
(lp5018
g49
(g58
g51
NtRp5019
(dp5020
g54
(dp5021
g62
I4
ssg63
Nsg56
(lp5022
sbasbasbasbag49
(g65
g51
NtRp5023
(dp5024
g54
(dp5025
sg63
g3187
sg56
(lp5026
g49
(g70
g51
NtRp5027
(dp5028
g54
(dp5029
g74
g75
ssg63
g5023
sg56
(lp5030
S'session_cookie_expires'
p5031
asbag49
(g70
g51
NtRp5032
(dp5033
g54
(dp5034
g81
g82
ssg63
g5023
sg56
(lp5035
S':'
asbag49
(g70
g51
NtRp5036
(dp5037
g54
(dp5038
sg63
g5023
sg56
(lp5039
g49
(g50
g51
NtRp5040
(dp5041
g54
(dp5042
g62
I5
ssg63
g5036
sg56
(lp5043
S'None'
p5044
asbasbasbag49
(g65
g51
NtRp5045
(dp5046
g54
(dp5047
sg63
g3187
sg56
(lp5048
g49
(g70
g51
NtRp5049
(dp5050
g54
(dp5051
g74
g75
ssg63
g5045
sg56
(lp5052
S'session_data_name'
p5053
asbag49
(g70
g51
NtRp5054
(dp5055
g54
(dp5056
g81
g82
ssg63
g5045
sg56
(lp5057
S':'
asbag49
(g70
g51
NtRp5058
(dp5059
g54
(dp5060
sg63
g5045
sg56
(lp5061
g49
(g50
g51
NtRp5062
(dp5063
g54
(dp5064
g62
I5
ssg63
g5058
sg56
(lp5065
S'session_data_final_impulse'
p5066
asbasbasbag49
(g65
g51
NtRp5067
(dp5068
g54
(dp5069
sg63
g3187
sg56
(lp5070
g49
(g70
g51
NtRp5071
(dp5072
g54
(dp5073
g74
g75
ssg63
g5067
sg56
(lp5074
S'session_file'
p5075
asbag49
(g70
g51
NtRp5076
(dp5077
g54
(dp5078
g81
g82
ssg63
g5067
sg56
(lp5079
S':'
asbag49
(g70
g51
NtRp5080
(dp5081
g54
(dp5082
sg63
g5067
sg56
(lp5083
g49
(g50
g51
NtRp5084
(dp5085
g54
(dp5086
g62
I5
ssg63
g5080
sg56
(lp5087
S"<open file '/Users/abaric/Downloads/web2py/web2py.app/Contents/Resources/applications/Final_Impulse/sessions/127.0.0.1-5aceb5e9-2875-4462-b8f1-a71729f93584', mode 'rb+' at 0x8947f08>"
p5088
asbasbasbag49
(g65
g51
NtRp5089
(dp5090
g54
(dp5091
sg63
g3187
sg56
(lp5092
g49
(g70
g51
NtRp5093
(dp5094
g54
(dp5095
g74
g75
ssg63
g5089
sg56
(lp5096
S'session_filename'
p5097
asbag49
(g70
g51
NtRp5098
(dp5099
g54
(dp5100
g81
g82
ssg63
g5089
sg56
(lp5101
S':'
asbag49
(g70
g51
NtRp5102
(dp5103
g54
(dp5104
sg63
g5089
sg56
(lp5105
g49
(g50
g51
NtRp5106
(dp5107
g54
(dp5108
g62
I5
ssg63
g5102
sg56
(lp5109
S'/Users/abaric/Downloads/web2py/web2py.app/Contents/Resources/applications/Final_Impulse/sessions/127.0.0.1-5aceb5e9-2875-4462-b8f1-a71729f93584'
p5110
asbasbasbag49
(g65
g51
NtRp5111
(dp5112
g54
(dp5113
sg63
g3187
sg56
(lp5114
g49
(g70
g51
NtRp5115
(dp5116
g54
(dp5117
g74
g75
ssg63
g5111
sg56
(lp5118
S'session_id'
p5119
asbag49
(g70
g51
NtRp5120
(dp5121
g54
(dp5122
g81
g82
ssg63
g5111
sg56
(lp5123
S':'
asbag49
(g70
g51
NtRp5124
(dp5125
g54
(dp5126
sg63
g5111
sg56
(lp5127
g49
(g50
g51
NtRp5128
(dp5129
g54
(dp5130
g62
I5
ssg63
g5124
sg56
(lp5131
g446
asbasbasbag49
(g65
g51
NtRp5132
(dp5133
g54
(dp5134
sg63
g3187
sg56
(lp5135
g49
(g70
g51
NtRp5136
(dp5137
g54
(dp5138
g74
g75
ssg63
g5132
sg56
(lp5139
S'session_id_name'
p5140
asbag49
(g70
g51
NtRp5141
(dp5142
g54
(dp5143
g81
g82
ssg63
g5132
sg56
(lp5144
S':'
asbag49
(g70
g51
NtRp5145
(dp5146
g54
(dp5147
sg63
g5132
sg56
(lp5148
g49
(g50
g51
NtRp5149
(dp5150
g54
(dp5151
g62
I5
ssg63
g5145
sg56
(lp5152
g3244
asbasbasbag49
(g65
g51
NtRp5153
(dp5154
g54
(dp5155
sg63
g3187
sg56
(lp5156
g49
(g70
g51
NtRp5157
(dp5158
g54
(dp5159
g74
g75
ssg63
g5153
sg56
(lp5160
S'session_locked'
p5161
asbag49
(g70
g51
NtRp5162
(dp5163
g54
(dp5164
g81
g82
ssg63
g5153
sg56
(lp5165
S':'
asbag49
(g70
g51
NtRp5166
(dp5167
g54
(dp5168
sg63
g5153
sg56
(lp5169
g49
(g50
g51
NtRp5170
(dp5171
g54
(dp5172
g62
I5
ssg63
g5166
sg56
(lp5173
g1699
asbasbasbag49
(g65
g51
NtRp5174
(dp5175
g54
(dp5176
sg63
g3187
sg56
(lp5177
g49
(g70
g51
NtRp5178
(dp5179
g54
(dp5180
g74
g75
ssg63
g5174
sg56
(lp5181
S'session_new'
p5182
asbag49
(g70
g51
NtRp5183
(dp5184
g54
(dp5185
g81
g82
ssg63
g5174
sg56
(lp5186
S':'
asbag49
(g70
g51
NtRp5187
(dp5188
g54
(dp5189
sg63
g5174
sg56
(lp5190
g49
(g50
g51
NtRp5191
(dp5192
g54
(dp5193
g62
I5
ssg63
g5187
sg56
(lp5194
g92
asbasbasbag49
(g65
g51
NtRp5195
(dp5196
g54
(dp5197
sg63
g3187
sg56
(lp5198
g49
(g70
g51
NtRp5199
(dp5200
g54
(dp5201
g74
g75
ssg63
g5195
sg56
(lp5202
S'session_storage_type'
p5203
asbag49
(g70
g51
NtRp5204
(dp5205
g54
(dp5206
g81
g82
ssg63
g5195
sg56
(lp5207
S':'
asbag49
(g70
g51
NtRp5208
(dp5209
g54
(dp5210
sg63
g5195
sg56
(lp5211
g49
(g50
g51
NtRp5212
(dp5213
g54
(dp5214
g62
I5
ssg63
g5208
sg56
(lp5215
g3130
asbasbasbag49
(g65
g51
NtRp5216
(dp5217
g54
(dp5218
sg63
g3187
sg56
(lp5219
g49
(g70
g51
NtRp5220
(dp5221
g54
(dp5222
g74
g75
ssg63
g5216
sg56
(lp5223
S'status'
p5224
asbag49
(g70
g51
NtRp5225
(dp5226
g54
(dp5227
g81
g82
ssg63
g5216
sg56
(lp5228
S':'
asbag49
(g70
g51
NtRp5229
(dp5230
g54
(dp5231
sg63
g5216
sg56
(lp5232
g49
(g50
g51
NtRp5233
(dp5234
g54
(dp5235
g62
I5
ssg63
g5229
sg56
(lp5236
S'200'
p5237
asbasbasbag49
(g65
g51
NtRp5238
(dp5239
g54
(dp5240
sg63
g3187
sg56
(lp5241
g49
(g70
g51
NtRp5242
(dp5243
g54
(dp5244
g74
g75
ssg63
g5238
sg56
(lp5245
S'subtitle'
p5246
asbag49
(g70
g51
NtRp5247
(dp5248
g54
(dp5249
g81
g82
ssg63
g5238
sg56
(lp5250
S':'
asbag49
(g70
g51
NtRp5251
(dp5252
g54
(dp5253
sg63
g5238
sg56
(lp5254
g49
(g50
g51
NtRp5255
(dp5256
g54
(dp5257
g62
I5
ssg63
g5251
sg56
(lp5258
g3749
(S's\r\x00\x00\x00customize me!'
tRp5259
asbasbasbag49
(g65
g51
NtRp5260
(dp5261
g54
(dp5262
sg63
g3187
sg56
(lp5263
g49
(g70
g51
NtRp5264
(dp5265
g54
(dp5266
g74
g75
ssg63
g5260
sg56
(lp5267
S'title'
p5268
asbag49
(g70
g51
NtRp5269
(dp5270
g54
(dp5271
g81
g82
ssg63
g5260
sg56
(lp5272
S':'
asbag49
(g70
g51
NtRp5273
(dp5274
g54
(dp5275
sg63
g5260
sg56
(lp5276
g49
(g50
g51
NtRp5277
(dp5278
g54
(dp5279
g62
I5
ssg63
g5273
sg56
(lp5280
S'Final Impulse'
p5281
asbasbasbag49
(g65
g51
NtRp5282
(dp5283
g54
(dp5284
sg63
g3187
sg56
(lp5285
g49
(g70
g51
NtRp5286
(dp5287
g54
(dp5288
g74
g75
ssg63
g5282
sg56
(lp5289
S'view'
p5290
asbag49
(g70
g51
NtRp5291
(dp5292
g54
(dp5293
g81
g82
ssg63
g5282
sg56
(lp5294
S':'
asbag49
(g70
g51
NtRp5295
(dp5296
g54
(dp5297
sg63
g5282
sg56
(lp5298
g49
(g50
g51
NtRp5299
(dp5300
g54
(dp5301
g62
I5
ssg63
g5295
sg56
(lp5302
S'default/show_writing_comments.html'
p5303
asbasbasbasbasbsS'locals'
p5304
(dp5305
S'writings'
p5306
S'<Rows (3)>'
p5307
sS'OBJECT'
p5308
S"<class 'gluon.html.OBJECT'>"
p5309
sS'SQLDB'
p5310
S"<class 'gluon.dal.DAL'>"
p5311
sg3169
S"<Storage {'_formkey[writing_comment/create]': 'a...owser': {'version': '6.0.5', 'name': 'Safari'}}}>"
p5312
sS'LINK'
p5313
S"<class 'gluon.html.LINK'>"
p5314
sS'comments'
p5315
S'<Rows (1)>'
p5316
sS'BR'
p5317
S"<class 'gluon.html.BR'>"
p5318
sS'local_import'
p5319
S'<function <lambda> at 0x8941930>'
p5320
sS'OPTGROUP'
p5321
S"<class 'gluon.html.OPTGROUP'>"
p5322
sS'PRE'
p5323
S"<class 'gluon.html.PRE'>"
p5324
sS'IS_INT_IN_RANGE'
p5325
S"<class 'gluon.validators.IS_INT_IN_RANGE'>"
p5326
sS'left_sidebar_enabled'
p5327
g92
sS'IS_LOWER'
p5328
S"<class 'gluon.validators.IS_LOWER'>"
p5329
sS'IS_STRONG'
p5330
S"<class 'gluon.validators.IS_STRONG'>"
p5331
sS'cache'
p5332
S'<gluon.cache.Cache object at 0x8954470>'
p5333
sS'IS_IN_DB'
p5334
S"<class 'gluon.validators.IS_IN_DB'>"
p5335
sS'TAG'
p5336
S'<gluon.html.__TAG__ object at 0x404e9f0>'
p5337
sS'SQLField'
p5338
S"<class 'gluon.dal.Field'>"
p5339
sS'BODY'
p5340
S"<class 'gluon.html.BODY'>"
p5341
sS'IS_DATE_IN_RANGE'
p5342
S"<class 'gluon.validators.IS_DATE_IN_RANGE'>"
p5343
sS'IFRAME'
p5344
S"<class 'gluon.html.IFRAME'>"
p5345
sS'URL'
p5346
S'<function URL at 0x403abf0>'
p5347
sS'__file__'
p5348
S"'/Users/abaric/Downloads/web2py/web2py.app/Conten..._Impulse/views/default/show_writing_comments.html'"
p5349
sS'db'
p5350
S'<DAL uri="sqlite://storage.sqlite">'
p5351
sS'auth'
p5352
S'<gluon.tools.Auth object at 0x8954590>'
p5353
sS'P'
S"<class 'gluon.html.P'>"
p5354
sS'TFOOT'
p5355
S"<class 'gluon.html.TFOOT'>"
p5356
sS'XHTML'
p5357
S"<class 'gluon.html.XHTML'>"
p5358
sS'ON'
p5359
g1699
sS'OL'
p5360
S"<class 'gluon.html.OL'>"
p5361
sS'd'
S"{1: [('Andrea Baric', '1st writing post, 1st comment')], 2: [('Andrea Baric', '2nd writing post, 1st comment'), ('Suzie Smith', '2nd writing post, 2nd comment'), ('Suzie Smith', '2nd writing post, 3rd comment')], 3: [('Andrea Baric', '3rd writing post, 1st comment')]}"
p5362
sS'TEXTAREA'
p5363
S"<class 'gluon.html.TEXTAREA'>"
p5364
sS'MENU'
p5365
S"<class 'gluon.html.MENU'>"
p5366
sS't'
S"('Andrea Baric', '1st writing post, 1st comment')"
p5367
sS'EM'
p5368
S"<class 'gluon.html.EM'>"
p5369
sS'CODE'
p5370
S"<class 'gluon.html.CODE'>"
p5371
sS'HTTP'
p5372
S"<class 'gluon.http.HTTP'>"
p5373
sS'HR'
p5374
S"<class 'gluon.html.HR'>"
p5375
sS'IS_DATETIME'
p5376
S"<class 'gluon.validators.IS_DATETIME'>"
p5377
sS'HEAD'
p5378
S"<class 'gluon.html.HEAD'>"
p5379
sS'LABEL'
p5380
S"<class 'gluon.html.LABEL'>"
p5381
sS'CLEANUP'
p5382
S"<class 'gluon.validators.CLEANUP'>"
p5383
sS'writing'
p5384
S"<Row {'body': '~~1st writing body, so perfect~~', 'title': '1st Writing Title', 'id': 1}>"
p5385
sS'SELECT'
p5386
S"<class 'gluon.html.SELECT'>"
p5387
sS'CENTER'
p5388
S"<class 'gluon.html.CENTER'>"
p5389
sS'Crud'
p5390
S"<class 'gluon.tools.Crud'>"
p5391
sS'Auth'
p5392
S"<class 'gluon.tools.Auth'>"
p5393
sS'__builtins__'
p5394
S"{'ArithmeticError': <type 'exceptions.ArithmeticError'>, 'AssertionError': <type 'exceptions.AssertionError'>, 'AttributeError': <type 'exceptions.AttributeError'>, 'BaseException': <type 'exceptions.BaseException'>, 'DeprecationWarning': <type 'exceptions.DeprecationWarning'>, 'EOFError': <type 'exceptions.EOFError'>, 'Ellipsis': Ellipsis, 'EnvironmentError': <type 'exceptions.EnvironmentError'>, 'Exception': <type 'exceptions.Exception'>, 'False': False, ...}"
p5395
sS'HTML'
p5396
S"<class 'gluon.html.HTML'>"
p5397
sS'SQLFORM'
p5398
S"<class 'gluon.sqlhtml.SQLFORM'>"
p5399
sS'LOAD'
p5400
S'<function LOAD at 0x42de970>'
p5401
sS'redirect'
p5402
S'<function redirect at 0x3bd0530>'
p5403
sS'FIELDSET'
p5404
S"<class 'gluon.html.FIELDSET'>"
p5405
sS'IS_EQUAL_TO'
p5406
S"<class 'gluon.validators.IS_EQUAL_TO'>"
p5407
sS'embed64'
p5408
S'<function embed64 at 0x4050830>'
p5409
sS'IS_LIST_OF'
p5410
S"<class 'gluon.validators.IS_LIST_OF'>"
p5411
sS'__name__'
p5412
S"'__restricted__'"
p5413
sS'EMBED'
p5414
S"<class 'gluon.html.EMBED'>"
p5415
sS'_'
S'<function _ at 0x8942630>'
p5416
sS'FORM'
p5417
S"<class 'gluon.html.FORM'>"
p5418
sS'H2'
p5419
S"<class 'gluon.html.H2'>"
p5420
sS'H3'
p5421
S"<class 'gluon.html.H3'>"
p5422
sS'BUTTON'
p5423
S"<class 'gluon.html.BUTTON'>"
p5424
sS'H1'
p5425
S"<class 'gluon.html.H1'>"
p5426
sS'H6'
p5427
S"<class 'gluon.html.H6'>"
p5428
sS'H4'
p5429
S"<class 'gluon.html.H4'>"
p5430
sS'H5'
p5431
S"<class 'gluon.html.H5'>"
p5432
sS'UL'
p5433
S"<class 'gluon.html.UL'>"
p5434
sS'IS_UPPER'
p5435
S"<class 'gluon.validators.IS_UPPER'>"
p5436
sS'xmlescape'
p5437
S'<function xmlescape at 0x403a7b0>'
p5438
sS'IS_TIME'
p5439
S"<class 'gluon.validators.IS_TIME'>"
p5440
sg286
S"<Row {'auth_user': {'first_name': 'Andrea', 'las...org', 'writing_id': 3, 'author_id': 1, 'id': 5}}>"
p5441
sS'OPTION'
p5442
S"<class 'gluon.html.OPTION'>"
p5443
sS'TITLE'
p5444
S"<class 'gluon.html.TITLE'>"
p5445
sS'CRYPT'
p5446
S"<class 'gluon.validators.CRYPT'>"
p5447
sS'IS_EMPTY_OR'
p5448
S"<class 'gluon.validators.IS_EMPTY_OR'>"
p5449
sS'MARKMIN'
p5450
S"<class 'gluon.html.MARKMIN'>"
p5451
sS'INPUT'
p5452
S"<class 'gluon.html.INPUT'>"
p5453
sS'STRONG'
p5454
S"<class 'gluon.html.STRONG'>"
p5455
sS'COL'
p5456
S"<class 'gluon.html.COL'>"
p5457
sS'SCRIPT'
p5458
S"<class 'gluon.html.SCRIPT'>"
p5459
sS'is_mobile'
p5460
g92
sS'TABLE'
p5461
S"<class 'gluon.html.TABLE'>"
p5462
sS'IS_IPV4'
p5463
S"<class 'gluon.validators.IS_IPV4'>"
p5464
sS'IS_LENGTH'
p5465
S"<class 'gluon.validators.IS_LENGTH'>"
p5466
sS'XML'
p5467
S"<class 'gluon.html.XML'>"
p5468
sS'B'
S"<class 'gluon.html.B'>"
p5469
sS'form'
p5470
S'<gluon.sqlhtml.SQLFORM object at 0x897d070>'
p5471
sS'SQLTABLE'
p5472
S"<class 'gluon.sqlhtml.SQLTABLE'>"
p5473
sS'IS_MATCH'
p5474
S"<class 'gluon.validators.IS_MATCH'>"
p5475
sS'tuple_list'
p5476
S"[('Andrea Baric', '3rd writing post, 1st comment')]"
p5477
sg147
S"'3rd writing post, 1st comment'"
p5478
sS'IS_ALPHANUMERIC'
p5479
S"<class 'gluon.validators.IS_ALPHANUMERIC'>"
p5480
sS'SPAN'
p5481
S"<class 'gluon.html.SPAN'>"
p5482
sS'IS_SLUG'
p5483
S"<class 'gluon.validators.IS_SLUG'>"
p5484
sS'BEAUTIFY'
p5485
S"<class 'gluon.html.BEAUTIFY'>"
p5486
sS'META'
p5487
S"<class 'gluon.html.META'>"
p5488
sS'IS_DATE'
p5489
S"<class 'gluon.validators.IS_DATE'>"
p5490
sS'IS_EMAIL'
p5491
S"<class 'gluon.validators.IS_EMAIL'>"
p5492
sS'IS_NOT_EMPTY'
p5493
S"<class 'gluon.validators.IS_NOT_EMPTY'>"
p5494
sS'IS_FLOAT_IN_RANGE'
p5495
S"<class 'gluon.validators.IS_FLOAT_IN_RANGE'>"
p5496
sS'TBODY'
p5497
S"<class 'gluon.html.TBODY'>"
p5498
sS'CAT'
p5499
S"<class 'gluon.html.CAT'>"
p5500
sS'Field'
p5501
S"<class 'gluon.dal.Field'>"
p5502
sS'middle_columns'
p5503
S"'span12'"
p5504
sS'DIV'
p5505
S"<class 'gluon.html.DIV'>"
p5506
sS'LEGEND'
p5507
S"<class 'gluon.html.LEGEND'>"
p5508
sS'IMG'
p5509
S"<class 'gluon.html.IMG'>"
p5510
sS'COLGROUP'
p5511
S"<class 'gluon.html.COLGROUP'>"
p5512
sS'DAL'
p5513
S"<class 'gluon.dal.DAL'>"
p5514
sS'TT'
p5515
S"<class 'gluon.html.TT'>"
p5516
sS'TR'
p5517
S"<class 'gluon.html.TR'>"
p5518
sS'LI'
p5519
S"<class 'gluon.html.LI'>"
p5520
sS'right_sidebar_enabled'
p5521
g92
sS'TH'
p5522
S"<class 'gluon.html.TH'>"
p5523
sS'TD'
p5524
S"<class 'gluon.html.TD'>"
p5525
sS'IS_URL'
p5526
S"<class 'gluon.validators.IS_URL'>"
p5527
sS'A'
S"<class 'gluon.html.A'>"
p5528
sS'STYLE'
p5529
S"<class 'gluon.html.STYLE'>"
p5530
sS'IS_DATETIME_IN_RANGE'
p5531
S"<class 'gluon.validators.IS_DATETIME_IN_RANGE'>"
p5532
sS'IS_IMAGE'
p5533
S"<class 'gluon.validators.IS_IMAGE'>"
p5534
sS'I'
S"<class 'gluon.html.I'>"
p5535
sS'crud'
p5536
S'<gluon.tools.Crud object at 0x8954a50>'
p5537
sS'IS_NOT_IN_DB'
p5538
S"<class 'gluon.validators.IS_NOT_IN_DB'>"
p5539
sg3182
S"<Storage {'body': <cStringIO.StringO object at 0...>, 'view': 'default/show_writing_comments.html'}>"
p5540
sS'THEAD'
p5541
S"<class 'gluon.html.THEAD'>"
p5542
sS'IS_NULL_OR'
p5543
S"<class 'gluon.validators.IS_EMPTY_OR'>"
p5544
sg4854
S"'Andrea Baric'"
p5545
sg48
S"<Storage {'function': 'show_writing_comments', '...ions/Final_Impulse/', 'post_vars': <Storage {}>}>"
p5546
sS'IS_EXPR'
p5547
S"<class 'gluon.validators.IS_EXPR'>"
p5548
sS'T'
S'<gluon.languages.translator object at 0x89546d0>'
p5549
sS'IS_IN_SET'
p5550
S"<class 'gluon.validators.IS_IN_SET'>"
p5551
sS'IS_UPLOAD_FILENAME'
p5552
S"<class 'gluon.validators.IS_UPLOAD_FILENAME'>"
p5553
sS'IS_DECIMAL_IN_RANGE'
p5554
S"<class 'gluon.validators.IS_DECIMAL_IN_RANGE'>"
p5555
sssS'traceback'
p5556
S'Traceback (most recent call last):\n  File "gluon/restricted.py", line 212, in restricted\n  File "/Users/abaric/Downloads/web2py/web2py.app/Contents/Resources/applications/Final_Impulse/views/default/show_writing_comments.html", line 93, in <module>\nNameError: name \'student\' is not defined\n'
p5557
s.