(dp1
S'output'
p2
S"<type 'exceptions.SyntaxError'> invalid syntax (show_image_comments.html, line 87)"
p3
sS'layer'
p4
S'/Users/abaric/Downloads/web2py/web2py.app/Contents/Resources/applications/Final_Impulse/views/default/show_image_comments.html'
p5
sS'code'
p6
S'response.write(\'<!DOCTYPE html>\\n<!-- paulirish.com/2008/conditional-stylesheets-vs-css-hacks-answer-neither/ -->\\n<!--[if lt IE 7]><html class="ie ie6 ie-lte9 ie-lte8 ie-lte7 no-js" lang="\', escape=False)\nresponse.write(T.accepted_language or \'en\')\nresponse.write(\'"> <![endif]-->\\n<!--[if IE 7]><html class="ie ie7 ie-lte9 ie-lte8 ie-lte7 no-js" lang="\', escape=False)\nresponse.write(T.accepted_language or \'en\')\nresponse.write(\'"> <![endif]-->\\n<!--[if IE 8]><html class="ie ie8 ie-lte9 ie-lte8 no-js" lang="\', escape=False)\nresponse.write(T.accepted_language or \'en\')\nresponse.write(\'"> <![endif]-->\\n<!--[if IE 9]><html class="ie9 ie-lte9 no-js" lang="\', escape=False)\nresponse.write(T.accepted_language or \'en\')\nresponse.write(\'"> <![endif]-->\\n<!--[if (gt IE 9)|!(IE)]><!--> <html class="no-js" lang="\', escape=False)\nresponse.write(T.accepted_language or \'en\')\nresponse.write(\'"> <!--<![endif]-->\\n<head>\\n  <meta charset="utf-8" />\\n  <!-- www.phpied.com/conditional-comments-block-downloads/ -->\\n  <!-- Always force latest IE rendering engine\\n       (even in intranet) & Chrome Frame\\n       Remove this if you use the .htaccess -->\\n  <!--[if IE]>\\n      <meta http-equiv="X-UA-Compatible" content="IE=edge\', escape=False)\nresponse.write(not request.is_local and \',chrome=1\' or \'\')\nresponse.write(\'">\\n      <![endif]-->\\n\\n  <title>\', escape=False)\nresponse.write(response.title or request.application)\nresponse.write(\'</title>\\n\\n  <!-- http://dev.w3.org/html5/markup/meta.name.html -->\\n  <meta name="application-name" content="\', escape=False)\nresponse.write(request.application)\nresponse.write(\'" />\\n\\n  <!-- Speaking of Google, don\\\'t forget to set your site up:\\n       http://google.com/webmasters -->\\n  <meta name="google-site-verification" content="" />\\n\\n  <!--  Mobile Viewport Fix\\n        j.mp/mobileviewport & davidbcalhoun.com/2010/viewport-metatag\\n        device-width: Occupy full width of the screen in its current orientation\\n        initial-scale = 1.0 retains dimensions instead of zooming out if page height > device height\\n        user-scalable = yes allows the user to zoom in -->\\n  <meta name="viewport" content="width=device-width, initial-scale=1.0">\\n\\n  <link rel="shortcut icon" href="\', escape=False)\nresponse.write(URL(\'static\',\'images/favicon.ico\'))\nresponse.write(\'" type="image/x-icon">\\n  <link rel="apple-touch-icon" href="\', escape=False)\nresponse.write(URL(\'static\',\'images/favicon.png\'))\nresponse.write(\'">\\n\\n  <!-- All JavaScript at the bottom, except for Modernizr which enables\\n       HTML5 elements & feature detects -->\\n  <script src="\', escape=False)\nresponse.write(URL(\'static\',\'js/modernizr.custom.js\'))\nresponse.write(\'"></script>\\n\\n  <!-- include stylesheets -->\\n  \', escape=False)\nresponse.files.append(URL(\'static\',\'css/web2py.css\'))\nresponse.files.append(URL(\'static\',\'css/bootstrap.min.css\'))\nresponse.files.append(URL(\'static\',\'css/bootstrap-responsive.min.css\'))\nresponse.files.append(URL(\'static\',\'css/web2py_bootstrap.css\'))\nresponse.write(\'\\n\\n  \', escape=False)\nresponse.write(\'<script type="text/javascript"><!--\\n    // These variables are used by the web2py_ajax_init function in web2py_ajax.js (which is loaded below).\\n    var w2p_ajax_confirm_message = "\', escape=False)\nresponse.write(T(\'Are you sure you want to delete this object?\'))\nresponse.write(\'";\\n    var w2p_ajax_date_format = "\', escape=False)\nresponse.write(T(\'%Y-%m-%d\'))\nresponse.write(\'";\\n    var w2p_ajax_datetime_format = "\', escape=False)\nresponse.write(T(\'%Y-%m-%d %H:%M:%S\'))\nresponse.write(\'";\\n    //--></script>\\n\', escape=False)\nresponse.files.insert(0,URL(\'static\',\'js/jquery.js\'))\nresponse.files.insert(1,URL(\'static\',\'css/calendar.css\'))\nresponse.files.insert(2,URL(\'static\',\'js/calendar.js\'))\nresponse.files.insert(3,URL(\'static\',\'js/web2py.js\'))\nresponse.include_meta()\nresponse.include_files()\nresponse.write(\'\\n\', escape=False)\nresponse.write(\'\\n\\n  \', escape=False)\n# using sidebars need to know what sidebar you want to use\nleft_sidebar_enabled = globals().get(\'left_sidebar_enabled\',False)\nright_sidebar_enabled = globals().get(\'right_sidebar_enabled\',False)\nmiddle_columns = {0:\'span12\',1:\'span9\',2:\'span6\'}[\n(left_sidebar_enabled and 1 or 0)+(right_sidebar_enabled and 1 or 0)]\nresponse.write(\'\\n\\n  <!-- uncomment here to load jquery-ui\\n       <link rel="stylesheet" href="http://ajax.googleapis.com/ajax/libs/jqueryui/1.8.16/themes/base/jquery-ui.css" type="text/css" media="all" />\\n       <script src="http://ajax.googleapis.com/ajax/libs/jqueryui/1.8.16/jquery-ui.min.js" type="text/javascript"></script>\\n       uncomment to load jquery-ui //-->\\n  <noscript><link href="\', escape=False)\nresponse.write(URL(\'static\', \'css/web2py_bootstrap_nojs.css\'))\nresponse.write(\'" rel="stylesheet" type="text/css" /></noscript>\\n  \', escape=False)\nresponse.write(\'\\n</head>\\n\\n<body>\\n  <!-- Navbar ================================================== -->\\n  <div class="navbar navbar-inverse navbar-fixed-top">\\n    <div class="flash">\', escape=False)\nresponse.write(response.flash or \'\')\nresponse.write(\'</div>\\n    <div class="navbar-inner">\\n      <div class="container">\\n        <!-- the next tag is necessary for bootstrap menus, do not remove -->\\n        <button type="button" class="btn btn-navbar" data-toggle="collapse" data-target=".nav-collapse">\\n          <span class="icon-bar"></span>\\n          <span class="icon-bar"></span>\\n          <span class="icon-bar"></span>\\n        </button>\\n        <a class="brand" href="http://www.web2py.com/"><b>web<span>2</span>py</b>&trade;&nbsp;</a>\\n        <ul id="navbar" class="nav pull-right">\', escape=False)\nresponse.write(\'auth\' in globals() and auth.navbar(mode="dropdown") or \'\')\nresponse.write(\'</ul>\\n        <div class="nav-collapse">\\n          \', escape=False)\nis_mobile=request.user_agent().is_mobile\nresponse.write(\'\\n          \', escape=False)\nif response.menu:\n    response.write(\'\\n          \', escape=False)\n    response.write(MENU(response.menu, _class=\'mobile-menu nav\' if is_mobile else \'nav\',mobile=is_mobile,li_class=\'dropdown\',ul_class=\'dropdown-menu\'))\n    response.write(\'\\n          \', escape=False)\n    pass\nresponse.write(\'\\n        </div><!--/.nav-collapse -->\\n      </div>\\n    </div>\\n  </div><!--/top navbar -->\\n\\n  <div class="container">\\n    <!-- Masthead ================================================== -->\\n    <header class="mastheader row" id="header">\\n        <div class="span12">\\n            <div class="page-header">\\n                <h1>\\n                    \', escape=False)\nresponse.write(response.title or request.application)\nresponse.write(\'\\n                    <small>\', escape=False)\nresponse.write(response.subtitle or \'\')\nresponse.write(\'</small>\\n                </h1>\\n            </div>\\n        </div>\\n    </header>\\n\\n    <section id="main" class="main row">\\n        \', escape=False)\nif left_sidebar_enabled:\n    response.write(\'\\n        <div class="span3 left-sidebar">\\n            \', escape=False)\n    response.write(\'\\n            <h3>Left Sidebar</h3>\\n            <p></p>\\n            \', escape=False)\n    response.write(\'\\n        </div>\\n        \', escape=False)\n    pass\nresponse.write(\'\\n\\n        <div class="\', escape=False)\nresponse.write(middle_columns)\nresponse.write(\'">\\n            \', escape=False)\nresponse.write(\'\\n            \', escape=False)\nresponse.write("\\n\\n<h1>Da Image Posts</h1>\\n\\n<table width=\'100%\' border=\'1\'>\\n    ", escape=False)\nfor image in images:\n    response.write(\'\\n\\t<tr>    \\n          <td><center><img width="200px"\\n              src="\', escape=False)\n    response.write(URL(\'download\', args=image.file))\n    response.write(\'"/></center></td>\\n    </tr> \\n          \\n        \', escape=False)\n    if len(d[image.id]):\n        response.write("\\n        <tr>\\n        <td>\\n        <table width=\'100%\'>\\n            ", escape=False)\n        for t in d[image.id]:\n            response.write(\'\\n                        <tr>\\n                        \\n                            <td><center>\', escape=False)\n            response.write(("%s says, "%s"")%(t[0],t[1]))\n            response.write(\'</center></td>\\n                        \\n                        </tr>\\n            \', escape=False)\n            pass\n        response.write(\'\\n        </table>\\n        \\n        \\n        <table width=\\\'100%\\\'>\\n            <tr>\\n          \\t\\t\\t<form enctype="multipart/form-data" action="\', escape=False)\n        response.write(URL(\'insert_image_comment\',args=(image.id)))\n        response.write(\'" method="post"> \\n                        <td><center><input name="image_comment" type="text"></center></td>\\n                        <td><center><input formmethod="post" name="commentform" type="submit"><br></center></td>\\n          \\t\\t\\t</form>\\n           </tr>\\n       </table>\\n        \\n     </td>\\n     </tr>\\n\\n         \', escape=False)\n        pass\n    response.write(\'\\n    \', escape=False)\n    pass\nresponse.write(\' \\n    \\n</table>\\n\', escape=False)\nresponse.write(\'\\n            \', escape=False)\nresponse.write(\'\\n        </div>\\n\\n        \', escape=False)\nif right_sidebar_enabled:\n    response.write(\'\\n        <div class="span3">\\n            \', escape=False)\n    response.write(\'\\n            <h3>Right Sidebar</h3>\\n            <p></p>\\n            \', escape=False)\n    response.write(\'\\n        </div>\\n        \', escape=False)\n    pass\nresponse.write(\'\\n    </section><!--/main-->\\n\\n    <!-- Footer ================================================== -->\\n    <div class="row">\\n        <footer class="footer span12" id="footer">\\n            <div class="footer-content">\\n                \', escape=False)\nresponse.write(\' <!-- this is default footer -->\\n                <div class="copyright pull-left">\', escape=False)\nresponse.write(T(\'Copyright\'))\nresponse.write(\' &#169; \', escape=False)\nresponse.write(request.now.year)\nresponse.write(\'</div>\\n                <div id="poweredBy" class="pull-right">\\n                    \', escape=False)\nresponse.write(T(\'Powered by\'))\nresponse.write(\'\\n                    <a href="http://www.web2py.com/">web2py</a>\\n                </div>\\n                \', escape=False)\nresponse.write(\'\\n            </div>\\n        </footer>\\n    </div>\\n\\n  </div> <!-- /container -->\\n\\n  <!-- The javascript =============================================\\n       (Placed at the end of the document so the pages load faster) -->\\n  <script src="\', escape=False)\nresponse.write(URL(\'static\',\'js/bootstrap.min.js\'))\nresponse.write(\'"></script>\\n  <script src="\', escape=False)\nresponse.write(URL(\'static\',\'js/web2py_bootstrap.js\'))\nresponse.write(\'"></script>\\n  <!--[if lt IE 7 ]>\\n      <script src="\', escape=False)\nresponse.write(URL(\'static\',\'js/dd_belatedpng.js\'))\nresponse.write(\'"></script>\\n      <script> DD_belatedPNG.fix(\\\'img, .png_bg\\\'); //fix any <img> or .png_bg background-images </script>\\n      <![endif]-->\\n  \', escape=False)\nif response.google_analytics_id:\n    response.write(\'<script type="text/javascript"> var _gaq = _gaq || []; _gaq.push([\\\'_setAccount\\\', \\\'\', escape=False)\n    response.write(response.google_analytics_id)\n    response.write("\']); _gaq.push([\'_trackPageview\']); (function() { var ga = document.createElement(\'script\'); ga.type = \'text/javascript\'; ga.async = true; ga.src = (\'https:\' == document.location.protocol ? \'https://ssl\' : \'http://www\') + \'.google-analytics.com/ga.js\'; var s = document.getElementsByTagName(\'script\')[0]; s.parentNode.insertBefore(ga, s); })(); </script> ", escape=False)\n    pass\nresponse.write(\'\\n  <script src="\', escape=False)\nresponse.write(URL(\'static\',\'js/share.js\',vars=dict(static=URL(\'static\',\'images\'))))\nresponse.write(\'"></script>\\n</body>\\n</html>\\n\\n<style>\\nbody { background: url(\\\'images/background.png\\\') repeat-x #E5E4E2; }\\na { color: #0C090A; }\\n.header h1 { color: #0C090A; }\\n.header h2 { color: white; font-style: italic; font-size: 14px;}\\n.statusbar { background: #333333; border-bottom: 5px #349C01 solid; }\\n.statusbar a { color: white; }\\n.footer { border-top: 5px #349C01 solid; }\\n</style>\\n\', escape=False)'
p7
sS'snapshot'
p8
(dp9
S'exception'
p10
(dp11
S'__getslice__'
p12
S"<method-wrapper '__getslice__' of exceptions.SyntaxError object at 0x8bea530>"
p13
sS'text'
p14
S'\'            response.write(("%s says, "%s"")%(t[0],t[1]))\\n\''
p15
sS'__str__'
p16
S"<method-wrapper '__str__' of exceptions.SyntaxError object at 0x8bea530>"
p17
sS'__reduce__'
p18
S'<built-in method __reduce__ of exceptions.SyntaxError object at 0x8bea530>'
p19
sS'__dict__'
p20
S'{}'
p21
sS'__init__'
p22
S"<method-wrapper '__init__' of exceptions.SyntaxError object at 0x8bea530>"
p23
sS'__setattr__'
p24
S"<method-wrapper '__setattr__' of exceptions.SyntaxError object at 0x8bea530>"
p25
sS'__reduce_ex__'
p26
S'<built-in method __reduce_ex__ of exceptions.SyntaxError object at 0x8bea530>'
p27
sS'__new__'
p28
S'<built-in method __new__ of type object at 0x5f9320>'
p29
sS'__class__'
p30
S"<type 'exceptions.SyntaxError'>"
p31
sS'filename'
p32
S"'/Users/abaric/Downloads/web2py/web2py.app/Conten...al_Impulse/views/default/show_image_comments.html'"
p33
sS'lineno'
p34
S'87'
p35
sS'msg'
p36
S"'invalid syntax'"
p37
sS'__doc__'
p38
S"'Invalid syntax.'"
p39
sS'__getitem__'
p40
S"<method-wrapper '__getitem__' of exceptions.SyntaxError object at 0x8bea530>"
p41
sS'__setstate__'
p42
S'<built-in method __setstate__ of exceptions.SyntaxError object at 0x8bea530>'
p43
sS'__getattribute__'
p44
S"<method-wrapper '__getattribute__' of exceptions.SyntaxError object at 0x8bea530>"
p45
sS'print_file_and_line'
p46
S'None'
p47
sS'args'
p48
S'(\'invalid syntax\', (\'/Users/abaric/Downloads/web2py/web2py.app/Conten...al_Impulse/views/default/show_image_comments.html\', 87, 43, \'            response.write(("%s says, "%s"")%(t[0],t[1]))\\n\'))'
p49
sS'offset'
p50
S'43'
p51
sS'__delattr__'
p52
S"<method-wrapper '__delattr__' of exceptions.SyntaxError object at 0x8bea530>"
p53
sS'__repr__'
p54
S"<method-wrapper '__repr__' of exceptions.SyntaxError object at 0x8bea530>"
p55
sS'__hash__'
p56
S"<method-wrapper '__hash__' of exceptions.SyntaxError object at 0x8bea530>"
p57
ssS'evalue'
p58
S'invalid syntax (show_image_comments.html, line 87)'
p59
sS'request'
p60
ccopy_reg
_reconstructor
p61
(cgluon.html
BEAUTIFY
p62
c__builtin__
object
p63
NtRp64
(dp65
S'attributes'
p66
(dp67
sS'components'
p68
(lp69
g61
(cgluon.html
TABLE
p70
g63
NtRp71
(dp72
g66
(dp73
S'level'
p74
I5
ssS'parent'
p75
Nsg68
(lp76
g61
(cgluon.html
TR
p77
g63
NtRp78
(dp79
g66
(dp80
sg75
g71
sg68
(lp81
g61
(cgluon.html
TD
p82
g63
NtRp83
(dp84
g66
(dp85
S'_style'
p86
S'font-weight:bold;vertical-align:top'
p87
ssg75
g78
sg68
(lp88
S'ajax'
p89
asbag61
(g82
g63
NtRp90
(dp91
g66
(dp92
S'_valign'
p93
S'top'
p94
ssg75
g78
sg68
(lp95
S':'
asbag61
(g82
g63
NtRp96
(dp97
g66
(dp98
sg75
g78
sg68
(lp99
g61
(g62
g63
NtRp100
(dp101
g66
(dp102
g74
I5
ssg75
g96
sg68
(lp103
S'False'
p104
asbasbasbag61
(g77
g63
NtRp105
(dp106
g66
(dp107
sg75
g71
sg68
(lp108
g61
(g82
g63
NtRp109
(dp110
g66
(dp111
g86
g87
ssg75
g105
sg68
(lp112
S'application'
p113
asbag61
(g82
g63
NtRp114
(dp115
g66
(dp116
g93
g94
ssg75
g105
sg68
(lp117
S':'
asbag61
(g82
g63
NtRp118
(dp119
g66
(dp120
sg75
g105
sg68
(lp121
g61
(g62
g63
NtRp122
(dp123
g66
(dp124
g74
I5
ssg75
g118
sg68
(lp125
S'Final_Impulse'
p126
asbasbasbag61
(g77
g63
NtRp127
(dp128
g66
(dp129
sg75
g71
sg68
(lp130
g61
(g82
g63
NtRp131
(dp132
g66
(dp133
g86
g87
ssg75
g127
sg68
(lp134
g48
asbag61
(g82
g63
NtRp135
(dp136
g66
(dp137
g93
g94
ssg75
g127
sg68
(lp138
S':'
asbag61
(g82
g63
NtRp139
(dp140
g66
(dp141
sg75
g127
sg68
(lp142
g61
(g62
g63
NtRp143
(dp144
g66
(dp145
g74
I5
ssg75
g139
sg68
(lp146
g61
(g70
g63
NtRp147
(dp148
g66
(dp149
g74
I4
ssg75
Nsg68
(lp150
sbasbasbasbag61
(g77
g63
NtRp151
(dp152
g66
(dp153
sg75
g71
sg68
(lp154
g61
(g82
g63
NtRp155
(dp156
g66
(dp157
g86
g87
ssg75
g151
sg68
(lp158
S'body'
p159
asbag61
(g82
g63
NtRp160
(dp161
g66
(dp162
g93
g94
ssg75
g151
sg68
(lp163
S':'
asbag61
(g82
g63
NtRp164
(dp165
g66
(dp166
sg75
g151
sg68
(lp167
g61
(g62
g63
NtRp168
(dp169
g66
(dp170
g74
I5
ssg75
g164
sg68
(lp171
S'<cStringIO.StringO object at 0x752f7a0>'
p172
asbasbasbag61
(g77
g63
NtRp173
(dp174
g66
(dp175
sg75
g71
sg68
(lp176
g61
(g82
g63
NtRp177
(dp178
g66
(dp179
g86
g87
ssg75
g173
sg68
(lp180
S'cid'
p181
asbag61
(g82
g63
NtRp182
(dp183
g66
(dp184
g93
g94
ssg75
g173
sg68
(lp185
S':'
asbag61
(g82
g63
NtRp186
(dp187
g66
(dp188
sg75
g173
sg68
(lp189
g61
(g62
g63
NtRp190
(dp191
g66
(dp192
g74
I5
ssg75
g186
sg68
(lp193
S'None'
p194
asbasbasbag61
(g77
g63
NtRp195
(dp196
g66
(dp197
sg75
g71
sg68
(lp198
g61
(g82
g63
NtRp199
(dp200
g66
(dp201
g86
g87
ssg75
g195
sg68
(lp202
S'client'
p203
asbag61
(g82
g63
NtRp204
(dp205
g66
(dp206
g93
g94
ssg75
g195
sg68
(lp207
S':'
asbag61
(g82
g63
NtRp208
(dp209
g66
(dp210
sg75
g195
sg68
(lp211
g61
(g62
g63
NtRp212
(dp213
g66
(dp214
g74
I5
ssg75
g208
sg68
(lp215
S'127.0.0.1'
p216
asbasbasbag61
(g77
g63
NtRp217
(dp218
g66
(dp219
sg75
g71
sg68
(lp220
g61
(g82
g63
NtRp221
(dp222
g66
(dp223
g86
g87
ssg75
g217
sg68
(lp224
S'controller'
p225
asbag61
(g82
g63
NtRp226
(dp227
g66
(dp228
g93
g94
ssg75
g217
sg68
(lp229
S':'
asbag61
(g82
g63
NtRp230
(dp231
g66
(dp232
sg75
g217
sg68
(lp233
g61
(g62
g63
NtRp234
(dp235
g66
(dp236
g74
I5
ssg75
g230
sg68
(lp237
S'default'
p238
asbasbasbag61
(g77
g63
NtRp239
(dp240
g66
(dp241
sg75
g71
sg68
(lp242
g61
(g82
g63
NtRp243
(dp244
g66
(dp245
g86
g87
ssg75
g239
sg68
(lp246
S'cookies'
p247
asbag61
(g82
g63
NtRp248
(dp249
g66
(dp250
g93
g94
ssg75
g239
sg68
(lp251
S':'
asbag61
(g82
g63
NtRp252
(dp253
g66
(dp254
sg75
g239
sg68
(lp255
g61
(g62
g63
NtRp256
(dp257
g66
(dp258
g74
I5
ssg75
g252
sg68
(lp259
g61
(g70
g63
NtRp260
(dp261
g66
(dp262
g74
I4
ssg75
Nsg68
(lp263
g61
(g77
g63
NtRp264
(dp265
g66
(dp266
sg75
g260
sg68
(lp267
g61
(g82
g63
NtRp268
(dp269
g66
(dp270
g86
g87
ssg75
g264
sg68
(lp271
S'session_id_admin'
p272
asbag61
(g82
g63
NtRp273
(dp274
g66
(dp275
g93
g94
ssg75
g264
sg68
(lp276
S':'
asbag61
(g82
g63
NtRp277
(dp278
g66
(dp279
sg75
g264
sg68
(lp280
g61
(g62
g63
NtRp281
(dp282
g66
(dp283
g74
I4
ssg75
g277
sg68
(lp284
S'127.0.0.1-0ba3c38c-2343-4ee4-b45e-2a129ee8fadd'
p285
ag61
(g70
g63
NtRp286
(dp287
g66
(dp288
g74
I3
ssg75
Nsg68
(lp289
g61
(g77
g63
NtRp290
(dp291
g66
(dp292
sg75
g286
sg68
(lp293
g61
(g82
g63
NtRp294
(dp295
g66
(dp296
g86
g87
ssg75
g290
sg68
(lp297
S'comment'
p298
asbag61
(g82
g63
NtRp299
(dp300
g66
(dp301
g93
g94
ssg75
g290
sg68
(lp302
S':'
asbag61
(g82
g63
NtRp303
(dp304
g66
(dp305
sg75
g290
sg68
(lp306
g61
(g62
g63
NtRp307
(dp308
g66
(dp309
g74
I3
ssg75
g303
sg68
(lp310
S''
asbasbasbag61
(g77
g63
NtRp311
(dp312
g66
(dp313
sg75
g286
sg68
(lp314
g61
(g82
g63
NtRp315
(dp316
g66
(dp317
g86
g87
ssg75
g311
sg68
(lp318
S'domain'
p319
asbag61
(g82
g63
NtRp320
(dp321
g66
(dp322
g93
g94
ssg75
g311
sg68
(lp323
S':'
asbag61
(g82
g63
NtRp324
(dp325
g66
(dp326
sg75
g311
sg68
(lp327
g61
(g62
g63
NtRp328
(dp329
g66
(dp330
g74
I3
ssg75
g324
sg68
(lp331
S''
asbasbasbag61
(g77
g63
NtRp332
(dp333
g66
(dp334
sg75
g286
sg68
(lp335
g61
(g82
g63
NtRp336
(dp337
g66
(dp338
g86
g87
ssg75
g332
sg68
(lp339
S'expires'
p340
asbag61
(g82
g63
NtRp341
(dp342
g66
(dp343
g93
g94
ssg75
g332
sg68
(lp344
S':'
asbag61
(g82
g63
NtRp345
(dp346
g66
(dp347
sg75
g332
sg68
(lp348
g61
(g62
g63
NtRp349
(dp350
g66
(dp351
g74
I3
ssg75
g345
sg68
(lp352
S''
asbasbasbag61
(g77
g63
NtRp353
(dp354
g66
(dp355
sg75
g286
sg68
(lp356
g61
(g82
g63
NtRp357
(dp358
g66
(dp359
g86
g87
ssg75
g353
sg68
(lp360
S'max-age'
p361
asbag61
(g82
g63
NtRp362
(dp363
g66
(dp364
g93
g94
ssg75
g353
sg68
(lp365
S':'
asbag61
(g82
g63
NtRp366
(dp367
g66
(dp368
sg75
g353
sg68
(lp369
g61
(g62
g63
NtRp370
(dp371
g66
(dp372
g74
I3
ssg75
g366
sg68
(lp373
S''
asbasbasbag61
(g77
g63
NtRp374
(dp375
g66
(dp376
sg75
g286
sg68
(lp377
g61
(g82
g63
NtRp378
(dp379
g66
(dp380
g86
g87
ssg75
g374
sg68
(lp381
S'path'
p382
asbag61
(g82
g63
NtRp383
(dp384
g66
(dp385
g93
g94
ssg75
g374
sg68
(lp386
S':'
asbag61
(g82
g63
NtRp387
(dp388
g66
(dp389
sg75
g374
sg68
(lp390
g61
(g62
g63
NtRp391
(dp392
g66
(dp393
g74
I3
ssg75
g387
sg68
(lp394
S''
asbasbasbag61
(g77
g63
NtRp395
(dp396
g66
(dp397
sg75
g286
sg68
(lp398
g61
(g82
g63
NtRp399
(dp400
g66
(dp401
g86
g87
ssg75
g395
sg68
(lp402
S'secure'
p403
asbag61
(g82
g63
NtRp404
(dp405
g66
(dp406
g93
g94
ssg75
g395
sg68
(lp407
S':'
asbag61
(g82
g63
NtRp408
(dp409
g66
(dp410
sg75
g395
sg68
(lp411
g61
(g62
g63
NtRp412
(dp413
g66
(dp414
g74
I3
ssg75
g408
sg68
(lp415
S''
asbasbasbag61
(g77
g63
NtRp416
(dp417
g66
(dp418
sg75
g286
sg68
(lp419
g61
(g82
g63
NtRp420
(dp421
g66
(dp422
g86
g87
ssg75
g416
sg68
(lp423
S'version'
p424
asbag61
(g82
g63
NtRp425
(dp426
g66
(dp427
g93
g94
ssg75
g416
sg68
(lp428
S':'
asbag61
(g82
g63
NtRp429
(dp430
g66
(dp431
sg75
g416
sg68
(lp432
g61
(g62
g63
NtRp433
(dp434
g66
(dp435
g74
I3
ssg75
g429
sg68
(lp436
S''
asbasbasbasbasbasbasbag61
(g77
g63
NtRp437
(dp438
g66
(dp439
sg75
g260
sg68
(lp440
g61
(g82
g63
NtRp441
(dp442
g66
(dp443
g86
g87
ssg75
g437
sg68
(lp444
S'session_id_final_impulse'
p445
asbag61
(g82
g63
NtRp446
(dp447
g66
(dp448
g93
g94
ssg75
g437
sg68
(lp449
S':'
asbag61
(g82
g63
NtRp450
(dp451
g66
(dp452
sg75
g437
sg68
(lp453
g61
(g62
g63
NtRp454
(dp455
g66
(dp456
g74
I4
ssg75
g450
sg68
(lp457
S'127.0.0.1-74b0ab87-cc9c-4772-8ab4-9357b1f96576'
p458
ag61
(g70
g63
NtRp459
(dp460
g66
(dp461
g74
I3
ssg75
Nsg68
(lp462
g61
(g77
g63
NtRp463
(dp464
g66
(dp465
sg75
g459
sg68
(lp466
g61
(g82
g63
NtRp467
(dp468
g66
(dp469
g86
g87
ssg75
g463
sg68
(lp470
g298
asbag61
(g82
g63
NtRp471
(dp472
g66
(dp473
g93
g94
ssg75
g463
sg68
(lp474
S':'
asbag61
(g82
g63
NtRp475
(dp476
g66
(dp477
sg75
g463
sg68
(lp478
g61
(g62
g63
NtRp479
(dp480
g66
(dp481
g74
I3
ssg75
g475
sg68
(lp482
S''
asbasbasbag61
(g77
g63
NtRp483
(dp484
g66
(dp485
sg75
g459
sg68
(lp486
g61
(g82
g63
NtRp487
(dp488
g66
(dp489
g86
g87
ssg75
g483
sg68
(lp490
g319
asbag61
(g82
g63
NtRp491
(dp492
g66
(dp493
g93
g94
ssg75
g483
sg68
(lp494
S':'
asbag61
(g82
g63
NtRp495
(dp496
g66
(dp497
sg75
g483
sg68
(lp498
g61
(g62
g63
NtRp499
(dp500
g66
(dp501
g74
I3
ssg75
g495
sg68
(lp502
S''
asbasbasbag61
(g77
g63
NtRp503
(dp504
g66
(dp505
sg75
g459
sg68
(lp506
g61
(g82
g63
NtRp507
(dp508
g66
(dp509
g86
g87
ssg75
g503
sg68
(lp510
g340
asbag61
(g82
g63
NtRp511
(dp512
g66
(dp513
g93
g94
ssg75
g503
sg68
(lp514
S':'
asbag61
(g82
g63
NtRp515
(dp516
g66
(dp517
sg75
g503
sg68
(lp518
g61
(g62
g63
NtRp519
(dp520
g66
(dp521
g74
I3
ssg75
g515
sg68
(lp522
S''
asbasbasbag61
(g77
g63
NtRp523
(dp524
g66
(dp525
sg75
g459
sg68
(lp526
g61
(g82
g63
NtRp527
(dp528
g66
(dp529
g86
g87
ssg75
g523
sg68
(lp530
g361
asbag61
(g82
g63
NtRp531
(dp532
g66
(dp533
g93
g94
ssg75
g523
sg68
(lp534
S':'
asbag61
(g82
g63
NtRp535
(dp536
g66
(dp537
sg75
g523
sg68
(lp538
g61
(g62
g63
NtRp539
(dp540
g66
(dp541
g74
I3
ssg75
g535
sg68
(lp542
S''
asbasbasbag61
(g77
g63
NtRp543
(dp544
g66
(dp545
sg75
g459
sg68
(lp546
g61
(g82
g63
NtRp547
(dp548
g66
(dp549
g86
g87
ssg75
g543
sg68
(lp550
g382
asbag61
(g82
g63
NtRp551
(dp552
g66
(dp553
g93
g94
ssg75
g543
sg68
(lp554
S':'
asbag61
(g82
g63
NtRp555
(dp556
g66
(dp557
sg75
g543
sg68
(lp558
g61
(g62
g63
NtRp559
(dp560
g66
(dp561
g74
I3
ssg75
g555
sg68
(lp562
S''
asbasbasbag61
(g77
g63
NtRp563
(dp564
g66
(dp565
sg75
g459
sg68
(lp566
g61
(g82
g63
NtRp567
(dp568
g66
(dp569
g86
g87
ssg75
g563
sg68
(lp570
g403
asbag61
(g82
g63
NtRp571
(dp572
g66
(dp573
g93
g94
ssg75
g563
sg68
(lp574
S':'
asbag61
(g82
g63
NtRp575
(dp576
g66
(dp577
sg75
g563
sg68
(lp578
g61
(g62
g63
NtRp579
(dp580
g66
(dp581
g74
I3
ssg75
g575
sg68
(lp582
S''
asbasbasbag61
(g77
g63
NtRp583
(dp584
g66
(dp585
sg75
g459
sg68
(lp586
g61
(g82
g63
NtRp587
(dp588
g66
(dp589
g86
g87
ssg75
g583
sg68
(lp590
g424
asbag61
(g82
g63
NtRp591
(dp592
g66
(dp593
g93
g94
ssg75
g583
sg68
(lp594
S':'
asbag61
(g82
g63
NtRp595
(dp596
g66
(dp597
sg75
g583
sg68
(lp598
g61
(g62
g63
NtRp599
(dp600
g66
(dp601
g74
I3
ssg75
g595
sg68
(lp602
S''
asbasbasbasbasbasbasbag61
(g77
g63
NtRp603
(dp604
g66
(dp605
sg75
g260
sg68
(lp606
g61
(g82
g63
NtRp607
(dp608
g66
(dp609
g86
g87
ssg75
g603
sg68
(lp610
S'session_id_welcome'
p611
asbag61
(g82
g63
NtRp612
(dp613
g66
(dp614
g93
g94
ssg75
g603
sg68
(lp615
S':'
asbag61
(g82
g63
NtRp616
(dp617
g66
(dp618
sg75
g603
sg68
(lp619
g61
(g62
g63
NtRp620
(dp621
g66
(dp622
g74
I4
ssg75
g616
sg68
(lp623
S'127.0.0.1-e23e93b7-1014-4c84-bd56-e856c910533e'
p624
ag61
(g70
g63
NtRp625
(dp626
g66
(dp627
g74
I3
ssg75
Nsg68
(lp628
g61
(g77
g63
NtRp629
(dp630
g66
(dp631
sg75
g625
sg68
(lp632
g61
(g82
g63
NtRp633
(dp634
g66
(dp635
g86
g87
ssg75
g629
sg68
(lp636
g298
asbag61
(g82
g63
NtRp637
(dp638
g66
(dp639
g93
g94
ssg75
g629
sg68
(lp640
S':'
asbag61
(g82
g63
NtRp641
(dp642
g66
(dp643
sg75
g629
sg68
(lp644
g61
(g62
g63
NtRp645
(dp646
g66
(dp647
g74
I3
ssg75
g641
sg68
(lp648
S''
asbasbasbag61
(g77
g63
NtRp649
(dp650
g66
(dp651
sg75
g625
sg68
(lp652
g61
(g82
g63
NtRp653
(dp654
g66
(dp655
g86
g87
ssg75
g649
sg68
(lp656
g319
asbag61
(g82
g63
NtRp657
(dp658
g66
(dp659
g93
g94
ssg75
g649
sg68
(lp660
S':'
asbag61
(g82
g63
NtRp661
(dp662
g66
(dp663
sg75
g649
sg68
(lp664
g61
(g62
g63
NtRp665
(dp666
g66
(dp667
g74
I3
ssg75
g661
sg68
(lp668
S''
asbasbasbag61
(g77
g63
NtRp669
(dp670
g66
(dp671
sg75
g625
sg68
(lp672
g61
(g82
g63
NtRp673
(dp674
g66
(dp675
g86
g87
ssg75
g669
sg68
(lp676
g340
asbag61
(g82
g63
NtRp677
(dp678
g66
(dp679
g93
g94
ssg75
g669
sg68
(lp680
S':'
asbag61
(g82
g63
NtRp681
(dp682
g66
(dp683
sg75
g669
sg68
(lp684
g61
(g62
g63
NtRp685
(dp686
g66
(dp687
g74
I3
ssg75
g681
sg68
(lp688
S''
asbasbasbag61
(g77
g63
NtRp689
(dp690
g66
(dp691
sg75
g625
sg68
(lp692
g61
(g82
g63
NtRp693
(dp694
g66
(dp695
g86
g87
ssg75
g689
sg68
(lp696
g361
asbag61
(g82
g63
NtRp697
(dp698
g66
(dp699
g93
g94
ssg75
g689
sg68
(lp700
S':'
asbag61
(g82
g63
NtRp701
(dp702
g66
(dp703
sg75
g689
sg68
(lp704
g61
(g62
g63
NtRp705
(dp706
g66
(dp707
g74
I3
ssg75
g701
sg68
(lp708
S''
asbasbasbag61
(g77
g63
NtRp709
(dp710
g66
(dp711
sg75
g625
sg68
(lp712
g61
(g82
g63
NtRp713
(dp714
g66
(dp715
g86
g87
ssg75
g709
sg68
(lp716
g382
asbag61
(g82
g63
NtRp717
(dp718
g66
(dp719
g93
g94
ssg75
g709
sg68
(lp720
S':'
asbag61
(g82
g63
NtRp721
(dp722
g66
(dp723
sg75
g709
sg68
(lp724
g61
(g62
g63
NtRp725
(dp726
g66
(dp727
g74
I3
ssg75
g721
sg68
(lp728
S''
asbasbasbag61
(g77
g63
NtRp729
(dp730
g66
(dp731
sg75
g625
sg68
(lp732
g61
(g82
g63
NtRp733
(dp734
g66
(dp735
g86
g87
ssg75
g729
sg68
(lp736
g403
asbag61
(g82
g63
NtRp737
(dp738
g66
(dp739
g93
g94
ssg75
g729
sg68
(lp740
S':'
asbag61
(g82
g63
NtRp741
(dp742
g66
(dp743
sg75
g729
sg68
(lp744
g61
(g62
g63
NtRp745
(dp746
g66
(dp747
g74
I3
ssg75
g741
sg68
(lp748
S''
asbasbasbag61
(g77
g63
NtRp749
(dp750
g66
(dp751
sg75
g625
sg68
(lp752
g61
(g82
g63
NtRp753
(dp754
g66
(dp755
g86
g87
ssg75
g749
sg68
(lp756
g424
asbag61
(g82
g63
NtRp757
(dp758
g66
(dp759
g93
g94
ssg75
g749
sg68
(lp760
S':'
asbag61
(g82
g63
NtRp761
(dp762
g66
(dp763
sg75
g749
sg68
(lp764
g61
(g62
g63
NtRp765
(dp766
g66
(dp767
g74
I3
ssg75
g761
sg68
(lp768
S''
asbasbasbasbasbasbasbasbasbasbasbag61
(g77
g63
NtRp769
(dp770
g66
(dp771
sg75
g71
sg68
(lp772
g61
(g82
g63
NtRp773
(dp774
g66
(dp775
g86
g87
ssg75
g769
sg68
(lp776
S'env'
p777
asbag61
(g82
g63
NtRp778
(dp779
g66
(dp780
g93
g94
ssg75
g769
sg68
(lp781
S':'
asbag61
(g82
g63
NtRp782
(dp783
g66
(dp784
sg75
g769
sg68
(lp785
g61
(g62
g63
NtRp786
(dp787
g66
(dp788
g74
I5
ssg75
g782
sg68
(lp789
g61
(g70
g63
NtRp790
(dp791
g66
(dp792
g74
I4
ssg75
Nsg68
(lp793
g61
(g77
g63
NtRp794
(dp795
g66
(dp796
sg75
g790
sg68
(lp797
g61
(g82
g63
NtRp798
(dp799
g66
(dp800
g86
g87
ssg75
g794
sg68
(lp801
S'app_folders'
p802
asbag61
(g82
g63
NtRp803
(dp804
g66
(dp805
g93
g94
ssg75
g794
sg68
(lp806
S':'
asbag61
(g82
g63
NtRp807
(dp808
g66
(dp809
sg75
g794
sg68
(lp810
g61
(g62
g63
NtRp811
(dp812
g66
(dp813
g74
I4
ssg75
g807
sg68
(lp814
S"set(['/Users/abaric/Downloads/web2py/web2py.app/Contents/Resources/applications/Final_Impulse/', '/Users/abaric/Downloads/web2py/web2py.app/Contents/Resources/applications/welcome/', '/Users/abaric/Downloads/web2py/web2py.app/Contents/Resources/applications/admin/'])"
p815
asbasbasbag61
(g77
g63
NtRp816
(dp817
g66
(dp818
sg75
g790
sg68
(lp819
g61
(g82
g63
NtRp820
(dp821
g66
(dp822
g86
g87
ssg75
g816
sg68
(lp823
S'applications_parent'
p824
asbag61
(g82
g63
NtRp825
(dp826
g66
(dp827
g93
g94
ssg75
g816
sg68
(lp828
S':'
asbag61
(g82
g63
NtRp829
(dp830
g66
(dp831
sg75
g816
sg68
(lp832
g61
(g62
g63
NtRp833
(dp834
g66
(dp835
g74
I4
ssg75
g829
sg68
(lp836
S'/Users/abaric/Downloads/web2py/web2py.app/Contents/Resources'
p837
asbasbasbag61
(g77
g63
NtRp838
(dp839
g66
(dp840
sg75
g790
sg68
(lp841
g61
(g82
g63
NtRp842
(dp843
g66
(dp844
g86
g87
ssg75
g838
sg68
(lp845
S'cmd_args'
p846
asbag61
(g82
g63
NtRp847
(dp848
g66
(dp849
g93
g94
ssg75
g838
sg68
(lp850
S':'
asbag61
(g82
g63
NtRp851
(dp852
g66
(dp853
sg75
g838
sg68
(lp854
g61
(g62
g63
NtRp855
(dp856
g66
(dp857
g74
I4
ssg75
g851
sg68
(lp858
g61
(g70
g63
NtRp859
(dp860
g66
(dp861
g74
I3
ssg75
Nsg68
(lp862
sbasbasbasbag61
(g77
g63
NtRp863
(dp864
g66
(dp865
sg75
g790
sg68
(lp866
g61
(g82
g63
NtRp867
(dp868
g66
(dp869
g86
g87
ssg75
g863
sg68
(lp870
S'cmd_options'
p871
asbag61
(g82
g63
NtRp872
(dp873
g66
(dp874
g93
g94
ssg75
g863
sg68
(lp875
S':'
asbag61
(g82
g63
NtRp876
(dp877
g66
(dp878
sg75
g863
sg68
(lp879
g61
(g62
g63
NtRp880
(dp881
g66
(dp882
g74
I4
ssg75
g876
sg68
(lp883
S"<Values at 0x442e1c0: {'verbose': False, 'ip': '127.0.0.1', 'with_scheduler': False, 'ips': ['10.1.8.234'], 'shutdown_timeout': 5, 'taskbar': False, 'port': 8000, 'maxthreads': None, 'softcron': False, 'server_name': 'Andrea-Barics-MacBook-Pro.local', 'bpython': False, 'nogui': False, 'pid_filename': 'httpserver.pid', 'extcron': False, 'runcron': False, 'run_system_tests': False, 'test': None, 'folder': '/Users/abaric/Downloads/web2py/web2py.app/Contents/Resources', 'config': '', 'import_models': False, 'winservice': '', 'shell': None, 'run': '', 'log_filename': 'httpserver.log', 'debuglevel': 30, 'args': [''], 'socket_timeout': 5, 'ssl_ca_certificate': None, 'scheduler': None, 'profiler_filename': None, 'ssl_private_key': '', 'scheduler_groups': None, 'password': '<ask>', 'request_queue_size': 5, 'ssl_certificate': '', 'cronjob': False, 'numthreads': None, 'quiet': False, 'interfaces': None, 'minthreads': None, 'timeout': 10, 'plain': False, 'nobanner': False}>"
p884
asbasbasbag61
(g77
g63
NtRp885
(dp886
g66
(dp887
sg75
g790
sg68
(lp888
g61
(g82
g63
NtRp889
(dp890
g66
(dp891
g86
g87
ssg75
g885
sg68
(lp892
S'db_sessions'
p893
asbag61
(g82
g63
NtRp894
(dp895
g66
(dp896
g93
g94
ssg75
g885
sg68
(lp897
S':'
asbag61
(g82
g63
NtRp898
(dp899
g66
(dp900
sg75
g885
sg68
(lp901
g61
(g62
g63
NtRp902
(dp903
g66
(dp904
g74
I4
ssg75
g898
sg68
(lp905
S'set([])'
p906
asbasbasbag61
(g77
g63
NtRp907
(dp908
g66
(dp909
sg75
g790
sg68
(lp910
g61
(g82
g63
NtRp911
(dp912
g66
(dp913
g86
g87
ssg75
g907
sg68
(lp914
S'debugging'
p915
asbag61
(g82
g63
NtRp916
(dp917
g66
(dp918
g93
g94
ssg75
g907
sg68
(lp919
S':'
asbag61
(g82
g63
NtRp920
(dp921
g66
(dp922
sg75
g907
sg68
(lp923
g61
(g62
g63
NtRp924
(dp925
g66
(dp926
g74
I4
ssg75
g920
sg68
(lp927
g104
asbasbasbag61
(g77
g63
NtRp928
(dp929
g66
(dp930
sg75
g790
sg68
(lp931
g61
(g82
g63
NtRp932
(dp933
g66
(dp934
g86
g87
ssg75
g928
sg68
(lp935
S'gluon_parent'
p936
asbag61
(g82
g63
NtRp937
(dp938
g66
(dp939
g93
g94
ssg75
g928
sg68
(lp940
S':'
asbag61
(g82
g63
NtRp941
(dp942
g66
(dp943
sg75
g928
sg68
(lp944
g61
(g62
g63
NtRp945
(dp946
g66
(dp947
g74
I4
ssg75
g941
sg68
(lp948
S'/Users/abaric/Downloads/web2py/web2py.app/Contents/Resources'
p949
asbasbasbag61
(g77
g63
NtRp950
(dp951
g66
(dp952
sg75
g790
sg68
(lp953
g61
(g82
g63
NtRp954
(dp955
g66
(dp956
g86
g87
ssg75
g950
sg68
(lp957
S'http_accept'
p958
asbag61
(g82
g63
NtRp959
(dp960
g66
(dp961
g93
g94
ssg75
g950
sg68
(lp962
S':'
asbag61
(g82
g63
NtRp963
(dp964
g66
(dp965
sg75
g950
sg68
(lp966
g61
(g62
g63
NtRp967
(dp968
g66
(dp969
g74
I4
ssg75
g963
sg68
(lp970
S'text/html,application/xhtml+xml,application/xml;q=0.9,*/*;q=0.8'
p971
asbasbasbag61
(g77
g63
NtRp972
(dp973
g66
(dp974
sg75
g790
sg68
(lp975
g61
(g82
g63
NtRp976
(dp977
g66
(dp978
g86
g87
ssg75
g972
sg68
(lp979
S'http_accept_encoding'
p980
asbag61
(g82
g63
NtRp981
(dp982
g66
(dp983
g93
g94
ssg75
g972
sg68
(lp984
S':'
asbag61
(g82
g63
NtRp985
(dp986
g66
(dp987
sg75
g972
sg68
(lp988
g61
(g62
g63
NtRp989
(dp990
g66
(dp991
g74
I4
ssg75
g985
sg68
(lp992
S'gzip, deflate'
p993
asbasbasbag61
(g77
g63
NtRp994
(dp995
g66
(dp996
sg75
g790
sg68
(lp997
g61
(g82
g63
NtRp998
(dp999
g66
(dp1000
g86
g87
ssg75
g994
sg68
(lp1001
S'http_accept_language'
p1002
asbag61
(g82
g63
NtRp1003
(dp1004
g66
(dp1005
g93
g94
ssg75
g994
sg68
(lp1006
S':'
asbag61
(g82
g63
NtRp1007
(dp1008
g66
(dp1009
sg75
g994
sg68
(lp1010
g61
(g62
g63
NtRp1011
(dp1012
g66
(dp1013
g74
I4
ssg75
g1007
sg68
(lp1014
S'en-us'
p1015
asbasbasbag61
(g77
g63
NtRp1016
(dp1017
g66
(dp1018
sg75
g790
sg68
(lp1019
g61
(g82
g63
NtRp1020
(dp1021
g66
(dp1022
g86
g87
ssg75
g1016
sg68
(lp1023
S'http_connection'
p1024
asbag61
(g82
g63
NtRp1025
(dp1026
g66
(dp1027
g93
g94
ssg75
g1016
sg68
(lp1028
S':'
asbag61
(g82
g63
NtRp1029
(dp1030
g66
(dp1031
sg75
g1016
sg68
(lp1032
g61
(g62
g63
NtRp1033
(dp1034
g66
(dp1035
g74
I4
ssg75
g1029
sg68
(lp1036
S'keep-alive'
p1037
asbasbasbag61
(g77
g63
NtRp1038
(dp1039
g66
(dp1040
sg75
g790
sg68
(lp1041
g61
(g82
g63
NtRp1042
(dp1043
g66
(dp1044
g86
g87
ssg75
g1038
sg68
(lp1045
S'http_cookie'
p1046
asbag61
(g82
g63
NtRp1047
(dp1048
g66
(dp1049
g93
g94
ssg75
g1038
sg68
(lp1050
S':'
asbag61
(g82
g63
NtRp1051
(dp1052
g66
(dp1053
sg75
g1038
sg68
(lp1054
g61
(g62
g63
NtRp1055
(dp1056
g66
(dp1057
g74
I4
ssg75
g1051
sg68
(lp1058
S'session_id_final_impulse=127.0.0.1-74b0ab87-cc9c-4772-8ab4-9357b1f96576; session_id_admin=127.0.0.1-0ba3c38c-2343-4ee4-b45e-2a129ee8fadd; session_id_welcome=127.0.0.1-e23e93b7-1014-4c84-bd56-e856c910533e'
p1059
asbasbasbag61
(g77
g63
NtRp1060
(dp1061
g66
(dp1062
sg75
g790
sg68
(lp1063
g61
(g82
g63
NtRp1064
(dp1065
g66
(dp1066
g86
g87
ssg75
g1060
sg68
(lp1067
S'http_host'
p1068
asbag61
(g82
g63
NtRp1069
(dp1070
g66
(dp1071
g93
g94
ssg75
g1060
sg68
(lp1072
S':'
asbag61
(g82
g63
NtRp1073
(dp1074
g66
(dp1075
sg75
g1060
sg68
(lp1076
g61
(g62
g63
NtRp1077
(dp1078
g66
(dp1079
g74
I4
ssg75
g1073
sg68
(lp1080
S'127.0.0.1:8000'
p1081
asbasbasbag61
(g77
g63
NtRp1082
(dp1083
g66
(dp1084
sg75
g790
sg68
(lp1085
g61
(g82
g63
NtRp1086
(dp1087
g66
(dp1088
g86
g87
ssg75
g1082
sg68
(lp1089
S'http_referer'
p1090
asbag61
(g82
g63
NtRp1091
(dp1092
g66
(dp1093
g93
g94
ssg75
g1082
sg68
(lp1094
S':'
asbag61
(g82
g63
NtRp1095
(dp1096
g66
(dp1097
sg75
g1082
sg68
(lp1098
g61
(g62
g63
NtRp1099
(dp1100
g66
(dp1101
g74
I4
ssg75
g1095
sg68
(lp1102
S'http://127.0.0.1:8000/Final_Impulse/default/index'
p1103
asbasbasbag61
(g77
g63
NtRp1104
(dp1105
g66
(dp1106
sg75
g790
sg68
(lp1107
g61
(g82
g63
NtRp1108
(dp1109
g66
(dp1110
g86
g87
ssg75
g1104
sg68
(lp1111
S'http_user_agent'
p1112
asbag61
(g82
g63
NtRp1113
(dp1114
g66
(dp1115
g93
g94
ssg75
g1104
sg68
(lp1116
S':'
asbag61
(g82
g63
NtRp1117
(dp1118
g66
(dp1119
sg75
g1104
sg68
(lp1120
g61
(g62
g63
NtRp1121
(dp1122
g66
(dp1123
g74
I4
ssg75
g1117
sg68
(lp1124
S'Mozilla/5.0 (Macintosh; Intel Mac OS X 10_8_4) AppleWebKit/536.30.1 (KHTML, like Gecko) Version/6.0.5 Safari/536.30.1'
p1125
asbasbasbag61
(g77
g63
NtRp1126
(dp1127
g66
(dp1128
sg75
g790
sg68
(lp1129
g61
(g82
g63
NtRp1130
(dp1131
g66
(dp1132
g86
g87
ssg75
g1126
sg68
(lp1133
S'is_jython'
p1134
asbag61
(g82
g63
NtRp1135
(dp1136
g66
(dp1137
g93
g94
ssg75
g1126
sg68
(lp1138
S':'
asbag61
(g82
g63
NtRp1139
(dp1140
g66
(dp1141
sg75
g1126
sg68
(lp1142
g61
(g62
g63
NtRp1143
(dp1144
g66
(dp1145
g74
I4
ssg75
g1139
sg68
(lp1146
g104
asbasbasbag61
(g77
g63
NtRp1147
(dp1148
g66
(dp1149
sg75
g790
sg68
(lp1150
g61
(g82
g63
NtRp1151
(dp1152
g66
(dp1153
g86
g87
ssg75
g1147
sg68
(lp1154
S'is_pypy'
p1155
asbag61
(g82
g63
NtRp1156
(dp1157
g66
(dp1158
g93
g94
ssg75
g1147
sg68
(lp1159
S':'
asbag61
(g82
g63
NtRp1160
(dp1161
g66
(dp1162
sg75
g1147
sg68
(lp1163
g61
(g62
g63
NtRp1164
(dp1165
g66
(dp1166
g74
I4
ssg75
g1160
sg68
(lp1167
g104
asbasbasbag61
(g77
g63
NtRp1168
(dp1169
g66
(dp1170
sg75
g790
sg68
(lp1171
g61
(g82
g63
NtRp1172
(dp1173
g66
(dp1174
g86
g87
ssg75
g1168
sg68
(lp1175
S'local_hosts'
p1176
asbag61
(g82
g63
NtRp1177
(dp1178
g66
(dp1179
g93
g94
ssg75
g1168
sg68
(lp1180
S':'
asbag61
(g82
g63
NtRp1181
(dp1182
g66
(dp1183
sg75
g1168
sg68
(lp1184
g61
(g62
g63
NtRp1185
(dp1186
g66
(dp1187
g74
I4
ssg75
g1181
sg68
(lp1188
g61
(g70
g63
NtRp1189
(dp1190
g66
(dp1191
g74
I3
ssg75
Nsg68
(lp1192
g61
(g77
g63
NtRp1193
(dp1194
g66
(dp1195
sg75
g1189
sg68
(lp1196
g61
(g82
g63
NtRp1197
(dp1198
g66
(dp1199
sg75
g1193
sg68
(lp1200
g61
(g62
g63
NtRp1201
(dp1202
g66
(dp1203
g74
I3
ssg75
g1197
sg68
(lp1204
S'127.0.0.1'
p1205
asbasbasbag61
(g77
g63
NtRp1206
(dp1207
g66
(dp1208
sg75
g1189
sg68
(lp1209
g61
(g82
g63
NtRp1210
(dp1211
g66
(dp1212
sg75
g1206
sg68
(lp1213
g61
(g62
g63
NtRp1214
(dp1215
g66
(dp1216
g74
I3
ssg75
g1210
sg68
(lp1217
S'::ffff:127.0.0.1'
p1218
asbasbasbag61
(g77
g63
NtRp1219
(dp1220
g66
(dp1221
sg75
g1189
sg68
(lp1222
g61
(g82
g63
NtRp1223
(dp1224
g66
(dp1225
sg75
g1219
sg68
(lp1226
g61
(g62
g63
NtRp1227
(dp1228
g66
(dp1229
g74
I3
ssg75
g1223
sg68
(lp1230
S'Andrea-Barics-MacBook-Pro.local'
p1231
asbasbasbag61
(g77
g63
NtRp1232
(dp1233
g66
(dp1234
sg75
g1189
sg68
(lp1235
g61
(g82
g63
NtRp1236
(dp1237
g66
(dp1238
sg75
g1232
sg68
(lp1239
g61
(g62
g63
NtRp1240
(dp1241
g66
(dp1242
g74
I3
ssg75
g1236
sg68
(lp1243
S'Andrea-Barics-MacBook-Pro.local'
p1244
asbasbasbag61
(g77
g63
NtRp1245
(dp1246
g66
(dp1247
sg75
g1189
sg68
(lp1248
g61
(g82
g63
NtRp1249
(dp1250
g66
(dp1251
sg75
g1245
sg68
(lp1252
g61
(g62
g63
NtRp1253
(dp1254
g66
(dp1255
g74
I3
ssg75
g1249
sg68
(lp1256
S'10.1.8.234'
p1257
asbasbasbasbasbasbasbag61
(g77
g63
NtRp1258
(dp1259
g66
(dp1260
sg75
g790
sg68
(lp1261
g61
(g82
g63
NtRp1262
(dp1263
g66
(dp1264
g86
g87
ssg75
g1258
sg68
(lp1265
S'path_info'
p1266
asbag61
(g82
g63
NtRp1267
(dp1268
g66
(dp1269
g93
g94
ssg75
g1258
sg68
(lp1270
S':'
asbag61
(g82
g63
NtRp1271
(dp1272
g66
(dp1273
sg75
g1258
sg68
(lp1274
g61
(g62
g63
NtRp1275
(dp1276
g66
(dp1277
g74
I4
ssg75
g1271
sg68
(lp1278
S'/Final_Impulse/default/show_image_comments'
p1279
asbasbasbag61
(g77
g63
NtRp1280
(dp1281
g66
(dp1282
sg75
g790
sg68
(lp1283
g61
(g82
g63
NtRp1284
(dp1285
g66
(dp1286
g86
g87
ssg75
g1280
sg68
(lp1287
S'query_string'
p1288
asbag61
(g82
g63
NtRp1289
(dp1290
g66
(dp1291
g93
g94
ssg75
g1280
sg68
(lp1292
S':'
asbag61
(g82
g63
NtRp1293
(dp1294
g66
(dp1295
sg75
g1280
sg68
(lp1296
g61
(g62
g63
NtRp1297
(dp1298
g66
(dp1299
g74
I4
ssg75
g1293
sg68
(lp1300
S''
asbasbasbag61
(g77
g63
NtRp1301
(dp1302
g66
(dp1303
sg75
g790
sg68
(lp1304
g61
(g82
g63
NtRp1305
(dp1306
g66
(dp1307
g86
g87
ssg75
g1301
sg68
(lp1308
S'remote_addr'
p1309
asbag61
(g82
g63
NtRp1310
(dp1311
g66
(dp1312
g93
g94
ssg75
g1301
sg68
(lp1313
S':'
asbag61
(g82
g63
NtRp1314
(dp1315
g66
(dp1316
sg75
g1301
sg68
(lp1317
g61
(g62
g63
NtRp1318
(dp1319
g66
(dp1320
g74
I4
ssg75
g1314
sg68
(lp1321
g216
asbasbasbag61
(g77
g63
NtRp1322
(dp1323
g66
(dp1324
sg75
g790
sg68
(lp1325
g61
(g82
g63
NtRp1326
(dp1327
g66
(dp1328
g86
g87
ssg75
g1322
sg68
(lp1329
S'remote_port'
p1330
asbag61
(g82
g63
NtRp1331
(dp1332
g66
(dp1333
g93
g94
ssg75
g1322
sg68
(lp1334
S':'
asbag61
(g82
g63
NtRp1335
(dp1336
g66
(dp1337
sg75
g1322
sg68
(lp1338
g61
(g62
g63
NtRp1339
(dp1340
g66
(dp1341
g74
I4
ssg75
g1335
sg68
(lp1342
S'64062'
p1343
asbasbasbag61
(g77
g63
NtRp1344
(dp1345
g66
(dp1346
sg75
g790
sg68
(lp1347
g61
(g82
g63
NtRp1348
(dp1349
g66
(dp1350
g86
g87
ssg75
g1344
sg68
(lp1351
S'request_method'
p1352
asbag61
(g82
g63
NtRp1353
(dp1354
g66
(dp1355
g93
g94
ssg75
g1344
sg68
(lp1356
S':'
asbag61
(g82
g63
NtRp1357
(dp1358
g66
(dp1359
sg75
g1344
sg68
(lp1360
g61
(g62
g63
NtRp1361
(dp1362
g66
(dp1363
g74
I4
ssg75
g1357
sg68
(lp1364
S'GET'
p1365
asbasbasbag61
(g77
g63
NtRp1366
(dp1367
g66
(dp1368
sg75
g790
sg68
(lp1369
g61
(g82
g63
NtRp1370
(dp1371
g66
(dp1372
g86
g87
ssg75
g1366
sg68
(lp1373
S'request_uri'
p1374
asbag61
(g82
g63
NtRp1375
(dp1376
g66
(dp1377
g93
g94
ssg75
g1366
sg68
(lp1378
S':'
asbag61
(g82
g63
NtRp1379
(dp1380
g66
(dp1381
sg75
g1366
sg68
(lp1382
g61
(g62
g63
NtRp1383
(dp1384
g66
(dp1385
g74
I4
ssg75
g1379
sg68
(lp1386
g1279
asbasbasbag61
(g77
g63
NtRp1387
(dp1388
g66
(dp1389
sg75
g790
sg68
(lp1390
g61
(g82
g63
NtRp1391
(dp1392
g66
(dp1393
g86
g87
ssg75
g1387
sg68
(lp1394
S'script_name'
p1395
asbag61
(g82
g63
NtRp1396
(dp1397
g66
(dp1398
g93
g94
ssg75
g1387
sg68
(lp1399
S':'
asbag61
(g82
g63
NtRp1400
(dp1401
g66
(dp1402
sg75
g1387
sg68
(lp1403
g61
(g62
g63
NtRp1404
(dp1405
g66
(dp1406
g74
I4
ssg75
g1400
sg68
(lp1407
S''
asbasbasbag61
(g77
g63
NtRp1408
(dp1409
g66
(dp1410
sg75
g790
sg68
(lp1411
g61
(g82
g63
NtRp1412
(dp1413
g66
(dp1414
g86
g87
ssg75
g1408
sg68
(lp1415
S'server_name'
p1416
asbag61
(g82
g63
NtRp1417
(dp1418
g66
(dp1419
g93
g94
ssg75
g1408
sg68
(lp1420
S':'
asbag61
(g82
g63
NtRp1421
(dp1422
g66
(dp1423
sg75
g1408
sg68
(lp1424
g61
(g62
g63
NtRp1425
(dp1426
g66
(dp1427
g74
I4
ssg75
g1421
sg68
(lp1428
g1244
asbasbasbag61
(g77
g63
NtRp1429
(dp1430
g66
(dp1431
sg75
g790
sg68
(lp1432
g61
(g82
g63
NtRp1433
(dp1434
g66
(dp1435
g86
g87
ssg75
g1429
sg68
(lp1436
S'server_port'
p1437
asbag61
(g82
g63
NtRp1438
(dp1439
g66
(dp1440
g93
g94
ssg75
g1429
sg68
(lp1441
S':'
asbag61
(g82
g63
NtRp1442
(dp1443
g66
(dp1444
sg75
g1429
sg68
(lp1445
g61
(g62
g63
NtRp1446
(dp1447
g66
(dp1448
g74
I4
ssg75
g1442
sg68
(lp1449
S'8000'
p1450
asbasbasbag61
(g77
g63
NtRp1451
(dp1452
g66
(dp1453
sg75
g790
sg68
(lp1454
g61
(g82
g63
NtRp1455
(dp1456
g66
(dp1457
g86
g87
ssg75
g1451
sg68
(lp1458
S'server_protocol'
p1459
asbag61
(g82
g63
NtRp1460
(dp1461
g66
(dp1462
g93
g94
ssg75
g1451
sg68
(lp1463
S':'
asbag61
(g82
g63
NtRp1464
(dp1465
g66
(dp1466
sg75
g1451
sg68
(lp1467
g61
(g62
g63
NtRp1468
(dp1469
g66
(dp1470
g74
I4
ssg75
g1464
sg68
(lp1471
S'HTTP/1.1'
p1472
asbasbasbag61
(g77
g63
NtRp1473
(dp1474
g66
(dp1475
sg75
g790
sg68
(lp1476
g61
(g82
g63
NtRp1477
(dp1478
g66
(dp1479
g86
g87
ssg75
g1473
sg68
(lp1480
S'server_software'
p1481
asbag61
(g82
g63
NtRp1482
(dp1483
g66
(dp1484
g93
g94
ssg75
g1473
sg68
(lp1485
S':'
asbag61
(g82
g63
NtRp1486
(dp1487
g66
(dp1488
sg75
g1473
sg68
(lp1489
g61
(g62
g63
NtRp1490
(dp1491
g66
(dp1492
g74
I4
ssg75
g1486
sg68
(lp1493
S'Rocket 1.2.5'
p1494
asbasbasbag61
(g77
g63
NtRp1495
(dp1496
g66
(dp1497
sg75
g790
sg68
(lp1498
g61
(g82
g63
NtRp1499
(dp1500
g66
(dp1501
g86
g87
ssg75
g1495
sg68
(lp1502
S'web2py_path'
p1503
asbag61
(g82
g63
NtRp1504
(dp1505
g66
(dp1506
g93
g94
ssg75
g1495
sg68
(lp1507
S':'
asbag61
(g82
g63
NtRp1508
(dp1509
g66
(dp1510
sg75
g1495
sg68
(lp1511
g61
(g62
g63
NtRp1512
(dp1513
g66
(dp1514
g74
I4
ssg75
g1508
sg68
(lp1515
g837
asbasbasbag61
(g77
g63
NtRp1516
(dp1517
g66
(dp1518
sg75
g790
sg68
(lp1519
g61
(g82
g63
NtRp1520
(dp1521
g66
(dp1522
g86
g87
ssg75
g1516
sg68
(lp1523
S'web2py_version'
p1524
asbag61
(g82
g63
NtRp1525
(dp1526
g66
(dp1527
g93
g94
ssg75
g1516
sg68
(lp1528
S':'
asbag61
(g82
g63
NtRp1529
(dp1530
g66
(dp1531
sg75
g1516
sg68
(lp1532
g61
(g62
g63
NtRp1533
(dp1534
g66
(dp1535
g74
I4
ssg75
g1529
sg68
(lp1536
g61
(g70
g63
NtRp1537
(dp1538
g66
(dp1539
g74
I3
ssg75
Nsg68
(lp1540
g61
(g77
g63
NtRp1541
(dp1542
g66
(dp1543
sg75
g1537
sg68
(lp1544
g61
(g82
g63
NtRp1545
(dp1546
g66
(dp1547
sg75
g1541
sg68
(lp1548
g61
(g62
g63
NtRp1549
(dp1550
g66
(dp1551
g74
I3
ssg75
g1545
sg68
(lp1552
S'2'
asbasbasbag61
(g77
g63
NtRp1553
(dp1554
g66
(dp1555
sg75
g1537
sg68
(lp1556
g61
(g82
g63
NtRp1557
(dp1558
g66
(dp1559
sg75
g1553
sg68
(lp1560
g61
(g62
g63
NtRp1561
(dp1562
g66
(dp1563
g74
I3
ssg75
g1557
sg68
(lp1564
S'2'
asbasbasbag61
(g77
g63
NtRp1565
(dp1566
g66
(dp1567
sg75
g1537
sg68
(lp1568
g61
(g82
g63
NtRp1569
(dp1570
g66
(dp1571
sg75
g1565
sg68
(lp1572
g61
(g62
g63
NtRp1573
(dp1574
g66
(dp1575
g74
I3
ssg75
g1569
sg68
(lp1576
S'1'
asbasbasbag61
(g77
g63
NtRp1577
(dp1578
g66
(dp1579
sg75
g1537
sg68
(lp1580
g61
(g82
g63
NtRp1581
(dp1582
g66
(dp1583
sg75
g1577
sg68
(lp1584
g61
(g62
g63
NtRp1585
(dp1586
g66
(dp1587
g74
I3
ssg75
g1581
sg68
(lp1588
S'datetime.datetime(2012, 10, 21, 16, 57, 4)'
p1589
asbasbasbag61
(g77
g63
NtRp1590
(dp1591
g66
(dp1592
sg75
g1537
sg68
(lp1593
g61
(g82
g63
NtRp1594
(dp1595
g66
(dp1596
sg75
g1590
sg68
(lp1597
g61
(g62
g63
NtRp1598
(dp1599
g66
(dp1600
g74
I3
ssg75
g1594
sg68
(lp1601
S'stable'
p1602
asbasbasbasbasbasbasbag61
(g77
g63
NtRp1603
(dp1604
g66
(dp1605
sg75
g790
sg68
(lp1606
g61
(g82
g63
NtRp1607
(dp1608
g66
(dp1609
g86
g87
ssg75
g1603
sg68
(lp1610
S'wsgi_errors'
p1611
asbag61
(g82
g63
NtRp1612
(dp1613
g66
(dp1614
g93
g94
ssg75
g1603
sg68
(lp1615
S':'
asbag61
(g82
g63
NtRp1616
(dp1617
g66
(dp1618
sg75
g1603
sg68
(lp1619
g61
(g62
g63
NtRp1620
(dp1621
g66
(dp1622
g74
I4
ssg75
g1616
sg68
(lp1623
S"<open file '<stderr>', mode 'w' at 0x540b0>"
p1624
asbasbasbag61
(g77
g63
NtRp1625
(dp1626
g66
(dp1627
sg75
g790
sg68
(lp1628
g61
(g82
g63
NtRp1629
(dp1630
g66
(dp1631
g86
g87
ssg75
g1625
sg68
(lp1632
S'wsgi_file_wrapper'
p1633
asbag61
(g82
g63
NtRp1634
(dp1635
g66
(dp1636
g93
g94
ssg75
g1625
sg68
(lp1637
S':'
asbag61
(g82
g63
NtRp1638
(dp1639
g66
(dp1640
sg75
g1625
sg68
(lp1641
g61
(g62
g63
NtRp1642
(dp1643
g66
(dp1644
g74
I4
ssg75
g1638
sg68
(lp1645
S'<class wsgiref.util.FileWrapper at 0x44002d0>'
p1646
asbasbasbag61
(g77
g63
NtRp1647
(dp1648
g66
(dp1649
sg75
g790
sg68
(lp1650
g61
(g82
g63
NtRp1651
(dp1652
g66
(dp1653
g86
g87
ssg75
g1647
sg68
(lp1654
S'wsgi_input'
p1655
asbag61
(g82
g63
NtRp1656
(dp1657
g66
(dp1658
g93
g94
ssg75
g1647
sg68
(lp1659
S':'
asbag61
(g82
g63
NtRp1660
(dp1661
g66
(dp1662
sg75
g1647
sg68
(lp1663
g61
(g62
g63
NtRp1664
(dp1665
g66
(dp1666
g74
I4
ssg75
g1660
sg68
(lp1667
S'<socket._fileobject object at 0x77f4eb0>'
p1668
asbasbasbag61
(g77
g63
NtRp1669
(dp1670
g66
(dp1671
sg75
g790
sg68
(lp1672
g61
(g82
g63
NtRp1673
(dp1674
g66
(dp1675
g86
g87
ssg75
g1669
sg68
(lp1676
S'wsgi_multiprocess'
p1677
asbag61
(g82
g63
NtRp1678
(dp1679
g66
(dp1680
g93
g94
ssg75
g1669
sg68
(lp1681
S':'
asbag61
(g82
g63
NtRp1682
(dp1683
g66
(dp1684
sg75
g1669
sg68
(lp1685
g61
(g62
g63
NtRp1686
(dp1687
g66
(dp1688
g74
I4
ssg75
g1682
sg68
(lp1689
g104
asbasbasbag61
(g77
g63
NtRp1690
(dp1691
g66
(dp1692
sg75
g790
sg68
(lp1693
g61
(g82
g63
NtRp1694
(dp1695
g66
(dp1696
g86
g87
ssg75
g1690
sg68
(lp1697
S'wsgi_multithread'
p1698
asbag61
(g82
g63
NtRp1699
(dp1700
g66
(dp1701
g93
g94
ssg75
g1690
sg68
(lp1702
S':'
asbag61
(g82
g63
NtRp1703
(dp1704
g66
(dp1705
sg75
g1690
sg68
(lp1706
g61
(g62
g63
NtRp1707
(dp1708
g66
(dp1709
g74
I4
ssg75
g1703
sg68
(lp1710
S'True'
p1711
asbasbasbag61
(g77
g63
NtRp1712
(dp1713
g66
(dp1714
sg75
g790
sg68
(lp1715
g61
(g82
g63
NtRp1716
(dp1717
g66
(dp1718
g86
g87
ssg75
g1712
sg68
(lp1719
S'wsgi_run_once'
p1720
asbag61
(g82
g63
NtRp1721
(dp1722
g66
(dp1723
g93
g94
ssg75
g1712
sg68
(lp1724
S':'
asbag61
(g82
g63
NtRp1725
(dp1726
g66
(dp1727
sg75
g1712
sg68
(lp1728
g61
(g62
g63
NtRp1729
(dp1730
g66
(dp1731
g74
I4
ssg75
g1725
sg68
(lp1732
g104
asbasbasbag61
(g77
g63
NtRp1733
(dp1734
g66
(dp1735
sg75
g790
sg68
(lp1736
g61
(g82
g63
NtRp1737
(dp1738
g66
(dp1739
g86
g87
ssg75
g1733
sg68
(lp1740
S'wsgi_url_scheme'
p1741
asbag61
(g82
g63
NtRp1742
(dp1743
g66
(dp1744
g93
g94
ssg75
g1733
sg68
(lp1745
S':'
asbag61
(g82
g63
NtRp1746
(dp1747
g66
(dp1748
sg75
g1733
sg68
(lp1749
g61
(g62
g63
NtRp1750
(dp1751
g66
(dp1752
g74
I4
ssg75
g1746
sg68
(lp1753
S'http'
p1754
asbasbasbag61
(g77
g63
NtRp1755
(dp1756
g66
(dp1757
sg75
g790
sg68
(lp1758
g61
(g82
g63
NtRp1759
(dp1760
g66
(dp1761
g86
g87
ssg75
g1755
sg68
(lp1762
S'wsgi_version'
p1763
asbag61
(g82
g63
NtRp1764
(dp1765
g66
(dp1766
g93
g94
ssg75
g1755
sg68
(lp1767
S':'
asbag61
(g82
g63
NtRp1768
(dp1769
g66
(dp1770
sg75
g1755
sg68
(lp1771
g61
(g62
g63
NtRp1772
(dp1773
g66
(dp1774
g74
I4
ssg75
g1768
sg68
(lp1775
g61
(g70
g63
NtRp1776
(dp1777
g66
(dp1778
g74
I3
ssg75
Nsg68
(lp1779
g61
(g77
g63
NtRp1780
(dp1781
g66
(dp1782
sg75
g1776
sg68
(lp1783
g61
(g82
g63
NtRp1784
(dp1785
g66
(dp1786
sg75
g1780
sg68
(lp1787
g61
(g62
g63
NtRp1788
(dp1789
g66
(dp1790
g74
I3
ssg75
g1784
sg68
(lp1791
S'1'
asbasbasbag61
(g77
g63
NtRp1792
(dp1793
g66
(dp1794
sg75
g1776
sg68
(lp1795
g61
(g82
g63
NtRp1796
(dp1797
g66
(dp1798
sg75
g1792
sg68
(lp1799
g61
(g62
g63
NtRp1800
(dp1801
g66
(dp1802
g74
I3
ssg75
g1796
sg68
(lp1803
S'0'
asbasbasbasbasbasbasbasbasbasbasbag61
(g77
g63
NtRp1804
(dp1805
g66
(dp1806
sg75
g71
sg68
(lp1807
g61
(g82
g63
NtRp1808
(dp1809
g66
(dp1810
g86
g87
ssg75
g1804
sg68
(lp1811
S'extension'
p1812
asbag61
(g82
g63
NtRp1813
(dp1814
g66
(dp1815
g93
g94
ssg75
g1804
sg68
(lp1816
S':'
asbag61
(g82
g63
NtRp1817
(dp1818
g66
(dp1819
sg75
g1804
sg68
(lp1820
g61
(g62
g63
NtRp1821
(dp1822
g66
(dp1823
g74
I5
ssg75
g1817
sg68
(lp1824
S'html'
p1825
asbasbasbag61
(g77
g63
NtRp1826
(dp1827
g66
(dp1828
sg75
g71
sg68
(lp1829
g61
(g82
g63
NtRp1830
(dp1831
g66
(dp1832
g86
g87
ssg75
g1826
sg68
(lp1833
S'folder'
p1834
asbag61
(g82
g63
NtRp1835
(dp1836
g66
(dp1837
g93
g94
ssg75
g1826
sg68
(lp1838
S':'
asbag61
(g82
g63
NtRp1839
(dp1840
g66
(dp1841
sg75
g1826
sg68
(lp1842
g61
(g62
g63
NtRp1843
(dp1844
g66
(dp1845
g74
I5
ssg75
g1839
sg68
(lp1846
S'/Users/abaric/Downloads/web2py/web2py.app/Contents/Resources/applications/Final_Impulse/'
p1847
asbasbasbag61
(g77
g63
NtRp1848
(dp1849
g66
(dp1850
sg75
g71
sg68
(lp1851
g61
(g82
g63
NtRp1852
(dp1853
g66
(dp1854
g86
g87
ssg75
g1848
sg68
(lp1855
S'function'
p1856
asbag61
(g82
g63
NtRp1857
(dp1858
g66
(dp1859
g93
g94
ssg75
g1848
sg68
(lp1860
S':'
asbag61
(g82
g63
NtRp1861
(dp1862
g66
(dp1863
sg75
g1848
sg68
(lp1864
g61
(g62
g63
NtRp1865
(dp1866
g66
(dp1867
g74
I5
ssg75
g1861
sg68
(lp1868
S'show_image_comments'
p1869
asbasbasbag61
(g77
g63
NtRp1870
(dp1871
g66
(dp1872
sg75
g71
sg68
(lp1873
g61
(g82
g63
NtRp1874
(dp1875
g66
(dp1876
g86
g87
ssg75
g1870
sg68
(lp1877
S'get_vars'
p1878
asbag61
(g82
g63
NtRp1879
(dp1880
g66
(dp1881
g93
g94
ssg75
g1870
sg68
(lp1882
S':'
asbag61
(g82
g63
NtRp1883
(dp1884
g66
(dp1885
sg75
g1870
sg68
(lp1886
g61
(g62
g63
NtRp1887
(dp1888
g66
(dp1889
g74
I5
ssg75
g1883
sg68
(lp1890
g61
(g70
g63
NtRp1891
(dp1892
g66
(dp1893
g74
I4
ssg75
Nsg68
(lp1894
sbasbasbasbag61
(g77
g63
NtRp1895
(dp1896
g66
(dp1897
sg75
g71
sg68
(lp1898
g61
(g82
g63
NtRp1899
(dp1900
g66
(dp1901
g86
g87
ssg75
g1895
sg68
(lp1902
S'global_settings'
p1903
asbag61
(g82
g63
NtRp1904
(dp1905
g66
(dp1906
g93
g94
ssg75
g1895
sg68
(lp1907
S':'
asbag61
(g82
g63
NtRp1908
(dp1909
g66
(dp1910
sg75
g1895
sg68
(lp1911
g61
(g62
g63
NtRp1912
(dp1913
g66
(dp1914
g74
I5
ssg75
g1908
sg68
(lp1915
g61
(g70
g63
NtRp1916
(dp1917
g66
(dp1918
g74
I4
ssg75
Nsg68
(lp1919
g61
(g77
g63
NtRp1920
(dp1921
g66
(dp1922
sg75
g1916
sg68
(lp1923
g61
(g82
g63
NtRp1924
(dp1925
g66
(dp1926
g86
g87
ssg75
g1920
sg68
(lp1927
g802
asbag61
(g82
g63
NtRp1928
(dp1929
g66
(dp1930
g93
g94
ssg75
g1920
sg68
(lp1931
S':'
asbag61
(g82
g63
NtRp1932
(dp1933
g66
(dp1934
sg75
g1920
sg68
(lp1935
g61
(g62
g63
NtRp1936
(dp1937
g66
(dp1938
g74
I4
ssg75
g1932
sg68
(lp1939
S"set(['/Users/abaric/Downloads/web2py/web2py.app/Contents/Resources/applications/Final_Impulse/', '/Users/abaric/Downloads/web2py/web2py.app/Contents/Resources/applications/welcome/', '/Users/abaric/Downloads/web2py/web2py.app/Contents/Resources/applications/admin/'])"
p1940
asbasbasbag61
(g77
g63
NtRp1941
(dp1942
g66
(dp1943
sg75
g1916
sg68
(lp1944
g61
(g82
g63
NtRp1945
(dp1946
g66
(dp1947
g86
g87
ssg75
g1941
sg68
(lp1948
g824
asbag61
(g82
g63
NtRp1949
(dp1950
g66
(dp1951
g93
g94
ssg75
g1941
sg68
(lp1952
S':'
asbag61
(g82
g63
NtRp1953
(dp1954
g66
(dp1955
sg75
g1941
sg68
(lp1956
g61
(g62
g63
NtRp1957
(dp1958
g66
(dp1959
g74
I4
ssg75
g1953
sg68
(lp1960
g837
asbasbasbag61
(g77
g63
NtRp1961
(dp1962
g66
(dp1963
sg75
g1916
sg68
(lp1964
g61
(g82
g63
NtRp1965
(dp1966
g66
(dp1967
g86
g87
ssg75
g1961
sg68
(lp1968
g846
asbag61
(g82
g63
NtRp1969
(dp1970
g66
(dp1971
g93
g94
ssg75
g1961
sg68
(lp1972
S':'
asbag61
(g82
g63
NtRp1973
(dp1974
g66
(dp1975
sg75
g1961
sg68
(lp1976
g61
(g62
g63
NtRp1977
(dp1978
g66
(dp1979
g74
I4
ssg75
g1973
sg68
(lp1980
g61
(g70
g63
NtRp1981
(dp1982
g66
(dp1983
g74
I3
ssg75
Nsg68
(lp1984
sbasbasbasbag61
(g77
g63
NtRp1985
(dp1986
g66
(dp1987
sg75
g1916
sg68
(lp1988
g61
(g82
g63
NtRp1989
(dp1990
g66
(dp1991
g86
g87
ssg75
g1985
sg68
(lp1992
g871
asbag61
(g82
g63
NtRp1993
(dp1994
g66
(dp1995
g93
g94
ssg75
g1985
sg68
(lp1996
S':'
asbag61
(g82
g63
NtRp1997
(dp1998
g66
(dp1999
sg75
g1985
sg68
(lp2000
g61
(g62
g63
NtRp2001
(dp2002
g66
(dp2003
g74
I4
ssg75
g1997
sg68
(lp2004
S"<Values at 0x442e1c0: {'verbose': False, 'ip': '127.0.0.1', 'with_scheduler': False, 'ips': ['10.1.8.234'], 'shutdown_timeout': 5, 'taskbar': False, 'port': 8000, 'maxthreads': None, 'softcron': False, 'server_name': 'Andrea-Barics-MacBook-Pro.local', 'bpython': False, 'nogui': False, 'pid_filename': 'httpserver.pid', 'extcron': False, 'runcron': False, 'run_system_tests': False, 'test': None, 'folder': '/Users/abaric/Downloads/web2py/web2py.app/Contents/Resources', 'config': '', 'import_models': False, 'winservice': '', 'shell': None, 'run': '', 'log_filename': 'httpserver.log', 'debuglevel': 30, 'args': [''], 'socket_timeout': 5, 'ssl_ca_certificate': None, 'scheduler': None, 'profiler_filename': None, 'ssl_private_key': '', 'scheduler_groups': None, 'password': '<ask>', 'request_queue_size': 5, 'ssl_certificate': '', 'cronjob': False, 'numthreads': None, 'quiet': False, 'interfaces': None, 'minthreads': None, 'timeout': 10, 'plain': False, 'nobanner': False}>"
p2005
asbasbasbag61
(g77
g63
NtRp2006
(dp2007
g66
(dp2008
sg75
g1916
sg68
(lp2009
g61
(g82
g63
NtRp2010
(dp2011
g66
(dp2012
g86
g87
ssg75
g2006
sg68
(lp2013
g893
asbag61
(g82
g63
NtRp2014
(dp2015
g66
(dp2016
g93
g94
ssg75
g2006
sg68
(lp2017
S':'
asbag61
(g82
g63
NtRp2018
(dp2019
g66
(dp2020
sg75
g2006
sg68
(lp2021
g61
(g62
g63
NtRp2022
(dp2023
g66
(dp2024
g74
I4
ssg75
g2018
sg68
(lp2025
S'set([])'
p2026
asbasbasbag61
(g77
g63
NtRp2027
(dp2028
g66
(dp2029
sg75
g1916
sg68
(lp2030
g61
(g82
g63
NtRp2031
(dp2032
g66
(dp2033
g86
g87
ssg75
g2027
sg68
(lp2034
g915
asbag61
(g82
g63
NtRp2035
(dp2036
g66
(dp2037
g93
g94
ssg75
g2027
sg68
(lp2038
S':'
asbag61
(g82
g63
NtRp2039
(dp2040
g66
(dp2041
sg75
g2027
sg68
(lp2042
g61
(g62
g63
NtRp2043
(dp2044
g66
(dp2045
g74
I4
ssg75
g2039
sg68
(lp2046
g104
asbasbasbag61
(g77
g63
NtRp2047
(dp2048
g66
(dp2049
sg75
g1916
sg68
(lp2050
g61
(g82
g63
NtRp2051
(dp2052
g66
(dp2053
g86
g87
ssg75
g2047
sg68
(lp2054
g936
asbag61
(g82
g63
NtRp2055
(dp2056
g66
(dp2057
g93
g94
ssg75
g2047
sg68
(lp2058
S':'
asbag61
(g82
g63
NtRp2059
(dp2060
g66
(dp2061
sg75
g2047
sg68
(lp2062
g61
(g62
g63
NtRp2063
(dp2064
g66
(dp2065
g74
I4
ssg75
g2059
sg68
(lp2066
g949
asbasbasbag61
(g77
g63
NtRp2067
(dp2068
g66
(dp2069
sg75
g1916
sg68
(lp2070
g61
(g82
g63
NtRp2071
(dp2072
g66
(dp2073
g86
g87
ssg75
g2067
sg68
(lp2074
g1134
asbag61
(g82
g63
NtRp2075
(dp2076
g66
(dp2077
g93
g94
ssg75
g2067
sg68
(lp2078
S':'
asbag61
(g82
g63
NtRp2079
(dp2080
g66
(dp2081
sg75
g2067
sg68
(lp2082
g61
(g62
g63
NtRp2083
(dp2084
g66
(dp2085
g74
I4
ssg75
g2079
sg68
(lp2086
g104
asbasbasbag61
(g77
g63
NtRp2087
(dp2088
g66
(dp2089
sg75
g1916
sg68
(lp2090
g61
(g82
g63
NtRp2091
(dp2092
g66
(dp2093
g86
g87
ssg75
g2087
sg68
(lp2094
g1155
asbag61
(g82
g63
NtRp2095
(dp2096
g66
(dp2097
g93
g94
ssg75
g2087
sg68
(lp2098
S':'
asbag61
(g82
g63
NtRp2099
(dp2100
g66
(dp2101
sg75
g2087
sg68
(lp2102
g61
(g62
g63
NtRp2103
(dp2104
g66
(dp2105
g74
I4
ssg75
g2099
sg68
(lp2106
g104
asbasbasbag61
(g77
g63
NtRp2107
(dp2108
g66
(dp2109
sg75
g1916
sg68
(lp2110
g61
(g82
g63
NtRp2111
(dp2112
g66
(dp2113
g86
g87
ssg75
g2107
sg68
(lp2114
g1176
asbag61
(g82
g63
NtRp2115
(dp2116
g66
(dp2117
g93
g94
ssg75
g2107
sg68
(lp2118
S':'
asbag61
(g82
g63
NtRp2119
(dp2120
g66
(dp2121
sg75
g2107
sg68
(lp2122
g61
(g62
g63
NtRp2123
(dp2124
g66
(dp2125
g74
I4
ssg75
g2119
sg68
(lp2126
g61
(g70
g63
NtRp2127
(dp2128
g66
(dp2129
g74
I3
ssg75
Nsg68
(lp2130
g61
(g77
g63
NtRp2131
(dp2132
g66
(dp2133
sg75
g2127
sg68
(lp2134
g61
(g82
g63
NtRp2135
(dp2136
g66
(dp2137
sg75
g2131
sg68
(lp2138
g61
(g62
g63
NtRp2139
(dp2140
g66
(dp2141
g74
I3
ssg75
g2135
sg68
(lp2142
g1205
asbasbasbag61
(g77
g63
NtRp2143
(dp2144
g66
(dp2145
sg75
g2127
sg68
(lp2146
g61
(g82
g63
NtRp2147
(dp2148
g66
(dp2149
sg75
g2143
sg68
(lp2150
g61
(g62
g63
NtRp2151
(dp2152
g66
(dp2153
g74
I3
ssg75
g2147
sg68
(lp2154
g1218
asbasbasbag61
(g77
g63
NtRp2155
(dp2156
g66
(dp2157
sg75
g2127
sg68
(lp2158
g61
(g82
g63
NtRp2159
(dp2160
g66
(dp2161
sg75
g2155
sg68
(lp2162
g61
(g62
g63
NtRp2163
(dp2164
g66
(dp2165
g74
I3
ssg75
g2159
sg68
(lp2166
g1231
asbasbasbag61
(g77
g63
NtRp2167
(dp2168
g66
(dp2169
sg75
g2127
sg68
(lp2170
g61
(g82
g63
NtRp2171
(dp2172
g66
(dp2173
sg75
g2167
sg68
(lp2174
g61
(g62
g63
NtRp2175
(dp2176
g66
(dp2177
g74
I3
ssg75
g2171
sg68
(lp2178
g1244
asbasbasbag61
(g77
g63
NtRp2179
(dp2180
g66
(dp2181
sg75
g2127
sg68
(lp2182
g61
(g82
g63
NtRp2183
(dp2184
g66
(dp2185
sg75
g2179
sg68
(lp2186
g61
(g62
g63
NtRp2187
(dp2188
g66
(dp2189
g74
I3
ssg75
g2183
sg68
(lp2190
g1257
asbasbasbasbasbasbasbag61
(g77
g63
NtRp2191
(dp2192
g66
(dp2193
sg75
g1916
sg68
(lp2194
g61
(g82
g63
NtRp2195
(dp2196
g66
(dp2197
g86
g87
ssg75
g2191
sg68
(lp2198
g1524
asbag61
(g82
g63
NtRp2199
(dp2200
g66
(dp2201
g93
g94
ssg75
g2191
sg68
(lp2202
S':'
asbag61
(g82
g63
NtRp2203
(dp2204
g66
(dp2205
sg75
g2191
sg68
(lp2206
g61
(g62
g63
NtRp2207
(dp2208
g66
(dp2209
g74
I4
ssg75
g2203
sg68
(lp2210
g61
(g70
g63
NtRp2211
(dp2212
g66
(dp2213
g74
I3
ssg75
Nsg68
(lp2214
g61
(g77
g63
NtRp2215
(dp2216
g66
(dp2217
sg75
g2211
sg68
(lp2218
g61
(g82
g63
NtRp2219
(dp2220
g66
(dp2221
sg75
g2215
sg68
(lp2222
g61
(g62
g63
NtRp2223
(dp2224
g66
(dp2225
g74
I3
ssg75
g2219
sg68
(lp2226
S'2'
asbasbasbag61
(g77
g63
NtRp2227
(dp2228
g66
(dp2229
sg75
g2211
sg68
(lp2230
g61
(g82
g63
NtRp2231
(dp2232
g66
(dp2233
sg75
g2227
sg68
(lp2234
g61
(g62
g63
NtRp2235
(dp2236
g66
(dp2237
g74
I3
ssg75
g2231
sg68
(lp2238
S'2'
asbasbasbag61
(g77
g63
NtRp2239
(dp2240
g66
(dp2241
sg75
g2211
sg68
(lp2242
g61
(g82
g63
NtRp2243
(dp2244
g66
(dp2245
sg75
g2239
sg68
(lp2246
g61
(g62
g63
NtRp2247
(dp2248
g66
(dp2249
g74
I3
ssg75
g2243
sg68
(lp2250
S'1'
asbasbasbag61
(g77
g63
NtRp2251
(dp2252
g66
(dp2253
sg75
g2211
sg68
(lp2254
g61
(g82
g63
NtRp2255
(dp2256
g66
(dp2257
sg75
g2251
sg68
(lp2258
g61
(g62
g63
NtRp2259
(dp2260
g66
(dp2261
g74
I3
ssg75
g2255
sg68
(lp2262
S'datetime.datetime(2012, 10, 21, 16, 57, 4)'
p2263
asbasbasbag61
(g77
g63
NtRp2264
(dp2265
g66
(dp2266
sg75
g2211
sg68
(lp2267
g61
(g82
g63
NtRp2268
(dp2269
g66
(dp2270
sg75
g2264
sg68
(lp2271
g61
(g62
g63
NtRp2272
(dp2273
g66
(dp2274
g74
I3
ssg75
g2268
sg68
(lp2275
g1602
asbasbasbasbasbasbasbasbasbasbasbag61
(g77
g63
NtRp2276
(dp2277
g66
(dp2278
sg75
g71
sg68
(lp2279
g61
(g82
g63
NtRp2280
(dp2281
g66
(dp2282
g86
g87
ssg75
g2276
sg68
(lp2283
S'is_https'
p2284
asbag61
(g82
g63
NtRp2285
(dp2286
g66
(dp2287
g93
g94
ssg75
g2276
sg68
(lp2288
S':'
asbag61
(g82
g63
NtRp2289
(dp2290
g66
(dp2291
sg75
g2276
sg68
(lp2292
g61
(g62
g63
NtRp2293
(dp2294
g66
(dp2295
g74
I5
ssg75
g2289
sg68
(lp2296
g104
asbasbasbag61
(g77
g63
NtRp2297
(dp2298
g66
(dp2299
sg75
g71
sg68
(lp2300
g61
(g82
g63
NtRp2301
(dp2302
g66
(dp2303
g86
g87
ssg75
g2297
sg68
(lp2304
S'is_local'
p2305
asbag61
(g82
g63
NtRp2306
(dp2307
g66
(dp2308
g93
g94
ssg75
g2297
sg68
(lp2309
S':'
asbag61
(g82
g63
NtRp2310
(dp2311
g66
(dp2312
sg75
g2297
sg68
(lp2313
g61
(g62
g63
NtRp2314
(dp2315
g66
(dp2316
g74
I5
ssg75
g2310
sg68
(lp2317
g1711
asbasbasbag61
(g77
g63
NtRp2318
(dp2319
g66
(dp2320
sg75
g71
sg68
(lp2321
g61
(g82
g63
NtRp2322
(dp2323
g66
(dp2324
g86
g87
ssg75
g2318
sg68
(lp2325
S'is_restful'
p2326
asbag61
(g82
g63
NtRp2327
(dp2328
g66
(dp2329
g93
g94
ssg75
g2318
sg68
(lp2330
S':'
asbag61
(g82
g63
NtRp2331
(dp2332
g66
(dp2333
sg75
g2318
sg68
(lp2334
g61
(g62
g63
NtRp2335
(dp2336
g66
(dp2337
g74
I5
ssg75
g2331
sg68
(lp2338
g104
asbasbasbag61
(g77
g63
NtRp2339
(dp2340
g66
(dp2341
sg75
g71
sg68
(lp2342
g61
(g82
g63
NtRp2343
(dp2344
g66
(dp2345
g86
g87
ssg75
g2339
sg68
(lp2346
S'now'
p2347
asbag61
(g82
g63
NtRp2348
(dp2349
g66
(dp2350
g93
g94
ssg75
g2339
sg68
(lp2351
S':'
asbag61
(g82
g63
NtRp2352
(dp2353
g66
(dp2354
sg75
g2339
sg68
(lp2355
g61
(g62
g63
NtRp2356
(dp2357
g66
(dp2358
g74
I5
ssg75
g2352
sg68
(lp2359
S'datetime.datetime(2014, 4, 17, 13, 0, 10, 181757)'
p2360
asbasbasbag61
(g77
g63
NtRp2361
(dp2362
g66
(dp2363
sg75
g71
sg68
(lp2364
g61
(g82
g63
NtRp2365
(dp2366
g66
(dp2367
g86
g87
ssg75
g2361
sg68
(lp2368
S'post_vars'
p2369
asbag61
(g82
g63
NtRp2370
(dp2371
g66
(dp2372
g93
g94
ssg75
g2361
sg68
(lp2373
S':'
asbag61
(g82
g63
NtRp2374
(dp2375
g66
(dp2376
sg75
g2361
sg68
(lp2377
g61
(g62
g63
NtRp2378
(dp2379
g66
(dp2380
g74
I5
ssg75
g2374
sg68
(lp2381
g61
(g70
g63
NtRp2382
(dp2383
g66
(dp2384
g74
I4
ssg75
Nsg68
(lp2385
sbasbasbasbag61
(g77
g63
NtRp2386
(dp2387
g66
(dp2388
sg75
g71
sg68
(lp2389
g61
(g82
g63
NtRp2390
(dp2391
g66
(dp2392
g86
g87
ssg75
g2386
sg68
(lp2393
S'raw_args'
p2394
asbag61
(g82
g63
NtRp2395
(dp2396
g66
(dp2397
g93
g94
ssg75
g2386
sg68
(lp2398
S':'
asbag61
(g82
g63
NtRp2399
(dp2400
g66
(dp2401
sg75
g2386
sg68
(lp2402
g61
(g62
g63
NtRp2403
(dp2404
g66
(dp2405
g74
I5
ssg75
g2399
sg68
(lp2406
S''
asbasbasbag61
(g77
g63
NtRp2407
(dp2408
g66
(dp2409
sg75
g71
sg68
(lp2410
g61
(g82
g63
NtRp2411
(dp2412
g66
(dp2413
g86
g87
ssg75
g2407
sg68
(lp2414
S'raw_extension'
p2415
asbag61
(g82
g63
NtRp2416
(dp2417
g66
(dp2418
g93
g94
ssg75
g2407
sg68
(lp2419
S':'
asbag61
(g82
g63
NtRp2420
(dp2421
g66
(dp2422
sg75
g2407
sg68
(lp2423
g61
(g62
g63
NtRp2424
(dp2425
g66
(dp2426
g74
I5
ssg75
g2420
sg68
(lp2427
S'None'
p2428
asbasbasbag61
(g77
g63
NtRp2429
(dp2430
g66
(dp2431
sg75
g71
sg68
(lp2432
g61
(g82
g63
NtRp2433
(dp2434
g66
(dp2435
g86
g87
ssg75
g2429
sg68
(lp2436
S'url'
p2437
asbag61
(g82
g63
NtRp2438
(dp2439
g66
(dp2440
g93
g94
ssg75
g2429
sg68
(lp2441
S':'
asbag61
(g82
g63
NtRp2442
(dp2443
g66
(dp2444
sg75
g2429
sg68
(lp2445
g61
(g62
g63
NtRp2446
(dp2447
g66
(dp2448
g74
I5
ssg75
g2442
sg68
(lp2449
g1279
asbasbasbag61
(g77
g63
NtRp2450
(dp2451
g66
(dp2452
sg75
g71
sg68
(lp2453
g61
(g82
g63
NtRp2454
(dp2455
g66
(dp2456
g86
g87
ssg75
g2450
sg68
(lp2457
S'utcnow'
p2458
asbag61
(g82
g63
NtRp2459
(dp2460
g66
(dp2461
g93
g94
ssg75
g2450
sg68
(lp2462
S':'
asbag61
(g82
g63
NtRp2463
(dp2464
g66
(dp2465
sg75
g2450
sg68
(lp2466
g61
(g62
g63
NtRp2467
(dp2468
g66
(dp2469
g74
I5
ssg75
g2463
sg68
(lp2470
S'datetime.datetime(2014, 4, 17, 17, 0, 10, 181769)'
p2471
asbasbasbag61
(g77
g63
NtRp2472
(dp2473
g66
(dp2474
sg75
g71
sg68
(lp2475
g61
(g82
g63
NtRp2476
(dp2477
g66
(dp2478
g86
g87
ssg75
g2472
sg68
(lp2479
S'uuid'
p2480
asbag61
(g82
g63
NtRp2481
(dp2482
g66
(dp2483
g93
g94
ssg75
g2472
sg68
(lp2484
S':'
asbag61
(g82
g63
NtRp2485
(dp2486
g66
(dp2487
sg75
g2472
sg68
(lp2488
g61
(g62
g63
NtRp2489
(dp2490
g66
(dp2491
g74
I5
ssg75
g2485
sg68
(lp2492
S'Final_Impulse/127.0.0.1.2014-04-17.13-00-10.178cdd12-441e-4db8-8835-7525623f6785'
p2493
asbasbasbag61
(g77
g63
NtRp2494
(dp2495
g66
(dp2496
sg75
g71
sg68
(lp2497
g61
(g82
g63
NtRp2498
(dp2499
g66
(dp2500
g86
g87
ssg75
g2494
sg68
(lp2501
S'vars'
p2502
asbag61
(g82
g63
NtRp2503
(dp2504
g66
(dp2505
g93
g94
ssg75
g2494
sg68
(lp2506
S':'
asbag61
(g82
g63
NtRp2507
(dp2508
g66
(dp2509
sg75
g2494
sg68
(lp2510
g61
(g62
g63
NtRp2511
(dp2512
g66
(dp2513
g74
I5
ssg75
g2507
sg68
(lp2514
g61
(g70
g63
NtRp2515
(dp2516
g66
(dp2517
g74
I4
ssg75
Nsg68
(lp2518
sbasbasbasbag61
(g77
g63
NtRp2519
(dp2520
g66
(dp2521
sg75
g71
sg68
(lp2522
g61
(g82
g63
NtRp2523
(dp2524
g66
(dp2525
g86
g87
ssg75
g2519
sg68
(lp2526
S'wsgi'
p2527
asbag61
(g82
g63
NtRp2528
(dp2529
g66
(dp2530
g93
g94
ssg75
g2519
sg68
(lp2531
S':'
asbag61
(g82
g63
NtRp2532
(dp2533
g66
(dp2534
sg75
g2519
sg68
(lp2535
g61
(g62
g63
NtRp2536
(dp2537
g66
(dp2538
g74
I5
ssg75
g2532
sg68
(lp2539
g61
(g70
g63
NtRp2540
(dp2541
g66
(dp2542
g74
I4
ssg75
Nsg68
(lp2543
g61
(g77
g63
NtRp2544
(dp2545
g66
(dp2546
sg75
g2540
sg68
(lp2547
g61
(g82
g63
NtRp2548
(dp2549
g66
(dp2550
g86
g87
ssg75
g2544
sg68
(lp2551
S'environ'
p2552
asbag61
(g82
g63
NtRp2553
(dp2554
g66
(dp2555
g93
g94
ssg75
g2544
sg68
(lp2556
S':'
asbag61
(g82
g63
NtRp2557
(dp2558
g66
(dp2559
sg75
g2544
sg68
(lp2560
g61
(g62
g63
NtRp2561
(dp2562
g66
(dp2563
g74
I4
ssg75
g2557
sg68
(lp2564
g61
(g70
g63
NtRp2565
(dp2566
g66
(dp2567
g74
I3
ssg75
Nsg68
(lp2568
g61
(g77
g63
NtRp2569
(dp2570
g66
(dp2571
sg75
g2565
sg68
(lp2572
g61
(g82
g63
NtRp2573
(dp2574
g66
(dp2575
g86
g87
ssg75
g2569
sg68
(lp2576
S'HTTP_ACCEPT'
p2577
asbag61
(g82
g63
NtRp2578
(dp2579
g66
(dp2580
g93
g94
ssg75
g2569
sg68
(lp2581
S':'
asbag61
(g82
g63
NtRp2582
(dp2583
g66
(dp2584
sg75
g2569
sg68
(lp2585
g61
(g62
g63
NtRp2586
(dp2587
g66
(dp2588
g74
I3
ssg75
g2582
sg68
(lp2589
g971
asbasbasbag61
(g77
g63
NtRp2590
(dp2591
g66
(dp2592
sg75
g2565
sg68
(lp2593
g61
(g82
g63
NtRp2594
(dp2595
g66
(dp2596
g86
g87
ssg75
g2590
sg68
(lp2597
S'HTTP_ACCEPT_ENCODING'
p2598
asbag61
(g82
g63
NtRp2599
(dp2600
g66
(dp2601
g93
g94
ssg75
g2590
sg68
(lp2602
S':'
asbag61
(g82
g63
NtRp2603
(dp2604
g66
(dp2605
sg75
g2590
sg68
(lp2606
g61
(g62
g63
NtRp2607
(dp2608
g66
(dp2609
g74
I3
ssg75
g2603
sg68
(lp2610
g993
asbasbasbag61
(g77
g63
NtRp2611
(dp2612
g66
(dp2613
sg75
g2565
sg68
(lp2614
g61
(g82
g63
NtRp2615
(dp2616
g66
(dp2617
g86
g87
ssg75
g2611
sg68
(lp2618
S'HTTP_ACCEPT_LANGUAGE'
p2619
asbag61
(g82
g63
NtRp2620
(dp2621
g66
(dp2622
g93
g94
ssg75
g2611
sg68
(lp2623
S':'
asbag61
(g82
g63
NtRp2624
(dp2625
g66
(dp2626
sg75
g2611
sg68
(lp2627
g61
(g62
g63
NtRp2628
(dp2629
g66
(dp2630
g74
I3
ssg75
g2624
sg68
(lp2631
g1015
asbasbasbag61
(g77
g63
NtRp2632
(dp2633
g66
(dp2634
sg75
g2565
sg68
(lp2635
g61
(g82
g63
NtRp2636
(dp2637
g66
(dp2638
g86
g87
ssg75
g2632
sg68
(lp2639
S'HTTP_CONNECTION'
p2640
asbag61
(g82
g63
NtRp2641
(dp2642
g66
(dp2643
g93
g94
ssg75
g2632
sg68
(lp2644
S':'
asbag61
(g82
g63
NtRp2645
(dp2646
g66
(dp2647
sg75
g2632
sg68
(lp2648
g61
(g62
g63
NtRp2649
(dp2650
g66
(dp2651
g74
I3
ssg75
g2645
sg68
(lp2652
g1037
asbasbasbag61
(g77
g63
NtRp2653
(dp2654
g66
(dp2655
sg75
g2565
sg68
(lp2656
g61
(g82
g63
NtRp2657
(dp2658
g66
(dp2659
g86
g87
ssg75
g2653
sg68
(lp2660
S'HTTP_COOKIE'
p2661
asbag61
(g82
g63
NtRp2662
(dp2663
g66
(dp2664
g93
g94
ssg75
g2653
sg68
(lp2665
S':'
asbag61
(g82
g63
NtRp2666
(dp2667
g66
(dp2668
sg75
g2653
sg68
(lp2669
g61
(g62
g63
NtRp2670
(dp2671
g66
(dp2672
g74
I3
ssg75
g2666
sg68
(lp2673
g1059
asbasbasbag61
(g77
g63
NtRp2674
(dp2675
g66
(dp2676
sg75
g2565
sg68
(lp2677
g61
(g82
g63
NtRp2678
(dp2679
g66
(dp2680
g86
g87
ssg75
g2674
sg68
(lp2681
S'HTTP_HOST'
p2682
asbag61
(g82
g63
NtRp2683
(dp2684
g66
(dp2685
g93
g94
ssg75
g2674
sg68
(lp2686
S':'
asbag61
(g82
g63
NtRp2687
(dp2688
g66
(dp2689
sg75
g2674
sg68
(lp2690
g61
(g62
g63
NtRp2691
(dp2692
g66
(dp2693
g74
I3
ssg75
g2687
sg68
(lp2694
g1081
asbasbasbag61
(g77
g63
NtRp2695
(dp2696
g66
(dp2697
sg75
g2565
sg68
(lp2698
g61
(g82
g63
NtRp2699
(dp2700
g66
(dp2701
g86
g87
ssg75
g2695
sg68
(lp2702
S'HTTP_REFERER'
p2703
asbag61
(g82
g63
NtRp2704
(dp2705
g66
(dp2706
g93
g94
ssg75
g2695
sg68
(lp2707
S':'
asbag61
(g82
g63
NtRp2708
(dp2709
g66
(dp2710
sg75
g2695
sg68
(lp2711
g61
(g62
g63
NtRp2712
(dp2713
g66
(dp2714
g74
I3
ssg75
g2708
sg68
(lp2715
g1103
asbasbasbag61
(g77
g63
NtRp2716
(dp2717
g66
(dp2718
sg75
g2565
sg68
(lp2719
g61
(g82
g63
NtRp2720
(dp2721
g66
(dp2722
g86
g87
ssg75
g2716
sg68
(lp2723
S'HTTP_USER_AGENT'
p2724
asbag61
(g82
g63
NtRp2725
(dp2726
g66
(dp2727
g93
g94
ssg75
g2716
sg68
(lp2728
S':'
asbag61
(g82
g63
NtRp2729
(dp2730
g66
(dp2731
sg75
g2716
sg68
(lp2732
g61
(g62
g63
NtRp2733
(dp2734
g66
(dp2735
g74
I3
ssg75
g2729
sg68
(lp2736
g1125
asbasbasbag61
(g77
g63
NtRp2737
(dp2738
g66
(dp2739
sg75
g2565
sg68
(lp2740
g61
(g82
g63
NtRp2741
(dp2742
g66
(dp2743
g86
g87
ssg75
g2737
sg68
(lp2744
S'PATH_INFO'
p2745
asbag61
(g82
g63
NtRp2746
(dp2747
g66
(dp2748
g93
g94
ssg75
g2737
sg68
(lp2749
S':'
asbag61
(g82
g63
NtRp2750
(dp2751
g66
(dp2752
sg75
g2737
sg68
(lp2753
g61
(g62
g63
NtRp2754
(dp2755
g66
(dp2756
g74
I3
ssg75
g2750
sg68
(lp2757
g1279
asbasbasbag61
(g77
g63
NtRp2758
(dp2759
g66
(dp2760
sg75
g2565
sg68
(lp2761
g61
(g82
g63
NtRp2762
(dp2763
g66
(dp2764
g86
g87
ssg75
g2758
sg68
(lp2765
S'QUERY_STRING'
p2766
asbag61
(g82
g63
NtRp2767
(dp2768
g66
(dp2769
g93
g94
ssg75
g2758
sg68
(lp2770
S':'
asbag61
(g82
g63
NtRp2771
(dp2772
g66
(dp2773
sg75
g2758
sg68
(lp2774
g61
(g62
g63
NtRp2775
(dp2776
g66
(dp2777
g74
I3
ssg75
g2771
sg68
(lp2778
S''
asbasbasbag61
(g77
g63
NtRp2779
(dp2780
g66
(dp2781
sg75
g2565
sg68
(lp2782
g61
(g82
g63
NtRp2783
(dp2784
g66
(dp2785
g86
g87
ssg75
g2779
sg68
(lp2786
S'REMOTE_ADDR'
p2787
asbag61
(g82
g63
NtRp2788
(dp2789
g66
(dp2790
g93
g94
ssg75
g2779
sg68
(lp2791
S':'
asbag61
(g82
g63
NtRp2792
(dp2793
g66
(dp2794
sg75
g2779
sg68
(lp2795
g61
(g62
g63
NtRp2796
(dp2797
g66
(dp2798
g74
I3
ssg75
g2792
sg68
(lp2799
g216
asbasbasbag61
(g77
g63
NtRp2800
(dp2801
g66
(dp2802
sg75
g2565
sg68
(lp2803
g61
(g82
g63
NtRp2804
(dp2805
g66
(dp2806
g86
g87
ssg75
g2800
sg68
(lp2807
S'REMOTE_PORT'
p2808
asbag61
(g82
g63
NtRp2809
(dp2810
g66
(dp2811
g93
g94
ssg75
g2800
sg68
(lp2812
S':'
asbag61
(g82
g63
NtRp2813
(dp2814
g66
(dp2815
sg75
g2800
sg68
(lp2816
g61
(g62
g63
NtRp2817
(dp2818
g66
(dp2819
g74
I3
ssg75
g2813
sg68
(lp2820
g1343
asbasbasbag61
(g77
g63
NtRp2821
(dp2822
g66
(dp2823
sg75
g2565
sg68
(lp2824
g61
(g82
g63
NtRp2825
(dp2826
g66
(dp2827
g86
g87
ssg75
g2821
sg68
(lp2828
S'REQUEST_METHOD'
p2829
asbag61
(g82
g63
NtRp2830
(dp2831
g66
(dp2832
g93
g94
ssg75
g2821
sg68
(lp2833
S':'
asbag61
(g82
g63
NtRp2834
(dp2835
g66
(dp2836
sg75
g2821
sg68
(lp2837
g61
(g62
g63
NtRp2838
(dp2839
g66
(dp2840
g74
I3
ssg75
g2834
sg68
(lp2841
g1365
asbasbasbag61
(g77
g63
NtRp2842
(dp2843
g66
(dp2844
sg75
g2565
sg68
(lp2845
g61
(g82
g63
NtRp2846
(dp2847
g66
(dp2848
g86
g87
ssg75
g2842
sg68
(lp2849
S'REQUEST_URI'
p2850
asbag61
(g82
g63
NtRp2851
(dp2852
g66
(dp2853
g93
g94
ssg75
g2842
sg68
(lp2854
S':'
asbag61
(g82
g63
NtRp2855
(dp2856
g66
(dp2857
sg75
g2842
sg68
(lp2858
g61
(g62
g63
NtRp2859
(dp2860
g66
(dp2861
g74
I3
ssg75
g2855
sg68
(lp2862
g1279
asbasbasbag61
(g77
g63
NtRp2863
(dp2864
g66
(dp2865
sg75
g2565
sg68
(lp2866
g61
(g82
g63
NtRp2867
(dp2868
g66
(dp2869
g86
g87
ssg75
g2863
sg68
(lp2870
S'SCRIPT_NAME'
p2871
asbag61
(g82
g63
NtRp2872
(dp2873
g66
(dp2874
g93
g94
ssg75
g2863
sg68
(lp2875
S':'
asbag61
(g82
g63
NtRp2876
(dp2877
g66
(dp2878
sg75
g2863
sg68
(lp2879
g61
(g62
g63
NtRp2880
(dp2881
g66
(dp2882
g74
I3
ssg75
g2876
sg68
(lp2883
S''
asbasbasbag61
(g77
g63
NtRp2884
(dp2885
g66
(dp2886
sg75
g2565
sg68
(lp2887
g61
(g82
g63
NtRp2888
(dp2889
g66
(dp2890
g86
g87
ssg75
g2884
sg68
(lp2891
S'SERVER_NAME'
p2892
asbag61
(g82
g63
NtRp2893
(dp2894
g66
(dp2895
g93
g94
ssg75
g2884
sg68
(lp2896
S':'
asbag61
(g82
g63
NtRp2897
(dp2898
g66
(dp2899
sg75
g2884
sg68
(lp2900
g61
(g62
g63
NtRp2901
(dp2902
g66
(dp2903
g74
I3
ssg75
g2897
sg68
(lp2904
g1244
asbasbasbag61
(g77
g63
NtRp2905
(dp2906
g66
(dp2907
sg75
g2565
sg68
(lp2908
g61
(g82
g63
NtRp2909
(dp2910
g66
(dp2911
g86
g87
ssg75
g2905
sg68
(lp2912
S'SERVER_PORT'
p2913
asbag61
(g82
g63
NtRp2914
(dp2915
g66
(dp2916
g93
g94
ssg75
g2905
sg68
(lp2917
S':'
asbag61
(g82
g63
NtRp2918
(dp2919
g66
(dp2920
sg75
g2905
sg68
(lp2921
g61
(g62
g63
NtRp2922
(dp2923
g66
(dp2924
g74
I3
ssg75
g2918
sg68
(lp2925
g1450
asbasbasbag61
(g77
g63
NtRp2926
(dp2927
g66
(dp2928
sg75
g2565
sg68
(lp2929
g61
(g82
g63
NtRp2930
(dp2931
g66
(dp2932
g86
g87
ssg75
g2926
sg68
(lp2933
S'SERVER_PROTOCOL'
p2934
asbag61
(g82
g63
NtRp2935
(dp2936
g66
(dp2937
g93
g94
ssg75
g2926
sg68
(lp2938
S':'
asbag61
(g82
g63
NtRp2939
(dp2940
g66
(dp2941
sg75
g2926
sg68
(lp2942
g61
(g62
g63
NtRp2943
(dp2944
g66
(dp2945
g74
I3
ssg75
g2939
sg68
(lp2946
g1472
asbasbasbag61
(g77
g63
NtRp2947
(dp2948
g66
(dp2949
sg75
g2565
sg68
(lp2950
g61
(g82
g63
NtRp2951
(dp2952
g66
(dp2953
g86
g87
ssg75
g2947
sg68
(lp2954
S'SERVER_SOFTWARE'
p2955
asbag61
(g82
g63
NtRp2956
(dp2957
g66
(dp2958
g93
g94
ssg75
g2947
sg68
(lp2959
S':'
asbag61
(g82
g63
NtRp2960
(dp2961
g66
(dp2962
sg75
g2947
sg68
(lp2963
g61
(g62
g63
NtRp2964
(dp2965
g66
(dp2966
g74
I3
ssg75
g2960
sg68
(lp2967
g1494
asbasbasbag61
(g77
g63
NtRp2968
(dp2969
g66
(dp2970
sg75
g2565
sg68
(lp2971
g61
(g82
g63
NtRp2972
(dp2973
g66
(dp2974
g86
g87
ssg75
g2968
sg68
(lp2975
S'wsgi.errors'
p2976
asbag61
(g82
g63
NtRp2977
(dp2978
g66
(dp2979
g93
g94
ssg75
g2968
sg68
(lp2980
S':'
asbag61
(g82
g63
NtRp2981
(dp2982
g66
(dp2983
sg75
g2968
sg68
(lp2984
g61
(g62
g63
NtRp2985
(dp2986
g66
(dp2987
g74
I3
ssg75
g2981
sg68
(lp2988
S"<open file '<stderr>', mode 'w' at 0x540b0>"
p2989
asbasbasbag61
(g77
g63
NtRp2990
(dp2991
g66
(dp2992
sg75
g2565
sg68
(lp2993
g61
(g82
g63
NtRp2994
(dp2995
g66
(dp2996
g86
g87
ssg75
g2990
sg68
(lp2997
S'wsgi.file_wrapper'
p2998
asbag61
(g82
g63
NtRp2999
(dp3000
g66
(dp3001
g93
g94
ssg75
g2990
sg68
(lp3002
S':'
asbag61
(g82
g63
NtRp3003
(dp3004
g66
(dp3005
sg75
g2990
sg68
(lp3006
g61
(g62
g63
NtRp3007
(dp3008
g66
(dp3009
g74
I3
ssg75
g3003
sg68
(lp3010
S'<class wsgiref.util.FileWrapper at 0x44002d0>'
p3011
asbasbasbag61
(g77
g63
NtRp3012
(dp3013
g66
(dp3014
sg75
g2565
sg68
(lp3015
g61
(g82
g63
NtRp3016
(dp3017
g66
(dp3018
g86
g87
ssg75
g3012
sg68
(lp3019
S'wsgi.input'
p3020
asbag61
(g82
g63
NtRp3021
(dp3022
g66
(dp3023
g93
g94
ssg75
g3012
sg68
(lp3024
S':'
asbag61
(g82
g63
NtRp3025
(dp3026
g66
(dp3027
sg75
g3012
sg68
(lp3028
g61
(g62
g63
NtRp3029
(dp3030
g66
(dp3031
g74
I3
ssg75
g3025
sg68
(lp3032
S'<cStringIO.StringO object at 0x752f7a0>'
p3033
asbasbasbag61
(g77
g63
NtRp3034
(dp3035
g66
(dp3036
sg75
g2565
sg68
(lp3037
g61
(g82
g63
NtRp3038
(dp3039
g66
(dp3040
g86
g87
ssg75
g3034
sg68
(lp3041
S'wsgi.multiprocess'
p3042
asbag61
(g82
g63
NtRp3043
(dp3044
g66
(dp3045
g93
g94
ssg75
g3034
sg68
(lp3046
S':'
asbag61
(g82
g63
NtRp3047
(dp3048
g66
(dp3049
sg75
g3034
sg68
(lp3050
g61
(g62
g63
NtRp3051
(dp3052
g66
(dp3053
g74
I3
ssg75
g3047
sg68
(lp3054
g104
asbasbasbag61
(g77
g63
NtRp3055
(dp3056
g66
(dp3057
sg75
g2565
sg68
(lp3058
g61
(g82
g63
NtRp3059
(dp3060
g66
(dp3061
g86
g87
ssg75
g3055
sg68
(lp3062
S'wsgi.multithread'
p3063
asbag61
(g82
g63
NtRp3064
(dp3065
g66
(dp3066
g93
g94
ssg75
g3055
sg68
(lp3067
S':'
asbag61
(g82
g63
NtRp3068
(dp3069
g66
(dp3070
sg75
g3055
sg68
(lp3071
g61
(g62
g63
NtRp3072
(dp3073
g66
(dp3074
g74
I3
ssg75
g3068
sg68
(lp3075
g1711
asbasbasbag61
(g77
g63
NtRp3076
(dp3077
g66
(dp3078
sg75
g2565
sg68
(lp3079
g61
(g82
g63
NtRp3080
(dp3081
g66
(dp3082
g86
g87
ssg75
g3076
sg68
(lp3083
S'wsgi.run_once'
p3084
asbag61
(g82
g63
NtRp3085
(dp3086
g66
(dp3087
g93
g94
ssg75
g3076
sg68
(lp3088
S':'
asbag61
(g82
g63
NtRp3089
(dp3090
g66
(dp3091
sg75
g3076
sg68
(lp3092
g61
(g62
g63
NtRp3093
(dp3094
g66
(dp3095
g74
I3
ssg75
g3089
sg68
(lp3096
g104
asbasbasbag61
(g77
g63
NtRp3097
(dp3098
g66
(dp3099
sg75
g2565
sg68
(lp3100
g61
(g82
g63
NtRp3101
(dp3102
g66
(dp3103
g86
g87
ssg75
g3097
sg68
(lp3104
S'wsgi.url_scheme'
p3105
asbag61
(g82
g63
NtRp3106
(dp3107
g66
(dp3108
g93
g94
ssg75
g3097
sg68
(lp3109
S':'
asbag61
(g82
g63
NtRp3110
(dp3111
g66
(dp3112
sg75
g3097
sg68
(lp3113
g61
(g62
g63
NtRp3114
(dp3115
g66
(dp3116
g74
I3
ssg75
g3110
sg68
(lp3117
g1754
asbasbasbag61
(g77
g63
NtRp3118
(dp3119
g66
(dp3120
sg75
g2565
sg68
(lp3121
g61
(g82
g63
NtRp3122
(dp3123
g66
(dp3124
g86
g87
ssg75
g3118
sg68
(lp3125
S'wsgi.version'
p3126
asbag61
(g82
g63
NtRp3127
(dp3128
g66
(dp3129
g93
g94
ssg75
g3118
sg68
(lp3130
S':'
asbag61
(g82
g63
NtRp3131
(dp3132
g66
(dp3133
sg75
g3118
sg68
(lp3134
g61
(g62
g63
NtRp3135
(dp3136
g66
(dp3137
g74
I3
ssg75
g3131
sg68
(lp3138
S'1'
asbasbasbasbasbasbasbasbasbasbasbasbasbsS'frames'
p3139
(lp3140
(dp3141
S'file'
p3142
S'/Users/abaric/Downloads/web2py/web2py.app/Contents/Resources/gluon/restricted.py'
p3143
sS'dump'
p3144
(dp3145
sS'lnum'
p3146
I211
sS'lines'
p3147
(dp3148
sS'call'
p3149
S'(code=r"response.write(\'<!DOCTYPE html>\\n<!-- paulirish.... 5px #349C01 solid; }\\n</style>\\n\', escape=False)", environment={\'A\': <class \'gluon.html.A\'>, \'Auth\': <class \'gluon.tools.Auth\'>, \'B\': <class \'gluon.html.B\'>, \'BEAUTIFY\': <class \'gluon.html.BEAUTIFY\'>, \'BODY\': <class \'gluon.html.BODY\'>, \'BR\': <class \'gluon.html.BR\'>, \'BUTTON\': <class \'gluon.html.BUTTON\'>, \'CAT\': <class \'gluon.html.CAT\'>, \'CENTER\': <class \'gluon.html.CENTER\'>, \'CLEANUP\': <class \'gluon.validators.CLEANUP\'>, ...}, layer=\'/Users/abaric/Downloads/web2py/web2py.app/Conten...al_Impulse/views/default/show_image_comments.html\')'
p3150
sS'func'
p3151
S'restricted'
p3152
sa(dp3153
g3142
S'/Users/abaric/Downloads/web2py/web2py.app/Contents/Resources/gluon/restricted.py'
p3154
sg3144
(dp3155
sg3146
I194
sg3147
(dp3156
sg3149
S'(code=r"response.write(\'<!DOCTYPE html>\\n<!-- paulirish.... 5px #349C01 solid; }\\n</style>\\n\', escape=False)", layer=\'/Users/abaric/Downloads/web2py/web2py.app/Conten...al_Impulse/views/default/show_image_comments.html\')'
p3157
sg3151
S'compile2'
p3158
sasS'pyver'
p3159
S'Python 2.5.1: /Users/abaric/Downloads/web2py/web2py.app/Contents/MacOS/python'
p3160
sS'session'
p3161
g61
(g62
g63
NtRp3162
(dp3163
g66
(dp3164
sg68
(lp3165
g61
(g70
g63
NtRp3166
(dp3167
g66
(dp3168
g74
I5
ssg75
Nsg68
(lp3169
g61
(g77
g63
NtRp3170
(dp3171
g66
(dp3172
sg75
g3166
sg68
(lp3173
g61
(g82
g63
NtRp3174
(dp3175
g66
(dp3176
g86
g87
ssg75
g3170
sg68
(lp3177
S'auth'
p3178
asbag61
(g82
g63
NtRp3179
(dp3180
g66
(dp3181
g93
g94
ssg75
g3170
sg68
(lp3182
S':'
asbag61
(g82
g63
NtRp3183
(dp3184
g66
(dp3185
sg75
g3170
sg68
(lp3186
g61
(g62
g63
NtRp3187
(dp3188
g66
(dp3189
g74
I5
ssg75
g3183
sg68
(lp3190
S'None'
p3191
asbasbasbag61
(g77
g63
NtRp3192
(dp3193
g66
(dp3194
sg75
g3166
sg68
(lp3195
g61
(g82
g63
NtRp3196
(dp3197
g66
(dp3198
g86
g87
ssg75
g3192
sg68
(lp3199
S'flash'
p3200
asbag61
(g82
g63
NtRp3201
(dp3202
g66
(dp3203
g93
g94
ssg75
g3192
sg68
(lp3204
S':'
asbag61
(g82
g63
NtRp3205
(dp3206
g66
(dp3207
sg75
g3192
sg68
(lp3208
g61
(g62
g63
NtRp3209
(dp3210
g66
(dp3211
g74
I5
ssg75
g3205
sg68
(lp3212
S'None'
p3213
asbasbasbasbasbsS'etype'
p3214
S"<type 'exceptions.SyntaxError'>"
p3215
sS'date'
p3216
S'Thu Apr 17 13:00:10 2014'
p3217
sS'response'
p3218
g61
(g62
g63
NtRp3219
(dp3220
g66
(dp3221
sg68
(lp3222
g61
(g70
g63
NtRp3223
(dp3224
g66
(dp3225
g74
I5
ssg75
Nsg68
(lp3226
g61
(g77
g63
NtRp3227
(dp3228
g66
(dp3229
sg75
g3223
sg68
(lp3230
g61
(g82
g63
NtRp3231
(dp3232
g66
(dp3233
g86
g87
ssg75
g3227
sg68
(lp3234
g159
asbag61
(g82
g63
NtRp3235
(dp3236
g66
(dp3237
g93
g94
ssg75
g3227
sg68
(lp3238
S':'
asbag61
(g82
g63
NtRp3239
(dp3240
g66
(dp3241
sg75
g3227
sg68
(lp3242
g61
(g62
g63
NtRp3243
(dp3244
g66
(dp3245
g74
I5
ssg75
g3239
sg68
(lp3246
S'<cStringIO.StringO object at 0x752f880>'
p3247
asbasbasbag61
(g77
g63
NtRp3248
(dp3249
g66
(dp3250
sg75
g3223
sg68
(lp3251
g61
(g82
g63
NtRp3252
(dp3253
g66
(dp3254
g86
g87
ssg75
g3248
sg68
(lp3255
g247
asbag61
(g82
g63
NtRp3256
(dp3257
g66
(dp3258
g93
g94
ssg75
g3248
sg68
(lp3259
S':'
asbag61
(g82
g63
NtRp3260
(dp3261
g66
(dp3262
sg75
g3248
sg68
(lp3263
g61
(g62
g63
NtRp3264
(dp3265
g66
(dp3266
g74
I5
ssg75
g3260
sg68
(lp3267
g61
(g70
g63
NtRp3268
(dp3269
g66
(dp3270
g74
I4
ssg75
Nsg68
(lp3271
g61
(g77
g63
NtRp3272
(dp3273
g66
(dp3274
sg75
g3268
sg68
(lp3275
g61
(g82
g63
NtRp3276
(dp3277
g66
(dp3278
g86
g87
ssg75
g3272
sg68
(lp3279
S'session_id_final_impulse'
p3280
asbag61
(g82
g63
NtRp3281
(dp3282
g66
(dp3283
g93
g94
ssg75
g3272
sg68
(lp3284
S':'
asbag61
(g82
g63
NtRp3285
(dp3286
g66
(dp3287
sg75
g3272
sg68
(lp3288
g61
(g62
g63
NtRp3289
(dp3290
g66
(dp3291
g74
I4
ssg75
g3285
sg68
(lp3292
g458
ag61
(g70
g63
NtRp3293
(dp3294
g66
(dp3295
g74
I3
ssg75
Nsg68
(lp3296
g61
(g77
g63
NtRp3297
(dp3298
g66
(dp3299
sg75
g3293
sg68
(lp3300
g61
(g82
g63
NtRp3301
(dp3302
g66
(dp3303
g86
g87
ssg75
g3297
sg68
(lp3304
g298
asbag61
(g82
g63
NtRp3305
(dp3306
g66
(dp3307
g93
g94
ssg75
g3297
sg68
(lp3308
S':'
asbag61
(g82
g63
NtRp3309
(dp3310
g66
(dp3311
sg75
g3297
sg68
(lp3312
g61
(g62
g63
NtRp3313
(dp3314
g66
(dp3315
g74
I3
ssg75
g3309
sg68
(lp3316
S''
asbasbasbag61
(g77
g63
NtRp3317
(dp3318
g66
(dp3319
sg75
g3293
sg68
(lp3320
g61
(g82
g63
NtRp3321
(dp3322
g66
(dp3323
g86
g87
ssg75
g3317
sg68
(lp3324
g319
asbag61
(g82
g63
NtRp3325
(dp3326
g66
(dp3327
g93
g94
ssg75
g3317
sg68
(lp3328
S':'
asbag61
(g82
g63
NtRp3329
(dp3330
g66
(dp3331
sg75
g3317
sg68
(lp3332
g61
(g62
g63
NtRp3333
(dp3334
g66
(dp3335
g74
I3
ssg75
g3329
sg68
(lp3336
S''
asbasbasbag61
(g77
g63
NtRp3337
(dp3338
g66
(dp3339
sg75
g3293
sg68
(lp3340
g61
(g82
g63
NtRp3341
(dp3342
g66
(dp3343
g86
g87
ssg75
g3337
sg68
(lp3344
g340
asbag61
(g82
g63
NtRp3345
(dp3346
g66
(dp3347
g93
g94
ssg75
g3337
sg68
(lp3348
S':'
asbag61
(g82
g63
NtRp3349
(dp3350
g66
(dp3351
sg75
g3337
sg68
(lp3352
g61
(g62
g63
NtRp3353
(dp3354
g66
(dp3355
g74
I3
ssg75
g3349
sg68
(lp3356
S''
asbasbasbag61
(g77
g63
NtRp3357
(dp3358
g66
(dp3359
sg75
g3293
sg68
(lp3360
g61
(g82
g63
NtRp3361
(dp3362
g66
(dp3363
g86
g87
ssg75
g3357
sg68
(lp3364
g361
asbag61
(g82
g63
NtRp3365
(dp3366
g66
(dp3367
g93
g94
ssg75
g3357
sg68
(lp3368
S':'
asbag61
(g82
g63
NtRp3369
(dp3370
g66
(dp3371
sg75
g3357
sg68
(lp3372
g61
(g62
g63
NtRp3373
(dp3374
g66
(dp3375
g74
I3
ssg75
g3369
sg68
(lp3376
S''
asbasbasbag61
(g77
g63
NtRp3377
(dp3378
g66
(dp3379
sg75
g3293
sg68
(lp3380
g61
(g82
g63
NtRp3381
(dp3382
g66
(dp3383
g86
g87
ssg75
g3377
sg68
(lp3384
g382
asbag61
(g82
g63
NtRp3385
(dp3386
g66
(dp3387
g93
g94
ssg75
g3377
sg68
(lp3388
S':'
asbag61
(g82
g63
NtRp3389
(dp3390
g66
(dp3391
sg75
g3377
sg68
(lp3392
g61
(g62
g63
NtRp3393
(dp3394
g66
(dp3395
g74
I3
ssg75
g3389
sg68
(lp3396
S'/'
asbasbasbag61
(g77
g63
NtRp3397
(dp3398
g66
(dp3399
sg75
g3293
sg68
(lp3400
g61
(g82
g63
NtRp3401
(dp3402
g66
(dp3403
g86
g87
ssg75
g3397
sg68
(lp3404
g403
asbag61
(g82
g63
NtRp3405
(dp3406
g66
(dp3407
g93
g94
ssg75
g3397
sg68
(lp3408
S':'
asbag61
(g82
g63
NtRp3409
(dp3410
g66
(dp3411
sg75
g3397
sg68
(lp3412
g61
(g62
g63
NtRp3413
(dp3414
g66
(dp3415
g74
I3
ssg75
g3409
sg68
(lp3416
S''
asbasbasbag61
(g77
g63
NtRp3417
(dp3418
g66
(dp3419
sg75
g3293
sg68
(lp3420
g61
(g82
g63
NtRp3421
(dp3422
g66
(dp3423
g86
g87
ssg75
g3417
sg68
(lp3424
g424
asbag61
(g82
g63
NtRp3425
(dp3426
g66
(dp3427
g93
g94
ssg75
g3417
sg68
(lp3428
S':'
asbag61
(g82
g63
NtRp3429
(dp3430
g66
(dp3431
sg75
g3417
sg68
(lp3432
g61
(g62
g63
NtRp3433
(dp3434
g66
(dp3435
g74
I3
ssg75
g3429
sg68
(lp3436
S''
asbasbasbasbasbasbasbasbasbasbasbag61
(g77
g63
NtRp3437
(dp3438
g66
(dp3439
sg75
g3223
sg68
(lp3440
g61
(g82
g63
NtRp3441
(dp3442
g66
(dp3443
g86
g87
ssg75
g3437
sg68
(lp3444
S'delimiters'
p3445
asbag61
(g82
g63
NtRp3446
(dp3447
g66
(dp3448
g93
g94
ssg75
g3437
sg68
(lp3449
S':'
asbag61
(g82
g63
NtRp3450
(dp3451
g66
(dp3452
sg75
g3437
sg68
(lp3453
g61
(g62
g63
NtRp3454
(dp3455
g66
(dp3456
g74
I5
ssg75
g3450
sg68
(lp3457
g61
(g70
g63
NtRp3458
(dp3459
g66
(dp3460
g74
I4
ssg75
Nsg68
(lp3461
g61
(g77
g63
NtRp3462
(dp3463
g66
(dp3464
sg75
g3458
sg68
(lp3465
g61
(g82
g63
NtRp3466
(dp3467
g66
(dp3468
sg75
g3462
sg68
(lp3469
g61
(g62
g63
NtRp3470
(dp3471
g66
(dp3472
g74
I4
ssg75
g3466
sg68
(lp3473
S'{{'
p3474
asbasbasbag61
(g77
g63
NtRp3475
(dp3476
g66
(dp3477
sg75
g3458
sg68
(lp3478
g61
(g82
g63
NtRp3479
(dp3480
g66
(dp3481
sg75
g3475
sg68
(lp3482
g61
(g62
g63
NtRp3483
(dp3484
g66
(dp3485
g74
I4
ssg75
g3479
sg68
(lp3486
S'}}'
p3487
asbasbasbasbasbasbasbag61
(g77
g63
NtRp3488
(dp3489
g66
(dp3490
sg75
g3223
sg68
(lp3491
g61
(g82
g63
NtRp3492
(dp3493
g66
(dp3494
g86
g87
ssg75
g3488
sg68
(lp3495
S'files'
p3496
asbag61
(g82
g63
NtRp3497
(dp3498
g66
(dp3499
g93
g94
ssg75
g3488
sg68
(lp3500
S':'
asbag61
(g82
g63
NtRp3501
(dp3502
g66
(dp3503
sg75
g3488
sg68
(lp3504
g61
(g62
g63
NtRp3505
(dp3506
g66
(dp3507
g74
I5
ssg75
g3501
sg68
(lp3508
g61
(g70
g63
NtRp3509
(dp3510
g66
(dp3511
g74
I4
ssg75
Nsg68
(lp3512
sbasbasbasbag61
(g77
g63
NtRp3513
(dp3514
g66
(dp3515
sg75
g3223
sg68
(lp3516
g61
(g82
g63
NtRp3517
(dp3518
g66
(dp3519
g86
g87
ssg75
g3513
sg68
(lp3520
S'flash'
p3521
asbag61
(g82
g63
NtRp3522
(dp3523
g66
(dp3524
g93
g94
ssg75
g3513
sg68
(lp3525
S':'
asbag61
(g82
g63
NtRp3526
(dp3527
g66
(dp3528
sg75
g3513
sg68
(lp3529
g61
(g62
g63
NtRp3530
(dp3531
g66
(dp3532
g74
I5
ssg75
g3526
sg68
(lp3533
S''
asbasbasbag61
(g77
g63
NtRp3534
(dp3535
g66
(dp3536
sg75
g3223
sg68
(lp3537
g61
(g82
g63
NtRp3538
(dp3539
g66
(dp3540
g86
g87
ssg75
g3534
sg68
(lp3541
S'generic_patterns'
p3542
asbag61
(g82
g63
NtRp3543
(dp3544
g66
(dp3545
g93
g94
ssg75
g3534
sg68
(lp3546
S':'
asbag61
(g82
g63
NtRp3547
(dp3548
g66
(dp3549
sg75
g3534
sg68
(lp3550
g61
(g62
g63
NtRp3551
(dp3552
g66
(dp3553
g74
I5
ssg75
g3547
sg68
(lp3554
g61
(g70
g63
NtRp3555
(dp3556
g66
(dp3557
g74
I4
ssg75
Nsg68
(lp3558
sbasbasbasbag61
(g77
g63
NtRp3559
(dp3560
g66
(dp3561
sg75
g3223
sg68
(lp3562
g61
(g82
g63
NtRp3563
(dp3564
g66
(dp3565
g86
g87
ssg75
g3559
sg68
(lp3566
S'google_analytics_id'
p3567
asbag61
(g82
g63
NtRp3568
(dp3569
g66
(dp3570
g93
g94
ssg75
g3559
sg68
(lp3571
S':'
asbag61
(g82
g63
NtRp3572
(dp3573
g66
(dp3574
sg75
g3559
sg68
(lp3575
g61
(g62
g63
NtRp3576
(dp3577
g66
(dp3578
g74
I5
ssg75
g3572
sg68
(lp3579
S'None'
p3580
asbasbasbag61
(g77
g63
NtRp3581
(dp3582
g66
(dp3583
sg75
g3223
sg68
(lp3584
g61
(g82
g63
NtRp3585
(dp3586
g66
(dp3587
g86
g87
ssg75
g3581
sg68
(lp3588
S'headers'
p3589
asbag61
(g82
g63
NtRp3590
(dp3591
g66
(dp3592
g93
g94
ssg75
g3581
sg68
(lp3593
S':'
asbag61
(g82
g63
NtRp3594
(dp3595
g66
(dp3596
sg75
g3581
sg68
(lp3597
g61
(g62
g63
NtRp3598
(dp3599
g66
(dp3600
g74
I5
ssg75
g3594
sg68
(lp3601
g61
(g70
g63
NtRp3602
(dp3603
g66
(dp3604
g74
I4
ssg75
Nsg68
(lp3605
g61
(g77
g63
NtRp3606
(dp3607
g66
(dp3608
sg75
g3602
sg68
(lp3609
g61
(g82
g63
NtRp3610
(dp3611
g66
(dp3612
g86
g87
ssg75
g3606
sg68
(lp3613
S'X-Powered-By'
p3614
asbag61
(g82
g63
NtRp3615
(dp3616
g66
(dp3617
g93
g94
ssg75
g3606
sg68
(lp3618
S':'
asbag61
(g82
g63
NtRp3619
(dp3620
g66
(dp3621
sg75
g3606
sg68
(lp3622
g61
(g62
g63
NtRp3623
(dp3624
g66
(dp3625
g74
I4
ssg75
g3619
sg68
(lp3626
S'web2py'
p3627
asbasbasbasbasbasbasbag61
(g77
g63
NtRp3628
(dp3629
g66
(dp3630
sg75
g3223
sg68
(lp3631
g61
(g82
g63
NtRp3632
(dp3633
g66
(dp3634
g86
g87
ssg75
g3628
sg68
(lp3635
S'menu'
p3636
asbag61
(g82
g63
NtRp3637
(dp3638
g66
(dp3639
g93
g94
ssg75
g3628
sg68
(lp3640
S':'
asbag61
(g82
g63
NtRp3641
(dp3642
g66
(dp3643
sg75
g3628
sg68
(lp3644
g61
(g62
g63
NtRp3645
(dp3646
g66
(dp3647
g74
I5
ssg75
g3641
sg68
(lp3648
g61
(g70
g63
NtRp3649
(dp3650
g66
(dp3651
g74
I4
ssg75
Nsg68
(lp3652
g61
(g77
g63
NtRp3653
(dp3654
g66
(dp3655
sg75
g3649
sg68
(lp3656
g61
(g82
g63
NtRp3657
(dp3658
g66
(dp3659
sg75
g3653
sg68
(lp3660
g61
(g62
g63
NtRp3661
(dp3662
g66
(dp3663
g74
I4
ssg75
g3657
sg68
(lp3664
g61
(g70
g63
NtRp3665
(dp3666
g66
(dp3667
g74
I3
ssg75
Nsg68
(lp3668
g61
(g77
g63
NtRp3669
(dp3670
g66
(dp3671
sg75
g3665
sg68
(lp3672
g61
(g82
g63
NtRp3673
(dp3674
g66
(dp3675
sg75
g3669
sg68
(lp3676
g61
(g62
g63
NtRp3677
(dp3678
g66
(dp3679
g74
I3
ssg75
g3673
sg68
(lp3680
cgluon.languages
lazyT_unpickle
p3681
(S't\x04\x00\x00\x00Home'
tRp3682
asbasbasbag61
(g77
g63
NtRp3683
(dp3684
g66
(dp3685
sg75
g3665
sg68
(lp3686
g61
(g82
g63
NtRp3687
(dp3688
g66
(dp3689
sg75
g3683
sg68
(lp3690
g61
(g62
g63
NtRp3691
(dp3692
g66
(dp3693
g74
I3
ssg75
g3687
sg68
(lp3694
g104
asbasbasbag61
(g77
g63
NtRp3695
(dp3696
g66
(dp3697
sg75
g3665
sg68
(lp3698
g61
(g82
g63
NtRp3699
(dp3700
g66
(dp3701
sg75
g3695
sg68
(lp3702
g61
(g62
g63
NtRp3703
(dp3704
g66
(dp3705
g74
I3
ssg75
g3699
sg68
(lp3706
S'/Final_Impulse/default/index'
p3707
asbasbasbag61
(g77
g63
NtRp3708
(dp3709
g66
(dp3710
sg75
g3665
sg68
(lp3711
g61
(g82
g63
NtRp3712
(dp3713
g66
(dp3714
sg75
g3708
sg68
(lp3715
g61
(g62
g63
NtRp3716
(dp3717
g66
(dp3718
g74
I3
ssg75
g3712
sg68
(lp3719
g61
(g70
g63
NtRp3720
(dp3721
g66
(dp3722
g74
I2
ssg75
Nsg68
(lp3723
sbasbasbasbasbasbasbasbag61
(g77
g63
NtRp3724
(dp3725
g66
(dp3726
sg75
g3649
sg68
(lp3727
g61
(g82
g63
NtRp3728
(dp3729
g66
(dp3730
sg75
g3724
sg68
(lp3731
g61
(g62
g63
NtRp3732
(dp3733
g66
(dp3734
g74
I4
ssg75
g3728
sg68
(lp3735
g61
(g70
g63
NtRp3736
(dp3737
g66
(dp3738
g74
I3
ssg75
Nsg68
(lp3739
g61
(g77
g63
NtRp3740
(dp3741
g66
(dp3742
sg75
g3736
sg68
(lp3743
g61
(g82
g63
NtRp3744
(dp3745
g66
(dp3746
sg75
g3740
sg68
(lp3747
g61
(g62
g63
NtRp3748
(dp3749
g66
(dp3750
g74
I3
ssg75
g3744
sg68
(lp3751
g61
(cgluon.html
SPAN
p3752
g63
NtRp3753
(dp3754
g66
(dp3755
S'_class'
p3756
S'highlighted'
p3757
ssg75
Nsg68
(lp3758
g3627
asbasbasbasbag61
(g77
g63
NtRp3759
(dp3760
g66
(dp3761
sg75
g3736
sg68
(lp3762
g61
(g82
g63
NtRp3763
(dp3764
g66
(dp3765
sg75
g3759
sg68
(lp3766
g61
(g62
g63
NtRp3767
(dp3768
g66
(dp3769
g74
I3
ssg75
g3763
sg68
(lp3770
g104
asbasbasbag61
(g77
g63
NtRp3771
(dp3772
g66
(dp3773
sg75
g3736
sg68
(lp3774
g61
(g82
g63
NtRp3775
(dp3776
g66
(dp3777
sg75
g3771
sg68
(lp3778
g61
(g62
g63
NtRp3779
(dp3780
g66
(dp3781
g74
I3
ssg75
g3775
sg68
(lp3782
S'http://web2py.com'
p3783
asbasbasbag61
(g77
g63
NtRp3784
(dp3785
g66
(dp3786
sg75
g3736
sg68
(lp3787
g61
(g82
g63
NtRp3788
(dp3789
g66
(dp3790
sg75
g3784
sg68
(lp3791
g61
(g62
g63
NtRp3792
(dp3793
g66
(dp3794
g74
I3
ssg75
g3788
sg68
(lp3795
g61
(g70
g63
NtRp3796
(dp3797
g66
(dp3798
g74
I2
ssg75
Nsg68
(lp3799
g61
(g77
g63
NtRp3800
(dp3801
g66
(dp3802
sg75
g3796
sg68
(lp3803
g61
(g82
g63
NtRp3804
(dp3805
g66
(dp3806
sg75
g3800
sg68
(lp3807
g61
(g62
g63
NtRp3808
(dp3809
g66
(dp3810
g74
I2
ssg75
g3804
sg68
(lp3811
g61
(g70
g63
NtRp3812
(dp3813
g66
(dp3814
g74
I1
ssg75
Nsg68
(lp3815
g61
(g77
g63
NtRp3816
(dp3817
g66
(dp3818
sg75
g3812
sg68
(lp3819
g61
(g82
g63
NtRp3820
(dp3821
g66
(dp3822
sg75
g3816
sg68
(lp3823
g61
(g62
g63
NtRp3824
(dp3825
g66
(dp3826
g74
I1
ssg75
g3820
sg68
(lp3827
g3681
(S's\x08\x00\x00\x00My Sites'
tRp3828
asbasbasbag61
(g77
g63
NtRp3829
(dp3830
g66
(dp3831
sg75
g3812
sg68
(lp3832
g61
(g82
g63
NtRp3833
(dp3834
g66
(dp3835
sg75
g3829
sg68
(lp3836
g61
(g62
g63
NtRp3837
(dp3838
g66
(dp3839
g74
I1
ssg75
g3833
sg68
(lp3840
I00
asbasbasbag61
(g77
g63
NtRp3841
(dp3842
g66
(dp3843
sg75
g3812
sg68
(lp3844
g61
(g82
g63
NtRp3845
(dp3846
g66
(dp3847
sg75
g3841
sg68
(lp3848
g61
(g62
g63
NtRp3849
(dp3850
g66
(dp3851
g74
I1
ssg75
g3845
sg68
(lp3852
S'/admin/default/site'
p3853
asbasbasbasbasbasbasbag61
(g77
g63
NtRp3854
(dp3855
g66
(dp3856
sg75
g3796
sg68
(lp3857
g61
(g82
g63
NtRp3858
(dp3859
g66
(dp3860
sg75
g3854
sg68
(lp3861
g61
(g62
g63
NtRp3862
(dp3863
g66
(dp3864
g74
I2
ssg75
g3858
sg68
(lp3865
g61
(g70
g63
NtRp3866
(dp3867
g66
(dp3868
g74
I1
ssg75
Nsg68
(lp3869
g61
(g77
g63
NtRp3870
(dp3871
g66
(dp3872
sg75
g3866
sg68
(lp3873
g61
(g82
g63
NtRp3874
(dp3875
g66
(dp3876
sg75
g3870
sg68
(lp3877
g61
(g62
g63
NtRp3878
(dp3879
g66
(dp3880
g74
I1
ssg75
g3874
sg68
(lp3881
g3681
(S's\x08\x00\x00\x00This App'
tRp3882
asbasbasbag61
(g77
g63
NtRp3883
(dp3884
g66
(dp3885
sg75
g3866
sg68
(lp3886
g61
(g82
g63
NtRp3887
(dp3888
g66
(dp3889
sg75
g3883
sg68
(lp3890
g61
(g62
g63
NtRp3891
(dp3892
g66
(dp3893
g74
I1
ssg75
g3887
sg68
(lp3894
I00
asbasbasbag61
(g77
g63
NtRp3895
(dp3896
g66
(dp3897
sg75
g3866
sg68
(lp3898
g61
(g82
g63
NtRp3899
(dp3900
g66
(dp3901
sg75
g3895
sg68
(lp3902
g61
(g62
g63
NtRp3903
(dp3904
g66
(dp3905
g74
I1
ssg75
g3899
sg68
(lp3906
S'/admin/default/design/Final_Impulse'
p3907
asbasbasbag61
(g77
g63
NtRp3908
(dp3909
g66
(dp3910
sg75
g3866
sg68
(lp3911
g61
(g82
g63
NtRp3912
(dp3913
g66
(dp3914
sg75
g3908
sg68
(lp3915
g61
(g62
g63
NtRp3916
(dp3917
g66
(dp3918
g74
I1
ssg75
g3912
sg68
(lp3919
(lp3920
(g3681
(S't\n\x00\x00\x00Controller'
tRp3921
I00
S'/admin/default/edit/Final_Impulse/controllers/default.py'
tp3922
a(g3681
(S't\x04\x00\x00\x00View'
tRp3923
I00
S'/admin/default/edit/Final_Impulse/views/default/show_image_comments.html'
tp3924
a(g3681
(S't\x06\x00\x00\x00Layout'
tRp3925
I00
S'/admin/default/edit/Final_Impulse/views/layout.html'
tp3926
a(g3681
(S't\n\x00\x00\x00Stylesheet'
tRp3927
I00
S'/admin/default/edit/Final_Impulse/static/css/web2py.css'
tp3928
a(g3681
(S's\x08\x00\x00\x00DB Model'
tRp3929
I00
S'/admin/default/edit/Final_Impulse/models/db.py'
tp3930
a(g3681
(S's\n\x00\x00\x00Menu Model'
tRp3931
I00
S'/admin/default/edit/Final_Impulse/models/menu.py'
tp3932
a(g3681
(S't\x08\x00\x00\x00Database'
tRp3933
I00
S'/Final_Impulse/appadmin/index'
tp3934
a(g3681
(S't\x06\x00\x00\x00Errors'
tRp3935
I00
S'/admin/default/errors/Final_Impulse'
tp3936
a(g3681
(S't\x05\x00\x00\x00About'
tRp3937
I00
S'/admin/default/about/Final_Impulse'
tp3938
aasbasbasbasbasbasbasbag61
(g77
g63
NtRp3939
(dp3940
g66
(dp3941
sg75
g3796
sg68
(lp3942
g61
(g82
g63
NtRp3943
(dp3944
g66
(dp3945
sg75
g3939
sg68
(lp3946
g61
(g62
g63
NtRp3947
(dp3948
g66
(dp3949
g74
I2
ssg75
g3943
sg68
(lp3950
g61
(g70
g63
NtRp3951
(dp3952
g66
(dp3953
g74
I1
ssg75
Nsg68
(lp3954
g61
(g77
g63
NtRp3955
(dp3956
g66
(dp3957
sg75
g3951
sg68
(lp3958
g61
(g82
g63
NtRp3959
(dp3960
g66
(dp3961
sg75
g3955
sg68
(lp3962
g61
(g62
g63
NtRp3963
(dp3964
g66
(dp3965
g74
I1
ssg75
g3959
sg68
(lp3966
S'web2py.com'
p3967
asbasbasbag61
(g77
g63
NtRp3968
(dp3969
g66
(dp3970
sg75
g3951
sg68
(lp3971
g61
(g82
g63
NtRp3972
(dp3973
g66
(dp3974
sg75
g3968
sg68
(lp3975
g61
(g62
g63
NtRp3976
(dp3977
g66
(dp3978
g74
I1
ssg75
g3972
sg68
(lp3979
I00
asbasbasbag61
(g77
g63
NtRp3980
(dp3981
g66
(dp3982
sg75
g3951
sg68
(lp3983
g61
(g82
g63
NtRp3984
(dp3985
g66
(dp3986
sg75
g3980
sg68
(lp3987
g61
(g62
g63
NtRp3988
(dp3989
g66
(dp3990
g74
I1
ssg75
g3984
sg68
(lp3991
S'http://www.web2py.com'
p3992
asbasbasbag61
(g77
g63
NtRp3993
(dp3994
g66
(dp3995
sg75
g3951
sg68
(lp3996
g61
(g82
g63
NtRp3997
(dp3998
g66
(dp3999
sg75
g3993
sg68
(lp4000
g61
(g62
g63
NtRp4001
(dp4002
g66
(dp4003
g74
I1
ssg75
g3997
sg68
(lp4004
(lp4005
(g3681
(S't\x08\x00\x00\x00Download'
tRp4006
I00
S'http://www.web2py.com/examples/default/download'
p4007
tp4008
a(g3681
(S't\x07\x00\x00\x00Support'
tRp4009
I00
S'http://www.web2py.com/examples/default/support'
p4010
tp4011
a(g3681
(S't\x04\x00\x00\x00Demo'
tRp4012
I00
S'http://web2py.com/demo_admin'
p4013
tp4014
a(g3681
(S's\x0e\x00\x00\x00Quick Examples'
tRp4015
I00
S'http://web2py.com/examples/default/examples'
p4016
tp4017
a(g3681
(S't\x03\x00\x00\x00FAQ'
tRp4018
I00
S'http://web2py.com/AlterEgo'
p4019
tp4020
a(g3681
(S't\x06\x00\x00\x00Videos'
tRp4021
I00
S'http://www.web2py.com/examples/default/videos/'
p4022
tp4023
a(g3681
(S's\x11\x00\x00\x00Free Applications'
tRp4024
I00
S'http://web2py.com/appliances'
p4025
tp4026
a(g3681
(S't\x07\x00\x00\x00Plugins'
tRp4027
I00
S'http://web2py.com/plugins'
p4028
tp4029
a(g3681
(S't\x07\x00\x00\x00Layouts'
tRp4030
I00
S'http://web2py.com/layouts'
p4031
tp4032
a(g3681
(S't\x07\x00\x00\x00Recipes'
tRp4033
I00
S'http://web2pyslices.com/'
p4034
tp4035
a(g3681
(S't\x08\x00\x00\x00Semantic'
tRp4036
I00
S'http://web2py.com/semantic'
p4037
tp4038
aasbasbasbasbasbasbasbag61
(g77
g63
NtRp4039
(dp4040
g66
(dp4041
sg75
g3796
sg68
(lp4042
g61
(g82
g63
NtRp4043
(dp4044
g66
(dp4045
sg75
g4039
sg68
(lp4046
g61
(g62
g63
NtRp4047
(dp4048
g66
(dp4049
g74
I2
ssg75
g4043
sg68
(lp4050
g61
(g70
g63
NtRp4051
(dp4052
g66
(dp4053
g74
I1
ssg75
Nsg68
(lp4054
g61
(g77
g63
NtRp4055
(dp4056
g66
(dp4057
sg75
g4051
sg68
(lp4058
g61
(g82
g63
NtRp4059
(dp4060
g66
(dp4061
sg75
g4055
sg68
(lp4062
g61
(g62
g63
NtRp4063
(dp4064
g66
(dp4065
g74
I1
ssg75
g4059
sg68
(lp4066
g3681
(S't\r\x00\x00\x00Documentation'
tRp4067
asbasbasbag61
(g77
g63
NtRp4068
(dp4069
g66
(dp4070
sg75
g4051
sg68
(lp4071
g61
(g82
g63
NtRp4072
(dp4073
g66
(dp4074
sg75
g4068
sg68
(lp4075
g61
(g62
g63
NtRp4076
(dp4077
g66
(dp4078
g74
I1
ssg75
g4072
sg68
(lp4079
I00
asbasbasbag61
(g77
g63
NtRp4080
(dp4081
g66
(dp4082
sg75
g4051
sg68
(lp4083
g61
(g82
g63
NtRp4084
(dp4085
g66
(dp4086
sg75
g4080
sg68
(lp4087
g61
(g62
g63
NtRp4088
(dp4089
g66
(dp4090
g74
I1
ssg75
g4084
sg68
(lp4091
S'http://www.web2py.com/book'
p4092
asbasbasbag61
(g77
g63
NtRp4093
(dp4094
g66
(dp4095
sg75
g4051
sg68
(lp4096
g61
(g82
g63
NtRp4097
(dp4098
g66
(dp4099
sg75
g4093
sg68
(lp4100
g61
(g62
g63
NtRp4101
(dp4102
g66
(dp4103
g74
I1
ssg75
g4097
sg68
(lp4104
(lp4105
(g3681
(S't\x07\x00\x00\x00Preface'
tRp4106
I00
S'http://www.web2py.com/book/default/chapter/00'
p4107
tp4108
a(g3681
(S't\x0c\x00\x00\x00Introduction'
tRp4109
I00
S'http://www.web2py.com/book/default/chapter/01'
p4110
tp4111
a(g3681
(S't\x06\x00\x00\x00Python'
tRp4112
I00
S'http://www.web2py.com/book/default/chapter/02'
p4113
tp4114
a(g3681
(S't\x08\x00\x00\x00Overview'
tRp4115
I00
S'http://www.web2py.com/book/default/chapter/03'
p4116
tp4117
a(g3681
(S's\x08\x00\x00\x00The Core'
tRp4118
I00
S'http://www.web2py.com/book/default/chapter/04'
p4119
tp4120
a(g3681
(S's\t\x00\x00\x00The Views'
tRp4121
I00
S'http://www.web2py.com/book/default/chapter/05'
p4122
tp4123
a(g3681
(S't\x08\x00\x00\x00Database'
tRp4124
I00
S'http://www.web2py.com/book/default/chapter/06'
p4125
tp4126
a(g3681
(S's\x14\x00\x00\x00Forms and Validators'
tRp4127
I00
S'http://www.web2py.com/book/default/chapter/07'
p4128
tp4129
a(g3681
(S's\r\x00\x00\x00Email and SMS'
tRp4130
I00
S'http://www.web2py.com/book/default/chapter/08'
p4131
tp4132
a(g3681
(S's\x0e\x00\x00\x00Access Control'
tRp4133
I00
S'http://www.web2py.com/book/default/chapter/09'
p4134
tp4135
a(g3681
(S't\x08\x00\x00\x00Services'
tRp4136
I00
S'http://www.web2py.com/book/default/chapter/10'
p4137
tp4138
a(g3681
(S's\x0c\x00\x00\x00Ajax Recipes'
tRp4139
I00
S'http://www.web2py.com/book/default/chapter/11'
p4140
tp4141
a(g3681
(S's\x16\x00\x00\x00Components and Plugins'
tRp4142
I00
S'http://www.web2py.com/book/default/chapter/12'
p4143
tp4144
a(g3681
(S's\x12\x00\x00\x00Deployment Recipes'
tRp4145
I00
S'http://www.web2py.com/book/default/chapter/13'
p4146
tp4147
a(g3681
(S's\r\x00\x00\x00Other Recipes'
tRp4148
I00
S'http://www.web2py.com/book/default/chapter/14'
p4149
tp4150
a(g3681
(S's\r\x00\x00\x00Buy this book'
tRp4151
I00
S'http://stores.lulu.com/web2py'
p4152
tp4153
aasbasbasbasbasbasbasbag61
(g77
g63
NtRp4154
(dp4155
g66
(dp4156
sg75
g3796
sg68
(lp4157
g61
(g82
g63
NtRp4158
(dp4159
g66
(dp4160
sg75
g4154
sg68
(lp4161
g61
(g62
g63
NtRp4162
(dp4163
g66
(dp4164
g74
I2
ssg75
g4158
sg68
(lp4165
g61
(g70
g63
NtRp4166
(dp4167
g66
(dp4168
g74
I1
ssg75
Nsg68
(lp4169
g61
(g77
g63
NtRp4170
(dp4171
g66
(dp4172
sg75
g4166
sg68
(lp4173
g61
(g82
g63
NtRp4174
(dp4175
g66
(dp4176
sg75
g4170
sg68
(lp4177
g61
(g62
g63
NtRp4178
(dp4179
g66
(dp4180
g74
I1
ssg75
g4174
sg68
(lp4181
g3681
(S't\t\x00\x00\x00Community'
tRp4182
asbasbasbag61
(g77
g63
NtRp4183
(dp4184
g66
(dp4185
sg75
g4166
sg68
(lp4186
g61
(g82
g63
NtRp4187
(dp4188
g66
(dp4189
sg75
g4183
sg68
(lp4190
g61
(g62
g63
NtRp4191
(dp4192
g66
(dp4193
g74
I1
ssg75
g4187
sg68
(lp4194
I00
asbasbasbag61
(g77
g63
NtRp4195
(dp4196
g66
(dp4197
sg75
g4166
sg68
(lp4198
g61
(g82
g63
NtRp4199
(dp4200
g66
(dp4201
sg75
g4195
sg68
(lp4202
g61
(g62
g63
NtRp4203
(dp4204
g66
(dp4205
g74
I1
ssg75
g4199
sg68
(lp4206
Nasbasbasbag61
(g77
g63
NtRp4207
(dp4208
g66
(dp4209
sg75
g4166
sg68
(lp4210
g61
(g82
g63
NtRp4211
(dp4212
g66
(dp4213
sg75
g4207
sg68
(lp4214
g61
(g62
g63
NtRp4215
(dp4216
g66
(dp4217
g74
I1
ssg75
g4211
sg68
(lp4218
(lp4219
(g3681
(S't\x06\x00\x00\x00Groups'
tRp4220
I00
S'http://www.web2py.com/examples/default/usergroups'
p4221
tp4222
a(g3681
(S't\x07\x00\x00\x00Twitter'
tRp4223
I00
S'http://twitter.com/web2py'
p4224
tp4225
a(g3681
(S's\t\x00\x00\x00Live Chat'
tRp4226
I00
S'http://webchat.freenode.net/?channels=web2py'
p4227
tp4228
aasbasbasbasbasbasbasbag61
(g77
g63
NtRp4229
(dp4230
g66
(dp4231
sg75
g3796
sg68
(lp4232
g61
(g82
g63
NtRp4233
(dp4234
g66
(dp4235
sg75
g4229
sg68
(lp4236
g61
(g62
g63
NtRp4237
(dp4238
g66
(dp4239
g74
I2
ssg75
g4233
sg68
(lp4240
g61
(g70
g63
NtRp4241
(dp4242
g66
(dp4243
g74
I1
ssg75
Nsg68
(lp4244
g61
(g77
g63
NtRp4245
(dp4246
g66
(dp4247
sg75
g4241
sg68
(lp4248
g61
(g82
g63
NtRp4249
(dp4250
g66
(dp4251
sg75
g4245
sg68
(lp4252
g61
(g62
g63
NtRp4253
(dp4254
g66
(dp4255
g74
I1
ssg75
g4249
sg68
(lp4256
g3681
(S't\x07\x00\x00\x00Plugins'
tRp4257
asbasbasbag61
(g77
g63
NtRp4258
(dp4259
g66
(dp4260
sg75
g4241
sg68
(lp4261
g61
(g82
g63
NtRp4262
(dp4263
g66
(dp4264
sg75
g4258
sg68
(lp4265
g61
(g62
g63
NtRp4266
(dp4267
g66
(dp4268
g74
I1
ssg75
g4262
sg68
(lp4269
I00
asbasbasbag61
(g77
g63
NtRp4270
(dp4271
g66
(dp4272
sg75
g4241
sg68
(lp4273
g61
(g82
g63
NtRp4274
(dp4275
g66
(dp4276
sg75
g4270
sg68
(lp4277
g61
(g62
g63
NtRp4278
(dp4279
g66
(dp4280
g74
I1
ssg75
g4274
sg68
(lp4281
Nasbasbasbag61
(g77
g63
NtRp4282
(dp4283
g66
(dp4284
sg75
g4241
sg68
(lp4285
g61
(g82
g63
NtRp4286
(dp4287
g66
(dp4288
sg75
g4282
sg68
(lp4289
g61
(g62
g63
NtRp4290
(dp4291
g66
(dp4292
g74
I1
ssg75
g4286
sg68
(lp4293
(lp4294
(S'plugin_wiki'
p4295
I00
S'http://web2py.com/examples/default/download'
p4296
tp4297
a(g3681
(S's\r\x00\x00\x00Other Plugins'
tRp4298
I00
g4028
tp4299
a(g3681
(S's\x0e\x00\x00\x00Layout Plugins'
tRp4300
I00
g4031
tp4301
aasbasbasbasbasbasbasbasbasbasbasbasbasbasbasbasbasbasbasbag61
(g77
g63
NtRp4302
(dp4303
g66
(dp4304
sg75
g3223
sg68
(lp4305
g61
(g82
g63
NtRp4306
(dp4307
g66
(dp4308
g86
g87
ssg75
g4302
sg68
(lp4309
S'meta'
p4310
asbag61
(g82
g63
NtRp4311
(dp4312
g66
(dp4313
g93
g94
ssg75
g4302
sg68
(lp4314
S':'
asbag61
(g82
g63
NtRp4315
(dp4316
g66
(dp4317
sg75
g4302
sg68
(lp4318
g61
(g62
g63
NtRp4319
(dp4320
g66
(dp4321
g74
I5
ssg75
g4315
sg68
(lp4322
g61
(g70
g63
NtRp4323
(dp4324
g66
(dp4325
g74
I4
ssg75
Nsg68
(lp4326
g61
(g77
g63
NtRp4327
(dp4328
g66
(dp4329
sg75
g4323
sg68
(lp4330
g61
(g82
g63
NtRp4331
(dp4332
g66
(dp4333
g86
g87
ssg75
g4327
sg68
(lp4334
S'author'
p4335
asbag61
(g82
g63
NtRp4336
(dp4337
g66
(dp4338
g93
g94
ssg75
g4327
sg68
(lp4339
S':'
asbag61
(g82
g63
NtRp4340
(dp4341
g66
(dp4342
sg75
g4327
sg68
(lp4343
g61
(g62
g63
NtRp4344
(dp4345
g66
(dp4346
g74
I4
ssg75
g4340
sg68
(lp4347
S'Your Name <you@example.com>'
p4348
asbasbasbag61
(g77
g63
NtRp4349
(dp4350
g66
(dp4351
sg75
g4323
sg68
(lp4352
g61
(g82
g63
NtRp4353
(dp4354
g66
(dp4355
g86
g87
ssg75
g4349
sg68
(lp4356
S'description'
p4357
asbag61
(g82
g63
NtRp4358
(dp4359
g66
(dp4360
g93
g94
ssg75
g4349
sg68
(lp4361
S':'
asbag61
(g82
g63
NtRp4362
(dp4363
g66
(dp4364
sg75
g4349
sg68
(lp4365
g61
(g62
g63
NtRp4366
(dp4367
g66
(dp4368
g74
I4
ssg75
g4362
sg68
(lp4369
S'a cool new app'
p4370
asbasbasbag61
(g77
g63
NtRp4371
(dp4372
g66
(dp4373
sg75
g4323
sg68
(lp4374
g61
(g82
g63
NtRp4375
(dp4376
g66
(dp4377
g86
g87
ssg75
g4371
sg68
(lp4378
S'generator'
p4379
asbag61
(g82
g63
NtRp4380
(dp4381
g66
(dp4382
g93
g94
ssg75
g4371
sg68
(lp4383
S':'
asbag61
(g82
g63
NtRp4384
(dp4385
g66
(dp4386
sg75
g4371
sg68
(lp4387
g61
(g62
g63
NtRp4388
(dp4389
g66
(dp4390
g74
I4
ssg75
g4384
sg68
(lp4391
S'Web2py Web Framework'
p4392
asbasbasbag61
(g77
g63
NtRp4393
(dp4394
g66
(dp4395
sg75
g4323
sg68
(lp4396
g61
(g82
g63
NtRp4397
(dp4398
g66
(dp4399
g86
g87
ssg75
g4393
sg68
(lp4400
S'keywords'
p4401
asbag61
(g82
g63
NtRp4402
(dp4403
g66
(dp4404
g93
g94
ssg75
g4393
sg68
(lp4405
S':'
asbag61
(g82
g63
NtRp4406
(dp4407
g66
(dp4408
sg75
g4393
sg68
(lp4409
g61
(g62
g63
NtRp4410
(dp4411
g66
(dp4412
g74
I4
ssg75
g4406
sg68
(lp4413
S'web2py, python, framework'
p4414
asbasbasbasbasbasbasbag61
(g77
g63
NtRp4415
(dp4416
g66
(dp4417
sg75
g3223
sg68
(lp4418
g61
(g82
g63
NtRp4419
(dp4420
g66
(dp4421
g86
g87
ssg75
g4415
sg68
(lp4422
S'models_to_run'
p4423
asbag61
(g82
g63
NtRp4424
(dp4425
g66
(dp4426
g93
g94
ssg75
g4415
sg68
(lp4427
S':'
asbag61
(g82
g63
NtRp4428
(dp4429
g66
(dp4430
sg75
g4415
sg68
(lp4431
g61
(g62
g63
NtRp4432
(dp4433
g66
(dp4434
g74
I5
ssg75
g4428
sg68
(lp4435
g61
(g70
g63
NtRp4436
(dp4437
g66
(dp4438
g74
I4
ssg75
Nsg68
(lp4439
g61
(g77
g63
NtRp4440
(dp4441
g66
(dp4442
sg75
g4436
sg68
(lp4443
g61
(g82
g63
NtRp4444
(dp4445
g66
(dp4446
sg75
g4440
sg68
(lp4447
g61
(g62
g63
NtRp4448
(dp4449
g66
(dp4450
g74
I4
ssg75
g4444
sg68
(lp4451
S'^\\w+\\.py$'
p4452
asbasbasbag61
(g77
g63
NtRp4453
(dp4454
g66
(dp4455
sg75
g4436
sg68
(lp4456
g61
(g82
g63
NtRp4457
(dp4458
g66
(dp4459
sg75
g4453
sg68
(lp4460
g61
(g62
g63
NtRp4461
(dp4462
g66
(dp4463
g74
I4
ssg75
g4457
sg68
(lp4464
S'^default/\\w+\\.py$'
p4465
asbasbasbag61
(g77
g63
NtRp4466
(dp4467
g66
(dp4468
sg75
g4436
sg68
(lp4469
g61
(g82
g63
NtRp4470
(dp4471
g66
(dp4472
sg75
g4466
sg68
(lp4473
g61
(g62
g63
NtRp4474
(dp4475
g66
(dp4476
g74
I4
ssg75
g4470
sg68
(lp4477
S'^default/show_image_comments/\\w+\\.py$'
p4478
asbasbasbasbasbasbasbag61
(g77
g63
NtRp4479
(dp4480
g66
(dp4481
sg75
g3223
sg68
(lp4482
g61
(g82
g63
NtRp4483
(dp4484
g66
(dp4485
g86
g87
ssg75
g4479
sg68
(lp4486
S'postprocessing'
p4487
asbag61
(g82
g63
NtRp4488
(dp4489
g66
(dp4490
g93
g94
ssg75
g4479
sg68
(lp4491
S':'
asbag61
(g82
g63
NtRp4492
(dp4493
g66
(dp4494
sg75
g4479
sg68
(lp4495
g61
(g62
g63
NtRp4496
(dp4497
g66
(dp4498
g74
I5
ssg75
g4492
sg68
(lp4499
g61
(g70
g63
NtRp4500
(dp4501
g66
(dp4502
g74
I4
ssg75
Nsg68
(lp4503
sbasbasbasbag61
(g77
g63
NtRp4504
(dp4505
g66
(dp4506
sg75
g3223
sg68
(lp4507
g61
(g82
g63
NtRp4508
(dp4509
g66
(dp4510
g86
g87
ssg75
g4504
sg68
(lp4511
S'session_cookie_expires'
p4512
asbag61
(g82
g63
NtRp4513
(dp4514
g66
(dp4515
g93
g94
ssg75
g4504
sg68
(lp4516
S':'
asbag61
(g82
g63
NtRp4517
(dp4518
g66
(dp4519
sg75
g4504
sg68
(lp4520
g61
(g62
g63
NtRp4521
(dp4522
g66
(dp4523
g74
I5
ssg75
g4517
sg68
(lp4524
S'None'
p4525
asbasbasbag61
(g77
g63
NtRp4526
(dp4527
g66
(dp4528
sg75
g3223
sg68
(lp4529
g61
(g82
g63
NtRp4530
(dp4531
g66
(dp4532
g86
g87
ssg75
g4526
sg68
(lp4533
S'session_data_name'
p4534
asbag61
(g82
g63
NtRp4535
(dp4536
g66
(dp4537
g93
g94
ssg75
g4526
sg68
(lp4538
S':'
asbag61
(g82
g63
NtRp4539
(dp4540
g66
(dp4541
sg75
g4526
sg68
(lp4542
g61
(g62
g63
NtRp4543
(dp4544
g66
(dp4545
g74
I5
ssg75
g4539
sg68
(lp4546
S'session_data_final_impulse'
p4547
asbasbasbag61
(g77
g63
NtRp4548
(dp4549
g66
(dp4550
sg75
g3223
sg68
(lp4551
g61
(g82
g63
NtRp4552
(dp4553
g66
(dp4554
g86
g87
ssg75
g4548
sg68
(lp4555
S'session_file'
p4556
asbag61
(g82
g63
NtRp4557
(dp4558
g66
(dp4559
g93
g94
ssg75
g4548
sg68
(lp4560
S':'
asbag61
(g82
g63
NtRp4561
(dp4562
g66
(dp4563
sg75
g4548
sg68
(lp4564
g61
(g62
g63
NtRp4565
(dp4566
g66
(dp4567
g74
I5
ssg75
g4561
sg68
(lp4568
S"<open file '/Users/abaric/Downloads/web2py/web2py.app/Contents/Resources/applications/Final_Impulse/sessions/127.0.0.1-74b0ab87-cc9c-4772-8ab4-9357b1f96576', mode 'rb+' at 0x8988380>"
p4569
asbasbasbag61
(g77
g63
NtRp4570
(dp4571
g66
(dp4572
sg75
g3223
sg68
(lp4573
g61
(g82
g63
NtRp4574
(dp4575
g66
(dp4576
g86
g87
ssg75
g4570
sg68
(lp4577
S'session_filename'
p4578
asbag61
(g82
g63
NtRp4579
(dp4580
g66
(dp4581
g93
g94
ssg75
g4570
sg68
(lp4582
S':'
asbag61
(g82
g63
NtRp4583
(dp4584
g66
(dp4585
sg75
g4570
sg68
(lp4586
g61
(g62
g63
NtRp4587
(dp4588
g66
(dp4589
g74
I5
ssg75
g4583
sg68
(lp4590
S'/Users/abaric/Downloads/web2py/web2py.app/Contents/Resources/applications/Final_Impulse/sessions/127.0.0.1-74b0ab87-cc9c-4772-8ab4-9357b1f96576'
p4591
asbasbasbag61
(g77
g63
NtRp4592
(dp4593
g66
(dp4594
sg75
g3223
sg68
(lp4595
g61
(g82
g63
NtRp4596
(dp4597
g66
(dp4598
g86
g87
ssg75
g4592
sg68
(lp4599
S'session_id'
p4600
asbag61
(g82
g63
NtRp4601
(dp4602
g66
(dp4603
g93
g94
ssg75
g4592
sg68
(lp4604
S':'
asbag61
(g82
g63
NtRp4605
(dp4606
g66
(dp4607
sg75
g4592
sg68
(lp4608
g61
(g62
g63
NtRp4609
(dp4610
g66
(dp4611
g74
I5
ssg75
g4605
sg68
(lp4612
g458
asbasbasbag61
(g77
g63
NtRp4613
(dp4614
g66
(dp4615
sg75
g3223
sg68
(lp4616
g61
(g82
g63
NtRp4617
(dp4618
g66
(dp4619
g86
g87
ssg75
g4613
sg68
(lp4620
S'session_id_name'
p4621
asbag61
(g82
g63
NtRp4622
(dp4623
g66
(dp4624
g93
g94
ssg75
g4613
sg68
(lp4625
S':'
asbag61
(g82
g63
NtRp4626
(dp4627
g66
(dp4628
sg75
g4613
sg68
(lp4629
g61
(g62
g63
NtRp4630
(dp4631
g66
(dp4632
g74
I5
ssg75
g4626
sg68
(lp4633
g3280
asbasbasbag61
(g77
g63
NtRp4634
(dp4635
g66
(dp4636
sg75
g3223
sg68
(lp4637
g61
(g82
g63
NtRp4638
(dp4639
g66
(dp4640
g86
g87
ssg75
g4634
sg68
(lp4641
S'session_locked'
p4642
asbag61
(g82
g63
NtRp4643
(dp4644
g66
(dp4645
g93
g94
ssg75
g4634
sg68
(lp4646
S':'
asbag61
(g82
g63
NtRp4647
(dp4648
g66
(dp4649
sg75
g4634
sg68
(lp4650
g61
(g62
g63
NtRp4651
(dp4652
g66
(dp4653
g74
I5
ssg75
g4647
sg68
(lp4654
g1711
asbasbasbag61
(g77
g63
NtRp4655
(dp4656
g66
(dp4657
sg75
g3223
sg68
(lp4658
g61
(g82
g63
NtRp4659
(dp4660
g66
(dp4661
g86
g87
ssg75
g4655
sg68
(lp4662
S'session_new'
p4663
asbag61
(g82
g63
NtRp4664
(dp4665
g66
(dp4666
g93
g94
ssg75
g4655
sg68
(lp4667
S':'
asbag61
(g82
g63
NtRp4668
(dp4669
g66
(dp4670
sg75
g4655
sg68
(lp4671
g61
(g62
g63
NtRp4672
(dp4673
g66
(dp4674
g74
I5
ssg75
g4668
sg68
(lp4675
g104
asbasbasbag61
(g77
g63
NtRp4676
(dp4677
g66
(dp4678
sg75
g3223
sg68
(lp4679
g61
(g82
g63
NtRp4680
(dp4681
g66
(dp4682
g86
g87
ssg75
g4676
sg68
(lp4683
S'session_storage_type'
p4684
asbag61
(g82
g63
NtRp4685
(dp4686
g66
(dp4687
g93
g94
ssg75
g4676
sg68
(lp4688
S':'
asbag61
(g82
g63
NtRp4689
(dp4690
g66
(dp4691
sg75
g4676
sg68
(lp4692
g61
(g62
g63
NtRp4693
(dp4694
g66
(dp4695
g74
I5
ssg75
g4689
sg68
(lp4696
g3142
asbasbasbag61
(g77
g63
NtRp4697
(dp4698
g66
(dp4699
sg75
g3223
sg68
(lp4700
g61
(g82
g63
NtRp4701
(dp4702
g66
(dp4703
g86
g87
ssg75
g4697
sg68
(lp4704
S'status'
p4705
asbag61
(g82
g63
NtRp4706
(dp4707
g66
(dp4708
g93
g94
ssg75
g4697
sg68
(lp4709
S':'
asbag61
(g82
g63
NtRp4710
(dp4711
g66
(dp4712
sg75
g4697
sg68
(lp4713
g61
(g62
g63
NtRp4714
(dp4715
g66
(dp4716
g74
I5
ssg75
g4710
sg68
(lp4717
S'200'
p4718
asbasbasbag61
(g77
g63
NtRp4719
(dp4720
g66
(dp4721
sg75
g3223
sg68
(lp4722
g61
(g82
g63
NtRp4723
(dp4724
g66
(dp4725
g86
g87
ssg75
g4719
sg68
(lp4726
S'subtitle'
p4727
asbag61
(g82
g63
NtRp4728
(dp4729
g66
(dp4730
g93
g94
ssg75
g4719
sg68
(lp4731
S':'
asbag61
(g82
g63
NtRp4732
(dp4733
g66
(dp4734
sg75
g4719
sg68
(lp4735
g61
(g62
g63
NtRp4736
(dp4737
g66
(dp4738
g74
I5
ssg75
g4732
sg68
(lp4739
g3681
(S's\r\x00\x00\x00customize me!'
tRp4740
asbasbasbag61
(g77
g63
NtRp4741
(dp4742
g66
(dp4743
sg75
g3223
sg68
(lp4744
g61
(g82
g63
NtRp4745
(dp4746
g66
(dp4747
g86
g87
ssg75
g4741
sg68
(lp4748
S'title'
p4749
asbag61
(g82
g63
NtRp4750
(dp4751
g66
(dp4752
g93
g94
ssg75
g4741
sg68
(lp4753
S':'
asbag61
(g82
g63
NtRp4754
(dp4755
g66
(dp4756
sg75
g4741
sg68
(lp4757
g61
(g62
g63
NtRp4758
(dp4759
g66
(dp4760
g74
I5
ssg75
g4754
sg68
(lp4761
S'Final Impulse'
p4762
asbasbasbag61
(g77
g63
NtRp4763
(dp4764
g66
(dp4765
sg75
g3223
sg68
(lp4766
g61
(g82
g63
NtRp4767
(dp4768
g66
(dp4769
g86
g87
ssg75
g4763
sg68
(lp4770
S'view'
p4771
asbag61
(g82
g63
NtRp4772
(dp4773
g66
(dp4774
g93
g94
ssg75
g4763
sg68
(lp4775
S':'
asbag61
(g82
g63
NtRp4776
(dp4777
g66
(dp4778
sg75
g4763
sg68
(lp4779
g61
(g62
g63
NtRp4780
(dp4781
g66
(dp4782
g74
I5
ssg75
g4776
sg68
(lp4783
S'default/show_image_comments.html'
p4784
asbasbasbasbasbsS'locals'
p4785
(dp4786
g4
S"'/Users/abaric/Downloads/web2py/web2py.app/Conten...al_Impulse/views/default/show_image_comments.html'"
p4787
sg6
S'r"response.write(\'<!DOCTYPE html>\\n<!-- paulirish.... 5px #349C01 solid; }\\n</style>\\n\', escape=False)"'
p4788
sssS'traceback'
p4789
S'Traceback (most recent call last):\n  File "gluon/restricted.py", line 211, in restricted\n  File "gluon/restricted.py", line 194, in compile2\n  File "/Users/abaric/Downloads/web2py/web2py.app/Contents/Resources/applications/Final_Impulse/views/default/show_image_comments.html", line 87\n    response.write(("%s says, "%s"")%(t[0],t[1]))\n                                  ^\nSyntaxError: invalid syntax\n'
p4790
s.