(dp1
S'output'
p2
S"<type 'exceptions.IndentationError'> expected an indented block (default.py, line 181)"
p3
sS'layer'
p4
S'/Users/abaric/Downloads/web2py/web2py.app/Contents/Resources/applications/Final_Impulse/controllers/default.py'
p5
sS'code'
p6
S"from gluon.tools import datetime\nfrom gluon.tools import Auth\n        \n\ndef user():\n    return dict(form=auth())\n    \ndef load_roles():\n        session.roles=[]\n        if auth.has_membership('arts_board'):\n            session.user_arts_board_id=db(db.arts_board.email==auth.arts_board.email).select().first().id\n            a=('arts_board','index',session.user_arts_board_id)\n            session.roles.append(a)\n        return locals()\n                                      \ndef index():\n    return locals()\n\ndef download():\n    return response.download(request, db)\n\ndef show_image_comments():\n    image_form=SQLFORM(db.image,fields=['title','file'],labels={'file':'Your Image'})\n    image_form.vars.author_id=auth.user.id\n    image_form.add_button('Back', URL('index'))\n    if image_form.process().accepted:\n        response.flash='image post submitted!'\n    images=db(db.image).select(db.image.ALL, orderby=db.image.id)\n    \n    d={}\n    for image in images:\n        comments=db((db.image_comment.image_id==image.id) &\\\n                   (db.auth_user.id==db.image_comment.author_id)).select() \n        tuple_list=[]       \n        for comment in comments:\n            author=('%s %s')%(comment.auth_user.first_name,comment.auth_user.last_name)\n            body=('%s')%(comment.image_comment.body)\n            t=(author,body)\n            tuple_list.append(t)\n        d[image.id]=tuple_list\n  \n    form = SQLFORM(db.writing_comment)\n    if form.process().accepted:\n        response.flash = 'your comment is posted'\n    #images = db(db.image_comment.image_id==image.id).select()\n    return locals()\n    \ndef show_writing_comments():\n    writing_form=SQLFORM(db.writing,fields=['title','body'],labels={'body':'Insert your post'})\n    writing_form.vars.author_id=auth.user.id\n    writing_form.add_button('Back', URL('index'))\n    if writing_form.process().accepted:\n        response.flash='writing post submitted!'\n   \n    writings=db(db.writing).select(db.writing.ALL, orderby=db.writing.id)\n    d={}\n    for writing in writings:\n        comments=db((db.writing_comment.writing_id==writing.id) &\\\n                   (db.auth_user.id==db.writing_comment.author_id)).select() \n        tuple_list=[]       \n        for comment in comments:\n            author=('%s %s')%(comment.auth_user.first_name,comment.auth_user.last_name)\n            body=('%s')%(comment.writing_comment.body)\n            t=(author,body)\n            tuple_list.append(t)\n        d[writing.id]=tuple_list\n  \n    form = SQLFORM(db.writing_comment)\n    if form.process().accepted:\n        response.flash = 'your comment is posted'\n    return locals()\n\ndef show_video_comments():\n    video_form=SQLFORM(db.video,fields=['title','url_str'],labels={'url_str':'Insert url string per above directions'})\n    video_form.vars.author_id=auth.user.id\n    video_form.add_button('Back', URL('index'))\n    if video_form.process().accepted:\n        response.flash='video post submitted!'\n    \n    videos=db(db.video).select(db.video.ALL, orderby=db.video.id)\n    d={}\n    for video in videos:\n        comments=db((db.video_comment.video_id==video.id) &\\\n                   (db.auth_user.id==db.video_comment.author_id)).select() \n        tuple_list=[]       \n        for comment in comments:\n            author=('%s %s')%(comment.auth_user.first_name,comment.auth_user.last_name)\n            body=('%s')%(comment.video_comment.body)\n            t=(author,body)\n            tuple_list.append(t)\n        d[video.id]=tuple_list\n    form = SQLFORM(db.video_comment)\n    if form.process().accepted:\n        response.flash = 'your comment is posted'\n    return locals()  \n\ndef insert_writing_comment():\n    if auth.user:\n        writing_comment=request.post_vars.writing_comment\n        writing_id=request.args(0)\n        db.writing_comment.insert(author_id=auth.user.id,\n                                  writing_id=writing_id,\n                                  email=None,\n                                  body=writing_comment,\n                                  date_of_entry=datetime.datetime.today())\n        db.commit()\n       \n    else:\n        session.flash='You must log in to post a comment.'\n    redirect(URL('show_writing_comments'))\n    return locals()\n\n\ndef insert_image_comment():\n    if auth.user:\n        image_comment=request.post_vars.image_comment\n        image_id=request.args(0)\n        db.image_comment.insert(author_id=auth.user.id,\n                                  image_id=image_id,\n                                  email=None,\n                                  body=image_comment,\n                                  date_of_entry=datetime.datetime.today())\n        db.commit()\n       \n    else:\n        session.flash='You must log in to post a comment.'\n    redirect(URL('show_image_comments'))\n    return locals()\n    \ndef insert_video_comment():\n    if auth.user:\n        video_comment=request.post_vars.video_comment\n        video_id=request.args(0)\n        db.video_comment.insert(author_id=auth.user.id,\n                                  video_id=video_id,\n                                  email=None,\n                                  body=video_comment,\n                                  date_of_entry=datetime.datetime.today())\n        db.commit()\n       \n    else:\n        session.flash='You must log in to post a comment.'\n    redirect(URL('show_video_comments'))\n    return locals()\n\ndef all_media():\n    images=db(db.image).select(db.image.ALL)\n    writings=db(db.writing).select(db.image.ALL)\n    videos=db(db.video).select(db.video.ALL)\n    \n    images_with_app=[]\n    images_wo_app=[]\n    videos_with_app=[]\n    videos_wo_app=[]\n    writings_with_app=[]\n    writings_wo_app=[]\n    \n    for image in images:\n        if image.image.approved:\n            images_w_app.append(image)\n        else:\n            images_wo_app.append(image)\n            \n    for video in videos:\n        if video.video.approved:\n            videos_w_app.append(video)\n        else:\n            videos_wo_app.append(video)\n    \n    for writing in wristing:\n        if writing.writing.approved:\n            writings_w_app.append(writing)\n        else:\n            writings_wo_app.append(writing)\n    \n    return locals()\n\n\ndef update_approve():\n\nresponse._vars=response._caller(index)\n"
p7
sS'snapshot'
p8
(dp9
S'exception'
p10
(dp11
S'__getslice__'
p12
S"<method-wrapper '__getslice__' of exceptions.IndentationError object at 0x9ec6270>"
p13
sS'text'
p14
S"'response._vars=response._caller(index)\\n'"
p15
sS'__str__'
p16
S"<method-wrapper '__str__' of exceptions.IndentationError object at 0x9ec6270>"
p17
sS'__reduce__'
p18
S'<built-in method __reduce__ of exceptions.IndentationError object at 0x9ec6270>'
p19
sS'__dict__'
p20
S'{}'
p21
sS'__init__'
p22
S"<method-wrapper '__init__' of exceptions.IndentationError object at 0x9ec6270>"
p23
sS'__setattr__'
p24
S"<method-wrapper '__setattr__' of exceptions.IndentationError object at 0x9ec6270>"
p25
sS'__reduce_ex__'
p26
S'<built-in method __reduce_ex__ of exceptions.IndentationError object at 0x9ec6270>'
p27
sS'__new__'
p28
S'<built-in method __new__ of type object at 0x5f9260>'
p29
sS'__class__'
p30
S"<type 'exceptions.IndentationError'>"
p31
sS'filename'
p32
S"'/Users/abaric/Downloads/web2py/web2py.app/Conten...applications/Final_Impulse/controllers/default.py'"
p33
sS'lineno'
p34
S'181'
p35
sS'msg'
p36
S"'expected an indented block'"
p37
sS'__doc__'
p38
S"'Improper indentation.'"
p39
sS'__getitem__'
p40
S"<method-wrapper '__getitem__' of exceptions.IndentationError object at 0x9ec6270>"
p41
sS'__setstate__'
p42
S'<built-in method __setstate__ of exceptions.IndentationError object at 0x9ec6270>'
p43
sS'__getattribute__'
p44
S"<method-wrapper '__getattribute__' of exceptions.IndentationError object at 0x9ec6270>"
p45
sS'print_file_and_line'
p46
S'None'
p47
sS'args'
p48
S"('expected an indented block', ('/Users/abaric/Downloads/web2py/web2py.app/Conten...applications/Final_Impulse/controllers/default.py', 181, 8, 'response._vars=response._caller(index)\\n'))"
p49
sS'offset'
p50
S'8'
sS'__delattr__'
p51
S"<method-wrapper '__delattr__' of exceptions.IndentationError object at 0x9ec6270>"
p52
sS'__repr__'
p53
S"<method-wrapper '__repr__' of exceptions.IndentationError object at 0x9ec6270>"
p54
sS'__hash__'
p55
S"<method-wrapper '__hash__' of exceptions.IndentationError object at 0x9ec6270>"
p56
ssS'evalue'
p57
S'expected an indented block (default.py, line 181)'
p58
sS'request'
p59
ccopy_reg
_reconstructor
p60
(cgluon.html
BEAUTIFY
p61
c__builtin__
object
p62
NtRp63
(dp64
S'attributes'
p65
(dp66
sS'components'
p67
(lp68
g60
(cgluon.html
TABLE
p69
g62
NtRp70
(dp71
g65
(dp72
S'level'
p73
I5
ssS'parent'
p74
Nsg67
(lp75
g60
(cgluon.html
TR
p76
g62
NtRp77
(dp78
g65
(dp79
sg74
g70
sg67
(lp80
g60
(cgluon.html
TD
p81
g62
NtRp82
(dp83
g65
(dp84
S'_style'
p85
S'font-weight:bold;vertical-align:top'
p86
ssg74
g77
sg67
(lp87
S'ajax'
p88
asbag60
(g81
g62
NtRp89
(dp90
g65
(dp91
S'_valign'
p92
S'top'
p93
ssg74
g77
sg67
(lp94
S':'
asbag60
(g81
g62
NtRp95
(dp96
g65
(dp97
sg74
g77
sg67
(lp98
g60
(g61
g62
NtRp99
(dp100
g65
(dp101
g73
I5
ssg74
g95
sg67
(lp102
S'False'
p103
asbasbasbag60
(g76
g62
NtRp104
(dp105
g65
(dp106
sg74
g70
sg67
(lp107
g60
(g81
g62
NtRp108
(dp109
g65
(dp110
g85
g86
ssg74
g104
sg67
(lp111
S'application'
p112
asbag60
(g81
g62
NtRp113
(dp114
g65
(dp115
g92
g93
ssg74
g104
sg67
(lp116
S':'
asbag60
(g81
g62
NtRp117
(dp118
g65
(dp119
sg74
g104
sg67
(lp120
g60
(g61
g62
NtRp121
(dp122
g65
(dp123
g73
I5
ssg74
g117
sg67
(lp124
S'Final_Impulse'
p125
asbasbasbag60
(g76
g62
NtRp126
(dp127
g65
(dp128
sg74
g70
sg67
(lp129
g60
(g81
g62
NtRp130
(dp131
g65
(dp132
g85
g86
ssg74
g126
sg67
(lp133
g48
asbag60
(g81
g62
NtRp134
(dp135
g65
(dp136
g92
g93
ssg74
g126
sg67
(lp137
S':'
asbag60
(g81
g62
NtRp138
(dp139
g65
(dp140
sg74
g126
sg67
(lp141
g60
(g61
g62
NtRp142
(dp143
g65
(dp144
g73
I5
ssg74
g138
sg67
(lp145
g60
(g69
g62
NtRp146
(dp147
g65
(dp148
g73
I4
ssg74
Nsg67
(lp149
sbasbasbasbag60
(g76
g62
NtRp150
(dp151
g65
(dp152
sg74
g70
sg67
(lp153
g60
(g81
g62
NtRp154
(dp155
g65
(dp156
g85
g86
ssg74
g150
sg67
(lp157
S'body'
p158
asbag60
(g81
g62
NtRp159
(dp160
g65
(dp161
g92
g93
ssg74
g150
sg67
(lp162
S':'
asbag60
(g81
g62
NtRp163
(dp164
g65
(dp165
sg74
g150
sg67
(lp166
g60
(g61
g62
NtRp167
(dp168
g65
(dp169
g73
I5
ssg74
g163
sg67
(lp170
S'<cStringIO.StringO object at 0x77d64a0>'
p171
asbasbasbag60
(g76
g62
NtRp172
(dp173
g65
(dp174
sg74
g70
sg67
(lp175
g60
(g81
g62
NtRp176
(dp177
g65
(dp178
g85
g86
ssg74
g172
sg67
(lp179
S'cid'
p180
asbag60
(g81
g62
NtRp181
(dp182
g65
(dp183
g92
g93
ssg74
g172
sg67
(lp184
S':'
asbag60
(g81
g62
NtRp185
(dp186
g65
(dp187
sg74
g172
sg67
(lp188
g60
(g61
g62
NtRp189
(dp190
g65
(dp191
g73
I5
ssg74
g185
sg67
(lp192
S'None'
p193
asbasbasbag60
(g76
g62
NtRp194
(dp195
g65
(dp196
sg74
g70
sg67
(lp197
g60
(g81
g62
NtRp198
(dp199
g65
(dp200
g85
g86
ssg74
g194
sg67
(lp201
S'client'
p202
asbag60
(g81
g62
NtRp203
(dp204
g65
(dp205
g92
g93
ssg74
g194
sg67
(lp206
S':'
asbag60
(g81
g62
NtRp207
(dp208
g65
(dp209
sg74
g194
sg67
(lp210
g60
(g61
g62
NtRp211
(dp212
g65
(dp213
g73
I5
ssg74
g207
sg67
(lp214
S'127.0.0.1'
p215
asbasbasbag60
(g76
g62
NtRp216
(dp217
g65
(dp218
sg74
g70
sg67
(lp219
g60
(g81
g62
NtRp220
(dp221
g65
(dp222
g85
g86
ssg74
g216
sg67
(lp223
S'controller'
p224
asbag60
(g81
g62
NtRp225
(dp226
g65
(dp227
g92
g93
ssg74
g216
sg67
(lp228
S':'
asbag60
(g81
g62
NtRp229
(dp230
g65
(dp231
sg74
g216
sg67
(lp232
g60
(g61
g62
NtRp233
(dp234
g65
(dp235
g73
I5
ssg74
g229
sg67
(lp236
S'default'
p237
asbasbasbag60
(g76
g62
NtRp238
(dp239
g65
(dp240
sg74
g70
sg67
(lp241
g60
(g81
g62
NtRp242
(dp243
g65
(dp244
g85
g86
ssg74
g238
sg67
(lp245
S'cookies'
p246
asbag60
(g81
g62
NtRp247
(dp248
g65
(dp249
g92
g93
ssg74
g238
sg67
(lp250
S':'
asbag60
(g81
g62
NtRp251
(dp252
g65
(dp253
sg74
g238
sg67
(lp254
g60
(g61
g62
NtRp255
(dp256
g65
(dp257
g73
I5
ssg74
g251
sg67
(lp258
g60
(g69
g62
NtRp259
(dp260
g65
(dp261
g73
I4
ssg74
Nsg67
(lp262
g60
(g76
g62
NtRp263
(dp264
g65
(dp265
sg74
g259
sg67
(lp266
g60
(g81
g62
NtRp267
(dp268
g65
(dp269
g85
g86
ssg74
g263
sg67
(lp270
S'session_id_admin'
p271
asbag60
(g81
g62
NtRp272
(dp273
g65
(dp274
g92
g93
ssg74
g263
sg67
(lp275
S':'
asbag60
(g81
g62
NtRp276
(dp277
g65
(dp278
sg74
g263
sg67
(lp279
g60
(g61
g62
NtRp280
(dp281
g65
(dp282
g73
I4
ssg74
g276
sg67
(lp283
S'127.0.0.1-78422ea9-f684-495a-9e76-2db5117c417f'
p284
ag60
(g69
g62
NtRp285
(dp286
g65
(dp287
g73
I3
ssg74
Nsg67
(lp288
g60
(g76
g62
NtRp289
(dp290
g65
(dp291
sg74
g285
sg67
(lp292
g60
(g81
g62
NtRp293
(dp294
g65
(dp295
g85
g86
ssg74
g289
sg67
(lp296
S'comment'
p297
asbag60
(g81
g62
NtRp298
(dp299
g65
(dp300
g92
g93
ssg74
g289
sg67
(lp301
S':'
asbag60
(g81
g62
NtRp302
(dp303
g65
(dp304
sg74
g289
sg67
(lp305
g60
(g61
g62
NtRp306
(dp307
g65
(dp308
g73
I3
ssg74
g302
sg67
(lp309
S''
asbasbasbag60
(g76
g62
NtRp310
(dp311
g65
(dp312
sg74
g285
sg67
(lp313
g60
(g81
g62
NtRp314
(dp315
g65
(dp316
g85
g86
ssg74
g310
sg67
(lp317
S'domain'
p318
asbag60
(g81
g62
NtRp319
(dp320
g65
(dp321
g92
g93
ssg74
g310
sg67
(lp322
S':'
asbag60
(g81
g62
NtRp323
(dp324
g65
(dp325
sg74
g310
sg67
(lp326
g60
(g61
g62
NtRp327
(dp328
g65
(dp329
g73
I3
ssg74
g323
sg67
(lp330
S''
asbasbasbag60
(g76
g62
NtRp331
(dp332
g65
(dp333
sg74
g285
sg67
(lp334
g60
(g81
g62
NtRp335
(dp336
g65
(dp337
g85
g86
ssg74
g331
sg67
(lp338
S'expires'
p339
asbag60
(g81
g62
NtRp340
(dp341
g65
(dp342
g92
g93
ssg74
g331
sg67
(lp343
S':'
asbag60
(g81
g62
NtRp344
(dp345
g65
(dp346
sg74
g331
sg67
(lp347
g60
(g61
g62
NtRp348
(dp349
g65
(dp350
g73
I3
ssg74
g344
sg67
(lp351
S''
asbasbasbag60
(g76
g62
NtRp352
(dp353
g65
(dp354
sg74
g285
sg67
(lp355
g60
(g81
g62
NtRp356
(dp357
g65
(dp358
g85
g86
ssg74
g352
sg67
(lp359
S'max-age'
p360
asbag60
(g81
g62
NtRp361
(dp362
g65
(dp363
g92
g93
ssg74
g352
sg67
(lp364
S':'
asbag60
(g81
g62
NtRp365
(dp366
g65
(dp367
sg74
g352
sg67
(lp368
g60
(g61
g62
NtRp369
(dp370
g65
(dp371
g73
I3
ssg74
g365
sg67
(lp372
S''
asbasbasbag60
(g76
g62
NtRp373
(dp374
g65
(dp375
sg74
g285
sg67
(lp376
g60
(g81
g62
NtRp377
(dp378
g65
(dp379
g85
g86
ssg74
g373
sg67
(lp380
S'path'
p381
asbag60
(g81
g62
NtRp382
(dp383
g65
(dp384
g92
g93
ssg74
g373
sg67
(lp385
S':'
asbag60
(g81
g62
NtRp386
(dp387
g65
(dp388
sg74
g373
sg67
(lp389
g60
(g61
g62
NtRp390
(dp391
g65
(dp392
g73
I3
ssg74
g386
sg67
(lp393
S''
asbasbasbag60
(g76
g62
NtRp394
(dp395
g65
(dp396
sg74
g285
sg67
(lp397
g60
(g81
g62
NtRp398
(dp399
g65
(dp400
g85
g86
ssg74
g394
sg67
(lp401
S'secure'
p402
asbag60
(g81
g62
NtRp403
(dp404
g65
(dp405
g92
g93
ssg74
g394
sg67
(lp406
S':'
asbag60
(g81
g62
NtRp407
(dp408
g65
(dp409
sg74
g394
sg67
(lp410
g60
(g61
g62
NtRp411
(dp412
g65
(dp413
g73
I3
ssg74
g407
sg67
(lp414
S''
asbasbasbag60
(g76
g62
NtRp415
(dp416
g65
(dp417
sg74
g285
sg67
(lp418
g60
(g81
g62
NtRp419
(dp420
g65
(dp421
g85
g86
ssg74
g415
sg67
(lp422
S'version'
p423
asbag60
(g81
g62
NtRp424
(dp425
g65
(dp426
g92
g93
ssg74
g415
sg67
(lp427
S':'
asbag60
(g81
g62
NtRp428
(dp429
g65
(dp430
sg74
g415
sg67
(lp431
g60
(g61
g62
NtRp432
(dp433
g65
(dp434
g73
I3
ssg74
g428
sg67
(lp435
S''
asbasbasbasbasbasbasbag60
(g76
g62
NtRp436
(dp437
g65
(dp438
sg74
g259
sg67
(lp439
g60
(g81
g62
NtRp440
(dp441
g65
(dp442
g85
g86
ssg74
g436
sg67
(lp443
S'session_id_course_recommendations'
p444
asbag60
(g81
g62
NtRp445
(dp446
g65
(dp447
g92
g93
ssg74
g436
sg67
(lp448
S':'
asbag60
(g81
g62
NtRp449
(dp450
g65
(dp451
sg74
g436
sg67
(lp452
g60
(g61
g62
NtRp453
(dp454
g65
(dp455
g73
I4
ssg74
g449
sg67
(lp456
S'127.0.0.1-cb8f05e9-0587-4e87-8439-3e1e68871c8f'
p457
ag60
(g69
g62
NtRp458
(dp459
g65
(dp460
g73
I3
ssg74
Nsg67
(lp461
g60
(g76
g62
NtRp462
(dp463
g65
(dp464
sg74
g458
sg67
(lp465
g60
(g81
g62
NtRp466
(dp467
g65
(dp468
g85
g86
ssg74
g462
sg67
(lp469
g297
asbag60
(g81
g62
NtRp470
(dp471
g65
(dp472
g92
g93
ssg74
g462
sg67
(lp473
S':'
asbag60
(g81
g62
NtRp474
(dp475
g65
(dp476
sg74
g462
sg67
(lp477
g60
(g61
g62
NtRp478
(dp479
g65
(dp480
g73
I3
ssg74
g474
sg67
(lp481
S''
asbasbasbag60
(g76
g62
NtRp482
(dp483
g65
(dp484
sg74
g458
sg67
(lp485
g60
(g81
g62
NtRp486
(dp487
g65
(dp488
g85
g86
ssg74
g482
sg67
(lp489
g318
asbag60
(g81
g62
NtRp490
(dp491
g65
(dp492
g92
g93
ssg74
g482
sg67
(lp493
S':'
asbag60
(g81
g62
NtRp494
(dp495
g65
(dp496
sg74
g482
sg67
(lp497
g60
(g61
g62
NtRp498
(dp499
g65
(dp500
g73
I3
ssg74
g494
sg67
(lp501
S''
asbasbasbag60
(g76
g62
NtRp502
(dp503
g65
(dp504
sg74
g458
sg67
(lp505
g60
(g81
g62
NtRp506
(dp507
g65
(dp508
g85
g86
ssg74
g502
sg67
(lp509
g339
asbag60
(g81
g62
NtRp510
(dp511
g65
(dp512
g92
g93
ssg74
g502
sg67
(lp513
S':'
asbag60
(g81
g62
NtRp514
(dp515
g65
(dp516
sg74
g502
sg67
(lp517
g60
(g61
g62
NtRp518
(dp519
g65
(dp520
g73
I3
ssg74
g514
sg67
(lp521
S''
asbasbasbag60
(g76
g62
NtRp522
(dp523
g65
(dp524
sg74
g458
sg67
(lp525
g60
(g81
g62
NtRp526
(dp527
g65
(dp528
g85
g86
ssg74
g522
sg67
(lp529
g360
asbag60
(g81
g62
NtRp530
(dp531
g65
(dp532
g92
g93
ssg74
g522
sg67
(lp533
S':'
asbag60
(g81
g62
NtRp534
(dp535
g65
(dp536
sg74
g522
sg67
(lp537
g60
(g61
g62
NtRp538
(dp539
g65
(dp540
g73
I3
ssg74
g534
sg67
(lp541
S''
asbasbasbag60
(g76
g62
NtRp542
(dp543
g65
(dp544
sg74
g458
sg67
(lp545
g60
(g81
g62
NtRp546
(dp547
g65
(dp548
g85
g86
ssg74
g542
sg67
(lp549
g381
asbag60
(g81
g62
NtRp550
(dp551
g65
(dp552
g92
g93
ssg74
g542
sg67
(lp553
S':'
asbag60
(g81
g62
NtRp554
(dp555
g65
(dp556
sg74
g542
sg67
(lp557
g60
(g61
g62
NtRp558
(dp559
g65
(dp560
g73
I3
ssg74
g554
sg67
(lp561
S''
asbasbasbag60
(g76
g62
NtRp562
(dp563
g65
(dp564
sg74
g458
sg67
(lp565
g60
(g81
g62
NtRp566
(dp567
g65
(dp568
g85
g86
ssg74
g562
sg67
(lp569
g402
asbag60
(g81
g62
NtRp570
(dp571
g65
(dp572
g92
g93
ssg74
g562
sg67
(lp573
S':'
asbag60
(g81
g62
NtRp574
(dp575
g65
(dp576
sg74
g562
sg67
(lp577
g60
(g61
g62
NtRp578
(dp579
g65
(dp580
g73
I3
ssg74
g574
sg67
(lp581
S''
asbasbasbag60
(g76
g62
NtRp582
(dp583
g65
(dp584
sg74
g458
sg67
(lp585
g60
(g81
g62
NtRp586
(dp587
g65
(dp588
g85
g86
ssg74
g582
sg67
(lp589
g423
asbag60
(g81
g62
NtRp590
(dp591
g65
(dp592
g92
g93
ssg74
g582
sg67
(lp593
S':'
asbag60
(g81
g62
NtRp594
(dp595
g65
(dp596
sg74
g582
sg67
(lp597
g60
(g61
g62
NtRp598
(dp599
g65
(dp600
g73
I3
ssg74
g594
sg67
(lp601
S''
asbasbasbasbasbasbasbag60
(g76
g62
NtRp602
(dp603
g65
(dp604
sg74
g259
sg67
(lp605
g60
(g81
g62
NtRp606
(dp607
g65
(dp608
g85
g86
ssg74
g602
sg67
(lp609
S'session_id_final_impulse'
p610
asbag60
(g81
g62
NtRp611
(dp612
g65
(dp613
g92
g93
ssg74
g602
sg67
(lp614
S':'
asbag60
(g81
g62
NtRp615
(dp616
g65
(dp617
sg74
g602
sg67
(lp618
g60
(g61
g62
NtRp619
(dp620
g65
(dp621
g73
I4
ssg74
g615
sg67
(lp622
S'127.0.0.1-196d16f0-df2a-4177-8038-20bcfac6a099'
p623
ag60
(g69
g62
NtRp624
(dp625
g65
(dp626
g73
I3
ssg74
Nsg67
(lp627
g60
(g76
g62
NtRp628
(dp629
g65
(dp630
sg74
g624
sg67
(lp631
g60
(g81
g62
NtRp632
(dp633
g65
(dp634
g85
g86
ssg74
g628
sg67
(lp635
g297
asbag60
(g81
g62
NtRp636
(dp637
g65
(dp638
g92
g93
ssg74
g628
sg67
(lp639
S':'
asbag60
(g81
g62
NtRp640
(dp641
g65
(dp642
sg74
g628
sg67
(lp643
g60
(g61
g62
NtRp644
(dp645
g65
(dp646
g73
I3
ssg74
g640
sg67
(lp647
S''
asbasbasbag60
(g76
g62
NtRp648
(dp649
g65
(dp650
sg74
g624
sg67
(lp651
g60
(g81
g62
NtRp652
(dp653
g65
(dp654
g85
g86
ssg74
g648
sg67
(lp655
g318
asbag60
(g81
g62
NtRp656
(dp657
g65
(dp658
g92
g93
ssg74
g648
sg67
(lp659
S':'
asbag60
(g81
g62
NtRp660
(dp661
g65
(dp662
sg74
g648
sg67
(lp663
g60
(g61
g62
NtRp664
(dp665
g65
(dp666
g73
I3
ssg74
g660
sg67
(lp667
S''
asbasbasbag60
(g76
g62
NtRp668
(dp669
g65
(dp670
sg74
g624
sg67
(lp671
g60
(g81
g62
NtRp672
(dp673
g65
(dp674
g85
g86
ssg74
g668
sg67
(lp675
g339
asbag60
(g81
g62
NtRp676
(dp677
g65
(dp678
g92
g93
ssg74
g668
sg67
(lp679
S':'
asbag60
(g81
g62
NtRp680
(dp681
g65
(dp682
sg74
g668
sg67
(lp683
g60
(g61
g62
NtRp684
(dp685
g65
(dp686
g73
I3
ssg74
g680
sg67
(lp687
S''
asbasbasbag60
(g76
g62
NtRp688
(dp689
g65
(dp690
sg74
g624
sg67
(lp691
g60
(g81
g62
NtRp692
(dp693
g65
(dp694
g85
g86
ssg74
g688
sg67
(lp695
g360
asbag60
(g81
g62
NtRp696
(dp697
g65
(dp698
g92
g93
ssg74
g688
sg67
(lp699
S':'
asbag60
(g81
g62
NtRp700
(dp701
g65
(dp702
sg74
g688
sg67
(lp703
g60
(g61
g62
NtRp704
(dp705
g65
(dp706
g73
I3
ssg74
g700
sg67
(lp707
S''
asbasbasbag60
(g76
g62
NtRp708
(dp709
g65
(dp710
sg74
g624
sg67
(lp711
g60
(g81
g62
NtRp712
(dp713
g65
(dp714
g85
g86
ssg74
g708
sg67
(lp715
g381
asbag60
(g81
g62
NtRp716
(dp717
g65
(dp718
g92
g93
ssg74
g708
sg67
(lp719
S':'
asbag60
(g81
g62
NtRp720
(dp721
g65
(dp722
sg74
g708
sg67
(lp723
g60
(g61
g62
NtRp724
(dp725
g65
(dp726
g73
I3
ssg74
g720
sg67
(lp727
S''
asbasbasbag60
(g76
g62
NtRp728
(dp729
g65
(dp730
sg74
g624
sg67
(lp731
g60
(g81
g62
NtRp732
(dp733
g65
(dp734
g85
g86
ssg74
g728
sg67
(lp735
g402
asbag60
(g81
g62
NtRp736
(dp737
g65
(dp738
g92
g93
ssg74
g728
sg67
(lp739
S':'
asbag60
(g81
g62
NtRp740
(dp741
g65
(dp742
sg74
g728
sg67
(lp743
g60
(g61
g62
NtRp744
(dp745
g65
(dp746
g73
I3
ssg74
g740
sg67
(lp747
S''
asbasbasbag60
(g76
g62
NtRp748
(dp749
g65
(dp750
sg74
g624
sg67
(lp751
g60
(g81
g62
NtRp752
(dp753
g65
(dp754
g85
g86
ssg74
g748
sg67
(lp755
g423
asbag60
(g81
g62
NtRp756
(dp757
g65
(dp758
g92
g93
ssg74
g748
sg67
(lp759
S':'
asbag60
(g81
g62
NtRp760
(dp761
g65
(dp762
sg74
g748
sg67
(lp763
g60
(g61
g62
NtRp764
(dp765
g65
(dp766
g73
I3
ssg74
g760
sg67
(lp767
S''
asbasbasbasbasbasbasbag60
(g76
g62
NtRp768
(dp769
g65
(dp770
sg74
g259
sg67
(lp771
g60
(g81
g62
NtRp772
(dp773
g65
(dp774
g85
g86
ssg74
g768
sg67
(lp775
S'session_id_welcome'
p776
asbag60
(g81
g62
NtRp777
(dp778
g65
(dp779
g92
g93
ssg74
g768
sg67
(lp780
S':'
asbag60
(g81
g62
NtRp781
(dp782
g65
(dp783
sg74
g768
sg67
(lp784
g60
(g61
g62
NtRp785
(dp786
g65
(dp787
g73
I4
ssg74
g781
sg67
(lp788
S'127.0.0.1-2aa03a6c-1012-4eea-98a7-98c4cb6a077c'
p789
ag60
(g69
g62
NtRp790
(dp791
g65
(dp792
g73
I3
ssg74
Nsg67
(lp793
g60
(g76
g62
NtRp794
(dp795
g65
(dp796
sg74
g790
sg67
(lp797
g60
(g81
g62
NtRp798
(dp799
g65
(dp800
g85
g86
ssg74
g794
sg67
(lp801
g297
asbag60
(g81
g62
NtRp802
(dp803
g65
(dp804
g92
g93
ssg74
g794
sg67
(lp805
S':'
asbag60
(g81
g62
NtRp806
(dp807
g65
(dp808
sg74
g794
sg67
(lp809
g60
(g61
g62
NtRp810
(dp811
g65
(dp812
g73
I3
ssg74
g806
sg67
(lp813
S''
asbasbasbag60
(g76
g62
NtRp814
(dp815
g65
(dp816
sg74
g790
sg67
(lp817
g60
(g81
g62
NtRp818
(dp819
g65
(dp820
g85
g86
ssg74
g814
sg67
(lp821
g318
asbag60
(g81
g62
NtRp822
(dp823
g65
(dp824
g92
g93
ssg74
g814
sg67
(lp825
S':'
asbag60
(g81
g62
NtRp826
(dp827
g65
(dp828
sg74
g814
sg67
(lp829
g60
(g61
g62
NtRp830
(dp831
g65
(dp832
g73
I3
ssg74
g826
sg67
(lp833
S''
asbasbasbag60
(g76
g62
NtRp834
(dp835
g65
(dp836
sg74
g790
sg67
(lp837
g60
(g81
g62
NtRp838
(dp839
g65
(dp840
g85
g86
ssg74
g834
sg67
(lp841
g339
asbag60
(g81
g62
NtRp842
(dp843
g65
(dp844
g92
g93
ssg74
g834
sg67
(lp845
S':'
asbag60
(g81
g62
NtRp846
(dp847
g65
(dp848
sg74
g834
sg67
(lp849
g60
(g61
g62
NtRp850
(dp851
g65
(dp852
g73
I3
ssg74
g846
sg67
(lp853
S''
asbasbasbag60
(g76
g62
NtRp854
(dp855
g65
(dp856
sg74
g790
sg67
(lp857
g60
(g81
g62
NtRp858
(dp859
g65
(dp860
g85
g86
ssg74
g854
sg67
(lp861
g360
asbag60
(g81
g62
NtRp862
(dp863
g65
(dp864
g92
g93
ssg74
g854
sg67
(lp865
S':'
asbag60
(g81
g62
NtRp866
(dp867
g65
(dp868
sg74
g854
sg67
(lp869
g60
(g61
g62
NtRp870
(dp871
g65
(dp872
g73
I3
ssg74
g866
sg67
(lp873
S''
asbasbasbag60
(g76
g62
NtRp874
(dp875
g65
(dp876
sg74
g790
sg67
(lp877
g60
(g81
g62
NtRp878
(dp879
g65
(dp880
g85
g86
ssg74
g874
sg67
(lp881
g381
asbag60
(g81
g62
NtRp882
(dp883
g65
(dp884
g92
g93
ssg74
g874
sg67
(lp885
S':'
asbag60
(g81
g62
NtRp886
(dp887
g65
(dp888
sg74
g874
sg67
(lp889
g60
(g61
g62
NtRp890
(dp891
g65
(dp892
g73
I3
ssg74
g886
sg67
(lp893
S''
asbasbasbag60
(g76
g62
NtRp894
(dp895
g65
(dp896
sg74
g790
sg67
(lp897
g60
(g81
g62
NtRp898
(dp899
g65
(dp900
g85
g86
ssg74
g894
sg67
(lp901
g402
asbag60
(g81
g62
NtRp902
(dp903
g65
(dp904
g92
g93
ssg74
g894
sg67
(lp905
S':'
asbag60
(g81
g62
NtRp906
(dp907
g65
(dp908
sg74
g894
sg67
(lp909
g60
(g61
g62
NtRp910
(dp911
g65
(dp912
g73
I3
ssg74
g906
sg67
(lp913
S''
asbasbasbag60
(g76
g62
NtRp914
(dp915
g65
(dp916
sg74
g790
sg67
(lp917
g60
(g81
g62
NtRp918
(dp919
g65
(dp920
g85
g86
ssg74
g914
sg67
(lp921
g423
asbag60
(g81
g62
NtRp922
(dp923
g65
(dp924
g92
g93
ssg74
g914
sg67
(lp925
S':'
asbag60
(g81
g62
NtRp926
(dp927
g65
(dp928
sg74
g914
sg67
(lp929
g60
(g61
g62
NtRp930
(dp931
g65
(dp932
g73
I3
ssg74
g926
sg67
(lp933
S''
asbasbasbasbasbasbasbasbasbasbasbag60
(g76
g62
NtRp934
(dp935
g65
(dp936
sg74
g70
sg67
(lp937
g60
(g81
g62
NtRp938
(dp939
g65
(dp940
g85
g86
ssg74
g934
sg67
(lp941
S'env'
p942
asbag60
(g81
g62
NtRp943
(dp944
g65
(dp945
g92
g93
ssg74
g934
sg67
(lp946
S':'
asbag60
(g81
g62
NtRp947
(dp948
g65
(dp949
sg74
g934
sg67
(lp950
g60
(g61
g62
NtRp951
(dp952
g65
(dp953
g73
I5
ssg74
g947
sg67
(lp954
g60
(g69
g62
NtRp955
(dp956
g65
(dp957
g73
I4
ssg74
Nsg67
(lp958
g60
(g76
g62
NtRp959
(dp960
g65
(dp961
sg74
g955
sg67
(lp962
g60
(g81
g62
NtRp963
(dp964
g65
(dp965
g85
g86
ssg74
g959
sg67
(lp966
S'app_folders'
p967
asbag60
(g81
g62
NtRp968
(dp969
g65
(dp970
g92
g93
ssg74
g959
sg67
(lp971
S':'
asbag60
(g81
g62
NtRp972
(dp973
g65
(dp974
sg74
g959
sg67
(lp975
g60
(g61
g62
NtRp976
(dp977
g65
(dp978
g73
I4
ssg74
g972
sg67
(lp979
S"set(['/Users/abaric/Downloads/web2py/web2py.app/Contents/Resources/applications/examples/', '/Users/abaric/Downloads/web2py/web2py.app/Contents/Resources/applications/Final_Impulse/', '/Users/abaric/Downloads/web2py/web2py.app/Contents/Resources/applications/Course_Recommendations/', '/Users/abaric/Downloads/web2py/web2py.app/Contents/Resources/applications/welcome/', '/Users/abaric/Downloads/web2py/web2py.app/Contents/Resources/applications/admin/'])"
p980
asbasbasbag60
(g76
g62
NtRp981
(dp982
g65
(dp983
sg74
g955
sg67
(lp984
g60
(g81
g62
NtRp985
(dp986
g65
(dp987
g85
g86
ssg74
g981
sg67
(lp988
S'applications_parent'
p989
asbag60
(g81
g62
NtRp990
(dp991
g65
(dp992
g92
g93
ssg74
g981
sg67
(lp993
S':'
asbag60
(g81
g62
NtRp994
(dp995
g65
(dp996
sg74
g981
sg67
(lp997
g60
(g61
g62
NtRp998
(dp999
g65
(dp1000
g73
I4
ssg74
g994
sg67
(lp1001
S'/Users/abaric/Downloads/web2py/web2py.app/Contents/Resources'
p1002
asbasbasbag60
(g76
g62
NtRp1003
(dp1004
g65
(dp1005
sg74
g955
sg67
(lp1006
g60
(g81
g62
NtRp1007
(dp1008
g65
(dp1009
g85
g86
ssg74
g1003
sg67
(lp1010
S'cmd_args'
p1011
asbag60
(g81
g62
NtRp1012
(dp1013
g65
(dp1014
g92
g93
ssg74
g1003
sg67
(lp1015
S':'
asbag60
(g81
g62
NtRp1016
(dp1017
g65
(dp1018
sg74
g1003
sg67
(lp1019
g60
(g61
g62
NtRp1020
(dp1021
g65
(dp1022
g73
I4
ssg74
g1016
sg67
(lp1023
g60
(g69
g62
NtRp1024
(dp1025
g65
(dp1026
g73
I3
ssg74
Nsg67
(lp1027
sbasbasbasbag60
(g76
g62
NtRp1028
(dp1029
g65
(dp1030
sg74
g955
sg67
(lp1031
g60
(g81
g62
NtRp1032
(dp1033
g65
(dp1034
g85
g86
ssg74
g1028
sg67
(lp1035
S'cmd_options'
p1036
asbag60
(g81
g62
NtRp1037
(dp1038
g65
(dp1039
g92
g93
ssg74
g1028
sg67
(lp1040
S':'
asbag60
(g81
g62
NtRp1041
(dp1042
g65
(dp1043
sg74
g1028
sg67
(lp1044
g60
(g61
g62
NtRp1045
(dp1046
g65
(dp1047
g73
I4
ssg74
g1041
sg67
(lp1048
S"<Values at 0x43bc1c0: {'verbose': False, 'ip': '127.0.0.1', 'with_scheduler': False, 'ips': [], 'shutdown_timeout': 5, 'taskbar': False, 'port': 8000, 'maxthreads': None, 'softcron': False, 'server_name': 'Andrea-Barics-MacBook-Pro.local', 'bpython': False, 'nogui': False, 'pid_filename': 'httpserver.pid', 'extcron': False, 'runcron': False, 'run_system_tests': False, 'test': None, 'folder': '/Users/abaric/Downloads/web2py/web2py.app/Contents/Resources', 'config': '', 'import_models': False, 'winservice': '', 'shell': None, 'run': '', 'log_filename': 'httpserver.log', 'debuglevel': 30, 'args': [''], 'socket_timeout': 5, 'ssl_ca_certificate': None, 'scheduler': None, 'profiler_filename': None, 'ssl_private_key': '', 'scheduler_groups': None, 'password': '<ask>', 'request_queue_size': 5, 'ssl_certificate': '', 'cronjob': False, 'numthreads': None, 'quiet': False, 'interfaces': None, 'minthreads': None, 'timeout': 10, 'plain': False, 'nobanner': False}>"
p1049
asbasbasbag60
(g76
g62
NtRp1050
(dp1051
g65
(dp1052
sg74
g955
sg67
(lp1053
g60
(g81
g62
NtRp1054
(dp1055
g65
(dp1056
g85
g86
ssg74
g1050
sg67
(lp1057
S'db_sessions'
p1058
asbag60
(g81
g62
NtRp1059
(dp1060
g65
(dp1061
g92
g93
ssg74
g1050
sg67
(lp1062
S':'
asbag60
(g81
g62
NtRp1063
(dp1064
g65
(dp1065
sg74
g1050
sg67
(lp1066
g60
(g61
g62
NtRp1067
(dp1068
g65
(dp1069
g73
I4
ssg74
g1063
sg67
(lp1070
S'set([])'
p1071
asbasbasbag60
(g76
g62
NtRp1072
(dp1073
g65
(dp1074
sg74
g955
sg67
(lp1075
g60
(g81
g62
NtRp1076
(dp1077
g65
(dp1078
g85
g86
ssg74
g1072
sg67
(lp1079
S'debugging'
p1080
asbag60
(g81
g62
NtRp1081
(dp1082
g65
(dp1083
g92
g93
ssg74
g1072
sg67
(lp1084
S':'
asbag60
(g81
g62
NtRp1085
(dp1086
g65
(dp1087
sg74
g1072
sg67
(lp1088
g60
(g61
g62
NtRp1089
(dp1090
g65
(dp1091
g73
I4
ssg74
g1085
sg67
(lp1092
g103
asbasbasbag60
(g76
g62
NtRp1093
(dp1094
g65
(dp1095
sg74
g955
sg67
(lp1096
g60
(g81
g62
NtRp1097
(dp1098
g65
(dp1099
g85
g86
ssg74
g1093
sg67
(lp1100
S'gluon_parent'
p1101
asbag60
(g81
g62
NtRp1102
(dp1103
g65
(dp1104
g92
g93
ssg74
g1093
sg67
(lp1105
S':'
asbag60
(g81
g62
NtRp1106
(dp1107
g65
(dp1108
sg74
g1093
sg67
(lp1109
g60
(g61
g62
NtRp1110
(dp1111
g65
(dp1112
g73
I4
ssg74
g1106
sg67
(lp1113
S'/Users/abaric/Downloads/web2py/web2py.app/Contents/Resources'
p1114
asbasbasbag60
(g76
g62
NtRp1115
(dp1116
g65
(dp1117
sg74
g955
sg67
(lp1118
g60
(g81
g62
NtRp1119
(dp1120
g65
(dp1121
g85
g86
ssg74
g1115
sg67
(lp1122
S'http_accept'
p1123
asbag60
(g81
g62
NtRp1124
(dp1125
g65
(dp1126
g92
g93
ssg74
g1115
sg67
(lp1127
S':'
asbag60
(g81
g62
NtRp1128
(dp1129
g65
(dp1130
sg74
g1115
sg67
(lp1131
g60
(g61
g62
NtRp1132
(dp1133
g65
(dp1134
g73
I4
ssg74
g1128
sg67
(lp1135
S'text/html,application/xhtml+xml,application/xml;q=0.9,*/*;q=0.8'
p1136
asbasbasbag60
(g76
g62
NtRp1137
(dp1138
g65
(dp1139
sg74
g955
sg67
(lp1140
g60
(g81
g62
NtRp1141
(dp1142
g65
(dp1143
g85
g86
ssg74
g1137
sg67
(lp1144
S'http_accept_encoding'
p1145
asbag60
(g81
g62
NtRp1146
(dp1147
g65
(dp1148
g92
g93
ssg74
g1137
sg67
(lp1149
S':'
asbag60
(g81
g62
NtRp1150
(dp1151
g65
(dp1152
sg74
g1137
sg67
(lp1153
g60
(g61
g62
NtRp1154
(dp1155
g65
(dp1156
g73
I4
ssg74
g1150
sg67
(lp1157
S'gzip, deflate'
p1158
asbasbasbag60
(g76
g62
NtRp1159
(dp1160
g65
(dp1161
sg74
g955
sg67
(lp1162
g60
(g81
g62
NtRp1163
(dp1164
g65
(dp1165
g85
g86
ssg74
g1159
sg67
(lp1166
S'http_accept_language'
p1167
asbag60
(g81
g62
NtRp1168
(dp1169
g65
(dp1170
g92
g93
ssg74
g1159
sg67
(lp1171
S':'
asbag60
(g81
g62
NtRp1172
(dp1173
g65
(dp1174
sg74
g1159
sg67
(lp1175
g60
(g61
g62
NtRp1176
(dp1177
g65
(dp1178
g73
I4
ssg74
g1172
sg67
(lp1179
S'en-us'
p1180
asbasbasbag60
(g76
g62
NtRp1181
(dp1182
g65
(dp1183
sg74
g955
sg67
(lp1184
g60
(g81
g62
NtRp1185
(dp1186
g65
(dp1187
g85
g86
ssg74
g1181
sg67
(lp1188
S'http_connection'
p1189
asbag60
(g81
g62
NtRp1190
(dp1191
g65
(dp1192
g92
g93
ssg74
g1181
sg67
(lp1193
S':'
asbag60
(g81
g62
NtRp1194
(dp1195
g65
(dp1196
sg74
g1181
sg67
(lp1197
g60
(g61
g62
NtRp1198
(dp1199
g65
(dp1200
g73
I4
ssg74
g1194
sg67
(lp1201
S'keep-alive'
p1202
asbasbasbag60
(g76
g62
NtRp1203
(dp1204
g65
(dp1205
sg74
g955
sg67
(lp1206
g60
(g81
g62
NtRp1207
(dp1208
g65
(dp1209
g85
g86
ssg74
g1203
sg67
(lp1210
S'http_cookie'
p1211
asbag60
(g81
g62
NtRp1212
(dp1213
g65
(dp1214
g92
g93
ssg74
g1203
sg67
(lp1215
S':'
asbag60
(g81
g62
NtRp1216
(dp1217
g65
(dp1218
sg74
g1203
sg67
(lp1219
g60
(g61
g62
NtRp1220
(dp1221
g65
(dp1222
g73
I4
ssg74
g1216
sg67
(lp1223
S'session_id_admin=127.0.0.1-78422ea9-f684-495a-9e76-2db5117c417f; session_id_final_impulse=127.0.0.1-196d16f0-df2a-4177-8038-20bcfac6a099; session_id_course_recommendations=127.0.0.1-cb8f05e9-0587-4e87-8439-3e1e68871c8f; session_id_welcome=127.0.0.1-2aa03a6c-1012-4eea-98a7-98c4cb6a077c'
p1224
asbasbasbag60
(g76
g62
NtRp1225
(dp1226
g65
(dp1227
sg74
g955
sg67
(lp1228
g60
(g81
g62
NtRp1229
(dp1230
g65
(dp1231
g85
g86
ssg74
g1225
sg67
(lp1232
S'http_host'
p1233
asbag60
(g81
g62
NtRp1234
(dp1235
g65
(dp1236
g92
g93
ssg74
g1225
sg67
(lp1237
S':'
asbag60
(g81
g62
NtRp1238
(dp1239
g65
(dp1240
sg74
g1225
sg67
(lp1241
g60
(g61
g62
NtRp1242
(dp1243
g65
(dp1244
g73
I4
ssg74
g1238
sg67
(lp1245
S'127.0.0.1:8000'
p1246
asbasbasbag60
(g76
g62
NtRp1247
(dp1248
g65
(dp1249
sg74
g955
sg67
(lp1250
g60
(g81
g62
NtRp1251
(dp1252
g65
(dp1253
g85
g86
ssg74
g1247
sg67
(lp1254
S'http_referer'
p1255
asbag60
(g81
g62
NtRp1256
(dp1257
g65
(dp1258
g92
g93
ssg74
g1247
sg67
(lp1259
S':'
asbag60
(g81
g62
NtRp1260
(dp1261
g65
(dp1262
sg74
g1247
sg67
(lp1263
g60
(g61
g62
NtRp1264
(dp1265
g65
(dp1266
g73
I4
ssg74
g1260
sg67
(lp1267
S'http://127.0.0.1:8000/admin/default/design/Final_Impulse'
p1268
asbasbasbag60
(g76
g62
NtRp1269
(dp1270
g65
(dp1271
sg74
g955
sg67
(lp1272
g60
(g81
g62
NtRp1273
(dp1274
g65
(dp1275
g85
g86
ssg74
g1269
sg67
(lp1276
S'http_user_agent'
p1277
asbag60
(g81
g62
NtRp1278
(dp1279
g65
(dp1280
g92
g93
ssg74
g1269
sg67
(lp1281
S':'
asbag60
(g81
g62
NtRp1282
(dp1283
g65
(dp1284
sg74
g1269
sg67
(lp1285
g60
(g61
g62
NtRp1286
(dp1287
g65
(dp1288
g73
I4
ssg74
g1282
sg67
(lp1289
S'Mozilla/5.0 (Macintosh; Intel Mac OS X 10_8_4) AppleWebKit/536.30.1 (KHTML, like Gecko) Version/6.0.5 Safari/536.30.1'
p1290
asbasbasbag60
(g76
g62
NtRp1291
(dp1292
g65
(dp1293
sg74
g955
sg67
(lp1294
g60
(g81
g62
NtRp1295
(dp1296
g65
(dp1297
g85
g86
ssg74
g1291
sg67
(lp1298
S'is_jython'
p1299
asbag60
(g81
g62
NtRp1300
(dp1301
g65
(dp1302
g92
g93
ssg74
g1291
sg67
(lp1303
S':'
asbag60
(g81
g62
NtRp1304
(dp1305
g65
(dp1306
sg74
g1291
sg67
(lp1307
g60
(g61
g62
NtRp1308
(dp1309
g65
(dp1310
g73
I4
ssg74
g1304
sg67
(lp1311
g103
asbasbasbag60
(g76
g62
NtRp1312
(dp1313
g65
(dp1314
sg74
g955
sg67
(lp1315
g60
(g81
g62
NtRp1316
(dp1317
g65
(dp1318
g85
g86
ssg74
g1312
sg67
(lp1319
S'is_pypy'
p1320
asbag60
(g81
g62
NtRp1321
(dp1322
g65
(dp1323
g92
g93
ssg74
g1312
sg67
(lp1324
S':'
asbag60
(g81
g62
NtRp1325
(dp1326
g65
(dp1327
sg74
g1312
sg67
(lp1328
g60
(g61
g62
NtRp1329
(dp1330
g65
(dp1331
g73
I4
ssg74
g1325
sg67
(lp1332
g103
asbasbasbag60
(g76
g62
NtRp1333
(dp1334
g65
(dp1335
sg74
g955
sg67
(lp1336
g60
(g81
g62
NtRp1337
(dp1338
g65
(dp1339
g85
g86
ssg74
g1333
sg67
(lp1340
S'local_hosts'
p1341
asbag60
(g81
g62
NtRp1342
(dp1343
g65
(dp1344
g92
g93
ssg74
g1333
sg67
(lp1345
S':'
asbag60
(g81
g62
NtRp1346
(dp1347
g65
(dp1348
sg74
g1333
sg67
(lp1349
g60
(g61
g62
NtRp1350
(dp1351
g65
(dp1352
g73
I4
ssg74
g1346
sg67
(lp1353
g60
(g69
g62
NtRp1354
(dp1355
g65
(dp1356
g73
I3
ssg74
Nsg67
(lp1357
g60
(g76
g62
NtRp1358
(dp1359
g65
(dp1360
sg74
g1354
sg67
(lp1361
g60
(g81
g62
NtRp1362
(dp1363
g65
(dp1364
sg74
g1358
sg67
(lp1365
g60
(g61
g62
NtRp1366
(dp1367
g65
(dp1368
g73
I3
ssg74
g1362
sg67
(lp1369
S'127.0.0.1'
p1370
asbasbasbag60
(g76
g62
NtRp1371
(dp1372
g65
(dp1373
sg74
g1354
sg67
(lp1374
g60
(g81
g62
NtRp1375
(dp1376
g65
(dp1377
sg74
g1371
sg67
(lp1378
g60
(g61
g62
NtRp1379
(dp1380
g65
(dp1381
g73
I3
ssg74
g1375
sg67
(lp1382
S'::ffff:127.0.0.1'
p1383
asbasbasbag60
(g76
g62
NtRp1384
(dp1385
g65
(dp1386
sg74
g1354
sg67
(lp1387
g60
(g81
g62
NtRp1388
(dp1389
g65
(dp1390
sg74
g1384
sg67
(lp1391
g60
(g61
g62
NtRp1392
(dp1393
g65
(dp1394
g73
I3
ssg74
g1388
sg67
(lp1395
S'Andrea-Barics-MacBook-Pro.local'
p1396
asbasbasbag60
(g76
g62
NtRp1397
(dp1398
g65
(dp1399
sg74
g1354
sg67
(lp1400
g60
(g81
g62
NtRp1401
(dp1402
g65
(dp1403
sg74
g1397
sg67
(lp1404
g60
(g61
g62
NtRp1405
(dp1406
g65
(dp1407
g73
I3
ssg74
g1401
sg67
(lp1408
S'Andrea-Barics-MacBook-Pro.local'
p1409
asbasbasbag60
(g76
g62
NtRp1410
(dp1411
g65
(dp1412
sg74
g1354
sg67
(lp1413
g60
(g81
g62
NtRp1414
(dp1415
g65
(dp1416
sg74
g1410
sg67
(lp1417
g60
(g61
g62
NtRp1418
(dp1419
g65
(dp1420
g73
I3
ssg74
g1414
sg67
(lp1421
S'127.0.0.1'
p1422
asbasbasbasbasbasbasbag60
(g76
g62
NtRp1423
(dp1424
g65
(dp1425
sg74
g955
sg67
(lp1426
g60
(g81
g62
NtRp1427
(dp1428
g65
(dp1429
g85
g86
ssg74
g1423
sg67
(lp1430
S'path_info'
p1431
asbag60
(g81
g62
NtRp1432
(dp1433
g65
(dp1434
g92
g93
ssg74
g1423
sg67
(lp1435
S':'
asbag60
(g81
g62
NtRp1436
(dp1437
g65
(dp1438
sg74
g1423
sg67
(lp1439
g60
(g61
g62
NtRp1440
(dp1441
g65
(dp1442
g73
I4
ssg74
g1436
sg67
(lp1443
S'/Final_Impulse/default/index'
p1444
asbasbasbag60
(g76
g62
NtRp1445
(dp1446
g65
(dp1447
sg74
g955
sg67
(lp1448
g60
(g81
g62
NtRp1449
(dp1450
g65
(dp1451
g85
g86
ssg74
g1445
sg67
(lp1452
S'query_string'
p1453
asbag60
(g81
g62
NtRp1454
(dp1455
g65
(dp1456
g92
g93
ssg74
g1445
sg67
(lp1457
S':'
asbag60
(g81
g62
NtRp1458
(dp1459
g65
(dp1460
sg74
g1445
sg67
(lp1461
g60
(g61
g62
NtRp1462
(dp1463
g65
(dp1464
g73
I4
ssg74
g1458
sg67
(lp1465
S''
asbasbasbag60
(g76
g62
NtRp1466
(dp1467
g65
(dp1468
sg74
g955
sg67
(lp1469
g60
(g81
g62
NtRp1470
(dp1471
g65
(dp1472
g85
g86
ssg74
g1466
sg67
(lp1473
S'remote_addr'
p1474
asbag60
(g81
g62
NtRp1475
(dp1476
g65
(dp1477
g92
g93
ssg74
g1466
sg67
(lp1478
S':'
asbag60
(g81
g62
NtRp1479
(dp1480
g65
(dp1481
sg74
g1466
sg67
(lp1482
g60
(g61
g62
NtRp1483
(dp1484
g65
(dp1485
g73
I4
ssg74
g1479
sg67
(lp1486
g215
asbasbasbag60
(g76
g62
NtRp1487
(dp1488
g65
(dp1489
sg74
g955
sg67
(lp1490
g60
(g81
g62
NtRp1491
(dp1492
g65
(dp1493
g85
g86
ssg74
g1487
sg67
(lp1494
S'remote_port'
p1495
asbag60
(g81
g62
NtRp1496
(dp1497
g65
(dp1498
g92
g93
ssg74
g1487
sg67
(lp1499
S':'
asbag60
(g81
g62
NtRp1500
(dp1501
g65
(dp1502
sg74
g1487
sg67
(lp1503
g60
(g61
g62
NtRp1504
(dp1505
g65
(dp1506
g73
I4
ssg74
g1500
sg67
(lp1507
S'58572'
p1508
asbasbasbag60
(g76
g62
NtRp1509
(dp1510
g65
(dp1511
sg74
g955
sg67
(lp1512
g60
(g81
g62
NtRp1513
(dp1514
g65
(dp1515
g85
g86
ssg74
g1509
sg67
(lp1516
S'request_method'
p1517
asbag60
(g81
g62
NtRp1518
(dp1519
g65
(dp1520
g92
g93
ssg74
g1509
sg67
(lp1521
S':'
asbag60
(g81
g62
NtRp1522
(dp1523
g65
(dp1524
sg74
g1509
sg67
(lp1525
g60
(g61
g62
NtRp1526
(dp1527
g65
(dp1528
g73
I4
ssg74
g1522
sg67
(lp1529
S'GET'
p1530
asbasbasbag60
(g76
g62
NtRp1531
(dp1532
g65
(dp1533
sg74
g955
sg67
(lp1534
g60
(g81
g62
NtRp1535
(dp1536
g65
(dp1537
g85
g86
ssg74
g1531
sg67
(lp1538
S'request_uri'
p1539
asbag60
(g81
g62
NtRp1540
(dp1541
g65
(dp1542
g92
g93
ssg74
g1531
sg67
(lp1543
S':'
asbag60
(g81
g62
NtRp1544
(dp1545
g65
(dp1546
sg74
g1531
sg67
(lp1547
g60
(g61
g62
NtRp1548
(dp1549
g65
(dp1550
g73
I4
ssg74
g1544
sg67
(lp1551
g1444
asbasbasbag60
(g76
g62
NtRp1552
(dp1553
g65
(dp1554
sg74
g955
sg67
(lp1555
g60
(g81
g62
NtRp1556
(dp1557
g65
(dp1558
g85
g86
ssg74
g1552
sg67
(lp1559
S'script_name'
p1560
asbag60
(g81
g62
NtRp1561
(dp1562
g65
(dp1563
g92
g93
ssg74
g1552
sg67
(lp1564
S':'
asbag60
(g81
g62
NtRp1565
(dp1566
g65
(dp1567
sg74
g1552
sg67
(lp1568
g60
(g61
g62
NtRp1569
(dp1570
g65
(dp1571
g73
I4
ssg74
g1565
sg67
(lp1572
S''
asbasbasbag60
(g76
g62
NtRp1573
(dp1574
g65
(dp1575
sg74
g955
sg67
(lp1576
g60
(g81
g62
NtRp1577
(dp1578
g65
(dp1579
g85
g86
ssg74
g1573
sg67
(lp1580
S'server_name'
p1581
asbag60
(g81
g62
NtRp1582
(dp1583
g65
(dp1584
g92
g93
ssg74
g1573
sg67
(lp1585
S':'
asbag60
(g81
g62
NtRp1586
(dp1587
g65
(dp1588
sg74
g1573
sg67
(lp1589
g60
(g61
g62
NtRp1590
(dp1591
g65
(dp1592
g73
I4
ssg74
g1586
sg67
(lp1593
g1409
asbasbasbag60
(g76
g62
NtRp1594
(dp1595
g65
(dp1596
sg74
g955
sg67
(lp1597
g60
(g81
g62
NtRp1598
(dp1599
g65
(dp1600
g85
g86
ssg74
g1594
sg67
(lp1601
S'server_port'
p1602
asbag60
(g81
g62
NtRp1603
(dp1604
g65
(dp1605
g92
g93
ssg74
g1594
sg67
(lp1606
S':'
asbag60
(g81
g62
NtRp1607
(dp1608
g65
(dp1609
sg74
g1594
sg67
(lp1610
g60
(g61
g62
NtRp1611
(dp1612
g65
(dp1613
g73
I4
ssg74
g1607
sg67
(lp1614
S'8000'
p1615
asbasbasbag60
(g76
g62
NtRp1616
(dp1617
g65
(dp1618
sg74
g955
sg67
(lp1619
g60
(g81
g62
NtRp1620
(dp1621
g65
(dp1622
g85
g86
ssg74
g1616
sg67
(lp1623
S'server_protocol'
p1624
asbag60
(g81
g62
NtRp1625
(dp1626
g65
(dp1627
g92
g93
ssg74
g1616
sg67
(lp1628
S':'
asbag60
(g81
g62
NtRp1629
(dp1630
g65
(dp1631
sg74
g1616
sg67
(lp1632
g60
(g61
g62
NtRp1633
(dp1634
g65
(dp1635
g73
I4
ssg74
g1629
sg67
(lp1636
S'HTTP/1.1'
p1637
asbasbasbag60
(g76
g62
NtRp1638
(dp1639
g65
(dp1640
sg74
g955
sg67
(lp1641
g60
(g81
g62
NtRp1642
(dp1643
g65
(dp1644
g85
g86
ssg74
g1638
sg67
(lp1645
S'server_software'
p1646
asbag60
(g81
g62
NtRp1647
(dp1648
g65
(dp1649
g92
g93
ssg74
g1638
sg67
(lp1650
S':'
asbag60
(g81
g62
NtRp1651
(dp1652
g65
(dp1653
sg74
g1638
sg67
(lp1654
g60
(g61
g62
NtRp1655
(dp1656
g65
(dp1657
g73
I4
ssg74
g1651
sg67
(lp1658
S'Rocket 1.2.5'
p1659
asbasbasbag60
(g76
g62
NtRp1660
(dp1661
g65
(dp1662
sg74
g955
sg67
(lp1663
g60
(g81
g62
NtRp1664
(dp1665
g65
(dp1666
g85
g86
ssg74
g1660
sg67
(lp1667
S'web2py_path'
p1668
asbag60
(g81
g62
NtRp1669
(dp1670
g65
(dp1671
g92
g93
ssg74
g1660
sg67
(lp1672
S':'
asbag60
(g81
g62
NtRp1673
(dp1674
g65
(dp1675
sg74
g1660
sg67
(lp1676
g60
(g61
g62
NtRp1677
(dp1678
g65
(dp1679
g73
I4
ssg74
g1673
sg67
(lp1680
g1002
asbasbasbag60
(g76
g62
NtRp1681
(dp1682
g65
(dp1683
sg74
g955
sg67
(lp1684
g60
(g81
g62
NtRp1685
(dp1686
g65
(dp1687
g85
g86
ssg74
g1681
sg67
(lp1688
S'web2py_version'
p1689
asbag60
(g81
g62
NtRp1690
(dp1691
g65
(dp1692
g92
g93
ssg74
g1681
sg67
(lp1693
S':'
asbag60
(g81
g62
NtRp1694
(dp1695
g65
(dp1696
sg74
g1681
sg67
(lp1697
g60
(g61
g62
NtRp1698
(dp1699
g65
(dp1700
g73
I4
ssg74
g1694
sg67
(lp1701
g60
(g69
g62
NtRp1702
(dp1703
g65
(dp1704
g73
I3
ssg74
Nsg67
(lp1705
g60
(g76
g62
NtRp1706
(dp1707
g65
(dp1708
sg74
g1702
sg67
(lp1709
g60
(g81
g62
NtRp1710
(dp1711
g65
(dp1712
sg74
g1706
sg67
(lp1713
g60
(g61
g62
NtRp1714
(dp1715
g65
(dp1716
g73
I3
ssg74
g1710
sg67
(lp1717
S'2'
asbasbasbag60
(g76
g62
NtRp1718
(dp1719
g65
(dp1720
sg74
g1702
sg67
(lp1721
g60
(g81
g62
NtRp1722
(dp1723
g65
(dp1724
sg74
g1718
sg67
(lp1725
g60
(g61
g62
NtRp1726
(dp1727
g65
(dp1728
g73
I3
ssg74
g1722
sg67
(lp1729
S'2'
asbasbasbag60
(g76
g62
NtRp1730
(dp1731
g65
(dp1732
sg74
g1702
sg67
(lp1733
g60
(g81
g62
NtRp1734
(dp1735
g65
(dp1736
sg74
g1730
sg67
(lp1737
g60
(g61
g62
NtRp1738
(dp1739
g65
(dp1740
g73
I3
ssg74
g1734
sg67
(lp1741
S'1'
asbasbasbag60
(g76
g62
NtRp1742
(dp1743
g65
(dp1744
sg74
g1702
sg67
(lp1745
g60
(g81
g62
NtRp1746
(dp1747
g65
(dp1748
sg74
g1742
sg67
(lp1749
g60
(g61
g62
NtRp1750
(dp1751
g65
(dp1752
g73
I3
ssg74
g1746
sg67
(lp1753
S'datetime.datetime(2012, 10, 21, 16, 57, 4)'
p1754
asbasbasbag60
(g76
g62
NtRp1755
(dp1756
g65
(dp1757
sg74
g1702
sg67
(lp1758
g60
(g81
g62
NtRp1759
(dp1760
g65
(dp1761
sg74
g1755
sg67
(lp1762
g60
(g61
g62
NtRp1763
(dp1764
g65
(dp1765
g73
I3
ssg74
g1759
sg67
(lp1766
S'stable'
p1767
asbasbasbasbasbasbasbag60
(g76
g62
NtRp1768
(dp1769
g65
(dp1770
sg74
g955
sg67
(lp1771
g60
(g81
g62
NtRp1772
(dp1773
g65
(dp1774
g85
g86
ssg74
g1768
sg67
(lp1775
S'wsgi_errors'
p1776
asbag60
(g81
g62
NtRp1777
(dp1778
g65
(dp1779
g92
g93
ssg74
g1768
sg67
(lp1780
S':'
asbag60
(g81
g62
NtRp1781
(dp1782
g65
(dp1783
sg74
g1768
sg67
(lp1784
g60
(g61
g62
NtRp1785
(dp1786
g65
(dp1787
g73
I4
ssg74
g1781
sg67
(lp1788
S"<open file '<stderr>', mode 'w' at 0x540b0>"
p1789
asbasbasbag60
(g76
g62
NtRp1790
(dp1791
g65
(dp1792
sg74
g955
sg67
(lp1793
g60
(g81
g62
NtRp1794
(dp1795
g65
(dp1796
g85
g86
ssg74
g1790
sg67
(lp1797
S'wsgi_file_wrapper'
p1798
asbag60
(g81
g62
NtRp1799
(dp1800
g65
(dp1801
g92
g93
ssg74
g1790
sg67
(lp1802
S':'
asbag60
(g81
g62
NtRp1803
(dp1804
g65
(dp1805
sg74
g1790
sg67
(lp1806
g60
(g61
g62
NtRp1807
(dp1808
g65
(dp1809
g73
I4
ssg74
g1803
sg67
(lp1810
S'<class wsgiref.util.FileWrapper at 0x45782d0>'
p1811
asbasbasbag60
(g76
g62
NtRp1812
(dp1813
g65
(dp1814
sg74
g955
sg67
(lp1815
g60
(g81
g62
NtRp1816
(dp1817
g65
(dp1818
g85
g86
ssg74
g1812
sg67
(lp1819
S'wsgi_input'
p1820
asbag60
(g81
g62
NtRp1821
(dp1822
g65
(dp1823
g92
g93
ssg74
g1812
sg67
(lp1824
S':'
asbag60
(g81
g62
NtRp1825
(dp1826
g65
(dp1827
sg74
g1812
sg67
(lp1828
g60
(g61
g62
NtRp1829
(dp1830
g65
(dp1831
g73
I4
ssg74
g1825
sg67
(lp1832
S'<socket._fileobject object at 0x9f28330>'
p1833
asbasbasbag60
(g76
g62
NtRp1834
(dp1835
g65
(dp1836
sg74
g955
sg67
(lp1837
g60
(g81
g62
NtRp1838
(dp1839
g65
(dp1840
g85
g86
ssg74
g1834
sg67
(lp1841
S'wsgi_multiprocess'
p1842
asbag60
(g81
g62
NtRp1843
(dp1844
g65
(dp1845
g92
g93
ssg74
g1834
sg67
(lp1846
S':'
asbag60
(g81
g62
NtRp1847
(dp1848
g65
(dp1849
sg74
g1834
sg67
(lp1850
g60
(g61
g62
NtRp1851
(dp1852
g65
(dp1853
g73
I4
ssg74
g1847
sg67
(lp1854
g103
asbasbasbag60
(g76
g62
NtRp1855
(dp1856
g65
(dp1857
sg74
g955
sg67
(lp1858
g60
(g81
g62
NtRp1859
(dp1860
g65
(dp1861
g85
g86
ssg74
g1855
sg67
(lp1862
S'wsgi_multithread'
p1863
asbag60
(g81
g62
NtRp1864
(dp1865
g65
(dp1866
g92
g93
ssg74
g1855
sg67
(lp1867
S':'
asbag60
(g81
g62
NtRp1868
(dp1869
g65
(dp1870
sg74
g1855
sg67
(lp1871
g60
(g61
g62
NtRp1872
(dp1873
g65
(dp1874
g73
I4
ssg74
g1868
sg67
(lp1875
S'True'
p1876
asbasbasbag60
(g76
g62
NtRp1877
(dp1878
g65
(dp1879
sg74
g955
sg67
(lp1880
g60
(g81
g62
NtRp1881
(dp1882
g65
(dp1883
g85
g86
ssg74
g1877
sg67
(lp1884
S'wsgi_run_once'
p1885
asbag60
(g81
g62
NtRp1886
(dp1887
g65
(dp1888
g92
g93
ssg74
g1877
sg67
(lp1889
S':'
asbag60
(g81
g62
NtRp1890
(dp1891
g65
(dp1892
sg74
g1877
sg67
(lp1893
g60
(g61
g62
NtRp1894
(dp1895
g65
(dp1896
g73
I4
ssg74
g1890
sg67
(lp1897
g103
asbasbasbag60
(g76
g62
NtRp1898
(dp1899
g65
(dp1900
sg74
g955
sg67
(lp1901
g60
(g81
g62
NtRp1902
(dp1903
g65
(dp1904
g85
g86
ssg74
g1898
sg67
(lp1905
S'wsgi_url_scheme'
p1906
asbag60
(g81
g62
NtRp1907
(dp1908
g65
(dp1909
g92
g93
ssg74
g1898
sg67
(lp1910
S':'
asbag60
(g81
g62
NtRp1911
(dp1912
g65
(dp1913
sg74
g1898
sg67
(lp1914
g60
(g61
g62
NtRp1915
(dp1916
g65
(dp1917
g73
I4
ssg74
g1911
sg67
(lp1918
S'http'
p1919
asbasbasbag60
(g76
g62
NtRp1920
(dp1921
g65
(dp1922
sg74
g955
sg67
(lp1923
g60
(g81
g62
NtRp1924
(dp1925
g65
(dp1926
g85
g86
ssg74
g1920
sg67
(lp1927
S'wsgi_version'
p1928
asbag60
(g81
g62
NtRp1929
(dp1930
g65
(dp1931
g92
g93
ssg74
g1920
sg67
(lp1932
S':'
asbag60
(g81
g62
NtRp1933
(dp1934
g65
(dp1935
sg74
g1920
sg67
(lp1936
g60
(g61
g62
NtRp1937
(dp1938
g65
(dp1939
g73
I4
ssg74
g1933
sg67
(lp1940
g60
(g69
g62
NtRp1941
(dp1942
g65
(dp1943
g73
I3
ssg74
Nsg67
(lp1944
g60
(g76
g62
NtRp1945
(dp1946
g65
(dp1947
sg74
g1941
sg67
(lp1948
g60
(g81
g62
NtRp1949
(dp1950
g65
(dp1951
sg74
g1945
sg67
(lp1952
g60
(g61
g62
NtRp1953
(dp1954
g65
(dp1955
g73
I3
ssg74
g1949
sg67
(lp1956
S'1'
asbasbasbag60
(g76
g62
NtRp1957
(dp1958
g65
(dp1959
sg74
g1941
sg67
(lp1960
g60
(g81
g62
NtRp1961
(dp1962
g65
(dp1963
sg74
g1957
sg67
(lp1964
g60
(g61
g62
NtRp1965
(dp1966
g65
(dp1967
g73
I3
ssg74
g1961
sg67
(lp1968
S'0'
asbasbasbasbasbasbasbasbasbasbasbag60
(g76
g62
NtRp1969
(dp1970
g65
(dp1971
sg74
g70
sg67
(lp1972
g60
(g81
g62
NtRp1973
(dp1974
g65
(dp1975
g85
g86
ssg74
g1969
sg67
(lp1976
S'extension'
p1977
asbag60
(g81
g62
NtRp1978
(dp1979
g65
(dp1980
g92
g93
ssg74
g1969
sg67
(lp1981
S':'
asbag60
(g81
g62
NtRp1982
(dp1983
g65
(dp1984
sg74
g1969
sg67
(lp1985
g60
(g61
g62
NtRp1986
(dp1987
g65
(dp1988
g73
I5
ssg74
g1982
sg67
(lp1989
S'html'
p1990
asbasbasbag60
(g76
g62
NtRp1991
(dp1992
g65
(dp1993
sg74
g70
sg67
(lp1994
g60
(g81
g62
NtRp1995
(dp1996
g65
(dp1997
g85
g86
ssg74
g1991
sg67
(lp1998
S'folder'
p1999
asbag60
(g81
g62
NtRp2000
(dp2001
g65
(dp2002
g92
g93
ssg74
g1991
sg67
(lp2003
S':'
asbag60
(g81
g62
NtRp2004
(dp2005
g65
(dp2006
sg74
g1991
sg67
(lp2007
g60
(g61
g62
NtRp2008
(dp2009
g65
(dp2010
g73
I5
ssg74
g2004
sg67
(lp2011
S'/Users/abaric/Downloads/web2py/web2py.app/Contents/Resources/applications/Final_Impulse/'
p2012
asbasbasbag60
(g76
g62
NtRp2013
(dp2014
g65
(dp2015
sg74
g70
sg67
(lp2016
g60
(g81
g62
NtRp2017
(dp2018
g65
(dp2019
g85
g86
ssg74
g2013
sg67
(lp2020
S'function'
p2021
asbag60
(g81
g62
NtRp2022
(dp2023
g65
(dp2024
g92
g93
ssg74
g2013
sg67
(lp2025
S':'
asbag60
(g81
g62
NtRp2026
(dp2027
g65
(dp2028
sg74
g2013
sg67
(lp2029
g60
(g61
g62
NtRp2030
(dp2031
g65
(dp2032
g73
I5
ssg74
g2026
sg67
(lp2033
S'index'
p2034
asbasbasbag60
(g76
g62
NtRp2035
(dp2036
g65
(dp2037
sg74
g70
sg67
(lp2038
g60
(g81
g62
NtRp2039
(dp2040
g65
(dp2041
g85
g86
ssg74
g2035
sg67
(lp2042
S'get_vars'
p2043
asbag60
(g81
g62
NtRp2044
(dp2045
g65
(dp2046
g92
g93
ssg74
g2035
sg67
(lp2047
S':'
asbag60
(g81
g62
NtRp2048
(dp2049
g65
(dp2050
sg74
g2035
sg67
(lp2051
g60
(g61
g62
NtRp2052
(dp2053
g65
(dp2054
g73
I5
ssg74
g2048
sg67
(lp2055
g60
(g69
g62
NtRp2056
(dp2057
g65
(dp2058
g73
I4
ssg74
Nsg67
(lp2059
sbasbasbasbag60
(g76
g62
NtRp2060
(dp2061
g65
(dp2062
sg74
g70
sg67
(lp2063
g60
(g81
g62
NtRp2064
(dp2065
g65
(dp2066
g85
g86
ssg74
g2060
sg67
(lp2067
S'global_settings'
p2068
asbag60
(g81
g62
NtRp2069
(dp2070
g65
(dp2071
g92
g93
ssg74
g2060
sg67
(lp2072
S':'
asbag60
(g81
g62
NtRp2073
(dp2074
g65
(dp2075
sg74
g2060
sg67
(lp2076
g60
(g61
g62
NtRp2077
(dp2078
g65
(dp2079
g73
I5
ssg74
g2073
sg67
(lp2080
g60
(g69
g62
NtRp2081
(dp2082
g65
(dp2083
g73
I4
ssg74
Nsg67
(lp2084
g60
(g76
g62
NtRp2085
(dp2086
g65
(dp2087
sg74
g2081
sg67
(lp2088
g60
(g81
g62
NtRp2089
(dp2090
g65
(dp2091
g85
g86
ssg74
g2085
sg67
(lp2092
g967
asbag60
(g81
g62
NtRp2093
(dp2094
g65
(dp2095
g92
g93
ssg74
g2085
sg67
(lp2096
S':'
asbag60
(g81
g62
NtRp2097
(dp2098
g65
(dp2099
sg74
g2085
sg67
(lp2100
g60
(g61
g62
NtRp2101
(dp2102
g65
(dp2103
g73
I4
ssg74
g2097
sg67
(lp2104
S"set(['/Users/abaric/Downloads/web2py/web2py.app/Contents/Resources/applications/examples/', '/Users/abaric/Downloads/web2py/web2py.app/Contents/Resources/applications/Final_Impulse/', '/Users/abaric/Downloads/web2py/web2py.app/Contents/Resources/applications/Course_Recommendations/', '/Users/abaric/Downloads/web2py/web2py.app/Contents/Resources/applications/welcome/', '/Users/abaric/Downloads/web2py/web2py.app/Contents/Resources/applications/admin/'])"
p2105
asbasbasbag60
(g76
g62
NtRp2106
(dp2107
g65
(dp2108
sg74
g2081
sg67
(lp2109
g60
(g81
g62
NtRp2110
(dp2111
g65
(dp2112
g85
g86
ssg74
g2106
sg67
(lp2113
g989
asbag60
(g81
g62
NtRp2114
(dp2115
g65
(dp2116
g92
g93
ssg74
g2106
sg67
(lp2117
S':'
asbag60
(g81
g62
NtRp2118
(dp2119
g65
(dp2120
sg74
g2106
sg67
(lp2121
g60
(g61
g62
NtRp2122
(dp2123
g65
(dp2124
g73
I4
ssg74
g2118
sg67
(lp2125
g1002
asbasbasbag60
(g76
g62
NtRp2126
(dp2127
g65
(dp2128
sg74
g2081
sg67
(lp2129
g60
(g81
g62
NtRp2130
(dp2131
g65
(dp2132
g85
g86
ssg74
g2126
sg67
(lp2133
g1011
asbag60
(g81
g62
NtRp2134
(dp2135
g65
(dp2136
g92
g93
ssg74
g2126
sg67
(lp2137
S':'
asbag60
(g81
g62
NtRp2138
(dp2139
g65
(dp2140
sg74
g2126
sg67
(lp2141
g60
(g61
g62
NtRp2142
(dp2143
g65
(dp2144
g73
I4
ssg74
g2138
sg67
(lp2145
g60
(g69
g62
NtRp2146
(dp2147
g65
(dp2148
g73
I3
ssg74
Nsg67
(lp2149
sbasbasbasbag60
(g76
g62
NtRp2150
(dp2151
g65
(dp2152
sg74
g2081
sg67
(lp2153
g60
(g81
g62
NtRp2154
(dp2155
g65
(dp2156
g85
g86
ssg74
g2150
sg67
(lp2157
g1036
asbag60
(g81
g62
NtRp2158
(dp2159
g65
(dp2160
g92
g93
ssg74
g2150
sg67
(lp2161
S':'
asbag60
(g81
g62
NtRp2162
(dp2163
g65
(dp2164
sg74
g2150
sg67
(lp2165
g60
(g61
g62
NtRp2166
(dp2167
g65
(dp2168
g73
I4
ssg74
g2162
sg67
(lp2169
S"<Values at 0x43bc1c0: {'verbose': False, 'ip': '127.0.0.1', 'with_scheduler': False, 'ips': [], 'shutdown_timeout': 5, 'taskbar': False, 'port': 8000, 'maxthreads': None, 'softcron': False, 'server_name': 'Andrea-Barics-MacBook-Pro.local', 'bpython': False, 'nogui': False, 'pid_filename': 'httpserver.pid', 'extcron': False, 'runcron': False, 'run_system_tests': False, 'test': None, 'folder': '/Users/abaric/Downloads/web2py/web2py.app/Contents/Resources', 'config': '', 'import_models': False, 'winservice': '', 'shell': None, 'run': '', 'log_filename': 'httpserver.log', 'debuglevel': 30, 'args': [''], 'socket_timeout': 5, 'ssl_ca_certificate': None, 'scheduler': None, 'profiler_filename': None, 'ssl_private_key': '', 'scheduler_groups': None, 'password': '<ask>', 'request_queue_size': 5, 'ssl_certificate': '', 'cronjob': False, 'numthreads': None, 'quiet': False, 'interfaces': None, 'minthreads': None, 'timeout': 10, 'plain': False, 'nobanner': False}>"
p2170
asbasbasbag60
(g76
g62
NtRp2171
(dp2172
g65
(dp2173
sg74
g2081
sg67
(lp2174
g60
(g81
g62
NtRp2175
(dp2176
g65
(dp2177
g85
g86
ssg74
g2171
sg67
(lp2178
g1058
asbag60
(g81
g62
NtRp2179
(dp2180
g65
(dp2181
g92
g93
ssg74
g2171
sg67
(lp2182
S':'
asbag60
(g81
g62
NtRp2183
(dp2184
g65
(dp2185
sg74
g2171
sg67
(lp2186
g60
(g61
g62
NtRp2187
(dp2188
g65
(dp2189
g73
I4
ssg74
g2183
sg67
(lp2190
S'set([])'
p2191
asbasbasbag60
(g76
g62
NtRp2192
(dp2193
g65
(dp2194
sg74
g2081
sg67
(lp2195
g60
(g81
g62
NtRp2196
(dp2197
g65
(dp2198
g85
g86
ssg74
g2192
sg67
(lp2199
g1080
asbag60
(g81
g62
NtRp2200
(dp2201
g65
(dp2202
g92
g93
ssg74
g2192
sg67
(lp2203
S':'
asbag60
(g81
g62
NtRp2204
(dp2205
g65
(dp2206
sg74
g2192
sg67
(lp2207
g60
(g61
g62
NtRp2208
(dp2209
g65
(dp2210
g73
I4
ssg74
g2204
sg67
(lp2211
g103
asbasbasbag60
(g76
g62
NtRp2212
(dp2213
g65
(dp2214
sg74
g2081
sg67
(lp2215
g60
(g81
g62
NtRp2216
(dp2217
g65
(dp2218
g85
g86
ssg74
g2212
sg67
(lp2219
g1101
asbag60
(g81
g62
NtRp2220
(dp2221
g65
(dp2222
g92
g93
ssg74
g2212
sg67
(lp2223
S':'
asbag60
(g81
g62
NtRp2224
(dp2225
g65
(dp2226
sg74
g2212
sg67
(lp2227
g60
(g61
g62
NtRp2228
(dp2229
g65
(dp2230
g73
I4
ssg74
g2224
sg67
(lp2231
g1114
asbasbasbag60
(g76
g62
NtRp2232
(dp2233
g65
(dp2234
sg74
g2081
sg67
(lp2235
g60
(g81
g62
NtRp2236
(dp2237
g65
(dp2238
g85
g86
ssg74
g2232
sg67
(lp2239
g1299
asbag60
(g81
g62
NtRp2240
(dp2241
g65
(dp2242
g92
g93
ssg74
g2232
sg67
(lp2243
S':'
asbag60
(g81
g62
NtRp2244
(dp2245
g65
(dp2246
sg74
g2232
sg67
(lp2247
g60
(g61
g62
NtRp2248
(dp2249
g65
(dp2250
g73
I4
ssg74
g2244
sg67
(lp2251
g103
asbasbasbag60
(g76
g62
NtRp2252
(dp2253
g65
(dp2254
sg74
g2081
sg67
(lp2255
g60
(g81
g62
NtRp2256
(dp2257
g65
(dp2258
g85
g86
ssg74
g2252
sg67
(lp2259
g1320
asbag60
(g81
g62
NtRp2260
(dp2261
g65
(dp2262
g92
g93
ssg74
g2252
sg67
(lp2263
S':'
asbag60
(g81
g62
NtRp2264
(dp2265
g65
(dp2266
sg74
g2252
sg67
(lp2267
g60
(g61
g62
NtRp2268
(dp2269
g65
(dp2270
g73
I4
ssg74
g2264
sg67
(lp2271
g103
asbasbasbag60
(g76
g62
NtRp2272
(dp2273
g65
(dp2274
sg74
g2081
sg67
(lp2275
g60
(g81
g62
NtRp2276
(dp2277
g65
(dp2278
g85
g86
ssg74
g2272
sg67
(lp2279
g1341
asbag60
(g81
g62
NtRp2280
(dp2281
g65
(dp2282
g92
g93
ssg74
g2272
sg67
(lp2283
S':'
asbag60
(g81
g62
NtRp2284
(dp2285
g65
(dp2286
sg74
g2272
sg67
(lp2287
g60
(g61
g62
NtRp2288
(dp2289
g65
(dp2290
g73
I4
ssg74
g2284
sg67
(lp2291
g60
(g69
g62
NtRp2292
(dp2293
g65
(dp2294
g73
I3
ssg74
Nsg67
(lp2295
g60
(g76
g62
NtRp2296
(dp2297
g65
(dp2298
sg74
g2292
sg67
(lp2299
g60
(g81
g62
NtRp2300
(dp2301
g65
(dp2302
sg74
g2296
sg67
(lp2303
g60
(g61
g62
NtRp2304
(dp2305
g65
(dp2306
g73
I3
ssg74
g2300
sg67
(lp2307
g1370
asbasbasbag60
(g76
g62
NtRp2308
(dp2309
g65
(dp2310
sg74
g2292
sg67
(lp2311
g60
(g81
g62
NtRp2312
(dp2313
g65
(dp2314
sg74
g2308
sg67
(lp2315
g60
(g61
g62
NtRp2316
(dp2317
g65
(dp2318
g73
I3
ssg74
g2312
sg67
(lp2319
g1383
asbasbasbag60
(g76
g62
NtRp2320
(dp2321
g65
(dp2322
sg74
g2292
sg67
(lp2323
g60
(g81
g62
NtRp2324
(dp2325
g65
(dp2326
sg74
g2320
sg67
(lp2327
g60
(g61
g62
NtRp2328
(dp2329
g65
(dp2330
g73
I3
ssg74
g2324
sg67
(lp2331
g1396
asbasbasbag60
(g76
g62
NtRp2332
(dp2333
g65
(dp2334
sg74
g2292
sg67
(lp2335
g60
(g81
g62
NtRp2336
(dp2337
g65
(dp2338
sg74
g2332
sg67
(lp2339
g60
(g61
g62
NtRp2340
(dp2341
g65
(dp2342
g73
I3
ssg74
g2336
sg67
(lp2343
g1409
asbasbasbag60
(g76
g62
NtRp2344
(dp2345
g65
(dp2346
sg74
g2292
sg67
(lp2347
g60
(g81
g62
NtRp2348
(dp2349
g65
(dp2350
sg74
g2344
sg67
(lp2351
g60
(g61
g62
NtRp2352
(dp2353
g65
(dp2354
g73
I3
ssg74
g2348
sg67
(lp2355
g1422
asbasbasbasbasbasbasbag60
(g76
g62
NtRp2356
(dp2357
g65
(dp2358
sg74
g2081
sg67
(lp2359
g60
(g81
g62
NtRp2360
(dp2361
g65
(dp2362
g85
g86
ssg74
g2356
sg67
(lp2363
g1689
asbag60
(g81
g62
NtRp2364
(dp2365
g65
(dp2366
g92
g93
ssg74
g2356
sg67
(lp2367
S':'
asbag60
(g81
g62
NtRp2368
(dp2369
g65
(dp2370
sg74
g2356
sg67
(lp2371
g60
(g61
g62
NtRp2372
(dp2373
g65
(dp2374
g73
I4
ssg74
g2368
sg67
(lp2375
g60
(g69
g62
NtRp2376
(dp2377
g65
(dp2378
g73
I3
ssg74
Nsg67
(lp2379
g60
(g76
g62
NtRp2380
(dp2381
g65
(dp2382
sg74
g2376
sg67
(lp2383
g60
(g81
g62
NtRp2384
(dp2385
g65
(dp2386
sg74
g2380
sg67
(lp2387
g60
(g61
g62
NtRp2388
(dp2389
g65
(dp2390
g73
I3
ssg74
g2384
sg67
(lp2391
S'2'
asbasbasbag60
(g76
g62
NtRp2392
(dp2393
g65
(dp2394
sg74
g2376
sg67
(lp2395
g60
(g81
g62
NtRp2396
(dp2397
g65
(dp2398
sg74
g2392
sg67
(lp2399
g60
(g61
g62
NtRp2400
(dp2401
g65
(dp2402
g73
I3
ssg74
g2396
sg67
(lp2403
S'2'
asbasbasbag60
(g76
g62
NtRp2404
(dp2405
g65
(dp2406
sg74
g2376
sg67
(lp2407
g60
(g81
g62
NtRp2408
(dp2409
g65
(dp2410
sg74
g2404
sg67
(lp2411
g60
(g61
g62
NtRp2412
(dp2413
g65
(dp2414
g73
I3
ssg74
g2408
sg67
(lp2415
S'1'
asbasbasbag60
(g76
g62
NtRp2416
(dp2417
g65
(dp2418
sg74
g2376
sg67
(lp2419
g60
(g81
g62
NtRp2420
(dp2421
g65
(dp2422
sg74
g2416
sg67
(lp2423
g60
(g61
g62
NtRp2424
(dp2425
g65
(dp2426
g73
I3
ssg74
g2420
sg67
(lp2427
S'datetime.datetime(2012, 10, 21, 16, 57, 4)'
p2428
asbasbasbag60
(g76
g62
NtRp2429
(dp2430
g65
(dp2431
sg74
g2376
sg67
(lp2432
g60
(g81
g62
NtRp2433
(dp2434
g65
(dp2435
sg74
g2429
sg67
(lp2436
g60
(g61
g62
NtRp2437
(dp2438
g65
(dp2439
g73
I3
ssg74
g2433
sg67
(lp2440
g1767
asbasbasbasbasbasbasbasbasbasbasbag60
(g76
g62
NtRp2441
(dp2442
g65
(dp2443
sg74
g70
sg67
(lp2444
g60
(g81
g62
NtRp2445
(dp2446
g65
(dp2447
g85
g86
ssg74
g2441
sg67
(lp2448
S'is_https'
p2449
asbag60
(g81
g62
NtRp2450
(dp2451
g65
(dp2452
g92
g93
ssg74
g2441
sg67
(lp2453
S':'
asbag60
(g81
g62
NtRp2454
(dp2455
g65
(dp2456
sg74
g2441
sg67
(lp2457
g60
(g61
g62
NtRp2458
(dp2459
g65
(dp2460
g73
I5
ssg74
g2454
sg67
(lp2461
g103
asbasbasbag60
(g76
g62
NtRp2462
(dp2463
g65
(dp2464
sg74
g70
sg67
(lp2465
g60
(g81
g62
NtRp2466
(dp2467
g65
(dp2468
g85
g86
ssg74
g2462
sg67
(lp2469
S'is_local'
p2470
asbag60
(g81
g62
NtRp2471
(dp2472
g65
(dp2473
g92
g93
ssg74
g2462
sg67
(lp2474
S':'
asbag60
(g81
g62
NtRp2475
(dp2476
g65
(dp2477
sg74
g2462
sg67
(lp2478
g60
(g61
g62
NtRp2479
(dp2480
g65
(dp2481
g73
I5
ssg74
g2475
sg67
(lp2482
g1876
asbasbasbag60
(g76
g62
NtRp2483
(dp2484
g65
(dp2485
sg74
g70
sg67
(lp2486
g60
(g81
g62
NtRp2487
(dp2488
g65
(dp2489
g85
g86
ssg74
g2483
sg67
(lp2490
S'is_restful'
p2491
asbag60
(g81
g62
NtRp2492
(dp2493
g65
(dp2494
g92
g93
ssg74
g2483
sg67
(lp2495
S':'
asbag60
(g81
g62
NtRp2496
(dp2497
g65
(dp2498
sg74
g2483
sg67
(lp2499
g60
(g61
g62
NtRp2500
(dp2501
g65
(dp2502
g73
I5
ssg74
g2496
sg67
(lp2503
g103
asbasbasbag60
(g76
g62
NtRp2504
(dp2505
g65
(dp2506
sg74
g70
sg67
(lp2507
g60
(g81
g62
NtRp2508
(dp2509
g65
(dp2510
g85
g86
ssg74
g2504
sg67
(lp2511
S'now'
p2512
asbag60
(g81
g62
NtRp2513
(dp2514
g65
(dp2515
g92
g93
ssg74
g2504
sg67
(lp2516
S':'
asbag60
(g81
g62
NtRp2517
(dp2518
g65
(dp2519
sg74
g2504
sg67
(lp2520
g60
(g61
g62
NtRp2521
(dp2522
g65
(dp2523
g73
I5
ssg74
g2517
sg67
(lp2524
S'datetime.datetime(2014, 6, 9, 11, 23, 36, 312667)'
p2525
asbasbasbag60
(g76
g62
NtRp2526
(dp2527
g65
(dp2528
sg74
g70
sg67
(lp2529
g60
(g81
g62
NtRp2530
(dp2531
g65
(dp2532
g85
g86
ssg74
g2526
sg67
(lp2533
S'post_vars'
p2534
asbag60
(g81
g62
NtRp2535
(dp2536
g65
(dp2537
g92
g93
ssg74
g2526
sg67
(lp2538
S':'
asbag60
(g81
g62
NtRp2539
(dp2540
g65
(dp2541
sg74
g2526
sg67
(lp2542
g60
(g61
g62
NtRp2543
(dp2544
g65
(dp2545
g73
I5
ssg74
g2539
sg67
(lp2546
g60
(g69
g62
NtRp2547
(dp2548
g65
(dp2549
g73
I4
ssg74
Nsg67
(lp2550
sbasbasbasbag60
(g76
g62
NtRp2551
(dp2552
g65
(dp2553
sg74
g70
sg67
(lp2554
g60
(g81
g62
NtRp2555
(dp2556
g65
(dp2557
g85
g86
ssg74
g2551
sg67
(lp2558
S'raw_args'
p2559
asbag60
(g81
g62
NtRp2560
(dp2561
g65
(dp2562
g92
g93
ssg74
g2551
sg67
(lp2563
S':'
asbag60
(g81
g62
NtRp2564
(dp2565
g65
(dp2566
sg74
g2551
sg67
(lp2567
g60
(g61
g62
NtRp2568
(dp2569
g65
(dp2570
g73
I5
ssg74
g2564
sg67
(lp2571
S''
asbasbasbag60
(g76
g62
NtRp2572
(dp2573
g65
(dp2574
sg74
g70
sg67
(lp2575
g60
(g81
g62
NtRp2576
(dp2577
g65
(dp2578
g85
g86
ssg74
g2572
sg67
(lp2579
S'raw_extension'
p2580
asbag60
(g81
g62
NtRp2581
(dp2582
g65
(dp2583
g92
g93
ssg74
g2572
sg67
(lp2584
S':'
asbag60
(g81
g62
NtRp2585
(dp2586
g65
(dp2587
sg74
g2572
sg67
(lp2588
g60
(g61
g62
NtRp2589
(dp2590
g65
(dp2591
g73
I5
ssg74
g2585
sg67
(lp2592
S'None'
p2593
asbasbasbag60
(g76
g62
NtRp2594
(dp2595
g65
(dp2596
sg74
g70
sg67
(lp2597
g60
(g81
g62
NtRp2598
(dp2599
g65
(dp2600
g85
g86
ssg74
g2594
sg67
(lp2601
S'url'
p2602
asbag60
(g81
g62
NtRp2603
(dp2604
g65
(dp2605
g92
g93
ssg74
g2594
sg67
(lp2606
S':'
asbag60
(g81
g62
NtRp2607
(dp2608
g65
(dp2609
sg74
g2594
sg67
(lp2610
g60
(g61
g62
NtRp2611
(dp2612
g65
(dp2613
g73
I5
ssg74
g2607
sg67
(lp2614
g1444
asbasbasbag60
(g76
g62
NtRp2615
(dp2616
g65
(dp2617
sg74
g70
sg67
(lp2618
g60
(g81
g62
NtRp2619
(dp2620
g65
(dp2621
g85
g86
ssg74
g2615
sg67
(lp2622
S'utcnow'
p2623
asbag60
(g81
g62
NtRp2624
(dp2625
g65
(dp2626
g92
g93
ssg74
g2615
sg67
(lp2627
S':'
asbag60
(g81
g62
NtRp2628
(dp2629
g65
(dp2630
sg74
g2615
sg67
(lp2631
g60
(g61
g62
NtRp2632
(dp2633
g65
(dp2634
g73
I5
ssg74
g2628
sg67
(lp2635
S'datetime.datetime(2014, 6, 9, 15, 23, 36, 312679)'
p2636
asbasbasbag60
(g76
g62
NtRp2637
(dp2638
g65
(dp2639
sg74
g70
sg67
(lp2640
g60
(g81
g62
NtRp2641
(dp2642
g65
(dp2643
g85
g86
ssg74
g2637
sg67
(lp2644
S'uuid'
p2645
asbag60
(g81
g62
NtRp2646
(dp2647
g65
(dp2648
g92
g93
ssg74
g2637
sg67
(lp2649
S':'
asbag60
(g81
g62
NtRp2650
(dp2651
g65
(dp2652
sg74
g2637
sg67
(lp2653
g60
(g61
g62
NtRp2654
(dp2655
g65
(dp2656
g73
I5
ssg74
g2650
sg67
(lp2657
S'Final_Impulse/127.0.0.1.2014-06-09.11-23-36.622dba22-c25a-4a9b-9e0c-7e586b203dde'
p2658
asbasbasbag60
(g76
g62
NtRp2659
(dp2660
g65
(dp2661
sg74
g70
sg67
(lp2662
g60
(g81
g62
NtRp2663
(dp2664
g65
(dp2665
g85
g86
ssg74
g2659
sg67
(lp2666
S'vars'
p2667
asbag60
(g81
g62
NtRp2668
(dp2669
g65
(dp2670
g92
g93
ssg74
g2659
sg67
(lp2671
S':'
asbag60
(g81
g62
NtRp2672
(dp2673
g65
(dp2674
sg74
g2659
sg67
(lp2675
g60
(g61
g62
NtRp2676
(dp2677
g65
(dp2678
g73
I5
ssg74
g2672
sg67
(lp2679
g60
(g69
g62
NtRp2680
(dp2681
g65
(dp2682
g73
I4
ssg74
Nsg67
(lp2683
sbasbasbasbag60
(g76
g62
NtRp2684
(dp2685
g65
(dp2686
sg74
g70
sg67
(lp2687
g60
(g81
g62
NtRp2688
(dp2689
g65
(dp2690
g85
g86
ssg74
g2684
sg67
(lp2691
S'wsgi'
p2692
asbag60
(g81
g62
NtRp2693
(dp2694
g65
(dp2695
g92
g93
ssg74
g2684
sg67
(lp2696
S':'
asbag60
(g81
g62
NtRp2697
(dp2698
g65
(dp2699
sg74
g2684
sg67
(lp2700
g60
(g61
g62
NtRp2701
(dp2702
g65
(dp2703
g73
I5
ssg74
g2697
sg67
(lp2704
g60
(g69
g62
NtRp2705
(dp2706
g65
(dp2707
g73
I4
ssg74
Nsg67
(lp2708
g60
(g76
g62
NtRp2709
(dp2710
g65
(dp2711
sg74
g2705
sg67
(lp2712
g60
(g81
g62
NtRp2713
(dp2714
g65
(dp2715
g85
g86
ssg74
g2709
sg67
(lp2716
S'environ'
p2717
asbag60
(g81
g62
NtRp2718
(dp2719
g65
(dp2720
g92
g93
ssg74
g2709
sg67
(lp2721
S':'
asbag60
(g81
g62
NtRp2722
(dp2723
g65
(dp2724
sg74
g2709
sg67
(lp2725
g60
(g61
g62
NtRp2726
(dp2727
g65
(dp2728
g73
I4
ssg74
g2722
sg67
(lp2729
g60
(g69
g62
NtRp2730
(dp2731
g65
(dp2732
g73
I3
ssg74
Nsg67
(lp2733
g60
(g76
g62
NtRp2734
(dp2735
g65
(dp2736
sg74
g2730
sg67
(lp2737
g60
(g81
g62
NtRp2738
(dp2739
g65
(dp2740
g85
g86
ssg74
g2734
sg67
(lp2741
S'HTTP_ACCEPT'
p2742
asbag60
(g81
g62
NtRp2743
(dp2744
g65
(dp2745
g92
g93
ssg74
g2734
sg67
(lp2746
S':'
asbag60
(g81
g62
NtRp2747
(dp2748
g65
(dp2749
sg74
g2734
sg67
(lp2750
g60
(g61
g62
NtRp2751
(dp2752
g65
(dp2753
g73
I3
ssg74
g2747
sg67
(lp2754
g1136
asbasbasbag60
(g76
g62
NtRp2755
(dp2756
g65
(dp2757
sg74
g2730
sg67
(lp2758
g60
(g81
g62
NtRp2759
(dp2760
g65
(dp2761
g85
g86
ssg74
g2755
sg67
(lp2762
S'HTTP_ACCEPT_ENCODING'
p2763
asbag60
(g81
g62
NtRp2764
(dp2765
g65
(dp2766
g92
g93
ssg74
g2755
sg67
(lp2767
S':'
asbag60
(g81
g62
NtRp2768
(dp2769
g65
(dp2770
sg74
g2755
sg67
(lp2771
g60
(g61
g62
NtRp2772
(dp2773
g65
(dp2774
g73
I3
ssg74
g2768
sg67
(lp2775
g1158
asbasbasbag60
(g76
g62
NtRp2776
(dp2777
g65
(dp2778
sg74
g2730
sg67
(lp2779
g60
(g81
g62
NtRp2780
(dp2781
g65
(dp2782
g85
g86
ssg74
g2776
sg67
(lp2783
S'HTTP_ACCEPT_LANGUAGE'
p2784
asbag60
(g81
g62
NtRp2785
(dp2786
g65
(dp2787
g92
g93
ssg74
g2776
sg67
(lp2788
S':'
asbag60
(g81
g62
NtRp2789
(dp2790
g65
(dp2791
sg74
g2776
sg67
(lp2792
g60
(g61
g62
NtRp2793
(dp2794
g65
(dp2795
g73
I3
ssg74
g2789
sg67
(lp2796
g1180
asbasbasbag60
(g76
g62
NtRp2797
(dp2798
g65
(dp2799
sg74
g2730
sg67
(lp2800
g60
(g81
g62
NtRp2801
(dp2802
g65
(dp2803
g85
g86
ssg74
g2797
sg67
(lp2804
S'HTTP_CONNECTION'
p2805
asbag60
(g81
g62
NtRp2806
(dp2807
g65
(dp2808
g92
g93
ssg74
g2797
sg67
(lp2809
S':'
asbag60
(g81
g62
NtRp2810
(dp2811
g65
(dp2812
sg74
g2797
sg67
(lp2813
g60
(g61
g62
NtRp2814
(dp2815
g65
(dp2816
g73
I3
ssg74
g2810
sg67
(lp2817
g1202
asbasbasbag60
(g76
g62
NtRp2818
(dp2819
g65
(dp2820
sg74
g2730
sg67
(lp2821
g60
(g81
g62
NtRp2822
(dp2823
g65
(dp2824
g85
g86
ssg74
g2818
sg67
(lp2825
S'HTTP_COOKIE'
p2826
asbag60
(g81
g62
NtRp2827
(dp2828
g65
(dp2829
g92
g93
ssg74
g2818
sg67
(lp2830
S':'
asbag60
(g81
g62
NtRp2831
(dp2832
g65
(dp2833
sg74
g2818
sg67
(lp2834
g60
(g61
g62
NtRp2835
(dp2836
g65
(dp2837
g73
I3
ssg74
g2831
sg67
(lp2838
g1224
asbasbasbag60
(g76
g62
NtRp2839
(dp2840
g65
(dp2841
sg74
g2730
sg67
(lp2842
g60
(g81
g62
NtRp2843
(dp2844
g65
(dp2845
g85
g86
ssg74
g2839
sg67
(lp2846
S'HTTP_HOST'
p2847
asbag60
(g81
g62
NtRp2848
(dp2849
g65
(dp2850
g92
g93
ssg74
g2839
sg67
(lp2851
S':'
asbag60
(g81
g62
NtRp2852
(dp2853
g65
(dp2854
sg74
g2839
sg67
(lp2855
g60
(g61
g62
NtRp2856
(dp2857
g65
(dp2858
g73
I3
ssg74
g2852
sg67
(lp2859
g1246
asbasbasbag60
(g76
g62
NtRp2860
(dp2861
g65
(dp2862
sg74
g2730
sg67
(lp2863
g60
(g81
g62
NtRp2864
(dp2865
g65
(dp2866
g85
g86
ssg74
g2860
sg67
(lp2867
S'HTTP_REFERER'
p2868
asbag60
(g81
g62
NtRp2869
(dp2870
g65
(dp2871
g92
g93
ssg74
g2860
sg67
(lp2872
S':'
asbag60
(g81
g62
NtRp2873
(dp2874
g65
(dp2875
sg74
g2860
sg67
(lp2876
g60
(g61
g62
NtRp2877
(dp2878
g65
(dp2879
g73
I3
ssg74
g2873
sg67
(lp2880
g1268
asbasbasbag60
(g76
g62
NtRp2881
(dp2882
g65
(dp2883
sg74
g2730
sg67
(lp2884
g60
(g81
g62
NtRp2885
(dp2886
g65
(dp2887
g85
g86
ssg74
g2881
sg67
(lp2888
S'HTTP_USER_AGENT'
p2889
asbag60
(g81
g62
NtRp2890
(dp2891
g65
(dp2892
g92
g93
ssg74
g2881
sg67
(lp2893
S':'
asbag60
(g81
g62
NtRp2894
(dp2895
g65
(dp2896
sg74
g2881
sg67
(lp2897
g60
(g61
g62
NtRp2898
(dp2899
g65
(dp2900
g73
I3
ssg74
g2894
sg67
(lp2901
g1290
asbasbasbag60
(g76
g62
NtRp2902
(dp2903
g65
(dp2904
sg74
g2730
sg67
(lp2905
g60
(g81
g62
NtRp2906
(dp2907
g65
(dp2908
g85
g86
ssg74
g2902
sg67
(lp2909
S'PATH_INFO'
p2910
asbag60
(g81
g62
NtRp2911
(dp2912
g65
(dp2913
g92
g93
ssg74
g2902
sg67
(lp2914
S':'
asbag60
(g81
g62
NtRp2915
(dp2916
g65
(dp2917
sg74
g2902
sg67
(lp2918
g60
(g61
g62
NtRp2919
(dp2920
g65
(dp2921
g73
I3
ssg74
g2915
sg67
(lp2922
g1444
asbasbasbag60
(g76
g62
NtRp2923
(dp2924
g65
(dp2925
sg74
g2730
sg67
(lp2926
g60
(g81
g62
NtRp2927
(dp2928
g65
(dp2929
g85
g86
ssg74
g2923
sg67
(lp2930
S'QUERY_STRING'
p2931
asbag60
(g81
g62
NtRp2932
(dp2933
g65
(dp2934
g92
g93
ssg74
g2923
sg67
(lp2935
S':'
asbag60
(g81
g62
NtRp2936
(dp2937
g65
(dp2938
sg74
g2923
sg67
(lp2939
g60
(g61
g62
NtRp2940
(dp2941
g65
(dp2942
g73
I3
ssg74
g2936
sg67
(lp2943
S''
asbasbasbag60
(g76
g62
NtRp2944
(dp2945
g65
(dp2946
sg74
g2730
sg67
(lp2947
g60
(g81
g62
NtRp2948
(dp2949
g65
(dp2950
g85
g86
ssg74
g2944
sg67
(lp2951
S'REMOTE_ADDR'
p2952
asbag60
(g81
g62
NtRp2953
(dp2954
g65
(dp2955
g92
g93
ssg74
g2944
sg67
(lp2956
S':'
asbag60
(g81
g62
NtRp2957
(dp2958
g65
(dp2959
sg74
g2944
sg67
(lp2960
g60
(g61
g62
NtRp2961
(dp2962
g65
(dp2963
g73
I3
ssg74
g2957
sg67
(lp2964
g215
asbasbasbag60
(g76
g62
NtRp2965
(dp2966
g65
(dp2967
sg74
g2730
sg67
(lp2968
g60
(g81
g62
NtRp2969
(dp2970
g65
(dp2971
g85
g86
ssg74
g2965
sg67
(lp2972
S'REMOTE_PORT'
p2973
asbag60
(g81
g62
NtRp2974
(dp2975
g65
(dp2976
g92
g93
ssg74
g2965
sg67
(lp2977
S':'
asbag60
(g81
g62
NtRp2978
(dp2979
g65
(dp2980
sg74
g2965
sg67
(lp2981
g60
(g61
g62
NtRp2982
(dp2983
g65
(dp2984
g73
I3
ssg74
g2978
sg67
(lp2985
g1508
asbasbasbag60
(g76
g62
NtRp2986
(dp2987
g65
(dp2988
sg74
g2730
sg67
(lp2989
g60
(g81
g62
NtRp2990
(dp2991
g65
(dp2992
g85
g86
ssg74
g2986
sg67
(lp2993
S'REQUEST_METHOD'
p2994
asbag60
(g81
g62
NtRp2995
(dp2996
g65
(dp2997
g92
g93
ssg74
g2986
sg67
(lp2998
S':'
asbag60
(g81
g62
NtRp2999
(dp3000
g65
(dp3001
sg74
g2986
sg67
(lp3002
g60
(g61
g62
NtRp3003
(dp3004
g65
(dp3005
g73
I3
ssg74
g2999
sg67
(lp3006
g1530
asbasbasbag60
(g76
g62
NtRp3007
(dp3008
g65
(dp3009
sg74
g2730
sg67
(lp3010
g60
(g81
g62
NtRp3011
(dp3012
g65
(dp3013
g85
g86
ssg74
g3007
sg67
(lp3014
S'REQUEST_URI'
p3015
asbag60
(g81
g62
NtRp3016
(dp3017
g65
(dp3018
g92
g93
ssg74
g3007
sg67
(lp3019
S':'
asbag60
(g81
g62
NtRp3020
(dp3021
g65
(dp3022
sg74
g3007
sg67
(lp3023
g60
(g61
g62
NtRp3024
(dp3025
g65
(dp3026
g73
I3
ssg74
g3020
sg67
(lp3027
g1444
asbasbasbag60
(g76
g62
NtRp3028
(dp3029
g65
(dp3030
sg74
g2730
sg67
(lp3031
g60
(g81
g62
NtRp3032
(dp3033
g65
(dp3034
g85
g86
ssg74
g3028
sg67
(lp3035
S'SCRIPT_NAME'
p3036
asbag60
(g81
g62
NtRp3037
(dp3038
g65
(dp3039
g92
g93
ssg74
g3028
sg67
(lp3040
S':'
asbag60
(g81
g62
NtRp3041
(dp3042
g65
(dp3043
sg74
g3028
sg67
(lp3044
g60
(g61
g62
NtRp3045
(dp3046
g65
(dp3047
g73
I3
ssg74
g3041
sg67
(lp3048
S''
asbasbasbag60
(g76
g62
NtRp3049
(dp3050
g65
(dp3051
sg74
g2730
sg67
(lp3052
g60
(g81
g62
NtRp3053
(dp3054
g65
(dp3055
g85
g86
ssg74
g3049
sg67
(lp3056
S'SERVER_NAME'
p3057
asbag60
(g81
g62
NtRp3058
(dp3059
g65
(dp3060
g92
g93
ssg74
g3049
sg67
(lp3061
S':'
asbag60
(g81
g62
NtRp3062
(dp3063
g65
(dp3064
sg74
g3049
sg67
(lp3065
g60
(g61
g62
NtRp3066
(dp3067
g65
(dp3068
g73
I3
ssg74
g3062
sg67
(lp3069
g1409
asbasbasbag60
(g76
g62
NtRp3070
(dp3071
g65
(dp3072
sg74
g2730
sg67
(lp3073
g60
(g81
g62
NtRp3074
(dp3075
g65
(dp3076
g85
g86
ssg74
g3070
sg67
(lp3077
S'SERVER_PORT'
p3078
asbag60
(g81
g62
NtRp3079
(dp3080
g65
(dp3081
g92
g93
ssg74
g3070
sg67
(lp3082
S':'
asbag60
(g81
g62
NtRp3083
(dp3084
g65
(dp3085
sg74
g3070
sg67
(lp3086
g60
(g61
g62
NtRp3087
(dp3088
g65
(dp3089
g73
I3
ssg74
g3083
sg67
(lp3090
g1615
asbasbasbag60
(g76
g62
NtRp3091
(dp3092
g65
(dp3093
sg74
g2730
sg67
(lp3094
g60
(g81
g62
NtRp3095
(dp3096
g65
(dp3097
g85
g86
ssg74
g3091
sg67
(lp3098
S'SERVER_PROTOCOL'
p3099
asbag60
(g81
g62
NtRp3100
(dp3101
g65
(dp3102
g92
g93
ssg74
g3091
sg67
(lp3103
S':'
asbag60
(g81
g62
NtRp3104
(dp3105
g65
(dp3106
sg74
g3091
sg67
(lp3107
g60
(g61
g62
NtRp3108
(dp3109
g65
(dp3110
g73
I3
ssg74
g3104
sg67
(lp3111
g1637
asbasbasbag60
(g76
g62
NtRp3112
(dp3113
g65
(dp3114
sg74
g2730
sg67
(lp3115
g60
(g81
g62
NtRp3116
(dp3117
g65
(dp3118
g85
g86
ssg74
g3112
sg67
(lp3119
S'SERVER_SOFTWARE'
p3120
asbag60
(g81
g62
NtRp3121
(dp3122
g65
(dp3123
g92
g93
ssg74
g3112
sg67
(lp3124
S':'
asbag60
(g81
g62
NtRp3125
(dp3126
g65
(dp3127
sg74
g3112
sg67
(lp3128
g60
(g61
g62
NtRp3129
(dp3130
g65
(dp3131
g73
I3
ssg74
g3125
sg67
(lp3132
g1659
asbasbasbag60
(g76
g62
NtRp3133
(dp3134
g65
(dp3135
sg74
g2730
sg67
(lp3136
g60
(g81
g62
NtRp3137
(dp3138
g65
(dp3139
g85
g86
ssg74
g3133
sg67
(lp3140
S'wsgi.errors'
p3141
asbag60
(g81
g62
NtRp3142
(dp3143
g65
(dp3144
g92
g93
ssg74
g3133
sg67
(lp3145
S':'
asbag60
(g81
g62
NtRp3146
(dp3147
g65
(dp3148
sg74
g3133
sg67
(lp3149
g60
(g61
g62
NtRp3150
(dp3151
g65
(dp3152
g73
I3
ssg74
g3146
sg67
(lp3153
S"<open file '<stderr>', mode 'w' at 0x540b0>"
p3154
asbasbasbag60
(g76
g62
NtRp3155
(dp3156
g65
(dp3157
sg74
g2730
sg67
(lp3158
g60
(g81
g62
NtRp3159
(dp3160
g65
(dp3161
g85
g86
ssg74
g3155
sg67
(lp3162
S'wsgi.file_wrapper'
p3163
asbag60
(g81
g62
NtRp3164
(dp3165
g65
(dp3166
g92
g93
ssg74
g3155
sg67
(lp3167
S':'
asbag60
(g81
g62
NtRp3168
(dp3169
g65
(dp3170
sg74
g3155
sg67
(lp3171
g60
(g61
g62
NtRp3172
(dp3173
g65
(dp3174
g73
I3
ssg74
g3168
sg67
(lp3175
S'<class wsgiref.util.FileWrapper at 0x45782d0>'
p3176
asbasbasbag60
(g76
g62
NtRp3177
(dp3178
g65
(dp3179
sg74
g2730
sg67
(lp3180
g60
(g81
g62
NtRp3181
(dp3182
g65
(dp3183
g85
g86
ssg74
g3177
sg67
(lp3184
S'wsgi.input'
p3185
asbag60
(g81
g62
NtRp3186
(dp3187
g65
(dp3188
g92
g93
ssg74
g3177
sg67
(lp3189
S':'
asbag60
(g81
g62
NtRp3190
(dp3191
g65
(dp3192
sg74
g3177
sg67
(lp3193
g60
(g61
g62
NtRp3194
(dp3195
g65
(dp3196
g73
I3
ssg74
g3190
sg67
(lp3197
S'<cStringIO.StringO object at 0x77d64a0>'
p3198
asbasbasbag60
(g76
g62
NtRp3199
(dp3200
g65
(dp3201
sg74
g2730
sg67
(lp3202
g60
(g81
g62
NtRp3203
(dp3204
g65
(dp3205
g85
g86
ssg74
g3199
sg67
(lp3206
S'wsgi.multiprocess'
p3207
asbag60
(g81
g62
NtRp3208
(dp3209
g65
(dp3210
g92
g93
ssg74
g3199
sg67
(lp3211
S':'
asbag60
(g81
g62
NtRp3212
(dp3213
g65
(dp3214
sg74
g3199
sg67
(lp3215
g60
(g61
g62
NtRp3216
(dp3217
g65
(dp3218
g73
I3
ssg74
g3212
sg67
(lp3219
g103
asbasbasbag60
(g76
g62
NtRp3220
(dp3221
g65
(dp3222
sg74
g2730
sg67
(lp3223
g60
(g81
g62
NtRp3224
(dp3225
g65
(dp3226
g85
g86
ssg74
g3220
sg67
(lp3227
S'wsgi.multithread'
p3228
asbag60
(g81
g62
NtRp3229
(dp3230
g65
(dp3231
g92
g93
ssg74
g3220
sg67
(lp3232
S':'
asbag60
(g81
g62
NtRp3233
(dp3234
g65
(dp3235
sg74
g3220
sg67
(lp3236
g60
(g61
g62
NtRp3237
(dp3238
g65
(dp3239
g73
I3
ssg74
g3233
sg67
(lp3240
g1876
asbasbasbag60
(g76
g62
NtRp3241
(dp3242
g65
(dp3243
sg74
g2730
sg67
(lp3244
g60
(g81
g62
NtRp3245
(dp3246
g65
(dp3247
g85
g86
ssg74
g3241
sg67
(lp3248
S'wsgi.run_once'
p3249
asbag60
(g81
g62
NtRp3250
(dp3251
g65
(dp3252
g92
g93
ssg74
g3241
sg67
(lp3253
S':'
asbag60
(g81
g62
NtRp3254
(dp3255
g65
(dp3256
sg74
g3241
sg67
(lp3257
g60
(g61
g62
NtRp3258
(dp3259
g65
(dp3260
g73
I3
ssg74
g3254
sg67
(lp3261
g103
asbasbasbag60
(g76
g62
NtRp3262
(dp3263
g65
(dp3264
sg74
g2730
sg67
(lp3265
g60
(g81
g62
NtRp3266
(dp3267
g65
(dp3268
g85
g86
ssg74
g3262
sg67
(lp3269
S'wsgi.url_scheme'
p3270
asbag60
(g81
g62
NtRp3271
(dp3272
g65
(dp3273
g92
g93
ssg74
g3262
sg67
(lp3274
S':'
asbag60
(g81
g62
NtRp3275
(dp3276
g65
(dp3277
sg74
g3262
sg67
(lp3278
g60
(g61
g62
NtRp3279
(dp3280
g65
(dp3281
g73
I3
ssg74
g3275
sg67
(lp3282
g1919
asbasbasbag60
(g76
g62
NtRp3283
(dp3284
g65
(dp3285
sg74
g2730
sg67
(lp3286
g60
(g81
g62
NtRp3287
(dp3288
g65
(dp3289
g85
g86
ssg74
g3283
sg67
(lp3290
S'wsgi.version'
p3291
asbag60
(g81
g62
NtRp3292
(dp3293
g65
(dp3294
g92
g93
ssg74
g3283
sg67
(lp3295
S':'
asbag60
(g81
g62
NtRp3296
(dp3297
g65
(dp3298
sg74
g3283
sg67
(lp3299
g60
(g61
g62
NtRp3300
(dp3301
g65
(dp3302
g73
I3
ssg74
g3296
sg67
(lp3303
S'1'
asbasbasbasbasbasbasbasbasbasbasbasbasbsS'frames'
p3304
(lp3305
(dp3306
S'file'
p3307
S'/Users/abaric/Downloads/web2py/web2py.app/Contents/Resources/gluon/restricted.py'
p3308
sS'dump'
p3309
(dp3310
sS'lnum'
p3311
I211
sS'lines'
p3312
(dp3313
sS'call'
p3314
S"(code='from gluon.tools import datetime\\nfrom gluon.tool...prove():\\n\\nresponse._vars=response._caller(index)\\n', environment={'A': <class 'gluon.html.A'>, 'Auth': <class 'gluon.tools.Auth'>, 'B': <class 'gluon.html.B'>, 'BEAUTIFY': <class 'gluon.html.BEAUTIFY'>, 'BODY': <class 'gluon.html.BODY'>, 'BR': <class 'gluon.html.BR'>, 'BUTTON': <class 'gluon.html.BUTTON'>, 'CAT': <class 'gluon.html.CAT'>, 'CENTER': <class 'gluon.html.CENTER'>, 'CLEANUP': <class 'gluon.validators.CLEANUP'>, ...}, layer='/Users/abaric/Downloads/web2py/web2py.app/Conten...applications/Final_Impulse/controllers/default.py')"
p3315
sS'func'
p3316
S'restricted'
p3317
sa(dp3318
g3307
S'/Users/abaric/Downloads/web2py/web2py.app/Contents/Resources/gluon/restricted.py'
p3319
sg3309
(dp3320
sg3311
I194
sg3312
(dp3321
sg3314
S"(code='from gluon.tools import datetime\\nfrom gluon.tool...prove():\\n\\nresponse._vars=response._caller(index)\\n', layer='/Users/abaric/Downloads/web2py/web2py.app/Conten...applications/Final_Impulse/controllers/default.py')"
p3322
sg3316
S'compile2'
p3323
sasS'pyver'
p3324
S'Python 2.5.1: /Users/abaric/Downloads/web2py/web2py.app/Contents/MacOS/python'
p3325
sS'session'
p3326
g60
(g61
g62
NtRp3327
(dp3328
g65
(dp3329
sg67
(lp3330
g60
(g69
g62
NtRp3331
(dp3332
g65
(dp3333
g73
I5
ssg74
Nsg67
(lp3334
g60
(g76
g62
NtRp3335
(dp3336
g65
(dp3337
sg74
g3331
sg67
(lp3338
g60
(g81
g62
NtRp3339
(dp3340
g65
(dp3341
g85
g86
ssg74
g3335
sg67
(lp3342
S'auth'
p3343
asbag60
(g81
g62
NtRp3344
(dp3345
g65
(dp3346
g92
g93
ssg74
g3335
sg67
(lp3347
S':'
asbag60
(g81
g62
NtRp3348
(dp3349
g65
(dp3350
sg74
g3335
sg67
(lp3351
g60
(g61
g62
NtRp3352
(dp3353
g65
(dp3354
g73
I5
ssg74
g3348
sg67
(lp3355
g60
(g69
g62
NtRp3356
(dp3357
g65
(dp3358
g73
I4
ssg74
Nsg67
(lp3359
g60
(g76
g62
NtRp3360
(dp3361
g65
(dp3362
sg74
g3356
sg67
(lp3363
g60
(g81
g62
NtRp3364
(dp3365
g65
(dp3366
g85
g86
ssg74
g3360
sg67
(lp3367
S'expiration'
p3368
asbag60
(g81
g62
NtRp3369
(dp3370
g65
(dp3371
g92
g93
ssg74
g3360
sg67
(lp3372
S':'
asbag60
(g81
g62
NtRp3373
(dp3374
g65
(dp3375
sg74
g3360
sg67
(lp3376
g60
(g61
g62
NtRp3377
(dp3378
g65
(dp3379
g73
I4
ssg74
g3373
sg67
(lp3380
S'3600'
p3381
asbasbasbag60
(g76
g62
NtRp3382
(dp3383
g65
(dp3384
sg74
g3356
sg67
(lp3385
g60
(g81
g62
NtRp3386
(dp3387
g65
(dp3388
g85
g86
ssg74
g3382
sg67
(lp3389
S'hmac_key'
p3390
asbag60
(g81
g62
NtRp3391
(dp3392
g65
(dp3393
g92
g93
ssg74
g3382
sg67
(lp3394
S':'
asbag60
(g81
g62
NtRp3395
(dp3396
g65
(dp3397
sg74
g3382
sg67
(lp3398
g60
(g61
g62
NtRp3399
(dp3400
g65
(dp3401
g73
I4
ssg74
g3395
sg67
(lp3402
S'709ba8ac-5fd5-4dfc-beac-bcb92aab83e0'
p3403
asbasbasbag60
(g76
g62
NtRp3404
(dp3405
g65
(dp3406
sg74
g3356
sg67
(lp3407
g60
(g81
g62
NtRp3408
(dp3409
g65
(dp3410
g85
g86
ssg74
g3404
sg67
(lp3411
S'last_visit'
p3412
asbag60
(g81
g62
NtRp3413
(dp3414
g65
(dp3415
g92
g93
ssg74
g3404
sg67
(lp3416
S':'
asbag60
(g81
g62
NtRp3417
(dp3418
g65
(dp3419
sg74
g3404
sg67
(lp3420
g60
(g61
g62
NtRp3421
(dp3422
g65
(dp3423
g73
I4
ssg74
g3417
sg67
(lp3424
S'datetime.datetime(2014, 6, 9, 11, 20, 33, 346895)'
p3425
asbasbasbag60
(g76
g62
NtRp3426
(dp3427
g65
(dp3428
sg74
g3356
sg67
(lp3429
g60
(g81
g62
NtRp3430
(dp3431
g65
(dp3432
g85
g86
ssg74
g3426
sg67
(lp3433
S'remember'
p3434
asbag60
(g81
g62
NtRp3435
(dp3436
g65
(dp3437
g92
g93
ssg74
g3426
sg67
(lp3438
S':'
asbag60
(g81
g62
NtRp3439
(dp3440
g65
(dp3441
sg74
g3426
sg67
(lp3442
g60
(g61
g62
NtRp3443
(dp3444
g65
(dp3445
g73
I4
ssg74
g3439
sg67
(lp3446
g103
asbasbasbag60
(g76
g62
NtRp3447
(dp3448
g65
(dp3449
sg74
g3356
sg67
(lp3450
g60
(g81
g62
NtRp3451
(dp3452
g65
(dp3453
g85
g86
ssg74
g3447
sg67
(lp3454
S'user'
p3455
asbag60
(g81
g62
NtRp3456
(dp3457
g65
(dp3458
g92
g93
ssg74
g3447
sg67
(lp3459
S':'
asbag60
(g81
g62
NtRp3460
(dp3461
g65
(dp3462
sg74
g3447
sg67
(lp3463
g60
(g61
g62
NtRp3464
(dp3465
g65
(dp3466
g73
I4
ssg74
g3460
sg67
(lp3467
g60
(g69
g62
NtRp3468
(dp3469
g65
(dp3470
g73
I3
ssg74
Nsg67
(lp3471
g60
(g76
g62
NtRp3472
(dp3473
g65
(dp3474
sg74
g3468
sg67
(lp3475
g60
(g81
g62
NtRp3476
(dp3477
g65
(dp3478
g85
g86
ssg74
g3472
sg67
(lp3479
S'email'
p3480
asbag60
(g81
g62
NtRp3481
(dp3482
g65
(dp3483
g92
g93
ssg74
g3472
sg67
(lp3484
S':'
asbag60
(g81
g62
NtRp3485
(dp3486
g65
(dp3487
sg74
g3472
sg67
(lp3488
g60
(g61
g62
NtRp3489
(dp3490
g65
(dp3491
g73
I3
ssg74
g3485
sg67
(lp3492
S'abaric@agnesirwin.org'
p3493
asbasbasbag60
(g76
g62
NtRp3494
(dp3495
g65
(dp3496
sg74
g3468
sg67
(lp3497
g60
(g81
g62
NtRp3498
(dp3499
g65
(dp3500
g85
g86
ssg74
g3494
sg67
(lp3501
S'first_name'
p3502
asbag60
(g81
g62
NtRp3503
(dp3504
g65
(dp3505
g92
g93
ssg74
g3494
sg67
(lp3506
S':'
asbag60
(g81
g62
NtRp3507
(dp3508
g65
(dp3509
sg74
g3494
sg67
(lp3510
g60
(g61
g62
NtRp3511
(dp3512
g65
(dp3513
g73
I3
ssg74
g3507
sg67
(lp3514
S'Andrea'
p3515
asbasbasbag60
(g76
g62
NtRp3516
(dp3517
g65
(dp3518
sg74
g3468
sg67
(lp3519
g60
(g81
g62
NtRp3520
(dp3521
g65
(dp3522
g85
g86
ssg74
g3516
sg67
(lp3523
S'id'
p3524
asbag60
(g81
g62
NtRp3525
(dp3526
g65
(dp3527
g92
g93
ssg74
g3516
sg67
(lp3528
S':'
asbag60
(g81
g62
NtRp3529
(dp3530
g65
(dp3531
sg74
g3516
sg67
(lp3532
g60
(g61
g62
NtRp3533
(dp3534
g65
(dp3535
g73
I3
ssg74
g3529
sg67
(lp3536
S'1'
asbasbasbag60
(g76
g62
NtRp3537
(dp3538
g65
(dp3539
sg74
g3468
sg67
(lp3540
g60
(g81
g62
NtRp3541
(dp3542
g65
(dp3543
g85
g86
ssg74
g3537
sg67
(lp3544
S'last_name'
p3545
asbag60
(g81
g62
NtRp3546
(dp3547
g65
(dp3548
g92
g93
ssg74
g3537
sg67
(lp3549
S':'
asbag60
(g81
g62
NtRp3550
(dp3551
g65
(dp3552
sg74
g3537
sg67
(lp3553
g60
(g61
g62
NtRp3554
(dp3555
g65
(dp3556
g73
I3
ssg74
g3550
sg67
(lp3557
S'Baric'
p3558
asbasbasbag60
(g76
g62
NtRp3559
(dp3560
g65
(dp3561
sg74
g3468
sg67
(lp3562
g60
(g81
g62
NtRp3563
(dp3564
g65
(dp3565
g85
g86
ssg74
g3559
sg67
(lp3566
S'registration_id'
p3567
asbag60
(g81
g62
NtRp3568
(dp3569
g65
(dp3570
g92
g93
ssg74
g3559
sg67
(lp3571
S':'
asbag60
(g81
g62
NtRp3572
(dp3573
g65
(dp3574
sg74
g3559
sg67
(lp3575
g60
(g61
g62
NtRp3576
(dp3577
g65
(dp3578
g73
I3
ssg74
g3572
sg67
(lp3579
S''
asbasbasbag60
(g76
g62
NtRp3580
(dp3581
g65
(dp3582
sg74
g3468
sg67
(lp3583
g60
(g81
g62
NtRp3584
(dp3585
g65
(dp3586
g85
g86
ssg74
g3580
sg67
(lp3587
S'registration_key'
p3588
asbag60
(g81
g62
NtRp3589
(dp3590
g65
(dp3591
g92
g93
ssg74
g3580
sg67
(lp3592
S':'
asbag60
(g81
g62
NtRp3593
(dp3594
g65
(dp3595
sg74
g3580
sg67
(lp3596
g60
(g61
g62
NtRp3597
(dp3598
g65
(dp3599
g73
I3
ssg74
g3593
sg67
(lp3600
S''
asbasbasbag60
(g76
g62
NtRp3601
(dp3602
g65
(dp3603
sg74
g3468
sg67
(lp3604
g60
(g81
g62
NtRp3605
(dp3606
g65
(dp3607
g85
g86
ssg74
g3601
sg67
(lp3608
S'reset_password_key'
p3609
asbag60
(g81
g62
NtRp3610
(dp3611
g65
(dp3612
g92
g93
ssg74
g3601
sg67
(lp3613
S':'
asbag60
(g81
g62
NtRp3614
(dp3615
g65
(dp3616
sg74
g3601
sg67
(lp3617
g60
(g61
g62
NtRp3618
(dp3619
g65
(dp3620
g73
I3
ssg74
g3614
sg67
(lp3621
S''
asbasbasbasbasbasbasbag60
(g76
g62
NtRp3622
(dp3623
g65
(dp3624
sg74
g3356
sg67
(lp3625
g60
(g81
g62
NtRp3626
(dp3627
g65
(dp3628
g85
g86
ssg74
g3622
sg67
(lp3629
S'user_groups'
p3630
asbag60
(g81
g62
NtRp3631
(dp3632
g65
(dp3633
g92
g93
ssg74
g3622
sg67
(lp3634
S':'
asbag60
(g81
g62
NtRp3635
(dp3636
g65
(dp3637
sg74
g3622
sg67
(lp3638
g60
(g61
g62
NtRp3639
(dp3640
g65
(dp3641
g73
I4
ssg74
g3635
sg67
(lp3642
g60
(g69
g62
NtRp3643
(dp3644
g65
(dp3645
g73
I3
ssg74
Nsg67
(lp3646
sbasbasbasbasbasbasbasbag60
(g76
g62
NtRp3647
(dp3648
g65
(dp3649
sg74
g3331
sg67
(lp3650
g60
(g81
g62
NtRp3651
(dp3652
g65
(dp3653
g85
g86
ssg74
g3647
sg67
(lp3654
S'flash'
p3655
asbag60
(g81
g62
NtRp3656
(dp3657
g65
(dp3658
g92
g93
ssg74
g3647
sg67
(lp3659
S':'
asbag60
(g81
g62
NtRp3660
(dp3661
g65
(dp3662
sg74
g3647
sg67
(lp3663
g60
(g61
g62
NtRp3664
(dp3665
g65
(dp3666
g73
I5
ssg74
g3660
sg67
(lp3667
S'None'
p3668
asbasbasbag60
(g76
g62
NtRp3669
(dp3670
g65
(dp3671
sg74
g3331
sg67
(lp3672
g60
(g81
g62
NtRp3673
(dp3674
g65
(dp3675
g85
g86
ssg74
g3669
sg67
(lp3676
S'last_orderby'
p3677
asbag60
(g81
g62
NtRp3678
(dp3679
g65
(dp3680
g92
g93
ssg74
g3669
sg67
(lp3681
S':'
asbag60
(g81
g62
NtRp3682
(dp3683
g65
(dp3684
sg74
g3669
sg67
(lp3685
g60
(g61
g62
NtRp3686
(dp3687
g65
(dp3688
g73
I5
ssg74
g3682
sg67
(lp3689
S'None'
p3690
asbasbasbag60
(g76
g62
NtRp3691
(dp3692
g65
(dp3693
sg74
g3331
sg67
(lp3694
g60
(g81
g62
NtRp3695
(dp3696
g65
(dp3697
g85
g86
ssg74
g3691
sg67
(lp3698
S'last_query'
p3699
asbag60
(g81
g62
NtRp3700
(dp3701
g65
(dp3702
g92
g93
ssg74
g3691
sg67
(lp3703
S':'
asbag60
(g81
g62
NtRp3704
(dp3705
g65
(dp3706
sg74
g3691
sg67
(lp3707
g60
(g61
g62
NtRp3708
(dp3709
g65
(dp3710
g73
I5
ssg74
g3704
sg67
(lp3711
S'db.image.id>0'
p3712
asbasbasbasbasbsS'etype'
p3713
S"<type 'exceptions.IndentationError'>"
p3714
sS'date'
p3715
S'Mon Jun  9 11:23:36 2014'
p3716
sS'response'
p3717
g60
(g61
g62
NtRp3718
(dp3719
g65
(dp3720
sg67
(lp3721
g60
(g69
g62
NtRp3722
(dp3723
g65
(dp3724
g73
I5
ssg74
Nsg67
(lp3725
g60
(g76
g62
NtRp3726
(dp3727
g65
(dp3728
sg74
g3722
sg67
(lp3729
g60
(g81
g62
NtRp3730
(dp3731
g65
(dp3732
g85
g86
ssg74
g3726
sg67
(lp3733
g158
asbag60
(g81
g62
NtRp3734
(dp3735
g65
(dp3736
g92
g93
ssg74
g3726
sg67
(lp3737
S':'
asbag60
(g81
g62
NtRp3738
(dp3739
g65
(dp3740
sg74
g3726
sg67
(lp3741
g60
(g61
g62
NtRp3742
(dp3743
g65
(dp3744
g73
I5
ssg74
g3738
sg67
(lp3745
S'<cStringIO.StringO object at 0x77d68e0>'
p3746
asbasbasbag60
(g76
g62
NtRp3747
(dp3748
g65
(dp3749
sg74
g3722
sg67
(lp3750
g60
(g81
g62
NtRp3751
(dp3752
g65
(dp3753
g85
g86
ssg74
g3747
sg67
(lp3754
g246
asbag60
(g81
g62
NtRp3755
(dp3756
g65
(dp3757
g92
g93
ssg74
g3747
sg67
(lp3758
S':'
asbag60
(g81
g62
NtRp3759
(dp3760
g65
(dp3761
sg74
g3747
sg67
(lp3762
g60
(g61
g62
NtRp3763
(dp3764
g65
(dp3765
g73
I5
ssg74
g3759
sg67
(lp3766
g60
(g69
g62
NtRp3767
(dp3768
g65
(dp3769
g73
I4
ssg74
Nsg67
(lp3770
g60
(g76
g62
NtRp3771
(dp3772
g65
(dp3773
sg74
g3767
sg67
(lp3774
g60
(g81
g62
NtRp3775
(dp3776
g65
(dp3777
g85
g86
ssg74
g3771
sg67
(lp3778
S'session_id_final_impulse'
p3779
asbag60
(g81
g62
NtRp3780
(dp3781
g65
(dp3782
g92
g93
ssg74
g3771
sg67
(lp3783
S':'
asbag60
(g81
g62
NtRp3784
(dp3785
g65
(dp3786
sg74
g3771
sg67
(lp3787
g60
(g61
g62
NtRp3788
(dp3789
g65
(dp3790
g73
I4
ssg74
g3784
sg67
(lp3791
g623
ag60
(g69
g62
NtRp3792
(dp3793
g65
(dp3794
g73
I3
ssg74
Nsg67
(lp3795
g60
(g76
g62
NtRp3796
(dp3797
g65
(dp3798
sg74
g3792
sg67
(lp3799
g60
(g81
g62
NtRp3800
(dp3801
g65
(dp3802
g85
g86
ssg74
g3796
sg67
(lp3803
g297
asbag60
(g81
g62
NtRp3804
(dp3805
g65
(dp3806
g92
g93
ssg74
g3796
sg67
(lp3807
S':'
asbag60
(g81
g62
NtRp3808
(dp3809
g65
(dp3810
sg74
g3796
sg67
(lp3811
g60
(g61
g62
NtRp3812
(dp3813
g65
(dp3814
g73
I3
ssg74
g3808
sg67
(lp3815
S''
asbasbasbag60
(g76
g62
NtRp3816
(dp3817
g65
(dp3818
sg74
g3792
sg67
(lp3819
g60
(g81
g62
NtRp3820
(dp3821
g65
(dp3822
g85
g86
ssg74
g3816
sg67
(lp3823
g318
asbag60
(g81
g62
NtRp3824
(dp3825
g65
(dp3826
g92
g93
ssg74
g3816
sg67
(lp3827
S':'
asbag60
(g81
g62
NtRp3828
(dp3829
g65
(dp3830
sg74
g3816
sg67
(lp3831
g60
(g61
g62
NtRp3832
(dp3833
g65
(dp3834
g73
I3
ssg74
g3828
sg67
(lp3835
S''
asbasbasbag60
(g76
g62
NtRp3836
(dp3837
g65
(dp3838
sg74
g3792
sg67
(lp3839
g60
(g81
g62
NtRp3840
(dp3841
g65
(dp3842
g85
g86
ssg74
g3836
sg67
(lp3843
g339
asbag60
(g81
g62
NtRp3844
(dp3845
g65
(dp3846
g92
g93
ssg74
g3836
sg67
(lp3847
S':'
asbag60
(g81
g62
NtRp3848
(dp3849
g65
(dp3850
sg74
g3836
sg67
(lp3851
g60
(g61
g62
NtRp3852
(dp3853
g65
(dp3854
g73
I3
ssg74
g3848
sg67
(lp3855
S''
asbasbasbag60
(g76
g62
NtRp3856
(dp3857
g65
(dp3858
sg74
g3792
sg67
(lp3859
g60
(g81
g62
NtRp3860
(dp3861
g65
(dp3862
g85
g86
ssg74
g3856
sg67
(lp3863
g360
asbag60
(g81
g62
NtRp3864
(dp3865
g65
(dp3866
g92
g93
ssg74
g3856
sg67
(lp3867
S':'
asbag60
(g81
g62
NtRp3868
(dp3869
g65
(dp3870
sg74
g3856
sg67
(lp3871
g60
(g61
g62
NtRp3872
(dp3873
g65
(dp3874
g73
I3
ssg74
g3868
sg67
(lp3875
S''
asbasbasbag60
(g76
g62
NtRp3876
(dp3877
g65
(dp3878
sg74
g3792
sg67
(lp3879
g60
(g81
g62
NtRp3880
(dp3881
g65
(dp3882
g85
g86
ssg74
g3876
sg67
(lp3883
g381
asbag60
(g81
g62
NtRp3884
(dp3885
g65
(dp3886
g92
g93
ssg74
g3876
sg67
(lp3887
S':'
asbag60
(g81
g62
NtRp3888
(dp3889
g65
(dp3890
sg74
g3876
sg67
(lp3891
g60
(g61
g62
NtRp3892
(dp3893
g65
(dp3894
g73
I3
ssg74
g3888
sg67
(lp3895
S'/'
asbasbasbag60
(g76
g62
NtRp3896
(dp3897
g65
(dp3898
sg74
g3792
sg67
(lp3899
g60
(g81
g62
NtRp3900
(dp3901
g65
(dp3902
g85
g86
ssg74
g3896
sg67
(lp3903
g402
asbag60
(g81
g62
NtRp3904
(dp3905
g65
(dp3906
g92
g93
ssg74
g3896
sg67
(lp3907
S':'
asbag60
(g81
g62
NtRp3908
(dp3909
g65
(dp3910
sg74
g3896
sg67
(lp3911
g60
(g61
g62
NtRp3912
(dp3913
g65
(dp3914
g73
I3
ssg74
g3908
sg67
(lp3915
S''
asbasbasbag60
(g76
g62
NtRp3916
(dp3917
g65
(dp3918
sg74
g3792
sg67
(lp3919
g60
(g81
g62
NtRp3920
(dp3921
g65
(dp3922
g85
g86
ssg74
g3916
sg67
(lp3923
g423
asbag60
(g81
g62
NtRp3924
(dp3925
g65
(dp3926
g92
g93
ssg74
g3916
sg67
(lp3927
S':'
asbag60
(g81
g62
NtRp3928
(dp3929
g65
(dp3930
sg74
g3916
sg67
(lp3931
g60
(g61
g62
NtRp3932
(dp3933
g65
(dp3934
g73
I3
ssg74
g3928
sg67
(lp3935
S''
asbasbasbasbasbasbasbasbasbasbasbag60
(g76
g62
NtRp3936
(dp3937
g65
(dp3938
sg74
g3722
sg67
(lp3939
g60
(g81
g62
NtRp3940
(dp3941
g65
(dp3942
g85
g86
ssg74
g3936
sg67
(lp3943
S'delimiters'
p3944
asbag60
(g81
g62
NtRp3945
(dp3946
g65
(dp3947
g92
g93
ssg74
g3936
sg67
(lp3948
S':'
asbag60
(g81
g62
NtRp3949
(dp3950
g65
(dp3951
sg74
g3936
sg67
(lp3952
g60
(g61
g62
NtRp3953
(dp3954
g65
(dp3955
g73
I5
ssg74
g3949
sg67
(lp3956
g60
(g69
g62
NtRp3957
(dp3958
g65
(dp3959
g73
I4
ssg74
Nsg67
(lp3960
g60
(g76
g62
NtRp3961
(dp3962
g65
(dp3963
sg74
g3957
sg67
(lp3964
g60
(g81
g62
NtRp3965
(dp3966
g65
(dp3967
sg74
g3961
sg67
(lp3968
g60
(g61
g62
NtRp3969
(dp3970
g65
(dp3971
g73
I4
ssg74
g3965
sg67
(lp3972
S'{{'
p3973
asbasbasbag60
(g76
g62
NtRp3974
(dp3975
g65
(dp3976
sg74
g3957
sg67
(lp3977
g60
(g81
g62
NtRp3978
(dp3979
g65
(dp3980
sg74
g3974
sg67
(lp3981
g60
(g61
g62
NtRp3982
(dp3983
g65
(dp3984
g73
I4
ssg74
g3978
sg67
(lp3985
S'}}'
p3986
asbasbasbasbasbasbasbag60
(g76
g62
NtRp3987
(dp3988
g65
(dp3989
sg74
g3722
sg67
(lp3990
g60
(g81
g62
NtRp3991
(dp3992
g65
(dp3993
g85
g86
ssg74
g3987
sg67
(lp3994
S'files'
p3995
asbag60
(g81
g62
NtRp3996
(dp3997
g65
(dp3998
g92
g93
ssg74
g3987
sg67
(lp3999
S':'
asbag60
(g81
g62
NtRp4000
(dp4001
g65
(dp4002
sg74
g3987
sg67
(lp4003
g60
(g61
g62
NtRp4004
(dp4005
g65
(dp4006
g73
I5
ssg74
g4000
sg67
(lp4007
g60
(g69
g62
NtRp4008
(dp4009
g65
(dp4010
g73
I4
ssg74
Nsg67
(lp4011
sbasbasbasbag60
(g76
g62
NtRp4012
(dp4013
g65
(dp4014
sg74
g3722
sg67
(lp4015
g60
(g81
g62
NtRp4016
(dp4017
g65
(dp4018
g85
g86
ssg74
g4012
sg67
(lp4019
S'flash'
p4020
asbag60
(g81
g62
NtRp4021
(dp4022
g65
(dp4023
g92
g93
ssg74
g4012
sg67
(lp4024
S':'
asbag60
(g81
g62
NtRp4025
(dp4026
g65
(dp4027
sg74
g4012
sg67
(lp4028
g60
(g61
g62
NtRp4029
(dp4030
g65
(dp4031
g73
I5
ssg74
g4025
sg67
(lp4032
S''
asbasbasbag60
(g76
g62
NtRp4033
(dp4034
g65
(dp4035
sg74
g3722
sg67
(lp4036
g60
(g81
g62
NtRp4037
(dp4038
g65
(dp4039
g85
g86
ssg74
g4033
sg67
(lp4040
S'generic_patterns'
p4041
asbag60
(g81
g62
NtRp4042
(dp4043
g65
(dp4044
g92
g93
ssg74
g4033
sg67
(lp4045
S':'
asbag60
(g81
g62
NtRp4046
(dp4047
g65
(dp4048
sg74
g4033
sg67
(lp4049
g60
(g61
g62
NtRp4050
(dp4051
g65
(dp4052
g73
I5
ssg74
g4046
sg67
(lp4053
g60
(g69
g62
NtRp4054
(dp4055
g65
(dp4056
g73
I4
ssg74
Nsg67
(lp4057
sbasbasbasbag60
(g76
g62
NtRp4058
(dp4059
g65
(dp4060
sg74
g3722
sg67
(lp4061
g60
(g81
g62
NtRp4062
(dp4063
g65
(dp4064
g85
g86
ssg74
g4058
sg67
(lp4065
S'google_analytics_id'
p4066
asbag60
(g81
g62
NtRp4067
(dp4068
g65
(dp4069
g92
g93
ssg74
g4058
sg67
(lp4070
S':'
asbag60
(g81
g62
NtRp4071
(dp4072
g65
(dp4073
sg74
g4058
sg67
(lp4074
g60
(g61
g62
NtRp4075
(dp4076
g65
(dp4077
g73
I5
ssg74
g4071
sg67
(lp4078
S'None'
p4079
asbasbasbag60
(g76
g62
NtRp4080
(dp4081
g65
(dp4082
sg74
g3722
sg67
(lp4083
g60
(g81
g62
NtRp4084
(dp4085
g65
(dp4086
g85
g86
ssg74
g4080
sg67
(lp4087
S'headers'
p4088
asbag60
(g81
g62
NtRp4089
(dp4090
g65
(dp4091
g92
g93
ssg74
g4080
sg67
(lp4092
S':'
asbag60
(g81
g62
NtRp4093
(dp4094
g65
(dp4095
sg74
g4080
sg67
(lp4096
g60
(g61
g62
NtRp4097
(dp4098
g65
(dp4099
g73
I5
ssg74
g4093
sg67
(lp4100
g60
(g69
g62
NtRp4101
(dp4102
g65
(dp4103
g73
I4
ssg74
Nsg67
(lp4104
g60
(g76
g62
NtRp4105
(dp4106
g65
(dp4107
sg74
g4101
sg67
(lp4108
g60
(g81
g62
NtRp4109
(dp4110
g65
(dp4111
g85
g86
ssg74
g4105
sg67
(lp4112
S'X-Powered-By'
p4113
asbag60
(g81
g62
NtRp4114
(dp4115
g65
(dp4116
g92
g93
ssg74
g4105
sg67
(lp4117
S':'
asbag60
(g81
g62
NtRp4118
(dp4119
g65
(dp4120
sg74
g4105
sg67
(lp4121
g60
(g61
g62
NtRp4122
(dp4123
g65
(dp4124
g73
I4
ssg74
g4118
sg67
(lp4125
S'web2py'
p4126
asbasbasbasbasbasbasbag60
(g76
g62
NtRp4127
(dp4128
g65
(dp4129
sg74
g3722
sg67
(lp4130
g60
(g81
g62
NtRp4131
(dp4132
g65
(dp4133
g85
g86
ssg74
g4127
sg67
(lp4134
S'menu'
p4135
asbag60
(g81
g62
NtRp4136
(dp4137
g65
(dp4138
g92
g93
ssg74
g4127
sg67
(lp4139
S':'
asbag60
(g81
g62
NtRp4140
(dp4141
g65
(dp4142
sg74
g4127
sg67
(lp4143
g60
(g61
g62
NtRp4144
(dp4145
g65
(dp4146
g73
I5
ssg74
g4140
sg67
(lp4147
g60
(g69
g62
NtRp4148
(dp4149
g65
(dp4150
g73
I4
ssg74
Nsg67
(lp4151
g60
(g76
g62
NtRp4152
(dp4153
g65
(dp4154
sg74
g4148
sg67
(lp4155
g60
(g81
g62
NtRp4156
(dp4157
g65
(dp4158
sg74
g4152
sg67
(lp4159
g60
(g61
g62
NtRp4160
(dp4161
g65
(dp4162
g73
I4
ssg74
g4156
sg67
(lp4163
g60
(g69
g62
NtRp4164
(dp4165
g65
(dp4166
g73
I3
ssg74
Nsg67
(lp4167
g60
(g76
g62
NtRp4168
(dp4169
g65
(dp4170
sg74
g4164
sg67
(lp4171
g60
(g81
g62
NtRp4172
(dp4173
g65
(dp4174
sg74
g4168
sg67
(lp4175
g60
(g61
g62
NtRp4176
(dp4177
g65
(dp4178
g73
I3
ssg74
g4172
sg67
(lp4179
cgluon.languages
lazyT_unpickle
p4180
(S't\x04\x00\x00\x00Home'
tRp4181
asbasbasbag60
(g76
g62
NtRp4182
(dp4183
g65
(dp4184
sg74
g4164
sg67
(lp4185
g60
(g81
g62
NtRp4186
(dp4187
g65
(dp4188
sg74
g4182
sg67
(lp4189
g60
(g61
g62
NtRp4190
(dp4191
g65
(dp4192
g73
I3
ssg74
g4186
sg67
(lp4193
g103
asbasbasbag60
(g76
g62
NtRp4194
(dp4195
g65
(dp4196
sg74
g4164
sg67
(lp4197
g60
(g81
g62
NtRp4198
(dp4199
g65
(dp4200
sg74
g4194
sg67
(lp4201
g60
(g61
g62
NtRp4202
(dp4203
g65
(dp4204
g73
I3
ssg74
g4198
sg67
(lp4205
S'/Final_Impulse/default/index'
p4206
asbasbasbag60
(g76
g62
NtRp4207
(dp4208
g65
(dp4209
sg74
g4164
sg67
(lp4210
g60
(g81
g62
NtRp4211
(dp4212
g65
(dp4213
sg74
g4207
sg67
(lp4214
g60
(g61
g62
NtRp4215
(dp4216
g65
(dp4217
g73
I3
ssg74
g4211
sg67
(lp4218
g60
(g69
g62
NtRp4219
(dp4220
g65
(dp4221
g73
I2
ssg74
Nsg67
(lp4222
sbasbasbasbasbasbasbasbag60
(g76
g62
NtRp4223
(dp4224
g65
(dp4225
sg74
g4148
sg67
(lp4226
g60
(g81
g62
NtRp4227
(dp4228
g65
(dp4229
sg74
g4223
sg67
(lp4230
g60
(g61
g62
NtRp4231
(dp4232
g65
(dp4233
g73
I4
ssg74
g4227
sg67
(lp4234
g60
(g69
g62
NtRp4235
(dp4236
g65
(dp4237
g73
I3
ssg74
Nsg67
(lp4238
g60
(g76
g62
NtRp4239
(dp4240
g65
(dp4241
sg74
g4235
sg67
(lp4242
g60
(g81
g62
NtRp4243
(dp4244
g65
(dp4245
sg74
g4239
sg67
(lp4246
g60
(g61
g62
NtRp4247
(dp4248
g65
(dp4249
g73
I3
ssg74
g4243
sg67
(lp4250
g60
(cgluon.html
SPAN
p4251
g62
NtRp4252
(dp4253
g65
(dp4254
S'_class'
p4255
S'highlighted'
p4256
ssg74
Nsg67
(lp4257
g4126
asbasbasbasbag60
(g76
g62
NtRp4258
(dp4259
g65
(dp4260
sg74
g4235
sg67
(lp4261
g60
(g81
g62
NtRp4262
(dp4263
g65
(dp4264
sg74
g4258
sg67
(lp4265
g60
(g61
g62
NtRp4266
(dp4267
g65
(dp4268
g73
I3
ssg74
g4262
sg67
(lp4269
g103
asbasbasbag60
(g76
g62
NtRp4270
(dp4271
g65
(dp4272
sg74
g4235
sg67
(lp4273
g60
(g81
g62
NtRp4274
(dp4275
g65
(dp4276
sg74
g4270
sg67
(lp4277
g60
(g61
g62
NtRp4278
(dp4279
g65
(dp4280
g73
I3
ssg74
g4274
sg67
(lp4281
S'http://web2py.com'
p4282
asbasbasbag60
(g76
g62
NtRp4283
(dp4284
g65
(dp4285
sg74
g4235
sg67
(lp4286
g60
(g81
g62
NtRp4287
(dp4288
g65
(dp4289
sg74
g4283
sg67
(lp4290
g60
(g61
g62
NtRp4291
(dp4292
g65
(dp4293
g73
I3
ssg74
g4287
sg67
(lp4294
g60
(g69
g62
NtRp4295
(dp4296
g65
(dp4297
g73
I2
ssg74
Nsg67
(lp4298
g60
(g76
g62
NtRp4299
(dp4300
g65
(dp4301
sg74
g4295
sg67
(lp4302
g60
(g81
g62
NtRp4303
(dp4304
g65
(dp4305
sg74
g4299
sg67
(lp4306
g60
(g61
g62
NtRp4307
(dp4308
g65
(dp4309
g73
I2
ssg74
g4303
sg67
(lp4310
g60
(g69
g62
NtRp4311
(dp4312
g65
(dp4313
g73
I1
ssg74
Nsg67
(lp4314
g60
(g76
g62
NtRp4315
(dp4316
g65
(dp4317
sg74
g4311
sg67
(lp4318
g60
(g81
g62
NtRp4319
(dp4320
g65
(dp4321
sg74
g4315
sg67
(lp4322
g60
(g61
g62
NtRp4323
(dp4324
g65
(dp4325
g73
I1
ssg74
g4319
sg67
(lp4326
g4180
(S's\x08\x00\x00\x00My Sites'
tRp4327
asbasbasbag60
(g76
g62
NtRp4328
(dp4329
g65
(dp4330
sg74
g4311
sg67
(lp4331
g60
(g81
g62
NtRp4332
(dp4333
g65
(dp4334
sg74
g4328
sg67
(lp4335
g60
(g61
g62
NtRp4336
(dp4337
g65
(dp4338
g73
I1
ssg74
g4332
sg67
(lp4339
I00
asbasbasbag60
(g76
g62
NtRp4340
(dp4341
g65
(dp4342
sg74
g4311
sg67
(lp4343
g60
(g81
g62
NtRp4344
(dp4345
g65
(dp4346
sg74
g4340
sg67
(lp4347
g60
(g61
g62
NtRp4348
(dp4349
g65
(dp4350
g73
I1
ssg74
g4344
sg67
(lp4351
S'/admin/default/site'
p4352
asbasbasbasbasbasbasbag60
(g76
g62
NtRp4353
(dp4354
g65
(dp4355
sg74
g4295
sg67
(lp4356
g60
(g81
g62
NtRp4357
(dp4358
g65
(dp4359
sg74
g4353
sg67
(lp4360
g60
(g61
g62
NtRp4361
(dp4362
g65
(dp4363
g73
I2
ssg74
g4357
sg67
(lp4364
g60
(g69
g62
NtRp4365
(dp4366
g65
(dp4367
g73
I1
ssg74
Nsg67
(lp4368
g60
(g76
g62
NtRp4369
(dp4370
g65
(dp4371
sg74
g4365
sg67
(lp4372
g60
(g81
g62
NtRp4373
(dp4374
g65
(dp4375
sg74
g4369
sg67
(lp4376
g60
(g61
g62
NtRp4377
(dp4378
g65
(dp4379
g73
I1
ssg74
g4373
sg67
(lp4380
g4180
(S's\x08\x00\x00\x00This App'
tRp4381
asbasbasbag60
(g76
g62
NtRp4382
(dp4383
g65
(dp4384
sg74
g4365
sg67
(lp4385
g60
(g81
g62
NtRp4386
(dp4387
g65
(dp4388
sg74
g4382
sg67
(lp4389
g60
(g61
g62
NtRp4390
(dp4391
g65
(dp4392
g73
I1
ssg74
g4386
sg67
(lp4393
I00
asbasbasbag60
(g76
g62
NtRp4394
(dp4395
g65
(dp4396
sg74
g4365
sg67
(lp4397
g60
(g81
g62
NtRp4398
(dp4399
g65
(dp4400
sg74
g4394
sg67
(lp4401
g60
(g61
g62
NtRp4402
(dp4403
g65
(dp4404
g73
I1
ssg74
g4398
sg67
(lp4405
S'/admin/default/design/Final_Impulse'
p4406
asbasbasbag60
(g76
g62
NtRp4407
(dp4408
g65
(dp4409
sg74
g4365
sg67
(lp4410
g60
(g81
g62
NtRp4411
(dp4412
g65
(dp4413
sg74
g4407
sg67
(lp4414
g60
(g61
g62
NtRp4415
(dp4416
g65
(dp4417
g73
I1
ssg74
g4411
sg67
(lp4418
(lp4419
(g4180
(S't\n\x00\x00\x00Controller'
tRp4420
I00
S'/admin/default/edit/Final_Impulse/controllers/default.py'
tp4421
a(g4180
(S't\x04\x00\x00\x00View'
tRp4422
I00
S'/admin/default/edit/Final_Impulse/views/default/index.html'
tp4423
a(g4180
(S't\x06\x00\x00\x00Layout'
tRp4424
I00
S'/admin/default/edit/Final_Impulse/views/layout.html'
tp4425
a(g4180
(S't\n\x00\x00\x00Stylesheet'
tRp4426
I00
S'/admin/default/edit/Final_Impulse/static/css/web2py.css'
tp4427
a(g4180
(S's\x08\x00\x00\x00DB Model'
tRp4428
I00
S'/admin/default/edit/Final_Impulse/models/db.py'
tp4429
a(g4180
(S's\n\x00\x00\x00Menu Model'
tRp4430
I00
S'/admin/default/edit/Final_Impulse/models/menu.py'
tp4431
a(g4180
(S't\x08\x00\x00\x00Database'
tRp4432
I00
S'/Final_Impulse/appadmin/index'
tp4433
a(g4180
(S't\x06\x00\x00\x00Errors'
tRp4434
I00
S'/admin/default/errors/Final_Impulse'
tp4435
a(g4180
(S't\x05\x00\x00\x00About'
tRp4436
I00
S'/admin/default/about/Final_Impulse'
tp4437
aasbasbasbasbasbasbasbag60
(g76
g62
NtRp4438
(dp4439
g65
(dp4440
sg74
g4295
sg67
(lp4441
g60
(g81
g62
NtRp4442
(dp4443
g65
(dp4444
sg74
g4438
sg67
(lp4445
g60
(g61
g62
NtRp4446
(dp4447
g65
(dp4448
g73
I2
ssg74
g4442
sg67
(lp4449
g60
(g69
g62
NtRp4450
(dp4451
g65
(dp4452
g73
I1
ssg74
Nsg67
(lp4453
g60
(g76
g62
NtRp4454
(dp4455
g65
(dp4456
sg74
g4450
sg67
(lp4457
g60
(g81
g62
NtRp4458
(dp4459
g65
(dp4460
sg74
g4454
sg67
(lp4461
g60
(g61
g62
NtRp4462
(dp4463
g65
(dp4464
g73
I1
ssg74
g4458
sg67
(lp4465
S'web2py.com'
p4466
asbasbasbag60
(g76
g62
NtRp4467
(dp4468
g65
(dp4469
sg74
g4450
sg67
(lp4470
g60
(g81
g62
NtRp4471
(dp4472
g65
(dp4473
sg74
g4467
sg67
(lp4474
g60
(g61
g62
NtRp4475
(dp4476
g65
(dp4477
g73
I1
ssg74
g4471
sg67
(lp4478
I00
asbasbasbag60
(g76
g62
NtRp4479
(dp4480
g65
(dp4481
sg74
g4450
sg67
(lp4482
g60
(g81
g62
NtRp4483
(dp4484
g65
(dp4485
sg74
g4479
sg67
(lp4486
g60
(g61
g62
NtRp4487
(dp4488
g65
(dp4489
g73
I1
ssg74
g4483
sg67
(lp4490
S'http://www.web2py.com'
p4491
asbasbasbag60
(g76
g62
NtRp4492
(dp4493
g65
(dp4494
sg74
g4450
sg67
(lp4495
g60
(g81
g62
NtRp4496
(dp4497
g65
(dp4498
sg74
g4492
sg67
(lp4499
g60
(g61
g62
NtRp4500
(dp4501
g65
(dp4502
g73
I1
ssg74
g4496
sg67
(lp4503
(lp4504
(g4180
(S't\x08\x00\x00\x00Download'
tRp4505
I00
S'http://www.web2py.com/examples/default/download'
p4506
tp4507
a(g4180
(S't\x07\x00\x00\x00Support'
tRp4508
I00
S'http://www.web2py.com/examples/default/support'
p4509
tp4510
a(g4180
(S't\x04\x00\x00\x00Demo'
tRp4511
I00
S'http://web2py.com/demo_admin'
p4512
tp4513
a(g4180
(S's\x0e\x00\x00\x00Quick Examples'
tRp4514
I00
S'http://web2py.com/examples/default/examples'
p4515
tp4516
a(g4180
(S't\x03\x00\x00\x00FAQ'
tRp4517
I00
S'http://web2py.com/AlterEgo'
p4518
tp4519
a(g4180
(S't\x06\x00\x00\x00Videos'
tRp4520
I00
S'http://www.web2py.com/examples/default/videos/'
p4521
tp4522
a(g4180
(S's\x11\x00\x00\x00Free Applications'
tRp4523
I00
S'http://web2py.com/appliances'
p4524
tp4525
a(g4180
(S't\x07\x00\x00\x00Plugins'
tRp4526
I00
S'http://web2py.com/plugins'
p4527
tp4528
a(g4180
(S't\x07\x00\x00\x00Layouts'
tRp4529
I00
S'http://web2py.com/layouts'
p4530
tp4531
a(g4180
(S't\x07\x00\x00\x00Recipes'
tRp4532
I00
S'http://web2pyslices.com/'
p4533
tp4534
a(g4180
(S't\x08\x00\x00\x00Semantic'
tRp4535
I00
S'http://web2py.com/semantic'
p4536
tp4537
aasbasbasbasbasbasbasbag60
(g76
g62
NtRp4538
(dp4539
g65
(dp4540
sg74
g4295
sg67
(lp4541
g60
(g81
g62
NtRp4542
(dp4543
g65
(dp4544
sg74
g4538
sg67
(lp4545
g60
(g61
g62
NtRp4546
(dp4547
g65
(dp4548
g73
I2
ssg74
g4542
sg67
(lp4549
g60
(g69
g62
NtRp4550
(dp4551
g65
(dp4552
g73
I1
ssg74
Nsg67
(lp4553
g60
(g76
g62
NtRp4554
(dp4555
g65
(dp4556
sg74
g4550
sg67
(lp4557
g60
(g81
g62
NtRp4558
(dp4559
g65
(dp4560
sg74
g4554
sg67
(lp4561
g60
(g61
g62
NtRp4562
(dp4563
g65
(dp4564
g73
I1
ssg74
g4558
sg67
(lp4565
g4180
(S't\r\x00\x00\x00Documentation'
tRp4566
asbasbasbag60
(g76
g62
NtRp4567
(dp4568
g65
(dp4569
sg74
g4550
sg67
(lp4570
g60
(g81
g62
NtRp4571
(dp4572
g65
(dp4573
sg74
g4567
sg67
(lp4574
g60
(g61
g62
NtRp4575
(dp4576
g65
(dp4577
g73
I1
ssg74
g4571
sg67
(lp4578
I00
asbasbasbag60
(g76
g62
NtRp4579
(dp4580
g65
(dp4581
sg74
g4550
sg67
(lp4582
g60
(g81
g62
NtRp4583
(dp4584
g65
(dp4585
sg74
g4579
sg67
(lp4586
g60
(g61
g62
NtRp4587
(dp4588
g65
(dp4589
g73
I1
ssg74
g4583
sg67
(lp4590
S'http://www.web2py.com/book'
p4591
asbasbasbag60
(g76
g62
NtRp4592
(dp4593
g65
(dp4594
sg74
g4550
sg67
(lp4595
g60
(g81
g62
NtRp4596
(dp4597
g65
(dp4598
sg74
g4592
sg67
(lp4599
g60
(g61
g62
NtRp4600
(dp4601
g65
(dp4602
g73
I1
ssg74
g4596
sg67
(lp4603
(lp4604
(g4180
(S't\x07\x00\x00\x00Preface'
tRp4605
I00
S'http://www.web2py.com/book/default/chapter/00'
p4606
tp4607
a(g4180
(S't\x0c\x00\x00\x00Introduction'
tRp4608
I00
S'http://www.web2py.com/book/default/chapter/01'
p4609
tp4610
a(g4180
(S't\x06\x00\x00\x00Python'
tRp4611
I00
S'http://www.web2py.com/book/default/chapter/02'
p4612
tp4613
a(g4180
(S't\x08\x00\x00\x00Overview'
tRp4614
I00
S'http://www.web2py.com/book/default/chapter/03'
p4615
tp4616
a(g4180
(S's\x08\x00\x00\x00The Core'
tRp4617
I00
S'http://www.web2py.com/book/default/chapter/04'
p4618
tp4619
a(g4180
(S's\t\x00\x00\x00The Views'
tRp4620
I00
S'http://www.web2py.com/book/default/chapter/05'
p4621
tp4622
a(g4180
(S't\x08\x00\x00\x00Database'
tRp4623
I00
S'http://www.web2py.com/book/default/chapter/06'
p4624
tp4625
a(g4180
(S's\x14\x00\x00\x00Forms and Validators'
tRp4626
I00
S'http://www.web2py.com/book/default/chapter/07'
p4627
tp4628
a(g4180
(S's\r\x00\x00\x00Email and SMS'
tRp4629
I00
S'http://www.web2py.com/book/default/chapter/08'
p4630
tp4631
a(g4180
(S's\x0e\x00\x00\x00Access Control'
tRp4632
I00
S'http://www.web2py.com/book/default/chapter/09'
p4633
tp4634
a(g4180
(S't\x08\x00\x00\x00Services'
tRp4635
I00
S'http://www.web2py.com/book/default/chapter/10'
p4636
tp4637
a(g4180
(S's\x0c\x00\x00\x00Ajax Recipes'
tRp4638
I00
S'http://www.web2py.com/book/default/chapter/11'
p4639
tp4640
a(g4180
(S's\x16\x00\x00\x00Components and Plugins'
tRp4641
I00
S'http://www.web2py.com/book/default/chapter/12'
p4642
tp4643
a(g4180
(S's\x12\x00\x00\x00Deployment Recipes'
tRp4644
I00
S'http://www.web2py.com/book/default/chapter/13'
p4645
tp4646
a(g4180
(S's\r\x00\x00\x00Other Recipes'
tRp4647
I00
S'http://www.web2py.com/book/default/chapter/14'
p4648
tp4649
a(g4180
(S's\r\x00\x00\x00Buy this book'
tRp4650
I00
S'http://stores.lulu.com/web2py'
p4651
tp4652
aasbasbasbasbasbasbasbag60
(g76
g62
NtRp4653
(dp4654
g65
(dp4655
sg74
g4295
sg67
(lp4656
g60
(g81
g62
NtRp4657
(dp4658
g65
(dp4659
sg74
g4653
sg67
(lp4660
g60
(g61
g62
NtRp4661
(dp4662
g65
(dp4663
g73
I2
ssg74
g4657
sg67
(lp4664
g60
(g69
g62
NtRp4665
(dp4666
g65
(dp4667
g73
I1
ssg74
Nsg67
(lp4668
g60
(g76
g62
NtRp4669
(dp4670
g65
(dp4671
sg74
g4665
sg67
(lp4672
g60
(g81
g62
NtRp4673
(dp4674
g65
(dp4675
sg74
g4669
sg67
(lp4676
g60
(g61
g62
NtRp4677
(dp4678
g65
(dp4679
g73
I1
ssg74
g4673
sg67
(lp4680
g4180
(S't\t\x00\x00\x00Community'
tRp4681
asbasbasbag60
(g76
g62
NtRp4682
(dp4683
g65
(dp4684
sg74
g4665
sg67
(lp4685
g60
(g81
g62
NtRp4686
(dp4687
g65
(dp4688
sg74
g4682
sg67
(lp4689
g60
(g61
g62
NtRp4690
(dp4691
g65
(dp4692
g73
I1
ssg74
g4686
sg67
(lp4693
I00
asbasbasbag60
(g76
g62
NtRp4694
(dp4695
g65
(dp4696
sg74
g4665
sg67
(lp4697
g60
(g81
g62
NtRp4698
(dp4699
g65
(dp4700
sg74
g4694
sg67
(lp4701
g60
(g61
g62
NtRp4702
(dp4703
g65
(dp4704
g73
I1
ssg74
g4698
sg67
(lp4705
Nasbasbasbag60
(g76
g62
NtRp4706
(dp4707
g65
(dp4708
sg74
g4665
sg67
(lp4709
g60
(g81
g62
NtRp4710
(dp4711
g65
(dp4712
sg74
g4706
sg67
(lp4713
g60
(g61
g62
NtRp4714
(dp4715
g65
(dp4716
g73
I1
ssg74
g4710
sg67
(lp4717
(lp4718
(g4180
(S't\x06\x00\x00\x00Groups'
tRp4719
I00
S'http://www.web2py.com/examples/default/usergroups'
p4720
tp4721
a(g4180
(S't\x07\x00\x00\x00Twitter'
tRp4722
I00
S'http://twitter.com/web2py'
p4723
tp4724
a(g4180
(S's\t\x00\x00\x00Live Chat'
tRp4725
I00
S'http://webchat.freenode.net/?channels=web2py'
p4726
tp4727
aasbasbasbasbasbasbasbag60
(g76
g62
NtRp4728
(dp4729
g65
(dp4730
sg74
g4295
sg67
(lp4731
g60
(g81
g62
NtRp4732
(dp4733
g65
(dp4734
sg74
g4728
sg67
(lp4735
g60
(g61
g62
NtRp4736
(dp4737
g65
(dp4738
g73
I2
ssg74
g4732
sg67
(lp4739
g60
(g69
g62
NtRp4740
(dp4741
g65
(dp4742
g73
I1
ssg74
Nsg67
(lp4743
g60
(g76
g62
NtRp4744
(dp4745
g65
(dp4746
sg74
g4740
sg67
(lp4747
g60
(g81
g62
NtRp4748
(dp4749
g65
(dp4750
sg74
g4744
sg67
(lp4751
g60
(g61
g62
NtRp4752
(dp4753
g65
(dp4754
g73
I1
ssg74
g4748
sg67
(lp4755
g4180
(S't\x07\x00\x00\x00Plugins'
tRp4756
asbasbasbag60
(g76
g62
NtRp4757
(dp4758
g65
(dp4759
sg74
g4740
sg67
(lp4760
g60
(g81
g62
NtRp4761
(dp4762
g65
(dp4763
sg74
g4757
sg67
(lp4764
g60
(g61
g62
NtRp4765
(dp4766
g65
(dp4767
g73
I1
ssg74
g4761
sg67
(lp4768
I00
asbasbasbag60
(g76
g62
NtRp4769
(dp4770
g65
(dp4771
sg74
g4740
sg67
(lp4772
g60
(g81
g62
NtRp4773
(dp4774
g65
(dp4775
sg74
g4769
sg67
(lp4776
g60
(g61
g62
NtRp4777
(dp4778
g65
(dp4779
g73
I1
ssg74
g4773
sg67
(lp4780
Nasbasbasbag60
(g76
g62
NtRp4781
(dp4782
g65
(dp4783
sg74
g4740
sg67
(lp4784
g60
(g81
g62
NtRp4785
(dp4786
g65
(dp4787
sg74
g4781
sg67
(lp4788
g60
(g61
g62
NtRp4789
(dp4790
g65
(dp4791
g73
I1
ssg74
g4785
sg67
(lp4792
(lp4793
(S'plugin_wiki'
p4794
I00
S'http://web2py.com/examples/default/download'
p4795
tp4796
a(g4180
(S's\r\x00\x00\x00Other Plugins'
tRp4797
I00
g4527
tp4798
a(g4180
(S's\x0e\x00\x00\x00Layout Plugins'
tRp4799
I00
g4530
tp4800
aasbasbasbasbasbasbasbasbasbasbasbasbasbasbasbasbasbasbasbag60
(g76
g62
NtRp4801
(dp4802
g65
(dp4803
sg74
g3722
sg67
(lp4804
g60
(g81
g62
NtRp4805
(dp4806
g65
(dp4807
g85
g86
ssg74
g4801
sg67
(lp4808
S'meta'
p4809
asbag60
(g81
g62
NtRp4810
(dp4811
g65
(dp4812
g92
g93
ssg74
g4801
sg67
(lp4813
S':'
asbag60
(g81
g62
NtRp4814
(dp4815
g65
(dp4816
sg74
g4801
sg67
(lp4817
g60
(g61
g62
NtRp4818
(dp4819
g65
(dp4820
g73
I5
ssg74
g4814
sg67
(lp4821
g60
(g69
g62
NtRp4822
(dp4823
g65
(dp4824
g73
I4
ssg74
Nsg67
(lp4825
g60
(g76
g62
NtRp4826
(dp4827
g65
(dp4828
sg74
g4822
sg67
(lp4829
g60
(g81
g62
NtRp4830
(dp4831
g65
(dp4832
g85
g86
ssg74
g4826
sg67
(lp4833
S'author'
p4834
asbag60
(g81
g62
NtRp4835
(dp4836
g65
(dp4837
g92
g93
ssg74
g4826
sg67
(lp4838
S':'
asbag60
(g81
g62
NtRp4839
(dp4840
g65
(dp4841
sg74
g4826
sg67
(lp4842
g60
(g61
g62
NtRp4843
(dp4844
g65
(dp4845
g73
I4
ssg74
g4839
sg67
(lp4846
S'Your Name <you@example.com>'
p4847
asbasbasbag60
(g76
g62
NtRp4848
(dp4849
g65
(dp4850
sg74
g4822
sg67
(lp4851
g60
(g81
g62
NtRp4852
(dp4853
g65
(dp4854
g85
g86
ssg74
g4848
sg67
(lp4855
S'description'
p4856
asbag60
(g81
g62
NtRp4857
(dp4858
g65
(dp4859
g92
g93
ssg74
g4848
sg67
(lp4860
S':'
asbag60
(g81
g62
NtRp4861
(dp4862
g65
(dp4863
sg74
g4848
sg67
(lp4864
g60
(g61
g62
NtRp4865
(dp4866
g65
(dp4867
g73
I4
ssg74
g4861
sg67
(lp4868
S'a cool new app'
p4869
asbasbasbag60
(g76
g62
NtRp4870
(dp4871
g65
(dp4872
sg74
g4822
sg67
(lp4873
g60
(g81
g62
NtRp4874
(dp4875
g65
(dp4876
g85
g86
ssg74
g4870
sg67
(lp4877
S'generator'
p4878
asbag60
(g81
g62
NtRp4879
(dp4880
g65
(dp4881
g92
g93
ssg74
g4870
sg67
(lp4882
S':'
asbag60
(g81
g62
NtRp4883
(dp4884
g65
(dp4885
sg74
g4870
sg67
(lp4886
g60
(g61
g62
NtRp4887
(dp4888
g65
(dp4889
g73
I4
ssg74
g4883
sg67
(lp4890
S'Web2py Web Framework'
p4891
asbasbasbag60
(g76
g62
NtRp4892
(dp4893
g65
(dp4894
sg74
g4822
sg67
(lp4895
g60
(g81
g62
NtRp4896
(dp4897
g65
(dp4898
g85
g86
ssg74
g4892
sg67
(lp4899
S'keywords'
p4900
asbag60
(g81
g62
NtRp4901
(dp4902
g65
(dp4903
g92
g93
ssg74
g4892
sg67
(lp4904
S':'
asbag60
(g81
g62
NtRp4905
(dp4906
g65
(dp4907
sg74
g4892
sg67
(lp4908
g60
(g61
g62
NtRp4909
(dp4910
g65
(dp4911
g73
I4
ssg74
g4905
sg67
(lp4912
S'web2py, python, framework'
p4913
asbasbasbasbasbasbasbag60
(g76
g62
NtRp4914
(dp4915
g65
(dp4916
sg74
g3722
sg67
(lp4917
g60
(g81
g62
NtRp4918
(dp4919
g65
(dp4920
g85
g86
ssg74
g4914
sg67
(lp4921
S'models_to_run'
p4922
asbag60
(g81
g62
NtRp4923
(dp4924
g65
(dp4925
g92
g93
ssg74
g4914
sg67
(lp4926
S':'
asbag60
(g81
g62
NtRp4927
(dp4928
g65
(dp4929
sg74
g4914
sg67
(lp4930
g60
(g61
g62
NtRp4931
(dp4932
g65
(dp4933
g73
I5
ssg74
g4927
sg67
(lp4934
g60
(g69
g62
NtRp4935
(dp4936
g65
(dp4937
g73
I4
ssg74
Nsg67
(lp4938
g60
(g76
g62
NtRp4939
(dp4940
g65
(dp4941
sg74
g4935
sg67
(lp4942
g60
(g81
g62
NtRp4943
(dp4944
g65
(dp4945
sg74
g4939
sg67
(lp4946
g60
(g61
g62
NtRp4947
(dp4948
g65
(dp4949
g73
I4
ssg74
g4943
sg67
(lp4950
S'^\\w+\\.py$'
p4951
asbasbasbag60
(g76
g62
NtRp4952
(dp4953
g65
(dp4954
sg74
g4935
sg67
(lp4955
g60
(g81
g62
NtRp4956
(dp4957
g65
(dp4958
sg74
g4952
sg67
(lp4959
g60
(g61
g62
NtRp4960
(dp4961
g65
(dp4962
g73
I4
ssg74
g4956
sg67
(lp4963
S'^default/\\w+\\.py$'
p4964
asbasbasbag60
(g76
g62
NtRp4965
(dp4966
g65
(dp4967
sg74
g4935
sg67
(lp4968
g60
(g81
g62
NtRp4969
(dp4970
g65
(dp4971
sg74
g4965
sg67
(lp4972
g60
(g61
g62
NtRp4973
(dp4974
g65
(dp4975
g73
I4
ssg74
g4969
sg67
(lp4976
S'^default/index/\\w+\\.py$'
p4977
asbasbasbasbasbasbasbag60
(g76
g62
NtRp4978
(dp4979
g65
(dp4980
sg74
g3722
sg67
(lp4981
g60
(g81
g62
NtRp4982
(dp4983
g65
(dp4984
g85
g86
ssg74
g4978
sg67
(lp4985
S'postprocessing'
p4986
asbag60
(g81
g62
NtRp4987
(dp4988
g65
(dp4989
g92
g93
ssg74
g4978
sg67
(lp4990
S':'
asbag60
(g81
g62
NtRp4991
(dp4992
g65
(dp4993
sg74
g4978
sg67
(lp4994
g60
(g61
g62
NtRp4995
(dp4996
g65
(dp4997
g73
I5
ssg74
g4991
sg67
(lp4998
g60
(g69
g62
NtRp4999
(dp5000
g65
(dp5001
g73
I4
ssg74
Nsg67
(lp5002
sbasbasbasbag60
(g76
g62
NtRp5003
(dp5004
g65
(dp5005
sg74
g3722
sg67
(lp5006
g60
(g81
g62
NtRp5007
(dp5008
g65
(dp5009
g85
g86
ssg74
g5003
sg67
(lp5010
S'session_cookie_expires'
p5011
asbag60
(g81
g62
NtRp5012
(dp5013
g65
(dp5014
g92
g93
ssg74
g5003
sg67
(lp5015
S':'
asbag60
(g81
g62
NtRp5016
(dp5017
g65
(dp5018
sg74
g5003
sg67
(lp5019
g60
(g61
g62
NtRp5020
(dp5021
g65
(dp5022
g73
I5
ssg74
g5016
sg67
(lp5023
S'None'
p5024
asbasbasbag60
(g76
g62
NtRp5025
(dp5026
g65
(dp5027
sg74
g3722
sg67
(lp5028
g60
(g81
g62
NtRp5029
(dp5030
g65
(dp5031
g85
g86
ssg74
g5025
sg67
(lp5032
S'session_data_name'
p5033
asbag60
(g81
g62
NtRp5034
(dp5035
g65
(dp5036
g92
g93
ssg74
g5025
sg67
(lp5037
S':'
asbag60
(g81
g62
NtRp5038
(dp5039
g65
(dp5040
sg74
g5025
sg67
(lp5041
g60
(g61
g62
NtRp5042
(dp5043
g65
(dp5044
g73
I5
ssg74
g5038
sg67
(lp5045
S'session_data_final_impulse'
p5046
asbasbasbag60
(g76
g62
NtRp5047
(dp5048
g65
(dp5049
sg74
g3722
sg67
(lp5050
g60
(g81
g62
NtRp5051
(dp5052
g65
(dp5053
g85
g86
ssg74
g5047
sg67
(lp5054
S'session_file'
p5055
asbag60
(g81
g62
NtRp5056
(dp5057
g65
(dp5058
g92
g93
ssg74
g5047
sg67
(lp5059
S':'
asbag60
(g81
g62
NtRp5060
(dp5061
g65
(dp5062
sg74
g5047
sg67
(lp5063
g60
(g61
g62
NtRp5064
(dp5065
g65
(dp5066
g73
I5
ssg74
g5060
sg67
(lp5067
S"<open file '/Users/abaric/Downloads/web2py/web2py.app/Contents/Resources/applications/Final_Impulse/sessions/127.0.0.1-196d16f0-df2a-4177-8038-20bcfac6a099', mode 'rb+' at 0x9f0bf08>"
p5068
asbasbasbag60
(g76
g62
NtRp5069
(dp5070
g65
(dp5071
sg74
g3722
sg67
(lp5072
g60
(g81
g62
NtRp5073
(dp5074
g65
(dp5075
g85
g86
ssg74
g5069
sg67
(lp5076
S'session_filename'
p5077
asbag60
(g81
g62
NtRp5078
(dp5079
g65
(dp5080
g92
g93
ssg74
g5069
sg67
(lp5081
S':'
asbag60
(g81
g62
NtRp5082
(dp5083
g65
(dp5084
sg74
g5069
sg67
(lp5085
g60
(g61
g62
NtRp5086
(dp5087
g65
(dp5088
g73
I5
ssg74
g5082
sg67
(lp5089
S'/Users/abaric/Downloads/web2py/web2py.app/Contents/Resources/applications/Final_Impulse/sessions/127.0.0.1-196d16f0-df2a-4177-8038-20bcfac6a099'
p5090
asbasbasbag60
(g76
g62
NtRp5091
(dp5092
g65
(dp5093
sg74
g3722
sg67
(lp5094
g60
(g81
g62
NtRp5095
(dp5096
g65
(dp5097
g85
g86
ssg74
g5091
sg67
(lp5098
S'session_id'
p5099
asbag60
(g81
g62
NtRp5100
(dp5101
g65
(dp5102
g92
g93
ssg74
g5091
sg67
(lp5103
S':'
asbag60
(g81
g62
NtRp5104
(dp5105
g65
(dp5106
sg74
g5091
sg67
(lp5107
g60
(g61
g62
NtRp5108
(dp5109
g65
(dp5110
g73
I5
ssg74
g5104
sg67
(lp5111
g623
asbasbasbag60
(g76
g62
NtRp5112
(dp5113
g65
(dp5114
sg74
g3722
sg67
(lp5115
g60
(g81
g62
NtRp5116
(dp5117
g65
(dp5118
g85
g86
ssg74
g5112
sg67
(lp5119
S'session_id_name'
p5120
asbag60
(g81
g62
NtRp5121
(dp5122
g65
(dp5123
g92
g93
ssg74
g5112
sg67
(lp5124
S':'
asbag60
(g81
g62
NtRp5125
(dp5126
g65
(dp5127
sg74
g5112
sg67
(lp5128
g60
(g61
g62
NtRp5129
(dp5130
g65
(dp5131
g73
I5
ssg74
g5125
sg67
(lp5132
g3779
asbasbasbag60
(g76
g62
NtRp5133
(dp5134
g65
(dp5135
sg74
g3722
sg67
(lp5136
g60
(g81
g62
NtRp5137
(dp5138
g65
(dp5139
g85
g86
ssg74
g5133
sg67
(lp5140
S'session_locked'
p5141
asbag60
(g81
g62
NtRp5142
(dp5143
g65
(dp5144
g92
g93
ssg74
g5133
sg67
(lp5145
S':'
asbag60
(g81
g62
NtRp5146
(dp5147
g65
(dp5148
sg74
g5133
sg67
(lp5149
g60
(g61
g62
NtRp5150
(dp5151
g65
(dp5152
g73
I5
ssg74
g5146
sg67
(lp5153
g1876
asbasbasbag60
(g76
g62
NtRp5154
(dp5155
g65
(dp5156
sg74
g3722
sg67
(lp5157
g60
(g81
g62
NtRp5158
(dp5159
g65
(dp5160
g85
g86
ssg74
g5154
sg67
(lp5161
S'session_new'
p5162
asbag60
(g81
g62
NtRp5163
(dp5164
g65
(dp5165
g92
g93
ssg74
g5154
sg67
(lp5166
S':'
asbag60
(g81
g62
NtRp5167
(dp5168
g65
(dp5169
sg74
g5154
sg67
(lp5170
g60
(g61
g62
NtRp5171
(dp5172
g65
(dp5173
g73
I5
ssg74
g5167
sg67
(lp5174
g103
asbasbasbag60
(g76
g62
NtRp5175
(dp5176
g65
(dp5177
sg74
g3722
sg67
(lp5178
g60
(g81
g62
NtRp5179
(dp5180
g65
(dp5181
g85
g86
ssg74
g5175
sg67
(lp5182
S'session_storage_type'
p5183
asbag60
(g81
g62
NtRp5184
(dp5185
g65
(dp5186
g92
g93
ssg74
g5175
sg67
(lp5187
S':'
asbag60
(g81
g62
NtRp5188
(dp5189
g65
(dp5190
sg74
g5175
sg67
(lp5191
g60
(g61
g62
NtRp5192
(dp5193
g65
(dp5194
g73
I5
ssg74
g5188
sg67
(lp5195
g3307
asbasbasbag60
(g76
g62
NtRp5196
(dp5197
g65
(dp5198
sg74
g3722
sg67
(lp5199
g60
(g81
g62
NtRp5200
(dp5201
g65
(dp5202
g85
g86
ssg74
g5196
sg67
(lp5203
S'status'
p5204
asbag60
(g81
g62
NtRp5205
(dp5206
g65
(dp5207
g92
g93
ssg74
g5196
sg67
(lp5208
S':'
asbag60
(g81
g62
NtRp5209
(dp5210
g65
(dp5211
sg74
g5196
sg67
(lp5212
g60
(g61
g62
NtRp5213
(dp5214
g65
(dp5215
g73
I5
ssg74
g5209
sg67
(lp5216
S'200'
p5217
asbasbasbag60
(g76
g62
NtRp5218
(dp5219
g65
(dp5220
sg74
g3722
sg67
(lp5221
g60
(g81
g62
NtRp5222
(dp5223
g65
(dp5224
g85
g86
ssg74
g5218
sg67
(lp5225
S'subtitle'
p5226
asbag60
(g81
g62
NtRp5227
(dp5228
g65
(dp5229
g92
g93
ssg74
g5218
sg67
(lp5230
S':'
asbag60
(g81
g62
NtRp5231
(dp5232
g65
(dp5233
sg74
g5218
sg67
(lp5234
g60
(g61
g62
NtRp5235
(dp5236
g65
(dp5237
g73
I5
ssg74
g5231
sg67
(lp5238
g4180
(S's\r\x00\x00\x00customize me!'
tRp5239
asbasbasbag60
(g76
g62
NtRp5240
(dp5241
g65
(dp5242
sg74
g3722
sg67
(lp5243
g60
(g81
g62
NtRp5244
(dp5245
g65
(dp5246
g85
g86
ssg74
g5240
sg67
(lp5247
S'title'
p5248
asbag60
(g81
g62
NtRp5249
(dp5250
g65
(dp5251
g92
g93
ssg74
g5240
sg67
(lp5252
S':'
asbag60
(g81
g62
NtRp5253
(dp5254
g65
(dp5255
sg74
g5240
sg67
(lp5256
g60
(g61
g62
NtRp5257
(dp5258
g65
(dp5259
g73
I5
ssg74
g5253
sg67
(lp5260
S'Final Impulse'
p5261
asbasbasbag60
(g76
g62
NtRp5262
(dp5263
g65
(dp5264
sg74
g3722
sg67
(lp5265
g60
(g81
g62
NtRp5266
(dp5267
g65
(dp5268
g85
g86
ssg74
g5262
sg67
(lp5269
S'view'
p5270
asbag60
(g81
g62
NtRp5271
(dp5272
g65
(dp5273
g92
g93
ssg74
g5262
sg67
(lp5274
S':'
asbag60
(g81
g62
NtRp5275
(dp5276
g65
(dp5277
sg74
g5262
sg67
(lp5278
g60
(g61
g62
NtRp5279
(dp5280
g65
(dp5281
g73
I5
ssg74
g5275
sg67
(lp5282
S'default/index.html'
p5283
asbasbasbasbasbsS'locals'
p5284
(dp5285
g4
S"'/Users/abaric/Downloads/web2py/web2py.app/Conten...applications/Final_Impulse/controllers/default.py'"
p5286
sg6
S"'from gluon.tools import datetime\\nfrom gluon.tool...prove():\\n\\nresponse._vars=response._caller(index)\\n'"
p5287
sssS'traceback'
p5288
S'Traceback (most recent call last):\n  File "gluon/restricted.py", line 211, in restricted\n  File "gluon/restricted.py", line 194, in compile2\n  File "/Users/abaric/Downloads/web2py/web2py.app/Contents/Resources/applications/Final_Impulse/controllers/default.py", line 181\n    response._vars=response._caller(index)\n           ^\nIndentationError: expected an indented block\n'
p5289
s.