(dp1
S'output'
p2
S"<type 'exceptions.SyntaxError'> Field author_id does not belong to the table"
p3
sS'layer'
p4
S'/Users/abaric/Downloads/web2py/web2py.app/Contents/Resources/applications/Final_Impulse/controllers/default.py'
p5
sS'code'
p6
S"from gluon.tools import datetime\nfrom gluon.tools import Auth\n        \n\ndef user():\n    return dict(form=auth())\n    \n#def load_roles():\n #  session.user_name=auth.user.first_name\n  # session.roles=[]\n   #     \n    #    if auth.has_membership('teacher'):\n     #       session.user_teacher_id=db(db.teacher.email==auth.user.email).select().first().id\n      #      t=('teacher','load_courses',session.user_teacher_id)\n       #     session.roles.append(t)\n        #    \n        #if auth.has_membership('advisor'):\n          #  session.user_advisor_id=db(db.advisor.email==auth.user.email).select().first().id\n           # a=('advisor','load_advisees',session.user_advisor_id)\n            #session.roles.append(a)\n            #\n        #if auth.has_membership('division_level'):\n         #   session.user_division_level_id=db(db.division_level.email==auth.user.email).select().first().id\n          #  divl=('division level','load_departments',session.user_division_level_id)\n           # session.roles.append(divl)\n                                      \ndef index():\n    return locals()\n\ndef download():\n    return response.download(request, db)\n\ndef show_image_comments():\n    image_form=SQLFORM(db.image,fields=['title','file'],labels={'file':'Your Image'})\n    image_form.vars.author_id=auth.user.id\n    if image_form.process().accepted:\n        response.flash='image post submitted!'\n    images=db(db.image).select(db.image.ALL, orderby=db.image.id)\n    \n    d={}\n    for image in images:\n        comments=db((db.image_comment.image_id==image.id) &\\\n                   (db.auth_user.id==db.image_comment.author_id)).select() \n        tuple_list=[]       \n        for comment in comments:\n            author=('%s %s')%(comment.auth_user.first_name,comment.auth_user.last_name)\n            body=('%s')%(comment.image_comment.body)\n            t=(author,body)\n            tuple_list.append(t)\n        d[image.id]=tuple_list\n  \n    form = SQLFORM(db.writing_comment)\n    if form.process().accepted:\n        response.flash = 'your comment is posted'\n    #images = db(db.image_comment.image_id==image.id).select()\n    return locals()\n    \ndef show_writing_comments():\n    writing_form=SQLFORM(db.writing,fields=['title','body'],labels={'body':'Insert your post'})\n    writing_form.vars.author_id=auth.user.id\n    if writing_form.process().accepted:\n        response.flash='writing post submitted!'\n   \n    writings=db(db.writing).select(db.writing.ALL, orderby=db.writing.id)\n    d={}\n    for writing in writings:\n        comments=db((db.writing_comment.writing_id==writing.id) &\\\n                   (db.auth_user.id==db.writing_comment.author_id)).select() \n        tuple_list=[]       \n        for comment in comments:\n            author=('%s %s')%(comment.auth_user.first_name,comment.auth_user.last_name)\n            body=('%s')%(comment.writing_comment.body)\n            t=(author,body)\n            tuple_list.append(t)\n        d[writing.id]=tuple_list\n  \n    form = SQLFORM(db.writing_comment)\n    if form.process().accepted:\n        response.flash = 'your comment is posted'\n    #comments = db(db.writing_comment.writing_id==writing.id).select()\n    return locals()\n\ndef show_video_comments():\n    video_form=SQLFORM(db.video,fields=['title','url_str'],labels={'url_str':'Insert url string per above directions'})\n    video_form.vars.author_id=auth.user.id\n    if video_form.process().accepted:\n        response.flash='video post submitted!'\n    \n    videos=db(db.video).select(db.video.ALL, orderby=db.video.id)\n    d={}\n    for video in videos:\n        comments=db((db.video_comment.video_id==video.id) &\\\n                   (db.auth_user.id==db.video_comment.author_id)).select() \n        tuple_list=[]       \n        for comment in comments:\n            author=('%s %s')%(comment.auth_user.first_name,comment.auth_user.last_name)\n            body=('%s')%(comment.video_comment.body)\n            t=(author,body)\n            tuple_list.append(t)\n        d[video.id]=tuple_list\n    form = SQLFORM(db.video_comment)\n    if form.process().accepted:\n        response.flash = 'your comment is posted'\n    return locals()  \n\ndef insert_writing_comment():\n    if auth.user:\n        writing_comment=request.post_vars.writing_comment\n       # db.writing_comment.insert(video_id=video_id,video_comment_id=video_comment_id, author_id=author_id,email=email,body=body)\n        writing_id=request.args(0)\n        db.writing_comment.insert(author_id=auth.user.id,\n                                  writing_id=writing_id,\n                                  email=None,\n                                  body=writing_comment,\n                                  date_of_entry=datetime.datetime.today())\n        db.commit()\n       \n    else:\n        session.flash='You must log in to post a comment.'\n    redirect(URL('show_writing_comments'))\n    return locals()\n\n\ndef insert_image_comment():\n    if auth.user:\n        image_comment=request.post_vars.image_comment\n       # db.writing_comment.insert(video_id=video_id,video_comment_id=video_comment_id, author_id=author_id,email=email,body=body)\n        image_id=request.args(0)\n        db.image_comment.insert(author_id=auth.user.id,\n                                  image_id=image_id,\n                                  email=None,\n                                  body=image_comment,\n                                  date_of_entry=datetime.datetime.today())\n        db.commit()\n       \n    else:\n        session.flash='You must log in to post a comment.'\n    redirect(URL('show_image_comments'))\n    return locals()\n    \ndef insert_video_comment():\n    if auth.user:\n        video_comment=request.post_vars.video_comment\n        video_id=request.args(0)\n        db.video_comment.insert(author_id=auth.user.id,\n                                  video_id=video_id,\n                                  email=None,\n                                  body=video_comment,\n                                  date_of_entry=datetime.datetime.today())\n        db.commit()\n       \n    else:\n        session.flash='You must log in to post a comment.'\n    redirect(URL('show_video_comments'))\n    return locals()\n\nresponse._vars=response._caller(show_writing_comments)\n"
p7
sS'snapshot'
p8
(dp9
S'exception'
p10
(dp11
S'__getslice__'
p12
S"<method-wrapper '__getslice__' of exceptions.SyntaxError object at 0x8c48130>"
p13
sS'text'
p14
S'None'
p15
sS'__str__'
p16
S"<method-wrapper '__str__' of exceptions.SyntaxError object at 0x8c48130>"
p17
sS'__reduce__'
p18
S'<built-in method __reduce__ of exceptions.SyntaxError object at 0x8c48130>'
p19
sS'__dict__'
p20
S'{}'
p21
sS'__init__'
p22
S"<method-wrapper '__init__' of exceptions.SyntaxError object at 0x8c48130>"
p23
sS'__setattr__'
p24
S"<method-wrapper '__setattr__' of exceptions.SyntaxError object at 0x8c48130>"
p25
sS'__reduce_ex__'
p26
S'<built-in method __reduce_ex__ of exceptions.SyntaxError object at 0x8c48130>'
p27
sS'__new__'
p28
S'<built-in method __new__ of type object at 0x5f9320>'
p29
sS'__class__'
p30
S"<type 'exceptions.SyntaxError'>"
p31
sS'filename'
p32
S'None'
p33
sS'lineno'
p34
S'None'
p35
sS'msg'
p36
S"'Field author_id does not belong to the table'"
p37
sS'__doc__'
p38
S"'Invalid syntax.'"
p39
sS'__getitem__'
p40
S"<method-wrapper '__getitem__' of exceptions.SyntaxError object at 0x8c48130>"
p41
sS'__setstate__'
p42
S'<built-in method __setstate__ of exceptions.SyntaxError object at 0x8c48130>'
p43
sS'__getattribute__'
p44
S"<method-wrapper '__getattribute__' of exceptions.SyntaxError object at 0x8c48130>"
p45
sS'print_file_and_line'
p46
S'None'
p47
sS'args'
p48
S"('Field author_id does not belong to the table',)"
p49
sS'offset'
p50
S'None'
p51
sS'__delattr__'
p52
S"<method-wrapper '__delattr__' of exceptions.SyntaxError object at 0x8c48130>"
p53
sS'__repr__'
p54
S"<method-wrapper '__repr__' of exceptions.SyntaxError object at 0x8c48130>"
p55
sS'__hash__'
p56
S"<method-wrapper '__hash__' of exceptions.SyntaxError object at 0x8c48130>"
p57
ssS'evalue'
p58
S'Field author_id does not belong to the table'
p59
sS'request'
p60
ccopy_reg
_reconstructor
p61
(cgluon.html
BEAUTIFY
p62
c__builtin__
object
p63
NtRp64
(dp65
S'attributes'
p66
(dp67
sS'components'
p68
(lp69
g61
(cgluon.html
TABLE
p70
g63
NtRp71
(dp72
g66
(dp73
S'level'
p74
I5
ssS'parent'
p75
Nsg68
(lp76
g61
(cgluon.html
TR
p77
g63
NtRp78
(dp79
g66
(dp80
sg75
g71
sg68
(lp81
g61
(cgluon.html
TD
p82
g63
NtRp83
(dp84
g66
(dp85
S'_style'
p86
S'font-weight:bold;vertical-align:top'
p87
ssg75
g78
sg68
(lp88
S'ajax'
p89
asbag61
(g82
g63
NtRp90
(dp91
g66
(dp92
S'_valign'
p93
S'top'
p94
ssg75
g78
sg68
(lp95
S':'
asbag61
(g82
g63
NtRp96
(dp97
g66
(dp98
sg75
g78
sg68
(lp99
g61
(g62
g63
NtRp100
(dp101
g66
(dp102
g74
I5
ssg75
g96
sg68
(lp103
S'False'
p104
asbasbasbag61
(g77
g63
NtRp105
(dp106
g66
(dp107
sg75
g71
sg68
(lp108
g61
(g82
g63
NtRp109
(dp110
g66
(dp111
g86
g87
ssg75
g105
sg68
(lp112
S'application'
p113
asbag61
(g82
g63
NtRp114
(dp115
g66
(dp116
g93
g94
ssg75
g105
sg68
(lp117
S':'
asbag61
(g82
g63
NtRp118
(dp119
g66
(dp120
sg75
g105
sg68
(lp121
g61
(g62
g63
NtRp122
(dp123
g66
(dp124
g74
I5
ssg75
g118
sg68
(lp125
S'Final_Impulse'
p126
asbasbasbag61
(g77
g63
NtRp127
(dp128
g66
(dp129
sg75
g71
sg68
(lp130
g61
(g82
g63
NtRp131
(dp132
g66
(dp133
g86
g87
ssg75
g127
sg68
(lp134
g48
asbag61
(g82
g63
NtRp135
(dp136
g66
(dp137
g93
g94
ssg75
g127
sg68
(lp138
S':'
asbag61
(g82
g63
NtRp139
(dp140
g66
(dp141
sg75
g127
sg68
(lp142
g61
(g62
g63
NtRp143
(dp144
g66
(dp145
g74
I5
ssg75
g139
sg68
(lp146
g61
(g70
g63
NtRp147
(dp148
g66
(dp149
g74
I4
ssg75
Nsg68
(lp150
sbasbasbasbag61
(g77
g63
NtRp151
(dp152
g66
(dp153
sg75
g71
sg68
(lp154
g61
(g82
g63
NtRp155
(dp156
g66
(dp157
g86
g87
ssg75
g151
sg68
(lp158
S'body'
p159
asbag61
(g82
g63
NtRp160
(dp161
g66
(dp162
g93
g94
ssg75
g151
sg68
(lp163
S':'
asbag61
(g82
g63
NtRp164
(dp165
g66
(dp166
sg75
g151
sg68
(lp167
g61
(g62
g63
NtRp168
(dp169
g66
(dp170
g74
I5
ssg75
g164
sg68
(lp171
S"<open file '<fdopen>', mode 'w+b' at 0x8dcf140>"
p172
asbasbasbag61
(g77
g63
NtRp173
(dp174
g66
(dp175
sg75
g71
sg68
(lp176
g61
(g82
g63
NtRp177
(dp178
g66
(dp179
g86
g87
ssg75
g173
sg68
(lp180
S'cid'
p181
asbag61
(g82
g63
NtRp182
(dp183
g66
(dp184
g93
g94
ssg75
g173
sg68
(lp185
S':'
asbag61
(g82
g63
NtRp186
(dp187
g66
(dp188
sg75
g173
sg68
(lp189
g61
(g62
g63
NtRp190
(dp191
g66
(dp192
g74
I5
ssg75
g186
sg68
(lp193
S'None'
p194
asbasbasbag61
(g77
g63
NtRp195
(dp196
g66
(dp197
sg75
g71
sg68
(lp198
g61
(g82
g63
NtRp199
(dp200
g66
(dp201
g86
g87
ssg75
g195
sg68
(lp202
S'client'
p203
asbag61
(g82
g63
NtRp204
(dp205
g66
(dp206
g93
g94
ssg75
g195
sg68
(lp207
S':'
asbag61
(g82
g63
NtRp208
(dp209
g66
(dp210
sg75
g195
sg68
(lp211
g61
(g62
g63
NtRp212
(dp213
g66
(dp214
g74
I5
ssg75
g208
sg68
(lp215
S'127.0.0.1'
p216
asbasbasbag61
(g77
g63
NtRp217
(dp218
g66
(dp219
sg75
g71
sg68
(lp220
g61
(g82
g63
NtRp221
(dp222
g66
(dp223
g86
g87
ssg75
g217
sg68
(lp224
S'controller'
p225
asbag61
(g82
g63
NtRp226
(dp227
g66
(dp228
g93
g94
ssg75
g217
sg68
(lp229
S':'
asbag61
(g82
g63
NtRp230
(dp231
g66
(dp232
sg75
g217
sg68
(lp233
g61
(g62
g63
NtRp234
(dp235
g66
(dp236
g74
I5
ssg75
g230
sg68
(lp237
S'default'
p238
asbasbasbag61
(g77
g63
NtRp239
(dp240
g66
(dp241
sg75
g71
sg68
(lp242
g61
(g82
g63
NtRp243
(dp244
g66
(dp245
g86
g87
ssg75
g239
sg68
(lp246
S'cookies'
p247
asbag61
(g82
g63
NtRp248
(dp249
g66
(dp250
g93
g94
ssg75
g239
sg68
(lp251
S':'
asbag61
(g82
g63
NtRp252
(dp253
g66
(dp254
sg75
g239
sg68
(lp255
g61
(g62
g63
NtRp256
(dp257
g66
(dp258
g74
I5
ssg75
g252
sg68
(lp259
g61
(g70
g63
NtRp260
(dp261
g66
(dp262
g74
I4
ssg75
Nsg68
(lp263
g61
(g77
g63
NtRp264
(dp265
g66
(dp266
sg75
g260
sg68
(lp267
g61
(g82
g63
NtRp268
(dp269
g66
(dp270
g86
g87
ssg75
g264
sg68
(lp271
S'session_id_admin'
p272
asbag61
(g82
g63
NtRp273
(dp274
g66
(dp275
g93
g94
ssg75
g264
sg68
(lp276
S':'
asbag61
(g82
g63
NtRp277
(dp278
g66
(dp279
sg75
g264
sg68
(lp280
g61
(g62
g63
NtRp281
(dp282
g66
(dp283
g74
I4
ssg75
g277
sg68
(lp284
S'127.0.0.1-78422ea9-f684-495a-9e76-2db5117c417f'
p285
ag61
(g70
g63
NtRp286
(dp287
g66
(dp288
g74
I3
ssg75
Nsg68
(lp289
g61
(g77
g63
NtRp290
(dp291
g66
(dp292
sg75
g286
sg68
(lp293
g61
(g82
g63
NtRp294
(dp295
g66
(dp296
g86
g87
ssg75
g290
sg68
(lp297
S'comment'
p298
asbag61
(g82
g63
NtRp299
(dp300
g66
(dp301
g93
g94
ssg75
g290
sg68
(lp302
S':'
asbag61
(g82
g63
NtRp303
(dp304
g66
(dp305
sg75
g290
sg68
(lp306
g61
(g62
g63
NtRp307
(dp308
g66
(dp309
g74
I3
ssg75
g303
sg68
(lp310
S''
asbasbasbag61
(g77
g63
NtRp311
(dp312
g66
(dp313
sg75
g286
sg68
(lp314
g61
(g82
g63
NtRp315
(dp316
g66
(dp317
g86
g87
ssg75
g311
sg68
(lp318
S'domain'
p319
asbag61
(g82
g63
NtRp320
(dp321
g66
(dp322
g93
g94
ssg75
g311
sg68
(lp323
S':'
asbag61
(g82
g63
NtRp324
(dp325
g66
(dp326
sg75
g311
sg68
(lp327
g61
(g62
g63
NtRp328
(dp329
g66
(dp330
g74
I3
ssg75
g324
sg68
(lp331
S''
asbasbasbag61
(g77
g63
NtRp332
(dp333
g66
(dp334
sg75
g286
sg68
(lp335
g61
(g82
g63
NtRp336
(dp337
g66
(dp338
g86
g87
ssg75
g332
sg68
(lp339
S'expires'
p340
asbag61
(g82
g63
NtRp341
(dp342
g66
(dp343
g93
g94
ssg75
g332
sg68
(lp344
S':'
asbag61
(g82
g63
NtRp345
(dp346
g66
(dp347
sg75
g332
sg68
(lp348
g61
(g62
g63
NtRp349
(dp350
g66
(dp351
g74
I3
ssg75
g345
sg68
(lp352
S''
asbasbasbag61
(g77
g63
NtRp353
(dp354
g66
(dp355
sg75
g286
sg68
(lp356
g61
(g82
g63
NtRp357
(dp358
g66
(dp359
g86
g87
ssg75
g353
sg68
(lp360
S'max-age'
p361
asbag61
(g82
g63
NtRp362
(dp363
g66
(dp364
g93
g94
ssg75
g353
sg68
(lp365
S':'
asbag61
(g82
g63
NtRp366
(dp367
g66
(dp368
sg75
g353
sg68
(lp369
g61
(g62
g63
NtRp370
(dp371
g66
(dp372
g74
I3
ssg75
g366
sg68
(lp373
S''
asbasbasbag61
(g77
g63
NtRp374
(dp375
g66
(dp376
sg75
g286
sg68
(lp377
g61
(g82
g63
NtRp378
(dp379
g66
(dp380
g86
g87
ssg75
g374
sg68
(lp381
S'path'
p382
asbag61
(g82
g63
NtRp383
(dp384
g66
(dp385
g93
g94
ssg75
g374
sg68
(lp386
S':'
asbag61
(g82
g63
NtRp387
(dp388
g66
(dp389
sg75
g374
sg68
(lp390
g61
(g62
g63
NtRp391
(dp392
g66
(dp393
g74
I3
ssg75
g387
sg68
(lp394
S''
asbasbasbag61
(g77
g63
NtRp395
(dp396
g66
(dp397
sg75
g286
sg68
(lp398
g61
(g82
g63
NtRp399
(dp400
g66
(dp401
g86
g87
ssg75
g395
sg68
(lp402
S'secure'
p403
asbag61
(g82
g63
NtRp404
(dp405
g66
(dp406
g93
g94
ssg75
g395
sg68
(lp407
S':'
asbag61
(g82
g63
NtRp408
(dp409
g66
(dp410
sg75
g395
sg68
(lp411
g61
(g62
g63
NtRp412
(dp413
g66
(dp414
g74
I3
ssg75
g408
sg68
(lp415
S''
asbasbasbag61
(g77
g63
NtRp416
(dp417
g66
(dp418
sg75
g286
sg68
(lp419
g61
(g82
g63
NtRp420
(dp421
g66
(dp422
g86
g87
ssg75
g416
sg68
(lp423
S'version'
p424
asbag61
(g82
g63
NtRp425
(dp426
g66
(dp427
g93
g94
ssg75
g416
sg68
(lp428
S':'
asbag61
(g82
g63
NtRp429
(dp430
g66
(dp431
sg75
g416
sg68
(lp432
g61
(g62
g63
NtRp433
(dp434
g66
(dp435
g74
I3
ssg75
g429
sg68
(lp436
S''
asbasbasbasbasbasbasbag61
(g77
g63
NtRp437
(dp438
g66
(dp439
sg75
g260
sg68
(lp440
g61
(g82
g63
NtRp441
(dp442
g66
(dp443
g86
g87
ssg75
g437
sg68
(lp444
S'session_id_course_recommendations'
p445
asbag61
(g82
g63
NtRp446
(dp447
g66
(dp448
g93
g94
ssg75
g437
sg68
(lp449
S':'
asbag61
(g82
g63
NtRp450
(dp451
g66
(dp452
sg75
g437
sg68
(lp453
g61
(g62
g63
NtRp454
(dp455
g66
(dp456
g74
I4
ssg75
g450
sg68
(lp457
S'127.0.0.1-cb8f05e9-0587-4e87-8439-3e1e68871c8f'
p458
ag61
(g70
g63
NtRp459
(dp460
g66
(dp461
g74
I3
ssg75
Nsg68
(lp462
g61
(g77
g63
NtRp463
(dp464
g66
(dp465
sg75
g459
sg68
(lp466
g61
(g82
g63
NtRp467
(dp468
g66
(dp469
g86
g87
ssg75
g463
sg68
(lp470
g298
asbag61
(g82
g63
NtRp471
(dp472
g66
(dp473
g93
g94
ssg75
g463
sg68
(lp474
S':'
asbag61
(g82
g63
NtRp475
(dp476
g66
(dp477
sg75
g463
sg68
(lp478
g61
(g62
g63
NtRp479
(dp480
g66
(dp481
g74
I3
ssg75
g475
sg68
(lp482
S''
asbasbasbag61
(g77
g63
NtRp483
(dp484
g66
(dp485
sg75
g459
sg68
(lp486
g61
(g82
g63
NtRp487
(dp488
g66
(dp489
g86
g87
ssg75
g483
sg68
(lp490
g319
asbag61
(g82
g63
NtRp491
(dp492
g66
(dp493
g93
g94
ssg75
g483
sg68
(lp494
S':'
asbag61
(g82
g63
NtRp495
(dp496
g66
(dp497
sg75
g483
sg68
(lp498
g61
(g62
g63
NtRp499
(dp500
g66
(dp501
g74
I3
ssg75
g495
sg68
(lp502
S''
asbasbasbag61
(g77
g63
NtRp503
(dp504
g66
(dp505
sg75
g459
sg68
(lp506
g61
(g82
g63
NtRp507
(dp508
g66
(dp509
g86
g87
ssg75
g503
sg68
(lp510
g340
asbag61
(g82
g63
NtRp511
(dp512
g66
(dp513
g93
g94
ssg75
g503
sg68
(lp514
S':'
asbag61
(g82
g63
NtRp515
(dp516
g66
(dp517
sg75
g503
sg68
(lp518
g61
(g62
g63
NtRp519
(dp520
g66
(dp521
g74
I3
ssg75
g515
sg68
(lp522
S''
asbasbasbag61
(g77
g63
NtRp523
(dp524
g66
(dp525
sg75
g459
sg68
(lp526
g61
(g82
g63
NtRp527
(dp528
g66
(dp529
g86
g87
ssg75
g523
sg68
(lp530
g361
asbag61
(g82
g63
NtRp531
(dp532
g66
(dp533
g93
g94
ssg75
g523
sg68
(lp534
S':'
asbag61
(g82
g63
NtRp535
(dp536
g66
(dp537
sg75
g523
sg68
(lp538
g61
(g62
g63
NtRp539
(dp540
g66
(dp541
g74
I3
ssg75
g535
sg68
(lp542
S''
asbasbasbag61
(g77
g63
NtRp543
(dp544
g66
(dp545
sg75
g459
sg68
(lp546
g61
(g82
g63
NtRp547
(dp548
g66
(dp549
g86
g87
ssg75
g543
sg68
(lp550
g382
asbag61
(g82
g63
NtRp551
(dp552
g66
(dp553
g93
g94
ssg75
g543
sg68
(lp554
S':'
asbag61
(g82
g63
NtRp555
(dp556
g66
(dp557
sg75
g543
sg68
(lp558
g61
(g62
g63
NtRp559
(dp560
g66
(dp561
g74
I3
ssg75
g555
sg68
(lp562
S''
asbasbasbag61
(g77
g63
NtRp563
(dp564
g66
(dp565
sg75
g459
sg68
(lp566
g61
(g82
g63
NtRp567
(dp568
g66
(dp569
g86
g87
ssg75
g563
sg68
(lp570
g403
asbag61
(g82
g63
NtRp571
(dp572
g66
(dp573
g93
g94
ssg75
g563
sg68
(lp574
S':'
asbag61
(g82
g63
NtRp575
(dp576
g66
(dp577
sg75
g563
sg68
(lp578
g61
(g62
g63
NtRp579
(dp580
g66
(dp581
g74
I3
ssg75
g575
sg68
(lp582
S''
asbasbasbag61
(g77
g63
NtRp583
(dp584
g66
(dp585
sg75
g459
sg68
(lp586
g61
(g82
g63
NtRp587
(dp588
g66
(dp589
g86
g87
ssg75
g583
sg68
(lp590
g424
asbag61
(g82
g63
NtRp591
(dp592
g66
(dp593
g93
g94
ssg75
g583
sg68
(lp594
S':'
asbag61
(g82
g63
NtRp595
(dp596
g66
(dp597
sg75
g583
sg68
(lp598
g61
(g62
g63
NtRp599
(dp600
g66
(dp601
g74
I3
ssg75
g595
sg68
(lp602
S''
asbasbasbasbasbasbasbag61
(g77
g63
NtRp603
(dp604
g66
(dp605
sg75
g260
sg68
(lp606
g61
(g82
g63
NtRp607
(dp608
g66
(dp609
g86
g87
ssg75
g603
sg68
(lp610
S'session_id_final_impulse'
p611
asbag61
(g82
g63
NtRp612
(dp613
g66
(dp614
g93
g94
ssg75
g603
sg68
(lp615
S':'
asbag61
(g82
g63
NtRp616
(dp617
g66
(dp618
sg75
g603
sg68
(lp619
g61
(g62
g63
NtRp620
(dp621
g66
(dp622
g74
I4
ssg75
g616
sg68
(lp623
S'127.0.0.1-196d16f0-df2a-4177-8038-20bcfac6a099'
p624
ag61
(g70
g63
NtRp625
(dp626
g66
(dp627
g74
I3
ssg75
Nsg68
(lp628
g61
(g77
g63
NtRp629
(dp630
g66
(dp631
sg75
g625
sg68
(lp632
g61
(g82
g63
NtRp633
(dp634
g66
(dp635
g86
g87
ssg75
g629
sg68
(lp636
g298
asbag61
(g82
g63
NtRp637
(dp638
g66
(dp639
g93
g94
ssg75
g629
sg68
(lp640
S':'
asbag61
(g82
g63
NtRp641
(dp642
g66
(dp643
sg75
g629
sg68
(lp644
g61
(g62
g63
NtRp645
(dp646
g66
(dp647
g74
I3
ssg75
g641
sg68
(lp648
S''
asbasbasbag61
(g77
g63
NtRp649
(dp650
g66
(dp651
sg75
g625
sg68
(lp652
g61
(g82
g63
NtRp653
(dp654
g66
(dp655
g86
g87
ssg75
g649
sg68
(lp656
g319
asbag61
(g82
g63
NtRp657
(dp658
g66
(dp659
g93
g94
ssg75
g649
sg68
(lp660
S':'
asbag61
(g82
g63
NtRp661
(dp662
g66
(dp663
sg75
g649
sg68
(lp664
g61
(g62
g63
NtRp665
(dp666
g66
(dp667
g74
I3
ssg75
g661
sg68
(lp668
S''
asbasbasbag61
(g77
g63
NtRp669
(dp670
g66
(dp671
sg75
g625
sg68
(lp672
g61
(g82
g63
NtRp673
(dp674
g66
(dp675
g86
g87
ssg75
g669
sg68
(lp676
g340
asbag61
(g82
g63
NtRp677
(dp678
g66
(dp679
g93
g94
ssg75
g669
sg68
(lp680
S':'
asbag61
(g82
g63
NtRp681
(dp682
g66
(dp683
sg75
g669
sg68
(lp684
g61
(g62
g63
NtRp685
(dp686
g66
(dp687
g74
I3
ssg75
g681
sg68
(lp688
S''
asbasbasbag61
(g77
g63
NtRp689
(dp690
g66
(dp691
sg75
g625
sg68
(lp692
g61
(g82
g63
NtRp693
(dp694
g66
(dp695
g86
g87
ssg75
g689
sg68
(lp696
g361
asbag61
(g82
g63
NtRp697
(dp698
g66
(dp699
g93
g94
ssg75
g689
sg68
(lp700
S':'
asbag61
(g82
g63
NtRp701
(dp702
g66
(dp703
sg75
g689
sg68
(lp704
g61
(g62
g63
NtRp705
(dp706
g66
(dp707
g74
I3
ssg75
g701
sg68
(lp708
S''
asbasbasbag61
(g77
g63
NtRp709
(dp710
g66
(dp711
sg75
g625
sg68
(lp712
g61
(g82
g63
NtRp713
(dp714
g66
(dp715
g86
g87
ssg75
g709
sg68
(lp716
g382
asbag61
(g82
g63
NtRp717
(dp718
g66
(dp719
g93
g94
ssg75
g709
sg68
(lp720
S':'
asbag61
(g82
g63
NtRp721
(dp722
g66
(dp723
sg75
g709
sg68
(lp724
g61
(g62
g63
NtRp725
(dp726
g66
(dp727
g74
I3
ssg75
g721
sg68
(lp728
S''
asbasbasbag61
(g77
g63
NtRp729
(dp730
g66
(dp731
sg75
g625
sg68
(lp732
g61
(g82
g63
NtRp733
(dp734
g66
(dp735
g86
g87
ssg75
g729
sg68
(lp736
g403
asbag61
(g82
g63
NtRp737
(dp738
g66
(dp739
g93
g94
ssg75
g729
sg68
(lp740
S':'
asbag61
(g82
g63
NtRp741
(dp742
g66
(dp743
sg75
g729
sg68
(lp744
g61
(g62
g63
NtRp745
(dp746
g66
(dp747
g74
I3
ssg75
g741
sg68
(lp748
S''
asbasbasbag61
(g77
g63
NtRp749
(dp750
g66
(dp751
sg75
g625
sg68
(lp752
g61
(g82
g63
NtRp753
(dp754
g66
(dp755
g86
g87
ssg75
g749
sg68
(lp756
g424
asbag61
(g82
g63
NtRp757
(dp758
g66
(dp759
g93
g94
ssg75
g749
sg68
(lp760
S':'
asbag61
(g82
g63
NtRp761
(dp762
g66
(dp763
sg75
g749
sg68
(lp764
g61
(g62
g63
NtRp765
(dp766
g66
(dp767
g74
I3
ssg75
g761
sg68
(lp768
S''
asbasbasbasbasbasbasbag61
(g77
g63
NtRp769
(dp770
g66
(dp771
sg75
g260
sg68
(lp772
g61
(g82
g63
NtRp773
(dp774
g66
(dp775
g86
g87
ssg75
g769
sg68
(lp776
S'session_id_welcome'
p777
asbag61
(g82
g63
NtRp778
(dp779
g66
(dp780
g93
g94
ssg75
g769
sg68
(lp781
S':'
asbag61
(g82
g63
NtRp782
(dp783
g66
(dp784
sg75
g769
sg68
(lp785
g61
(g62
g63
NtRp786
(dp787
g66
(dp788
g74
I4
ssg75
g782
sg68
(lp789
S'127.0.0.1-2aa03a6c-1012-4eea-98a7-98c4cb6a077c'
p790
ag61
(g70
g63
NtRp791
(dp792
g66
(dp793
g74
I3
ssg75
Nsg68
(lp794
g61
(g77
g63
NtRp795
(dp796
g66
(dp797
sg75
g791
sg68
(lp798
g61
(g82
g63
NtRp799
(dp800
g66
(dp801
g86
g87
ssg75
g795
sg68
(lp802
g298
asbag61
(g82
g63
NtRp803
(dp804
g66
(dp805
g93
g94
ssg75
g795
sg68
(lp806
S':'
asbag61
(g82
g63
NtRp807
(dp808
g66
(dp809
sg75
g795
sg68
(lp810
g61
(g62
g63
NtRp811
(dp812
g66
(dp813
g74
I3
ssg75
g807
sg68
(lp814
S''
asbasbasbag61
(g77
g63
NtRp815
(dp816
g66
(dp817
sg75
g791
sg68
(lp818
g61
(g82
g63
NtRp819
(dp820
g66
(dp821
g86
g87
ssg75
g815
sg68
(lp822
g319
asbag61
(g82
g63
NtRp823
(dp824
g66
(dp825
g93
g94
ssg75
g815
sg68
(lp826
S':'
asbag61
(g82
g63
NtRp827
(dp828
g66
(dp829
sg75
g815
sg68
(lp830
g61
(g62
g63
NtRp831
(dp832
g66
(dp833
g74
I3
ssg75
g827
sg68
(lp834
S''
asbasbasbag61
(g77
g63
NtRp835
(dp836
g66
(dp837
sg75
g791
sg68
(lp838
g61
(g82
g63
NtRp839
(dp840
g66
(dp841
g86
g87
ssg75
g835
sg68
(lp842
g340
asbag61
(g82
g63
NtRp843
(dp844
g66
(dp845
g93
g94
ssg75
g835
sg68
(lp846
S':'
asbag61
(g82
g63
NtRp847
(dp848
g66
(dp849
sg75
g835
sg68
(lp850
g61
(g62
g63
NtRp851
(dp852
g66
(dp853
g74
I3
ssg75
g847
sg68
(lp854
S''
asbasbasbag61
(g77
g63
NtRp855
(dp856
g66
(dp857
sg75
g791
sg68
(lp858
g61
(g82
g63
NtRp859
(dp860
g66
(dp861
g86
g87
ssg75
g855
sg68
(lp862
g361
asbag61
(g82
g63
NtRp863
(dp864
g66
(dp865
g93
g94
ssg75
g855
sg68
(lp866
S':'
asbag61
(g82
g63
NtRp867
(dp868
g66
(dp869
sg75
g855
sg68
(lp870
g61
(g62
g63
NtRp871
(dp872
g66
(dp873
g74
I3
ssg75
g867
sg68
(lp874
S''
asbasbasbag61
(g77
g63
NtRp875
(dp876
g66
(dp877
sg75
g791
sg68
(lp878
g61
(g82
g63
NtRp879
(dp880
g66
(dp881
g86
g87
ssg75
g875
sg68
(lp882
g382
asbag61
(g82
g63
NtRp883
(dp884
g66
(dp885
g93
g94
ssg75
g875
sg68
(lp886
S':'
asbag61
(g82
g63
NtRp887
(dp888
g66
(dp889
sg75
g875
sg68
(lp890
g61
(g62
g63
NtRp891
(dp892
g66
(dp893
g74
I3
ssg75
g887
sg68
(lp894
S''
asbasbasbag61
(g77
g63
NtRp895
(dp896
g66
(dp897
sg75
g791
sg68
(lp898
g61
(g82
g63
NtRp899
(dp900
g66
(dp901
g86
g87
ssg75
g895
sg68
(lp902
g403
asbag61
(g82
g63
NtRp903
(dp904
g66
(dp905
g93
g94
ssg75
g895
sg68
(lp906
S':'
asbag61
(g82
g63
NtRp907
(dp908
g66
(dp909
sg75
g895
sg68
(lp910
g61
(g62
g63
NtRp911
(dp912
g66
(dp913
g74
I3
ssg75
g907
sg68
(lp914
S''
asbasbasbag61
(g77
g63
NtRp915
(dp916
g66
(dp917
sg75
g791
sg68
(lp918
g61
(g82
g63
NtRp919
(dp920
g66
(dp921
g86
g87
ssg75
g915
sg68
(lp922
g424
asbag61
(g82
g63
NtRp923
(dp924
g66
(dp925
g93
g94
ssg75
g915
sg68
(lp926
S':'
asbag61
(g82
g63
NtRp927
(dp928
g66
(dp929
sg75
g915
sg68
(lp930
g61
(g62
g63
NtRp931
(dp932
g66
(dp933
g74
I3
ssg75
g927
sg68
(lp934
S''
asbasbasbasbasbasbasbasbasbasbasbag61
(g77
g63
NtRp935
(dp936
g66
(dp937
sg75
g71
sg68
(lp938
g61
(g82
g63
NtRp939
(dp940
g66
(dp941
g86
g87
ssg75
g935
sg68
(lp942
S'env'
p943
asbag61
(g82
g63
NtRp944
(dp945
g66
(dp946
g93
g94
ssg75
g935
sg68
(lp947
S':'
asbag61
(g82
g63
NtRp948
(dp949
g66
(dp950
sg75
g935
sg68
(lp951
g61
(g62
g63
NtRp952
(dp953
g66
(dp954
g74
I5
ssg75
g948
sg68
(lp955
g61
(g70
g63
NtRp956
(dp957
g66
(dp958
g74
I4
ssg75
Nsg68
(lp959
g61
(g77
g63
NtRp960
(dp961
g66
(dp962
sg75
g956
sg68
(lp963
g61
(g82
g63
NtRp964
(dp965
g66
(dp966
g86
g87
ssg75
g960
sg68
(lp967
S'app_folders'
p968
asbag61
(g82
g63
NtRp969
(dp970
g66
(dp971
g93
g94
ssg75
g960
sg68
(lp972
S':'
asbag61
(g82
g63
NtRp973
(dp974
g66
(dp975
sg75
g960
sg68
(lp976
g61
(g62
g63
NtRp977
(dp978
g66
(dp979
g74
I4
ssg75
g973
sg68
(lp980
S"set(['/Users/abaric/Downloads/web2py/web2py.app/Contents/Resources/applications/examples/', '/Users/abaric/Downloads/web2py/web2py.app/Contents/Resources/applications/Final_Impulse/', '/Users/abaric/Downloads/web2py/web2py.app/Contents/Resources/applications/Course_Recommendations/', '/Users/abaric/Downloads/web2py/web2py.app/Contents/Resources/applications/welcome/', '/Users/abaric/Downloads/web2py/web2py.app/Contents/Resources/applications/admin/'])"
p981
asbasbasbag61
(g77
g63
NtRp982
(dp983
g66
(dp984
sg75
g956
sg68
(lp985
g61
(g82
g63
NtRp986
(dp987
g66
(dp988
g86
g87
ssg75
g982
sg68
(lp989
S'applications_parent'
p990
asbag61
(g82
g63
NtRp991
(dp992
g66
(dp993
g93
g94
ssg75
g982
sg68
(lp994
S':'
asbag61
(g82
g63
NtRp995
(dp996
g66
(dp997
sg75
g982
sg68
(lp998
g61
(g62
g63
NtRp999
(dp1000
g66
(dp1001
g74
I4
ssg75
g995
sg68
(lp1002
S'/Users/abaric/Downloads/web2py/web2py.app/Contents/Resources'
p1003
asbasbasbag61
(g77
g63
NtRp1004
(dp1005
g66
(dp1006
sg75
g956
sg68
(lp1007
g61
(g82
g63
NtRp1008
(dp1009
g66
(dp1010
g86
g87
ssg75
g1004
sg68
(lp1011
S'cmd_args'
p1012
asbag61
(g82
g63
NtRp1013
(dp1014
g66
(dp1015
g93
g94
ssg75
g1004
sg68
(lp1016
S':'
asbag61
(g82
g63
NtRp1017
(dp1018
g66
(dp1019
sg75
g1004
sg68
(lp1020
g61
(g62
g63
NtRp1021
(dp1022
g66
(dp1023
g74
I4
ssg75
g1017
sg68
(lp1024
g61
(g70
g63
NtRp1025
(dp1026
g66
(dp1027
g74
I3
ssg75
Nsg68
(lp1028
sbasbasbasbag61
(g77
g63
NtRp1029
(dp1030
g66
(dp1031
sg75
g956
sg68
(lp1032
g61
(g82
g63
NtRp1033
(dp1034
g66
(dp1035
g86
g87
ssg75
g1029
sg68
(lp1036
S'cmd_options'
p1037
asbag61
(g82
g63
NtRp1038
(dp1039
g66
(dp1040
g93
g94
ssg75
g1029
sg68
(lp1041
S':'
asbag61
(g82
g63
NtRp1042
(dp1043
g66
(dp1044
sg75
g1029
sg68
(lp1045
g61
(g62
g63
NtRp1046
(dp1047
g66
(dp1048
g74
I4
ssg75
g1042
sg68
(lp1049
S"<Values at 0x43bc1c0: {'verbose': False, 'ip': '127.0.0.1', 'with_scheduler': False, 'ips': [], 'shutdown_timeout': 5, 'taskbar': False, 'port': 8000, 'maxthreads': None, 'softcron': False, 'server_name': 'Andrea-Barics-MacBook-Pro.local', 'bpython': False, 'nogui': False, 'pid_filename': 'httpserver.pid', 'extcron': False, 'runcron': False, 'run_system_tests': False, 'test': None, 'folder': '/Users/abaric/Downloads/web2py/web2py.app/Contents/Resources', 'config': '', 'import_models': False, 'winservice': '', 'shell': None, 'run': '', 'log_filename': 'httpserver.log', 'debuglevel': 30, 'args': [''], 'socket_timeout': 5, 'ssl_ca_certificate': None, 'scheduler': None, 'profiler_filename': None, 'ssl_private_key': '', 'scheduler_groups': None, 'password': '<ask>', 'request_queue_size': 5, 'ssl_certificate': '', 'cronjob': False, 'numthreads': None, 'quiet': False, 'interfaces': None, 'minthreads': None, 'timeout': 10, 'plain': False, 'nobanner': False}>"
p1050
asbasbasbag61
(g77
g63
NtRp1051
(dp1052
g66
(dp1053
sg75
g956
sg68
(lp1054
g61
(g82
g63
NtRp1055
(dp1056
g66
(dp1057
g86
g87
ssg75
g1051
sg68
(lp1058
S'content_length'
p1059
asbag61
(g82
g63
NtRp1060
(dp1061
g66
(dp1062
g93
g94
ssg75
g1051
sg68
(lp1063
S':'
asbag61
(g82
g63
NtRp1064
(dp1065
g66
(dp1066
sg75
g1051
sg68
(lp1067
g61
(g62
g63
NtRp1068
(dp1069
g66
(dp1070
g74
I4
ssg75
g1064
sg68
(lp1071
S'554'
p1072
asbasbasbag61
(g77
g63
NtRp1073
(dp1074
g66
(dp1075
sg75
g956
sg68
(lp1076
g61
(g82
g63
NtRp1077
(dp1078
g66
(dp1079
g86
g87
ssg75
g1073
sg68
(lp1080
S'content_type'
p1081
asbag61
(g82
g63
NtRp1082
(dp1083
g66
(dp1084
g93
g94
ssg75
g1073
sg68
(lp1085
S':'
asbag61
(g82
g63
NtRp1086
(dp1087
g66
(dp1088
sg75
g1073
sg68
(lp1089
g61
(g62
g63
NtRp1090
(dp1091
g66
(dp1092
g74
I4
ssg75
g1086
sg68
(lp1093
S'multipart/form-data; boundary=----WebKitFormBoundaryXOMrUwGG86hgvSGC'
p1094
asbasbasbag61
(g77
g63
NtRp1095
(dp1096
g66
(dp1097
sg75
g956
sg68
(lp1098
g61
(g82
g63
NtRp1099
(dp1100
g66
(dp1101
g86
g87
ssg75
g1095
sg68
(lp1102
S'db_sessions'
p1103
asbag61
(g82
g63
NtRp1104
(dp1105
g66
(dp1106
g93
g94
ssg75
g1095
sg68
(lp1107
S':'
asbag61
(g82
g63
NtRp1108
(dp1109
g66
(dp1110
sg75
g1095
sg68
(lp1111
g61
(g62
g63
NtRp1112
(dp1113
g66
(dp1114
g74
I4
ssg75
g1108
sg68
(lp1115
S'set([])'
p1116
asbasbasbag61
(g77
g63
NtRp1117
(dp1118
g66
(dp1119
sg75
g956
sg68
(lp1120
g61
(g82
g63
NtRp1121
(dp1122
g66
(dp1123
g86
g87
ssg75
g1117
sg68
(lp1124
S'debugging'
p1125
asbag61
(g82
g63
NtRp1126
(dp1127
g66
(dp1128
g93
g94
ssg75
g1117
sg68
(lp1129
S':'
asbag61
(g82
g63
NtRp1130
(dp1131
g66
(dp1132
sg75
g1117
sg68
(lp1133
g61
(g62
g63
NtRp1134
(dp1135
g66
(dp1136
g74
I4
ssg75
g1130
sg68
(lp1137
g104
asbasbasbag61
(g77
g63
NtRp1138
(dp1139
g66
(dp1140
sg75
g956
sg68
(lp1141
g61
(g82
g63
NtRp1142
(dp1143
g66
(dp1144
g86
g87
ssg75
g1138
sg68
(lp1145
S'gluon_parent'
p1146
asbag61
(g82
g63
NtRp1147
(dp1148
g66
(dp1149
g93
g94
ssg75
g1138
sg68
(lp1150
S':'
asbag61
(g82
g63
NtRp1151
(dp1152
g66
(dp1153
sg75
g1138
sg68
(lp1154
g61
(g62
g63
NtRp1155
(dp1156
g66
(dp1157
g74
I4
ssg75
g1151
sg68
(lp1158
S'/Users/abaric/Downloads/web2py/web2py.app/Contents/Resources'
p1159
asbasbasbag61
(g77
g63
NtRp1160
(dp1161
g66
(dp1162
sg75
g956
sg68
(lp1163
g61
(g82
g63
NtRp1164
(dp1165
g66
(dp1166
g86
g87
ssg75
g1160
sg68
(lp1167
S'http_accept'
p1168
asbag61
(g82
g63
NtRp1169
(dp1170
g66
(dp1171
g93
g94
ssg75
g1160
sg68
(lp1172
S':'
asbag61
(g82
g63
NtRp1173
(dp1174
g66
(dp1175
sg75
g1160
sg68
(lp1176
g61
(g62
g63
NtRp1177
(dp1178
g66
(dp1179
g74
I4
ssg75
g1173
sg68
(lp1180
S'text/html,application/xhtml+xml,application/xml;q=0.9,*/*;q=0.8'
p1181
asbasbasbag61
(g77
g63
NtRp1182
(dp1183
g66
(dp1184
sg75
g956
sg68
(lp1185
g61
(g82
g63
NtRp1186
(dp1187
g66
(dp1188
g86
g87
ssg75
g1182
sg68
(lp1189
S'http_accept_encoding'
p1190
asbag61
(g82
g63
NtRp1191
(dp1192
g66
(dp1193
g93
g94
ssg75
g1182
sg68
(lp1194
S':'
asbag61
(g82
g63
NtRp1195
(dp1196
g66
(dp1197
sg75
g1182
sg68
(lp1198
g61
(g62
g63
NtRp1199
(dp1200
g66
(dp1201
g74
I4
ssg75
g1195
sg68
(lp1202
S'gzip, deflate'
p1203
asbasbasbag61
(g77
g63
NtRp1204
(dp1205
g66
(dp1206
sg75
g956
sg68
(lp1207
g61
(g82
g63
NtRp1208
(dp1209
g66
(dp1210
g86
g87
ssg75
g1204
sg68
(lp1211
S'http_accept_language'
p1212
asbag61
(g82
g63
NtRp1213
(dp1214
g66
(dp1215
g93
g94
ssg75
g1204
sg68
(lp1216
S':'
asbag61
(g82
g63
NtRp1217
(dp1218
g66
(dp1219
sg75
g1204
sg68
(lp1220
g61
(g62
g63
NtRp1221
(dp1222
g66
(dp1223
g74
I4
ssg75
g1217
sg68
(lp1224
S'en-us'
p1225
asbasbasbag61
(g77
g63
NtRp1226
(dp1227
g66
(dp1228
sg75
g956
sg68
(lp1229
g61
(g82
g63
NtRp1230
(dp1231
g66
(dp1232
g86
g87
ssg75
g1226
sg68
(lp1233
S'http_connection'
p1234
asbag61
(g82
g63
NtRp1235
(dp1236
g66
(dp1237
g93
g94
ssg75
g1226
sg68
(lp1238
S':'
asbag61
(g82
g63
NtRp1239
(dp1240
g66
(dp1241
sg75
g1226
sg68
(lp1242
g61
(g62
g63
NtRp1243
(dp1244
g66
(dp1245
g74
I4
ssg75
g1239
sg68
(lp1246
S'keep-alive'
p1247
asbasbasbag61
(g77
g63
NtRp1248
(dp1249
g66
(dp1250
sg75
g956
sg68
(lp1251
g61
(g82
g63
NtRp1252
(dp1253
g66
(dp1254
g86
g87
ssg75
g1248
sg68
(lp1255
S'http_content_length'
p1256
asbag61
(g82
g63
NtRp1257
(dp1258
g66
(dp1259
g93
g94
ssg75
g1248
sg68
(lp1260
S':'
asbag61
(g82
g63
NtRp1261
(dp1262
g66
(dp1263
sg75
g1248
sg68
(lp1264
g61
(g62
g63
NtRp1265
(dp1266
g66
(dp1267
g74
I4
ssg75
g1261
sg68
(lp1268
g1072
asbasbasbag61
(g77
g63
NtRp1269
(dp1270
g66
(dp1271
sg75
g956
sg68
(lp1272
g61
(g82
g63
NtRp1273
(dp1274
g66
(dp1275
g86
g87
ssg75
g1269
sg68
(lp1276
S'http_content_type'
p1277
asbag61
(g82
g63
NtRp1278
(dp1279
g66
(dp1280
g93
g94
ssg75
g1269
sg68
(lp1281
S':'
asbag61
(g82
g63
NtRp1282
(dp1283
g66
(dp1284
sg75
g1269
sg68
(lp1285
g61
(g62
g63
NtRp1286
(dp1287
g66
(dp1288
g74
I4
ssg75
g1282
sg68
(lp1289
g1094
asbasbasbag61
(g77
g63
NtRp1290
(dp1291
g66
(dp1292
sg75
g956
sg68
(lp1293
g61
(g82
g63
NtRp1294
(dp1295
g66
(dp1296
g86
g87
ssg75
g1290
sg68
(lp1297
S'http_cookie'
p1298
asbag61
(g82
g63
NtRp1299
(dp1300
g66
(dp1301
g93
g94
ssg75
g1290
sg68
(lp1302
S':'
asbag61
(g82
g63
NtRp1303
(dp1304
g66
(dp1305
sg75
g1290
sg68
(lp1306
g61
(g62
g63
NtRp1307
(dp1308
g66
(dp1309
g74
I4
ssg75
g1303
sg68
(lp1310
S'session_id_final_impulse=127.0.0.1-196d16f0-df2a-4177-8038-20bcfac6a099; session_id_admin=127.0.0.1-78422ea9-f684-495a-9e76-2db5117c417f; session_id_course_recommendations=127.0.0.1-cb8f05e9-0587-4e87-8439-3e1e68871c8f; session_id_welcome=127.0.0.1-2aa03a6c-1012-4eea-98a7-98c4cb6a077c'
p1311
asbasbasbag61
(g77
g63
NtRp1312
(dp1313
g66
(dp1314
sg75
g956
sg68
(lp1315
g61
(g82
g63
NtRp1316
(dp1317
g66
(dp1318
g86
g87
ssg75
g1312
sg68
(lp1319
S'http_host'
p1320
asbag61
(g82
g63
NtRp1321
(dp1322
g66
(dp1323
g93
g94
ssg75
g1312
sg68
(lp1324
S':'
asbag61
(g82
g63
NtRp1325
(dp1326
g66
(dp1327
sg75
g1312
sg68
(lp1328
g61
(g62
g63
NtRp1329
(dp1330
g66
(dp1331
g74
I4
ssg75
g1325
sg68
(lp1332
S'127.0.0.1:8000'
p1333
asbasbasbag61
(g77
g63
NtRp1334
(dp1335
g66
(dp1336
sg75
g956
sg68
(lp1337
g61
(g82
g63
NtRp1338
(dp1339
g66
(dp1340
g86
g87
ssg75
g1334
sg68
(lp1341
S'http_origin'
p1342
asbag61
(g82
g63
NtRp1343
(dp1344
g66
(dp1345
g93
g94
ssg75
g1334
sg68
(lp1346
S':'
asbag61
(g82
g63
NtRp1347
(dp1348
g66
(dp1349
sg75
g1334
sg68
(lp1350
g61
(g62
g63
NtRp1351
(dp1352
g66
(dp1353
g74
I4
ssg75
g1347
sg68
(lp1354
S'http://127.0.0.1:8000'
p1355
asbasbasbag61
(g77
g63
NtRp1356
(dp1357
g66
(dp1358
sg75
g956
sg68
(lp1359
g61
(g82
g63
NtRp1360
(dp1361
g66
(dp1362
g86
g87
ssg75
g1356
sg68
(lp1363
S'http_referer'
p1364
asbag61
(g82
g63
NtRp1365
(dp1366
g66
(dp1367
g93
g94
ssg75
g1356
sg68
(lp1368
S':'
asbag61
(g82
g63
NtRp1369
(dp1370
g66
(dp1371
sg75
g1356
sg68
(lp1372
g61
(g62
g63
NtRp1373
(dp1374
g66
(dp1375
g74
I4
ssg75
g1369
sg68
(lp1376
S'http://127.0.0.1:8000/Final_Impulse/default/show_writing_comments'
p1377
asbasbasbag61
(g77
g63
NtRp1378
(dp1379
g66
(dp1380
sg75
g956
sg68
(lp1381
g61
(g82
g63
NtRp1382
(dp1383
g66
(dp1384
g86
g87
ssg75
g1378
sg68
(lp1385
S'http_user_agent'
p1386
asbag61
(g82
g63
NtRp1387
(dp1388
g66
(dp1389
g93
g94
ssg75
g1378
sg68
(lp1390
S':'
asbag61
(g82
g63
NtRp1391
(dp1392
g66
(dp1393
sg75
g1378
sg68
(lp1394
g61
(g62
g63
NtRp1395
(dp1396
g66
(dp1397
g74
I4
ssg75
g1391
sg68
(lp1398
S'Mozilla/5.0 (Macintosh; Intel Mac OS X 10_8_4) AppleWebKit/536.30.1 (KHTML, like Gecko) Version/6.0.5 Safari/536.30.1'
p1399
asbasbasbag61
(g77
g63
NtRp1400
(dp1401
g66
(dp1402
sg75
g956
sg68
(lp1403
g61
(g82
g63
NtRp1404
(dp1405
g66
(dp1406
g86
g87
ssg75
g1400
sg68
(lp1407
S'is_jython'
p1408
asbag61
(g82
g63
NtRp1409
(dp1410
g66
(dp1411
g93
g94
ssg75
g1400
sg68
(lp1412
S':'
asbag61
(g82
g63
NtRp1413
(dp1414
g66
(dp1415
sg75
g1400
sg68
(lp1416
g61
(g62
g63
NtRp1417
(dp1418
g66
(dp1419
g74
I4
ssg75
g1413
sg68
(lp1420
g104
asbasbasbag61
(g77
g63
NtRp1421
(dp1422
g66
(dp1423
sg75
g956
sg68
(lp1424
g61
(g82
g63
NtRp1425
(dp1426
g66
(dp1427
g86
g87
ssg75
g1421
sg68
(lp1428
S'is_pypy'
p1429
asbag61
(g82
g63
NtRp1430
(dp1431
g66
(dp1432
g93
g94
ssg75
g1421
sg68
(lp1433
S':'
asbag61
(g82
g63
NtRp1434
(dp1435
g66
(dp1436
sg75
g1421
sg68
(lp1437
g61
(g62
g63
NtRp1438
(dp1439
g66
(dp1440
g74
I4
ssg75
g1434
sg68
(lp1441
g104
asbasbasbag61
(g77
g63
NtRp1442
(dp1443
g66
(dp1444
sg75
g956
sg68
(lp1445
g61
(g82
g63
NtRp1446
(dp1447
g66
(dp1448
g86
g87
ssg75
g1442
sg68
(lp1449
S'local_hosts'
p1450
asbag61
(g82
g63
NtRp1451
(dp1452
g66
(dp1453
g93
g94
ssg75
g1442
sg68
(lp1454
S':'
asbag61
(g82
g63
NtRp1455
(dp1456
g66
(dp1457
sg75
g1442
sg68
(lp1458
g61
(g62
g63
NtRp1459
(dp1460
g66
(dp1461
g74
I4
ssg75
g1455
sg68
(lp1462
g61
(g70
g63
NtRp1463
(dp1464
g66
(dp1465
g74
I3
ssg75
Nsg68
(lp1466
g61
(g77
g63
NtRp1467
(dp1468
g66
(dp1469
sg75
g1463
sg68
(lp1470
g61
(g82
g63
NtRp1471
(dp1472
g66
(dp1473
sg75
g1467
sg68
(lp1474
g61
(g62
g63
NtRp1475
(dp1476
g66
(dp1477
g74
I3
ssg75
g1471
sg68
(lp1478
S'127.0.0.1'
p1479
asbasbasbag61
(g77
g63
NtRp1480
(dp1481
g66
(dp1482
sg75
g1463
sg68
(lp1483
g61
(g82
g63
NtRp1484
(dp1485
g66
(dp1486
sg75
g1480
sg68
(lp1487
g61
(g62
g63
NtRp1488
(dp1489
g66
(dp1490
g74
I3
ssg75
g1484
sg68
(lp1491
S'::ffff:127.0.0.1'
p1492
asbasbasbag61
(g77
g63
NtRp1493
(dp1494
g66
(dp1495
sg75
g1463
sg68
(lp1496
g61
(g82
g63
NtRp1497
(dp1498
g66
(dp1499
sg75
g1493
sg68
(lp1500
g61
(g62
g63
NtRp1501
(dp1502
g66
(dp1503
g74
I3
ssg75
g1497
sg68
(lp1504
S'Andrea-Barics-MacBook-Pro.local'
p1505
asbasbasbag61
(g77
g63
NtRp1506
(dp1507
g66
(dp1508
sg75
g1463
sg68
(lp1509
g61
(g82
g63
NtRp1510
(dp1511
g66
(dp1512
sg75
g1506
sg68
(lp1513
g61
(g62
g63
NtRp1514
(dp1515
g66
(dp1516
g74
I3
ssg75
g1510
sg68
(lp1517
S'Andrea-Barics-MacBook-Pro.local'
p1518
asbasbasbag61
(g77
g63
NtRp1519
(dp1520
g66
(dp1521
sg75
g1463
sg68
(lp1522
g61
(g82
g63
NtRp1523
(dp1524
g66
(dp1525
sg75
g1519
sg68
(lp1526
g61
(g62
g63
NtRp1527
(dp1528
g66
(dp1529
g74
I3
ssg75
g1523
sg68
(lp1530
S'127.0.0.1'
p1531
asbasbasbasbasbasbasbag61
(g77
g63
NtRp1532
(dp1533
g66
(dp1534
sg75
g956
sg68
(lp1535
g61
(g82
g63
NtRp1536
(dp1537
g66
(dp1538
g86
g87
ssg75
g1532
sg68
(lp1539
S'path_info'
p1540
asbag61
(g82
g63
NtRp1541
(dp1542
g66
(dp1543
g93
g94
ssg75
g1532
sg68
(lp1544
S':'
asbag61
(g82
g63
NtRp1545
(dp1546
g66
(dp1547
sg75
g1532
sg68
(lp1548
g61
(g62
g63
NtRp1549
(dp1550
g66
(dp1551
g74
I4
ssg75
g1545
sg68
(lp1552
S'/Final_Impulse/default/show_writing_comments'
p1553
asbasbasbag61
(g77
g63
NtRp1554
(dp1555
g66
(dp1556
sg75
g956
sg68
(lp1557
g61
(g82
g63
NtRp1558
(dp1559
g66
(dp1560
g86
g87
ssg75
g1554
sg68
(lp1561
S'query_string'
p1562
asbag61
(g82
g63
NtRp1563
(dp1564
g66
(dp1565
g93
g94
ssg75
g1554
sg68
(lp1566
S':'
asbag61
(g82
g63
NtRp1567
(dp1568
g66
(dp1569
sg75
g1554
sg68
(lp1570
g61
(g62
g63
NtRp1571
(dp1572
g66
(dp1573
g74
I4
ssg75
g1567
sg68
(lp1574
S''
asbasbasbag61
(g77
g63
NtRp1575
(dp1576
g66
(dp1577
sg75
g956
sg68
(lp1578
g61
(g82
g63
NtRp1579
(dp1580
g66
(dp1581
g86
g87
ssg75
g1575
sg68
(lp1582
S'remote_addr'
p1583
asbag61
(g82
g63
NtRp1584
(dp1585
g66
(dp1586
g93
g94
ssg75
g1575
sg68
(lp1587
S':'
asbag61
(g82
g63
NtRp1588
(dp1589
g66
(dp1590
sg75
g1575
sg68
(lp1591
g61
(g62
g63
NtRp1592
(dp1593
g66
(dp1594
g74
I4
ssg75
g1588
sg68
(lp1595
g216
asbasbasbag61
(g77
g63
NtRp1596
(dp1597
g66
(dp1598
sg75
g956
sg68
(lp1599
g61
(g82
g63
NtRp1600
(dp1601
g66
(dp1602
g86
g87
ssg75
g1596
sg68
(lp1603
S'remote_port'
p1604
asbag61
(g82
g63
NtRp1605
(dp1606
g66
(dp1607
g93
g94
ssg75
g1596
sg68
(lp1608
S':'
asbag61
(g82
g63
NtRp1609
(dp1610
g66
(dp1611
sg75
g1596
sg68
(lp1612
g61
(g62
g63
NtRp1613
(dp1614
g66
(dp1615
g74
I4
ssg75
g1609
sg68
(lp1616
S'55778'
p1617
asbasbasbag61
(g77
g63
NtRp1618
(dp1619
g66
(dp1620
sg75
g956
sg68
(lp1621
g61
(g82
g63
NtRp1622
(dp1623
g66
(dp1624
g86
g87
ssg75
g1618
sg68
(lp1625
S'request_method'
p1626
asbag61
(g82
g63
NtRp1627
(dp1628
g66
(dp1629
g93
g94
ssg75
g1618
sg68
(lp1630
S':'
asbag61
(g82
g63
NtRp1631
(dp1632
g66
(dp1633
sg75
g1618
sg68
(lp1634
g61
(g62
g63
NtRp1635
(dp1636
g66
(dp1637
g74
I4
ssg75
g1631
sg68
(lp1638
S'POST'
p1639
asbasbasbag61
(g77
g63
NtRp1640
(dp1641
g66
(dp1642
sg75
g956
sg68
(lp1643
g61
(g82
g63
NtRp1644
(dp1645
g66
(dp1646
g86
g87
ssg75
g1640
sg68
(lp1647
S'request_uri'
p1648
asbag61
(g82
g63
NtRp1649
(dp1650
g66
(dp1651
g93
g94
ssg75
g1640
sg68
(lp1652
S':'
asbag61
(g82
g63
NtRp1653
(dp1654
g66
(dp1655
sg75
g1640
sg68
(lp1656
g61
(g62
g63
NtRp1657
(dp1658
g66
(dp1659
g74
I4
ssg75
g1653
sg68
(lp1660
g1553
asbasbasbag61
(g77
g63
NtRp1661
(dp1662
g66
(dp1663
sg75
g956
sg68
(lp1664
g61
(g82
g63
NtRp1665
(dp1666
g66
(dp1667
g86
g87
ssg75
g1661
sg68
(lp1668
S'script_name'
p1669
asbag61
(g82
g63
NtRp1670
(dp1671
g66
(dp1672
g93
g94
ssg75
g1661
sg68
(lp1673
S':'
asbag61
(g82
g63
NtRp1674
(dp1675
g66
(dp1676
sg75
g1661
sg68
(lp1677
g61
(g62
g63
NtRp1678
(dp1679
g66
(dp1680
g74
I4
ssg75
g1674
sg68
(lp1681
S''
asbasbasbag61
(g77
g63
NtRp1682
(dp1683
g66
(dp1684
sg75
g956
sg68
(lp1685
g61
(g82
g63
NtRp1686
(dp1687
g66
(dp1688
g86
g87
ssg75
g1682
sg68
(lp1689
S'server_name'
p1690
asbag61
(g82
g63
NtRp1691
(dp1692
g66
(dp1693
g93
g94
ssg75
g1682
sg68
(lp1694
S':'
asbag61
(g82
g63
NtRp1695
(dp1696
g66
(dp1697
sg75
g1682
sg68
(lp1698
g61
(g62
g63
NtRp1699
(dp1700
g66
(dp1701
g74
I4
ssg75
g1695
sg68
(lp1702
g1518
asbasbasbag61
(g77
g63
NtRp1703
(dp1704
g66
(dp1705
sg75
g956
sg68
(lp1706
g61
(g82
g63
NtRp1707
(dp1708
g66
(dp1709
g86
g87
ssg75
g1703
sg68
(lp1710
S'server_port'
p1711
asbag61
(g82
g63
NtRp1712
(dp1713
g66
(dp1714
g93
g94
ssg75
g1703
sg68
(lp1715
S':'
asbag61
(g82
g63
NtRp1716
(dp1717
g66
(dp1718
sg75
g1703
sg68
(lp1719
g61
(g62
g63
NtRp1720
(dp1721
g66
(dp1722
g74
I4
ssg75
g1716
sg68
(lp1723
S'8000'
p1724
asbasbasbag61
(g77
g63
NtRp1725
(dp1726
g66
(dp1727
sg75
g956
sg68
(lp1728
g61
(g82
g63
NtRp1729
(dp1730
g66
(dp1731
g86
g87
ssg75
g1725
sg68
(lp1732
S'server_protocol'
p1733
asbag61
(g82
g63
NtRp1734
(dp1735
g66
(dp1736
g93
g94
ssg75
g1725
sg68
(lp1737
S':'
asbag61
(g82
g63
NtRp1738
(dp1739
g66
(dp1740
sg75
g1725
sg68
(lp1741
g61
(g62
g63
NtRp1742
(dp1743
g66
(dp1744
g74
I4
ssg75
g1738
sg68
(lp1745
S'HTTP/1.1'
p1746
asbasbasbag61
(g77
g63
NtRp1747
(dp1748
g66
(dp1749
sg75
g956
sg68
(lp1750
g61
(g82
g63
NtRp1751
(dp1752
g66
(dp1753
g86
g87
ssg75
g1747
sg68
(lp1754
S'server_software'
p1755
asbag61
(g82
g63
NtRp1756
(dp1757
g66
(dp1758
g93
g94
ssg75
g1747
sg68
(lp1759
S':'
asbag61
(g82
g63
NtRp1760
(dp1761
g66
(dp1762
sg75
g1747
sg68
(lp1763
g61
(g62
g63
NtRp1764
(dp1765
g66
(dp1766
g74
I4
ssg75
g1760
sg68
(lp1767
S'Rocket 1.2.5'
p1768
asbasbasbag61
(g77
g63
NtRp1769
(dp1770
g66
(dp1771
sg75
g956
sg68
(lp1772
g61
(g82
g63
NtRp1773
(dp1774
g66
(dp1775
g86
g87
ssg75
g1769
sg68
(lp1776
S'web2py_path'
p1777
asbag61
(g82
g63
NtRp1778
(dp1779
g66
(dp1780
g93
g94
ssg75
g1769
sg68
(lp1781
S':'
asbag61
(g82
g63
NtRp1782
(dp1783
g66
(dp1784
sg75
g1769
sg68
(lp1785
g61
(g62
g63
NtRp1786
(dp1787
g66
(dp1788
g74
I4
ssg75
g1782
sg68
(lp1789
g1003
asbasbasbag61
(g77
g63
NtRp1790
(dp1791
g66
(dp1792
sg75
g956
sg68
(lp1793
g61
(g82
g63
NtRp1794
(dp1795
g66
(dp1796
g86
g87
ssg75
g1790
sg68
(lp1797
S'web2py_version'
p1798
asbag61
(g82
g63
NtRp1799
(dp1800
g66
(dp1801
g93
g94
ssg75
g1790
sg68
(lp1802
S':'
asbag61
(g82
g63
NtRp1803
(dp1804
g66
(dp1805
sg75
g1790
sg68
(lp1806
g61
(g62
g63
NtRp1807
(dp1808
g66
(dp1809
g74
I4
ssg75
g1803
sg68
(lp1810
g61
(g70
g63
NtRp1811
(dp1812
g66
(dp1813
g74
I3
ssg75
Nsg68
(lp1814
g61
(g77
g63
NtRp1815
(dp1816
g66
(dp1817
sg75
g1811
sg68
(lp1818
g61
(g82
g63
NtRp1819
(dp1820
g66
(dp1821
sg75
g1815
sg68
(lp1822
g61
(g62
g63
NtRp1823
(dp1824
g66
(dp1825
g74
I3
ssg75
g1819
sg68
(lp1826
S'2'
asbasbasbag61
(g77
g63
NtRp1827
(dp1828
g66
(dp1829
sg75
g1811
sg68
(lp1830
g61
(g82
g63
NtRp1831
(dp1832
g66
(dp1833
sg75
g1827
sg68
(lp1834
g61
(g62
g63
NtRp1835
(dp1836
g66
(dp1837
g74
I3
ssg75
g1831
sg68
(lp1838
S'2'
asbasbasbag61
(g77
g63
NtRp1839
(dp1840
g66
(dp1841
sg75
g1811
sg68
(lp1842
g61
(g82
g63
NtRp1843
(dp1844
g66
(dp1845
sg75
g1839
sg68
(lp1846
g61
(g62
g63
NtRp1847
(dp1848
g66
(dp1849
g74
I3
ssg75
g1843
sg68
(lp1850
S'1'
asbasbasbag61
(g77
g63
NtRp1851
(dp1852
g66
(dp1853
sg75
g1811
sg68
(lp1854
g61
(g82
g63
NtRp1855
(dp1856
g66
(dp1857
sg75
g1851
sg68
(lp1858
g61
(g62
g63
NtRp1859
(dp1860
g66
(dp1861
g74
I3
ssg75
g1855
sg68
(lp1862
S'datetime.datetime(2012, 10, 21, 16, 57, 4)'
p1863
asbasbasbag61
(g77
g63
NtRp1864
(dp1865
g66
(dp1866
sg75
g1811
sg68
(lp1867
g61
(g82
g63
NtRp1868
(dp1869
g66
(dp1870
sg75
g1864
sg68
(lp1871
g61
(g62
g63
NtRp1872
(dp1873
g66
(dp1874
g74
I3
ssg75
g1868
sg68
(lp1875
S'stable'
p1876
asbasbasbasbasbasbasbag61
(g77
g63
NtRp1877
(dp1878
g66
(dp1879
sg75
g956
sg68
(lp1880
g61
(g82
g63
NtRp1881
(dp1882
g66
(dp1883
g86
g87
ssg75
g1877
sg68
(lp1884
S'wsgi_errors'
p1885
asbag61
(g82
g63
NtRp1886
(dp1887
g66
(dp1888
g93
g94
ssg75
g1877
sg68
(lp1889
S':'
asbag61
(g82
g63
NtRp1890
(dp1891
g66
(dp1892
sg75
g1877
sg68
(lp1893
g61
(g62
g63
NtRp1894
(dp1895
g66
(dp1896
g74
I4
ssg75
g1890
sg68
(lp1897
S"<open file '<stderr>', mode 'w' at 0x540b0>"
p1898
asbasbasbag61
(g77
g63
NtRp1899
(dp1900
g66
(dp1901
sg75
g956
sg68
(lp1902
g61
(g82
g63
NtRp1903
(dp1904
g66
(dp1905
g86
g87
ssg75
g1899
sg68
(lp1906
S'wsgi_file_wrapper'
p1907
asbag61
(g82
g63
NtRp1908
(dp1909
g66
(dp1910
g93
g94
ssg75
g1899
sg68
(lp1911
S':'
asbag61
(g82
g63
NtRp1912
(dp1913
g66
(dp1914
sg75
g1899
sg68
(lp1915
g61
(g62
g63
NtRp1916
(dp1917
g66
(dp1918
g74
I4
ssg75
g1912
sg68
(lp1919
S'<class wsgiref.util.FileWrapper at 0x45782d0>'
p1920
asbasbasbag61
(g77
g63
NtRp1921
(dp1922
g66
(dp1923
sg75
g956
sg68
(lp1924
g61
(g82
g63
NtRp1925
(dp1926
g66
(dp1927
g86
g87
ssg75
g1921
sg68
(lp1928
S'wsgi_input'
p1929
asbag61
(g82
g63
NtRp1930
(dp1931
g66
(dp1932
g93
g94
ssg75
g1921
sg68
(lp1933
S':'
asbag61
(g82
g63
NtRp1934
(dp1935
g66
(dp1936
sg75
g1921
sg68
(lp1937
g61
(g62
g63
NtRp1938
(dp1939
g66
(dp1940
g74
I4
ssg75
g1934
sg68
(lp1941
S'<socket._fileobject object at 0x89b95f0>'
p1942
asbasbasbag61
(g77
g63
NtRp1943
(dp1944
g66
(dp1945
sg75
g956
sg68
(lp1946
g61
(g82
g63
NtRp1947
(dp1948
g66
(dp1949
g86
g87
ssg75
g1943
sg68
(lp1950
S'wsgi_multiprocess'
p1951
asbag61
(g82
g63
NtRp1952
(dp1953
g66
(dp1954
g93
g94
ssg75
g1943
sg68
(lp1955
S':'
asbag61
(g82
g63
NtRp1956
(dp1957
g66
(dp1958
sg75
g1943
sg68
(lp1959
g61
(g62
g63
NtRp1960
(dp1961
g66
(dp1962
g74
I4
ssg75
g1956
sg68
(lp1963
g104
asbasbasbag61
(g77
g63
NtRp1964
(dp1965
g66
(dp1966
sg75
g956
sg68
(lp1967
g61
(g82
g63
NtRp1968
(dp1969
g66
(dp1970
g86
g87
ssg75
g1964
sg68
(lp1971
S'wsgi_multithread'
p1972
asbag61
(g82
g63
NtRp1973
(dp1974
g66
(dp1975
g93
g94
ssg75
g1964
sg68
(lp1976
S':'
asbag61
(g82
g63
NtRp1977
(dp1978
g66
(dp1979
sg75
g1964
sg68
(lp1980
g61
(g62
g63
NtRp1981
(dp1982
g66
(dp1983
g74
I4
ssg75
g1977
sg68
(lp1984
S'True'
p1985
asbasbasbag61
(g77
g63
NtRp1986
(dp1987
g66
(dp1988
sg75
g956
sg68
(lp1989
g61
(g82
g63
NtRp1990
(dp1991
g66
(dp1992
g86
g87
ssg75
g1986
sg68
(lp1993
S'wsgi_run_once'
p1994
asbag61
(g82
g63
NtRp1995
(dp1996
g66
(dp1997
g93
g94
ssg75
g1986
sg68
(lp1998
S':'
asbag61
(g82
g63
NtRp1999
(dp2000
g66
(dp2001
sg75
g1986
sg68
(lp2002
g61
(g62
g63
NtRp2003
(dp2004
g66
(dp2005
g74
I4
ssg75
g1999
sg68
(lp2006
g104
asbasbasbag61
(g77
g63
NtRp2007
(dp2008
g66
(dp2009
sg75
g956
sg68
(lp2010
g61
(g82
g63
NtRp2011
(dp2012
g66
(dp2013
g86
g87
ssg75
g2007
sg68
(lp2014
S'wsgi_url_scheme'
p2015
asbag61
(g82
g63
NtRp2016
(dp2017
g66
(dp2018
g93
g94
ssg75
g2007
sg68
(lp2019
S':'
asbag61
(g82
g63
NtRp2020
(dp2021
g66
(dp2022
sg75
g2007
sg68
(lp2023
g61
(g62
g63
NtRp2024
(dp2025
g66
(dp2026
g74
I4
ssg75
g2020
sg68
(lp2027
S'http'
p2028
asbasbasbag61
(g77
g63
NtRp2029
(dp2030
g66
(dp2031
sg75
g956
sg68
(lp2032
g61
(g82
g63
NtRp2033
(dp2034
g66
(dp2035
g86
g87
ssg75
g2029
sg68
(lp2036
S'wsgi_version'
p2037
asbag61
(g82
g63
NtRp2038
(dp2039
g66
(dp2040
g93
g94
ssg75
g2029
sg68
(lp2041
S':'
asbag61
(g82
g63
NtRp2042
(dp2043
g66
(dp2044
sg75
g2029
sg68
(lp2045
g61
(g62
g63
NtRp2046
(dp2047
g66
(dp2048
g74
I4
ssg75
g2042
sg68
(lp2049
g61
(g70
g63
NtRp2050
(dp2051
g66
(dp2052
g74
I3
ssg75
Nsg68
(lp2053
g61
(g77
g63
NtRp2054
(dp2055
g66
(dp2056
sg75
g2050
sg68
(lp2057
g61
(g82
g63
NtRp2058
(dp2059
g66
(dp2060
sg75
g2054
sg68
(lp2061
g61
(g62
g63
NtRp2062
(dp2063
g66
(dp2064
g74
I3
ssg75
g2058
sg68
(lp2065
S'1'
asbasbasbag61
(g77
g63
NtRp2066
(dp2067
g66
(dp2068
sg75
g2050
sg68
(lp2069
g61
(g82
g63
NtRp2070
(dp2071
g66
(dp2072
sg75
g2066
sg68
(lp2073
g61
(g62
g63
NtRp2074
(dp2075
g66
(dp2076
g74
I3
ssg75
g2070
sg68
(lp2077
S'0'
asbasbasbasbasbasbasbasbasbasbasbag61
(g77
g63
NtRp2078
(dp2079
g66
(dp2080
sg75
g71
sg68
(lp2081
g61
(g82
g63
NtRp2082
(dp2083
g66
(dp2084
g86
g87
ssg75
g2078
sg68
(lp2085
S'extension'
p2086
asbag61
(g82
g63
NtRp2087
(dp2088
g66
(dp2089
g93
g94
ssg75
g2078
sg68
(lp2090
S':'
asbag61
(g82
g63
NtRp2091
(dp2092
g66
(dp2093
sg75
g2078
sg68
(lp2094
g61
(g62
g63
NtRp2095
(dp2096
g66
(dp2097
g74
I5
ssg75
g2091
sg68
(lp2098
S'html'
p2099
asbasbasbag61
(g77
g63
NtRp2100
(dp2101
g66
(dp2102
sg75
g71
sg68
(lp2103
g61
(g82
g63
NtRp2104
(dp2105
g66
(dp2106
g86
g87
ssg75
g2100
sg68
(lp2107
S'folder'
p2108
asbag61
(g82
g63
NtRp2109
(dp2110
g66
(dp2111
g93
g94
ssg75
g2100
sg68
(lp2112
S':'
asbag61
(g82
g63
NtRp2113
(dp2114
g66
(dp2115
sg75
g2100
sg68
(lp2116
g61
(g62
g63
NtRp2117
(dp2118
g66
(dp2119
g74
I5
ssg75
g2113
sg68
(lp2120
S'/Users/abaric/Downloads/web2py/web2py.app/Contents/Resources/applications/Final_Impulse/'
p2121
asbasbasbag61
(g77
g63
NtRp2122
(dp2123
g66
(dp2124
sg75
g71
sg68
(lp2125
g61
(g82
g63
NtRp2126
(dp2127
g66
(dp2128
g86
g87
ssg75
g2122
sg68
(lp2129
S'function'
p2130
asbag61
(g82
g63
NtRp2131
(dp2132
g66
(dp2133
g93
g94
ssg75
g2122
sg68
(lp2134
S':'
asbag61
(g82
g63
NtRp2135
(dp2136
g66
(dp2137
sg75
g2122
sg68
(lp2138
g61
(g62
g63
NtRp2139
(dp2140
g66
(dp2141
g74
I5
ssg75
g2135
sg68
(lp2142
S'show_writing_comments'
p2143
asbasbasbag61
(g77
g63
NtRp2144
(dp2145
g66
(dp2146
sg75
g71
sg68
(lp2147
g61
(g82
g63
NtRp2148
(dp2149
g66
(dp2150
g86
g87
ssg75
g2144
sg68
(lp2151
S'get_vars'
p2152
asbag61
(g82
g63
NtRp2153
(dp2154
g66
(dp2155
g93
g94
ssg75
g2144
sg68
(lp2156
S':'
asbag61
(g82
g63
NtRp2157
(dp2158
g66
(dp2159
sg75
g2144
sg68
(lp2160
g61
(g62
g63
NtRp2161
(dp2162
g66
(dp2163
g74
I5
ssg75
g2157
sg68
(lp2164
g61
(g70
g63
NtRp2165
(dp2166
g66
(dp2167
g74
I4
ssg75
Nsg68
(lp2168
sbasbasbasbag61
(g77
g63
NtRp2169
(dp2170
g66
(dp2171
sg75
g71
sg68
(lp2172
g61
(g82
g63
NtRp2173
(dp2174
g66
(dp2175
g86
g87
ssg75
g2169
sg68
(lp2176
S'global_settings'
p2177
asbag61
(g82
g63
NtRp2178
(dp2179
g66
(dp2180
g93
g94
ssg75
g2169
sg68
(lp2181
S':'
asbag61
(g82
g63
NtRp2182
(dp2183
g66
(dp2184
sg75
g2169
sg68
(lp2185
g61
(g62
g63
NtRp2186
(dp2187
g66
(dp2188
g74
I5
ssg75
g2182
sg68
(lp2189
g61
(g70
g63
NtRp2190
(dp2191
g66
(dp2192
g74
I4
ssg75
Nsg68
(lp2193
g61
(g77
g63
NtRp2194
(dp2195
g66
(dp2196
sg75
g2190
sg68
(lp2197
g61
(g82
g63
NtRp2198
(dp2199
g66
(dp2200
g86
g87
ssg75
g2194
sg68
(lp2201
g968
asbag61
(g82
g63
NtRp2202
(dp2203
g66
(dp2204
g93
g94
ssg75
g2194
sg68
(lp2205
S':'
asbag61
(g82
g63
NtRp2206
(dp2207
g66
(dp2208
sg75
g2194
sg68
(lp2209
g61
(g62
g63
NtRp2210
(dp2211
g66
(dp2212
g74
I4
ssg75
g2206
sg68
(lp2213
S"set(['/Users/abaric/Downloads/web2py/web2py.app/Contents/Resources/applications/examples/', '/Users/abaric/Downloads/web2py/web2py.app/Contents/Resources/applications/Final_Impulse/', '/Users/abaric/Downloads/web2py/web2py.app/Contents/Resources/applications/Course_Recommendations/', '/Users/abaric/Downloads/web2py/web2py.app/Contents/Resources/applications/welcome/', '/Users/abaric/Downloads/web2py/web2py.app/Contents/Resources/applications/admin/'])"
p2214
asbasbasbag61
(g77
g63
NtRp2215
(dp2216
g66
(dp2217
sg75
g2190
sg68
(lp2218
g61
(g82
g63
NtRp2219
(dp2220
g66
(dp2221
g86
g87
ssg75
g2215
sg68
(lp2222
g990
asbag61
(g82
g63
NtRp2223
(dp2224
g66
(dp2225
g93
g94
ssg75
g2215
sg68
(lp2226
S':'
asbag61
(g82
g63
NtRp2227
(dp2228
g66
(dp2229
sg75
g2215
sg68
(lp2230
g61
(g62
g63
NtRp2231
(dp2232
g66
(dp2233
g74
I4
ssg75
g2227
sg68
(lp2234
g1003
asbasbasbag61
(g77
g63
NtRp2235
(dp2236
g66
(dp2237
sg75
g2190
sg68
(lp2238
g61
(g82
g63
NtRp2239
(dp2240
g66
(dp2241
g86
g87
ssg75
g2235
sg68
(lp2242
g1012
asbag61
(g82
g63
NtRp2243
(dp2244
g66
(dp2245
g93
g94
ssg75
g2235
sg68
(lp2246
S':'
asbag61
(g82
g63
NtRp2247
(dp2248
g66
(dp2249
sg75
g2235
sg68
(lp2250
g61
(g62
g63
NtRp2251
(dp2252
g66
(dp2253
g74
I4
ssg75
g2247
sg68
(lp2254
g61
(g70
g63
NtRp2255
(dp2256
g66
(dp2257
g74
I3
ssg75
Nsg68
(lp2258
sbasbasbasbag61
(g77
g63
NtRp2259
(dp2260
g66
(dp2261
sg75
g2190
sg68
(lp2262
g61
(g82
g63
NtRp2263
(dp2264
g66
(dp2265
g86
g87
ssg75
g2259
sg68
(lp2266
g1037
asbag61
(g82
g63
NtRp2267
(dp2268
g66
(dp2269
g93
g94
ssg75
g2259
sg68
(lp2270
S':'
asbag61
(g82
g63
NtRp2271
(dp2272
g66
(dp2273
sg75
g2259
sg68
(lp2274
g61
(g62
g63
NtRp2275
(dp2276
g66
(dp2277
g74
I4
ssg75
g2271
sg68
(lp2278
S"<Values at 0x43bc1c0: {'verbose': False, 'ip': '127.0.0.1', 'with_scheduler': False, 'ips': [], 'shutdown_timeout': 5, 'taskbar': False, 'port': 8000, 'maxthreads': None, 'softcron': False, 'server_name': 'Andrea-Barics-MacBook-Pro.local', 'bpython': False, 'nogui': False, 'pid_filename': 'httpserver.pid', 'extcron': False, 'runcron': False, 'run_system_tests': False, 'test': None, 'folder': '/Users/abaric/Downloads/web2py/web2py.app/Contents/Resources', 'config': '', 'import_models': False, 'winservice': '', 'shell': None, 'run': '', 'log_filename': 'httpserver.log', 'debuglevel': 30, 'args': [''], 'socket_timeout': 5, 'ssl_ca_certificate': None, 'scheduler': None, 'profiler_filename': None, 'ssl_private_key': '', 'scheduler_groups': None, 'password': '<ask>', 'request_queue_size': 5, 'ssl_certificate': '', 'cronjob': False, 'numthreads': None, 'quiet': False, 'interfaces': None, 'minthreads': None, 'timeout': 10, 'plain': False, 'nobanner': False}>"
p2279
asbasbasbag61
(g77
g63
NtRp2280
(dp2281
g66
(dp2282
sg75
g2190
sg68
(lp2283
g61
(g82
g63
NtRp2284
(dp2285
g66
(dp2286
g86
g87
ssg75
g2280
sg68
(lp2287
g1103
asbag61
(g82
g63
NtRp2288
(dp2289
g66
(dp2290
g93
g94
ssg75
g2280
sg68
(lp2291
S':'
asbag61
(g82
g63
NtRp2292
(dp2293
g66
(dp2294
sg75
g2280
sg68
(lp2295
g61
(g62
g63
NtRp2296
(dp2297
g66
(dp2298
g74
I4
ssg75
g2292
sg68
(lp2299
S'set([])'
p2300
asbasbasbag61
(g77
g63
NtRp2301
(dp2302
g66
(dp2303
sg75
g2190
sg68
(lp2304
g61
(g82
g63
NtRp2305
(dp2306
g66
(dp2307
g86
g87
ssg75
g2301
sg68
(lp2308
g1125
asbag61
(g82
g63
NtRp2309
(dp2310
g66
(dp2311
g93
g94
ssg75
g2301
sg68
(lp2312
S':'
asbag61
(g82
g63
NtRp2313
(dp2314
g66
(dp2315
sg75
g2301
sg68
(lp2316
g61
(g62
g63
NtRp2317
(dp2318
g66
(dp2319
g74
I4
ssg75
g2313
sg68
(lp2320
g104
asbasbasbag61
(g77
g63
NtRp2321
(dp2322
g66
(dp2323
sg75
g2190
sg68
(lp2324
g61
(g82
g63
NtRp2325
(dp2326
g66
(dp2327
g86
g87
ssg75
g2321
sg68
(lp2328
g1146
asbag61
(g82
g63
NtRp2329
(dp2330
g66
(dp2331
g93
g94
ssg75
g2321
sg68
(lp2332
S':'
asbag61
(g82
g63
NtRp2333
(dp2334
g66
(dp2335
sg75
g2321
sg68
(lp2336
g61
(g62
g63
NtRp2337
(dp2338
g66
(dp2339
g74
I4
ssg75
g2333
sg68
(lp2340
g1159
asbasbasbag61
(g77
g63
NtRp2341
(dp2342
g66
(dp2343
sg75
g2190
sg68
(lp2344
g61
(g82
g63
NtRp2345
(dp2346
g66
(dp2347
g86
g87
ssg75
g2341
sg68
(lp2348
g1408
asbag61
(g82
g63
NtRp2349
(dp2350
g66
(dp2351
g93
g94
ssg75
g2341
sg68
(lp2352
S':'
asbag61
(g82
g63
NtRp2353
(dp2354
g66
(dp2355
sg75
g2341
sg68
(lp2356
g61
(g62
g63
NtRp2357
(dp2358
g66
(dp2359
g74
I4
ssg75
g2353
sg68
(lp2360
g104
asbasbasbag61
(g77
g63
NtRp2361
(dp2362
g66
(dp2363
sg75
g2190
sg68
(lp2364
g61
(g82
g63
NtRp2365
(dp2366
g66
(dp2367
g86
g87
ssg75
g2361
sg68
(lp2368
g1429
asbag61
(g82
g63
NtRp2369
(dp2370
g66
(dp2371
g93
g94
ssg75
g2361
sg68
(lp2372
S':'
asbag61
(g82
g63
NtRp2373
(dp2374
g66
(dp2375
sg75
g2361
sg68
(lp2376
g61
(g62
g63
NtRp2377
(dp2378
g66
(dp2379
g74
I4
ssg75
g2373
sg68
(lp2380
g104
asbasbasbag61
(g77
g63
NtRp2381
(dp2382
g66
(dp2383
sg75
g2190
sg68
(lp2384
g61
(g82
g63
NtRp2385
(dp2386
g66
(dp2387
g86
g87
ssg75
g2381
sg68
(lp2388
g1450
asbag61
(g82
g63
NtRp2389
(dp2390
g66
(dp2391
g93
g94
ssg75
g2381
sg68
(lp2392
S':'
asbag61
(g82
g63
NtRp2393
(dp2394
g66
(dp2395
sg75
g2381
sg68
(lp2396
g61
(g62
g63
NtRp2397
(dp2398
g66
(dp2399
g74
I4
ssg75
g2393
sg68
(lp2400
g61
(g70
g63
NtRp2401
(dp2402
g66
(dp2403
g74
I3
ssg75
Nsg68
(lp2404
g61
(g77
g63
NtRp2405
(dp2406
g66
(dp2407
sg75
g2401
sg68
(lp2408
g61
(g82
g63
NtRp2409
(dp2410
g66
(dp2411
sg75
g2405
sg68
(lp2412
g61
(g62
g63
NtRp2413
(dp2414
g66
(dp2415
g74
I3
ssg75
g2409
sg68
(lp2416
g1479
asbasbasbag61
(g77
g63
NtRp2417
(dp2418
g66
(dp2419
sg75
g2401
sg68
(lp2420
g61
(g82
g63
NtRp2421
(dp2422
g66
(dp2423
sg75
g2417
sg68
(lp2424
g61
(g62
g63
NtRp2425
(dp2426
g66
(dp2427
g74
I3
ssg75
g2421
sg68
(lp2428
g1492
asbasbasbag61
(g77
g63
NtRp2429
(dp2430
g66
(dp2431
sg75
g2401
sg68
(lp2432
g61
(g82
g63
NtRp2433
(dp2434
g66
(dp2435
sg75
g2429
sg68
(lp2436
g61
(g62
g63
NtRp2437
(dp2438
g66
(dp2439
g74
I3
ssg75
g2433
sg68
(lp2440
g1505
asbasbasbag61
(g77
g63
NtRp2441
(dp2442
g66
(dp2443
sg75
g2401
sg68
(lp2444
g61
(g82
g63
NtRp2445
(dp2446
g66
(dp2447
sg75
g2441
sg68
(lp2448
g61
(g62
g63
NtRp2449
(dp2450
g66
(dp2451
g74
I3
ssg75
g2445
sg68
(lp2452
g1518
asbasbasbag61
(g77
g63
NtRp2453
(dp2454
g66
(dp2455
sg75
g2401
sg68
(lp2456
g61
(g82
g63
NtRp2457
(dp2458
g66
(dp2459
sg75
g2453
sg68
(lp2460
g61
(g62
g63
NtRp2461
(dp2462
g66
(dp2463
g74
I3
ssg75
g2457
sg68
(lp2464
g1531
asbasbasbasbasbasbasbag61
(g77
g63
NtRp2465
(dp2466
g66
(dp2467
sg75
g2190
sg68
(lp2468
g61
(g82
g63
NtRp2469
(dp2470
g66
(dp2471
g86
g87
ssg75
g2465
sg68
(lp2472
g1798
asbag61
(g82
g63
NtRp2473
(dp2474
g66
(dp2475
g93
g94
ssg75
g2465
sg68
(lp2476
S':'
asbag61
(g82
g63
NtRp2477
(dp2478
g66
(dp2479
sg75
g2465
sg68
(lp2480
g61
(g62
g63
NtRp2481
(dp2482
g66
(dp2483
g74
I4
ssg75
g2477
sg68
(lp2484
g61
(g70
g63
NtRp2485
(dp2486
g66
(dp2487
g74
I3
ssg75
Nsg68
(lp2488
g61
(g77
g63
NtRp2489
(dp2490
g66
(dp2491
sg75
g2485
sg68
(lp2492
g61
(g82
g63
NtRp2493
(dp2494
g66
(dp2495
sg75
g2489
sg68
(lp2496
g61
(g62
g63
NtRp2497
(dp2498
g66
(dp2499
g74
I3
ssg75
g2493
sg68
(lp2500
S'2'
asbasbasbag61
(g77
g63
NtRp2501
(dp2502
g66
(dp2503
sg75
g2485
sg68
(lp2504
g61
(g82
g63
NtRp2505
(dp2506
g66
(dp2507
sg75
g2501
sg68
(lp2508
g61
(g62
g63
NtRp2509
(dp2510
g66
(dp2511
g74
I3
ssg75
g2505
sg68
(lp2512
S'2'
asbasbasbag61
(g77
g63
NtRp2513
(dp2514
g66
(dp2515
sg75
g2485
sg68
(lp2516
g61
(g82
g63
NtRp2517
(dp2518
g66
(dp2519
sg75
g2513
sg68
(lp2520
g61
(g62
g63
NtRp2521
(dp2522
g66
(dp2523
g74
I3
ssg75
g2517
sg68
(lp2524
S'1'
asbasbasbag61
(g77
g63
NtRp2525
(dp2526
g66
(dp2527
sg75
g2485
sg68
(lp2528
g61
(g82
g63
NtRp2529
(dp2530
g66
(dp2531
sg75
g2525
sg68
(lp2532
g61
(g62
g63
NtRp2533
(dp2534
g66
(dp2535
g74
I3
ssg75
g2529
sg68
(lp2536
S'datetime.datetime(2012, 10, 21, 16, 57, 4)'
p2537
asbasbasbag61
(g77
g63
NtRp2538
(dp2539
g66
(dp2540
sg75
g2485
sg68
(lp2541
g61
(g82
g63
NtRp2542
(dp2543
g66
(dp2544
sg75
g2538
sg68
(lp2545
g61
(g62
g63
NtRp2546
(dp2547
g66
(dp2548
g74
I3
ssg75
g2542
sg68
(lp2549
g1876
asbasbasbasbasbasbasbasbasbasbasbag61
(g77
g63
NtRp2550
(dp2551
g66
(dp2552
sg75
g71
sg68
(lp2553
g61
(g82
g63
NtRp2554
(dp2555
g66
(dp2556
g86
g87
ssg75
g2550
sg68
(lp2557
S'is_https'
p2558
asbag61
(g82
g63
NtRp2559
(dp2560
g66
(dp2561
g93
g94
ssg75
g2550
sg68
(lp2562
S':'
asbag61
(g82
g63
NtRp2563
(dp2564
g66
(dp2565
sg75
g2550
sg68
(lp2566
g61
(g62
g63
NtRp2567
(dp2568
g66
(dp2569
g74
I5
ssg75
g2563
sg68
(lp2570
g104
asbasbasbag61
(g77
g63
NtRp2571
(dp2572
g66
(dp2573
sg75
g71
sg68
(lp2574
g61
(g82
g63
NtRp2575
(dp2576
g66
(dp2577
g86
g87
ssg75
g2571
sg68
(lp2578
S'is_local'
p2579
asbag61
(g82
g63
NtRp2580
(dp2581
g66
(dp2582
g93
g94
ssg75
g2571
sg68
(lp2583
S':'
asbag61
(g82
g63
NtRp2584
(dp2585
g66
(dp2586
sg75
g2571
sg68
(lp2587
g61
(g62
g63
NtRp2588
(dp2589
g66
(dp2590
g74
I5
ssg75
g2584
sg68
(lp2591
g1985
asbasbasbag61
(g77
g63
NtRp2592
(dp2593
g66
(dp2594
sg75
g71
sg68
(lp2595
g61
(g82
g63
NtRp2596
(dp2597
g66
(dp2598
g86
g87
ssg75
g2592
sg68
(lp2599
S'is_restful'
p2600
asbag61
(g82
g63
NtRp2601
(dp2602
g66
(dp2603
g93
g94
ssg75
g2592
sg68
(lp2604
S':'
asbag61
(g82
g63
NtRp2605
(dp2606
g66
(dp2607
sg75
g2592
sg68
(lp2608
g61
(g62
g63
NtRp2609
(dp2610
g66
(dp2611
g74
I5
ssg75
g2605
sg68
(lp2612
g104
asbasbasbag61
(g77
g63
NtRp2613
(dp2614
g66
(dp2615
sg75
g71
sg68
(lp2616
g61
(g82
g63
NtRp2617
(dp2618
g66
(dp2619
g86
g87
ssg75
g2613
sg68
(lp2620
S'now'
p2621
asbag61
(g82
g63
NtRp2622
(dp2623
g66
(dp2624
g93
g94
ssg75
g2613
sg68
(lp2625
S':'
asbag61
(g82
g63
NtRp2626
(dp2627
g66
(dp2628
sg75
g2613
sg68
(lp2629
g61
(g62
g63
NtRp2630
(dp2631
g66
(dp2632
g74
I5
ssg75
g2626
sg68
(lp2633
S'datetime.datetime(2014, 6, 9, 9, 1, 39, 433279)'
p2634
asbasbasbag61
(g77
g63
NtRp2635
(dp2636
g66
(dp2637
sg75
g71
sg68
(lp2638
g61
(g82
g63
NtRp2639
(dp2640
g66
(dp2641
g86
g87
ssg75
g2635
sg68
(lp2642
S'post_vars'
p2643
asbag61
(g82
g63
NtRp2644
(dp2645
g66
(dp2646
g93
g94
ssg75
g2635
sg68
(lp2647
S':'
asbag61
(g82
g63
NtRp2648
(dp2649
g66
(dp2650
sg75
g2635
sg68
(lp2651
g61
(g62
g63
NtRp2652
(dp2653
g66
(dp2654
g74
I5
ssg75
g2648
sg68
(lp2655
g61
(g70
g63
NtRp2656
(dp2657
g66
(dp2658
g74
I4
ssg75
Nsg68
(lp2659
g61
(g77
g63
NtRp2660
(dp2661
g66
(dp2662
sg75
g2656
sg68
(lp2663
g61
(g82
g63
NtRp2664
(dp2665
g66
(dp2666
g86
g87
ssg75
g2660
sg68
(lp2667
S'body'
p2668
asbag61
(g82
g63
NtRp2669
(dp2670
g66
(dp2671
g93
g94
ssg75
g2660
sg68
(lp2672
S':'
asbag61
(g82
g63
NtRp2673
(dp2674
g66
(dp2675
sg75
g2660
sg68
(lp2676
g61
(g62
g63
NtRp2677
(dp2678
g66
(dp2679
g74
I4
ssg75
g2673
sg68
(lp2680
S'this is a poem\r\ni am so talented\r\nwow so good\r\ni know thanks\r\ngoodbye\r\n       ok'
p2681
asbasbasbag61
(g77
g63
NtRp2682
(dp2683
g66
(dp2684
sg75
g2656
sg68
(lp2685
g61
(g82
g63
NtRp2686
(dp2687
g66
(dp2688
g86
g87
ssg75
g2682
sg68
(lp2689
S'title'
p2690
asbag61
(g82
g63
NtRp2691
(dp2692
g66
(dp2693
g93
g94
ssg75
g2682
sg68
(lp2694
S':'
asbag61
(g82
g63
NtRp2695
(dp2696
g66
(dp2697
sg75
g2682
sg68
(lp2698
g61
(g62
g63
NtRp2699
(dp2700
g66
(dp2701
g74
I4
ssg75
g2695
sg68
(lp2702
S'a poem'
p2703
asbasbasbasbasbasbasbag61
(g77
g63
NtRp2704
(dp2705
g66
(dp2706
sg75
g71
sg68
(lp2707
g61
(g82
g63
NtRp2708
(dp2709
g66
(dp2710
g86
g87
ssg75
g2704
sg68
(lp2711
S'raw_args'
p2712
asbag61
(g82
g63
NtRp2713
(dp2714
g66
(dp2715
g93
g94
ssg75
g2704
sg68
(lp2716
S':'
asbag61
(g82
g63
NtRp2717
(dp2718
g66
(dp2719
sg75
g2704
sg68
(lp2720
g61
(g62
g63
NtRp2721
(dp2722
g66
(dp2723
g74
I5
ssg75
g2717
sg68
(lp2724
S''
asbasbasbag61
(g77
g63
NtRp2725
(dp2726
g66
(dp2727
sg75
g71
sg68
(lp2728
g61
(g82
g63
NtRp2729
(dp2730
g66
(dp2731
g86
g87
ssg75
g2725
sg68
(lp2732
S'raw_extension'
p2733
asbag61
(g82
g63
NtRp2734
(dp2735
g66
(dp2736
g93
g94
ssg75
g2725
sg68
(lp2737
S':'
asbag61
(g82
g63
NtRp2738
(dp2739
g66
(dp2740
sg75
g2725
sg68
(lp2741
g61
(g62
g63
NtRp2742
(dp2743
g66
(dp2744
g74
I5
ssg75
g2738
sg68
(lp2745
S'None'
p2746
asbasbasbag61
(g77
g63
NtRp2747
(dp2748
g66
(dp2749
sg75
g71
sg68
(lp2750
g61
(g82
g63
NtRp2751
(dp2752
g66
(dp2753
g86
g87
ssg75
g2747
sg68
(lp2754
S'url'
p2755
asbag61
(g82
g63
NtRp2756
(dp2757
g66
(dp2758
g93
g94
ssg75
g2747
sg68
(lp2759
S':'
asbag61
(g82
g63
NtRp2760
(dp2761
g66
(dp2762
sg75
g2747
sg68
(lp2763
g61
(g62
g63
NtRp2764
(dp2765
g66
(dp2766
g74
I5
ssg75
g2760
sg68
(lp2767
g1553
asbasbasbag61
(g77
g63
NtRp2768
(dp2769
g66
(dp2770
sg75
g71
sg68
(lp2771
g61
(g82
g63
NtRp2772
(dp2773
g66
(dp2774
g86
g87
ssg75
g2768
sg68
(lp2775
S'utcnow'
p2776
asbag61
(g82
g63
NtRp2777
(dp2778
g66
(dp2779
g93
g94
ssg75
g2768
sg68
(lp2780
S':'
asbag61
(g82
g63
NtRp2781
(dp2782
g66
(dp2783
sg75
g2768
sg68
(lp2784
g61
(g62
g63
NtRp2785
(dp2786
g66
(dp2787
g74
I5
ssg75
g2781
sg68
(lp2788
S'datetime.datetime(2014, 6, 9, 13, 1, 39, 433290)'
p2789
asbasbasbag61
(g77
g63
NtRp2790
(dp2791
g66
(dp2792
sg75
g71
sg68
(lp2793
g61
(g82
g63
NtRp2794
(dp2795
g66
(dp2796
g86
g87
ssg75
g2790
sg68
(lp2797
S'uuid'
p2798
asbag61
(g82
g63
NtRp2799
(dp2800
g66
(dp2801
g93
g94
ssg75
g2790
sg68
(lp2802
S':'
asbag61
(g82
g63
NtRp2803
(dp2804
g66
(dp2805
sg75
g2790
sg68
(lp2806
g61
(g62
g63
NtRp2807
(dp2808
g66
(dp2809
g74
I5
ssg75
g2803
sg68
(lp2810
S'Final_Impulse/127.0.0.1.2014-06-09.09-01-39.b5e846f3-c902-4629-8909-13aa39af1a89'
p2811
asbasbasbag61
(g77
g63
NtRp2812
(dp2813
g66
(dp2814
sg75
g71
sg68
(lp2815
g61
(g82
g63
NtRp2816
(dp2817
g66
(dp2818
g86
g87
ssg75
g2812
sg68
(lp2819
S'vars'
p2820
asbag61
(g82
g63
NtRp2821
(dp2822
g66
(dp2823
g93
g94
ssg75
g2812
sg68
(lp2824
S':'
asbag61
(g82
g63
NtRp2825
(dp2826
g66
(dp2827
sg75
g2812
sg68
(lp2828
g61
(g62
g63
NtRp2829
(dp2830
g66
(dp2831
g74
I5
ssg75
g2825
sg68
(lp2832
g61
(g70
g63
NtRp2833
(dp2834
g66
(dp2835
g74
I4
ssg75
Nsg68
(lp2836
g61
(g77
g63
NtRp2837
(dp2838
g66
(dp2839
sg75
g2833
sg68
(lp2840
g61
(g82
g63
NtRp2841
(dp2842
g66
(dp2843
g86
g87
ssg75
g2837
sg68
(lp2844
g2668
asbag61
(g82
g63
NtRp2845
(dp2846
g66
(dp2847
g93
g94
ssg75
g2837
sg68
(lp2848
S':'
asbag61
(g82
g63
NtRp2849
(dp2850
g66
(dp2851
sg75
g2837
sg68
(lp2852
g61
(g62
g63
NtRp2853
(dp2854
g66
(dp2855
g74
I4
ssg75
g2849
sg68
(lp2856
g2681
asbasbasbag61
(g77
g63
NtRp2857
(dp2858
g66
(dp2859
sg75
g2833
sg68
(lp2860
g61
(g82
g63
NtRp2861
(dp2862
g66
(dp2863
g86
g87
ssg75
g2857
sg68
(lp2864
g2690
asbag61
(g82
g63
NtRp2865
(dp2866
g66
(dp2867
g93
g94
ssg75
g2857
sg68
(lp2868
S':'
asbag61
(g82
g63
NtRp2869
(dp2870
g66
(dp2871
sg75
g2857
sg68
(lp2872
g61
(g62
g63
NtRp2873
(dp2874
g66
(dp2875
g74
I4
ssg75
g2869
sg68
(lp2876
g2703
asbasbasbasbasbasbasbag61
(g77
g63
NtRp2877
(dp2878
g66
(dp2879
sg75
g71
sg68
(lp2880
g61
(g82
g63
NtRp2881
(dp2882
g66
(dp2883
g86
g87
ssg75
g2877
sg68
(lp2884
S'wsgi'
p2885
asbag61
(g82
g63
NtRp2886
(dp2887
g66
(dp2888
g93
g94
ssg75
g2877
sg68
(lp2889
S':'
asbag61
(g82
g63
NtRp2890
(dp2891
g66
(dp2892
sg75
g2877
sg68
(lp2893
g61
(g62
g63
NtRp2894
(dp2895
g66
(dp2896
g74
I5
ssg75
g2890
sg68
(lp2897
g61
(g70
g63
NtRp2898
(dp2899
g66
(dp2900
g74
I4
ssg75
Nsg68
(lp2901
g61
(g77
g63
NtRp2902
(dp2903
g66
(dp2904
sg75
g2898
sg68
(lp2905
g61
(g82
g63
NtRp2906
(dp2907
g66
(dp2908
g86
g87
ssg75
g2902
sg68
(lp2909
S'environ'
p2910
asbag61
(g82
g63
NtRp2911
(dp2912
g66
(dp2913
g93
g94
ssg75
g2902
sg68
(lp2914
S':'
asbag61
(g82
g63
NtRp2915
(dp2916
g66
(dp2917
sg75
g2902
sg68
(lp2918
g61
(g62
g63
NtRp2919
(dp2920
g66
(dp2921
g74
I4
ssg75
g2915
sg68
(lp2922
g61
(g70
g63
NtRp2923
(dp2924
g66
(dp2925
g74
I3
ssg75
Nsg68
(lp2926
g61
(g77
g63
NtRp2927
(dp2928
g66
(dp2929
sg75
g2923
sg68
(lp2930
g61
(g82
g63
NtRp2931
(dp2932
g66
(dp2933
g86
g87
ssg75
g2927
sg68
(lp2934
S'CONTENT_LENGTH'
p2935
asbag61
(g82
g63
NtRp2936
(dp2937
g66
(dp2938
g93
g94
ssg75
g2927
sg68
(lp2939
S':'
asbag61
(g82
g63
NtRp2940
(dp2941
g66
(dp2942
sg75
g2927
sg68
(lp2943
g61
(g62
g63
NtRp2944
(dp2945
g66
(dp2946
g74
I3
ssg75
g2940
sg68
(lp2947
g1072
asbasbasbag61
(g77
g63
NtRp2948
(dp2949
g66
(dp2950
sg75
g2923
sg68
(lp2951
g61
(g82
g63
NtRp2952
(dp2953
g66
(dp2954
g86
g87
ssg75
g2948
sg68
(lp2955
S'CONTENT_TYPE'
p2956
asbag61
(g82
g63
NtRp2957
(dp2958
g66
(dp2959
g93
g94
ssg75
g2948
sg68
(lp2960
S':'
asbag61
(g82
g63
NtRp2961
(dp2962
g66
(dp2963
sg75
g2948
sg68
(lp2964
g61
(g62
g63
NtRp2965
(dp2966
g66
(dp2967
g74
I3
ssg75
g2961
sg68
(lp2968
g1094
asbasbasbag61
(g77
g63
NtRp2969
(dp2970
g66
(dp2971
sg75
g2923
sg68
(lp2972
g61
(g82
g63
NtRp2973
(dp2974
g66
(dp2975
g86
g87
ssg75
g2969
sg68
(lp2976
S'HTTP_ACCEPT'
p2977
asbag61
(g82
g63
NtRp2978
(dp2979
g66
(dp2980
g93
g94
ssg75
g2969
sg68
(lp2981
S':'
asbag61
(g82
g63
NtRp2982
(dp2983
g66
(dp2984
sg75
g2969
sg68
(lp2985
g61
(g62
g63
NtRp2986
(dp2987
g66
(dp2988
g74
I3
ssg75
g2982
sg68
(lp2989
g1181
asbasbasbag61
(g77
g63
NtRp2990
(dp2991
g66
(dp2992
sg75
g2923
sg68
(lp2993
g61
(g82
g63
NtRp2994
(dp2995
g66
(dp2996
g86
g87
ssg75
g2990
sg68
(lp2997
S'HTTP_ACCEPT_ENCODING'
p2998
asbag61
(g82
g63
NtRp2999
(dp3000
g66
(dp3001
g93
g94
ssg75
g2990
sg68
(lp3002
S':'
asbag61
(g82
g63
NtRp3003
(dp3004
g66
(dp3005
sg75
g2990
sg68
(lp3006
g61
(g62
g63
NtRp3007
(dp3008
g66
(dp3009
g74
I3
ssg75
g3003
sg68
(lp3010
g1203
asbasbasbag61
(g77
g63
NtRp3011
(dp3012
g66
(dp3013
sg75
g2923
sg68
(lp3014
g61
(g82
g63
NtRp3015
(dp3016
g66
(dp3017
g86
g87
ssg75
g3011
sg68
(lp3018
S'HTTP_ACCEPT_LANGUAGE'
p3019
asbag61
(g82
g63
NtRp3020
(dp3021
g66
(dp3022
g93
g94
ssg75
g3011
sg68
(lp3023
S':'
asbag61
(g82
g63
NtRp3024
(dp3025
g66
(dp3026
sg75
g3011
sg68
(lp3027
g61
(g62
g63
NtRp3028
(dp3029
g66
(dp3030
g74
I3
ssg75
g3024
sg68
(lp3031
g1225
asbasbasbag61
(g77
g63
NtRp3032
(dp3033
g66
(dp3034
sg75
g2923
sg68
(lp3035
g61
(g82
g63
NtRp3036
(dp3037
g66
(dp3038
g86
g87
ssg75
g3032
sg68
(lp3039
S'HTTP_CONNECTION'
p3040
asbag61
(g82
g63
NtRp3041
(dp3042
g66
(dp3043
g93
g94
ssg75
g3032
sg68
(lp3044
S':'
asbag61
(g82
g63
NtRp3045
(dp3046
g66
(dp3047
sg75
g3032
sg68
(lp3048
g61
(g62
g63
NtRp3049
(dp3050
g66
(dp3051
g74
I3
ssg75
g3045
sg68
(lp3052
g1247
asbasbasbag61
(g77
g63
NtRp3053
(dp3054
g66
(dp3055
sg75
g2923
sg68
(lp3056
g61
(g82
g63
NtRp3057
(dp3058
g66
(dp3059
g86
g87
ssg75
g3053
sg68
(lp3060
S'HTTP_CONTENT_LENGTH'
p3061
asbag61
(g82
g63
NtRp3062
(dp3063
g66
(dp3064
g93
g94
ssg75
g3053
sg68
(lp3065
S':'
asbag61
(g82
g63
NtRp3066
(dp3067
g66
(dp3068
sg75
g3053
sg68
(lp3069
g61
(g62
g63
NtRp3070
(dp3071
g66
(dp3072
g74
I3
ssg75
g3066
sg68
(lp3073
g1072
asbasbasbag61
(g77
g63
NtRp3074
(dp3075
g66
(dp3076
sg75
g2923
sg68
(lp3077
g61
(g82
g63
NtRp3078
(dp3079
g66
(dp3080
g86
g87
ssg75
g3074
sg68
(lp3081
S'HTTP_CONTENT_TYPE'
p3082
asbag61
(g82
g63
NtRp3083
(dp3084
g66
(dp3085
g93
g94
ssg75
g3074
sg68
(lp3086
S':'
asbag61
(g82
g63
NtRp3087
(dp3088
g66
(dp3089
sg75
g3074
sg68
(lp3090
g61
(g62
g63
NtRp3091
(dp3092
g66
(dp3093
g74
I3
ssg75
g3087
sg68
(lp3094
g1094
asbasbasbag61
(g77
g63
NtRp3095
(dp3096
g66
(dp3097
sg75
g2923
sg68
(lp3098
g61
(g82
g63
NtRp3099
(dp3100
g66
(dp3101
g86
g87
ssg75
g3095
sg68
(lp3102
S'HTTP_COOKIE'
p3103
asbag61
(g82
g63
NtRp3104
(dp3105
g66
(dp3106
g93
g94
ssg75
g3095
sg68
(lp3107
S':'
asbag61
(g82
g63
NtRp3108
(dp3109
g66
(dp3110
sg75
g3095
sg68
(lp3111
g61
(g62
g63
NtRp3112
(dp3113
g66
(dp3114
g74
I3
ssg75
g3108
sg68
(lp3115
g1311
asbasbasbag61
(g77
g63
NtRp3116
(dp3117
g66
(dp3118
sg75
g2923
sg68
(lp3119
g61
(g82
g63
NtRp3120
(dp3121
g66
(dp3122
g86
g87
ssg75
g3116
sg68
(lp3123
S'HTTP_HOST'
p3124
asbag61
(g82
g63
NtRp3125
(dp3126
g66
(dp3127
g93
g94
ssg75
g3116
sg68
(lp3128
S':'
asbag61
(g82
g63
NtRp3129
(dp3130
g66
(dp3131
sg75
g3116
sg68
(lp3132
g61
(g62
g63
NtRp3133
(dp3134
g66
(dp3135
g74
I3
ssg75
g3129
sg68
(lp3136
g1333
asbasbasbag61
(g77
g63
NtRp3137
(dp3138
g66
(dp3139
sg75
g2923
sg68
(lp3140
g61
(g82
g63
NtRp3141
(dp3142
g66
(dp3143
g86
g87
ssg75
g3137
sg68
(lp3144
S'HTTP_ORIGIN'
p3145
asbag61
(g82
g63
NtRp3146
(dp3147
g66
(dp3148
g93
g94
ssg75
g3137
sg68
(lp3149
S':'
asbag61
(g82
g63
NtRp3150
(dp3151
g66
(dp3152
sg75
g3137
sg68
(lp3153
g61
(g62
g63
NtRp3154
(dp3155
g66
(dp3156
g74
I3
ssg75
g3150
sg68
(lp3157
g1355
asbasbasbag61
(g77
g63
NtRp3158
(dp3159
g66
(dp3160
sg75
g2923
sg68
(lp3161
g61
(g82
g63
NtRp3162
(dp3163
g66
(dp3164
g86
g87
ssg75
g3158
sg68
(lp3165
S'HTTP_REFERER'
p3166
asbag61
(g82
g63
NtRp3167
(dp3168
g66
(dp3169
g93
g94
ssg75
g3158
sg68
(lp3170
S':'
asbag61
(g82
g63
NtRp3171
(dp3172
g66
(dp3173
sg75
g3158
sg68
(lp3174
g61
(g62
g63
NtRp3175
(dp3176
g66
(dp3177
g74
I3
ssg75
g3171
sg68
(lp3178
g1377
asbasbasbag61
(g77
g63
NtRp3179
(dp3180
g66
(dp3181
sg75
g2923
sg68
(lp3182
g61
(g82
g63
NtRp3183
(dp3184
g66
(dp3185
g86
g87
ssg75
g3179
sg68
(lp3186
S'HTTP_USER_AGENT'
p3187
asbag61
(g82
g63
NtRp3188
(dp3189
g66
(dp3190
g93
g94
ssg75
g3179
sg68
(lp3191
S':'
asbag61
(g82
g63
NtRp3192
(dp3193
g66
(dp3194
sg75
g3179
sg68
(lp3195
g61
(g62
g63
NtRp3196
(dp3197
g66
(dp3198
g74
I3
ssg75
g3192
sg68
(lp3199
g1399
asbasbasbag61
(g77
g63
NtRp3200
(dp3201
g66
(dp3202
sg75
g2923
sg68
(lp3203
g61
(g82
g63
NtRp3204
(dp3205
g66
(dp3206
g86
g87
ssg75
g3200
sg68
(lp3207
S'PATH_INFO'
p3208
asbag61
(g82
g63
NtRp3209
(dp3210
g66
(dp3211
g93
g94
ssg75
g3200
sg68
(lp3212
S':'
asbag61
(g82
g63
NtRp3213
(dp3214
g66
(dp3215
sg75
g3200
sg68
(lp3216
g61
(g62
g63
NtRp3217
(dp3218
g66
(dp3219
g74
I3
ssg75
g3213
sg68
(lp3220
g1553
asbasbasbag61
(g77
g63
NtRp3221
(dp3222
g66
(dp3223
sg75
g2923
sg68
(lp3224
g61
(g82
g63
NtRp3225
(dp3226
g66
(dp3227
g86
g87
ssg75
g3221
sg68
(lp3228
S'QUERY_STRING'
p3229
asbag61
(g82
g63
NtRp3230
(dp3231
g66
(dp3232
g93
g94
ssg75
g3221
sg68
(lp3233
S':'
asbag61
(g82
g63
NtRp3234
(dp3235
g66
(dp3236
sg75
g3221
sg68
(lp3237
g61
(g62
g63
NtRp3238
(dp3239
g66
(dp3240
g74
I3
ssg75
g3234
sg68
(lp3241
S''
asbasbasbag61
(g77
g63
NtRp3242
(dp3243
g66
(dp3244
sg75
g2923
sg68
(lp3245
g61
(g82
g63
NtRp3246
(dp3247
g66
(dp3248
g86
g87
ssg75
g3242
sg68
(lp3249
S'REMOTE_ADDR'
p3250
asbag61
(g82
g63
NtRp3251
(dp3252
g66
(dp3253
g93
g94
ssg75
g3242
sg68
(lp3254
S':'
asbag61
(g82
g63
NtRp3255
(dp3256
g66
(dp3257
sg75
g3242
sg68
(lp3258
g61
(g62
g63
NtRp3259
(dp3260
g66
(dp3261
g74
I3
ssg75
g3255
sg68
(lp3262
g216
asbasbasbag61
(g77
g63
NtRp3263
(dp3264
g66
(dp3265
sg75
g2923
sg68
(lp3266
g61
(g82
g63
NtRp3267
(dp3268
g66
(dp3269
g86
g87
ssg75
g3263
sg68
(lp3270
S'REMOTE_PORT'
p3271
asbag61
(g82
g63
NtRp3272
(dp3273
g66
(dp3274
g93
g94
ssg75
g3263
sg68
(lp3275
S':'
asbag61
(g82
g63
NtRp3276
(dp3277
g66
(dp3278
sg75
g3263
sg68
(lp3279
g61
(g62
g63
NtRp3280
(dp3281
g66
(dp3282
g74
I3
ssg75
g3276
sg68
(lp3283
g1617
asbasbasbag61
(g77
g63
NtRp3284
(dp3285
g66
(dp3286
sg75
g2923
sg68
(lp3287
g61
(g82
g63
NtRp3288
(dp3289
g66
(dp3290
g86
g87
ssg75
g3284
sg68
(lp3291
S'REQUEST_METHOD'
p3292
asbag61
(g82
g63
NtRp3293
(dp3294
g66
(dp3295
g93
g94
ssg75
g3284
sg68
(lp3296
S':'
asbag61
(g82
g63
NtRp3297
(dp3298
g66
(dp3299
sg75
g3284
sg68
(lp3300
g61
(g62
g63
NtRp3301
(dp3302
g66
(dp3303
g74
I3
ssg75
g3297
sg68
(lp3304
g1639
asbasbasbag61
(g77
g63
NtRp3305
(dp3306
g66
(dp3307
sg75
g2923
sg68
(lp3308
g61
(g82
g63
NtRp3309
(dp3310
g66
(dp3311
g86
g87
ssg75
g3305
sg68
(lp3312
S'REQUEST_URI'
p3313
asbag61
(g82
g63
NtRp3314
(dp3315
g66
(dp3316
g93
g94
ssg75
g3305
sg68
(lp3317
S':'
asbag61
(g82
g63
NtRp3318
(dp3319
g66
(dp3320
sg75
g3305
sg68
(lp3321
g61
(g62
g63
NtRp3322
(dp3323
g66
(dp3324
g74
I3
ssg75
g3318
sg68
(lp3325
g1553
asbasbasbag61
(g77
g63
NtRp3326
(dp3327
g66
(dp3328
sg75
g2923
sg68
(lp3329
g61
(g82
g63
NtRp3330
(dp3331
g66
(dp3332
g86
g87
ssg75
g3326
sg68
(lp3333
S'SCRIPT_NAME'
p3334
asbag61
(g82
g63
NtRp3335
(dp3336
g66
(dp3337
g93
g94
ssg75
g3326
sg68
(lp3338
S':'
asbag61
(g82
g63
NtRp3339
(dp3340
g66
(dp3341
sg75
g3326
sg68
(lp3342
g61
(g62
g63
NtRp3343
(dp3344
g66
(dp3345
g74
I3
ssg75
g3339
sg68
(lp3346
S''
asbasbasbag61
(g77
g63
NtRp3347
(dp3348
g66
(dp3349
sg75
g2923
sg68
(lp3350
g61
(g82
g63
NtRp3351
(dp3352
g66
(dp3353
g86
g87
ssg75
g3347
sg68
(lp3354
S'SERVER_NAME'
p3355
asbag61
(g82
g63
NtRp3356
(dp3357
g66
(dp3358
g93
g94
ssg75
g3347
sg68
(lp3359
S':'
asbag61
(g82
g63
NtRp3360
(dp3361
g66
(dp3362
sg75
g3347
sg68
(lp3363
g61
(g62
g63
NtRp3364
(dp3365
g66
(dp3366
g74
I3
ssg75
g3360
sg68
(lp3367
g1518
asbasbasbag61
(g77
g63
NtRp3368
(dp3369
g66
(dp3370
sg75
g2923
sg68
(lp3371
g61
(g82
g63
NtRp3372
(dp3373
g66
(dp3374
g86
g87
ssg75
g3368
sg68
(lp3375
S'SERVER_PORT'
p3376
asbag61
(g82
g63
NtRp3377
(dp3378
g66
(dp3379
g93
g94
ssg75
g3368
sg68
(lp3380
S':'
asbag61
(g82
g63
NtRp3381
(dp3382
g66
(dp3383
sg75
g3368
sg68
(lp3384
g61
(g62
g63
NtRp3385
(dp3386
g66
(dp3387
g74
I3
ssg75
g3381
sg68
(lp3388
g1724
asbasbasbag61
(g77
g63
NtRp3389
(dp3390
g66
(dp3391
sg75
g2923
sg68
(lp3392
g61
(g82
g63
NtRp3393
(dp3394
g66
(dp3395
g86
g87
ssg75
g3389
sg68
(lp3396
S'SERVER_PROTOCOL'
p3397
asbag61
(g82
g63
NtRp3398
(dp3399
g66
(dp3400
g93
g94
ssg75
g3389
sg68
(lp3401
S':'
asbag61
(g82
g63
NtRp3402
(dp3403
g66
(dp3404
sg75
g3389
sg68
(lp3405
g61
(g62
g63
NtRp3406
(dp3407
g66
(dp3408
g74
I3
ssg75
g3402
sg68
(lp3409
g1746
asbasbasbag61
(g77
g63
NtRp3410
(dp3411
g66
(dp3412
sg75
g2923
sg68
(lp3413
g61
(g82
g63
NtRp3414
(dp3415
g66
(dp3416
g86
g87
ssg75
g3410
sg68
(lp3417
S'SERVER_SOFTWARE'
p3418
asbag61
(g82
g63
NtRp3419
(dp3420
g66
(dp3421
g93
g94
ssg75
g3410
sg68
(lp3422
S':'
asbag61
(g82
g63
NtRp3423
(dp3424
g66
(dp3425
sg75
g3410
sg68
(lp3426
g61
(g62
g63
NtRp3427
(dp3428
g66
(dp3429
g74
I3
ssg75
g3423
sg68
(lp3430
g1768
asbasbasbag61
(g77
g63
NtRp3431
(dp3432
g66
(dp3433
sg75
g2923
sg68
(lp3434
g61
(g82
g63
NtRp3435
(dp3436
g66
(dp3437
g86
g87
ssg75
g3431
sg68
(lp3438
S'wsgi.errors'
p3439
asbag61
(g82
g63
NtRp3440
(dp3441
g66
(dp3442
g93
g94
ssg75
g3431
sg68
(lp3443
S':'
asbag61
(g82
g63
NtRp3444
(dp3445
g66
(dp3446
sg75
g3431
sg68
(lp3447
g61
(g62
g63
NtRp3448
(dp3449
g66
(dp3450
g74
I3
ssg75
g3444
sg68
(lp3451
S"<open file '<stderr>', mode 'w' at 0x540b0>"
p3452
asbasbasbag61
(g77
g63
NtRp3453
(dp3454
g66
(dp3455
sg75
g2923
sg68
(lp3456
g61
(g82
g63
NtRp3457
(dp3458
g66
(dp3459
g86
g87
ssg75
g3453
sg68
(lp3460
S'wsgi.file_wrapper'
p3461
asbag61
(g82
g63
NtRp3462
(dp3463
g66
(dp3464
g93
g94
ssg75
g3453
sg68
(lp3465
S':'
asbag61
(g82
g63
NtRp3466
(dp3467
g66
(dp3468
sg75
g3453
sg68
(lp3469
g61
(g62
g63
NtRp3470
(dp3471
g66
(dp3472
g74
I3
ssg75
g3466
sg68
(lp3473
S'<class wsgiref.util.FileWrapper at 0x45782d0>'
p3474
asbasbasbag61
(g77
g63
NtRp3475
(dp3476
g66
(dp3477
sg75
g2923
sg68
(lp3478
g61
(g82
g63
NtRp3479
(dp3480
g66
(dp3481
g86
g87
ssg75
g3475
sg68
(lp3482
S'wsgi.input'
p3483
asbag61
(g82
g63
NtRp3484
(dp3485
g66
(dp3486
g93
g94
ssg75
g3475
sg68
(lp3487
S':'
asbag61
(g82
g63
NtRp3488
(dp3489
g66
(dp3490
sg75
g3475
sg68
(lp3491
g61
(g62
g63
NtRp3492
(dp3493
g66
(dp3494
g74
I3
ssg75
g3488
sg68
(lp3495
S"<open file '<fdopen>', mode 'w+b' at 0x8dcf140>"
p3496
asbasbasbag61
(g77
g63
NtRp3497
(dp3498
g66
(dp3499
sg75
g2923
sg68
(lp3500
g61
(g82
g63
NtRp3501
(dp3502
g66
(dp3503
g86
g87
ssg75
g3497
sg68
(lp3504
S'wsgi.multiprocess'
p3505
asbag61
(g82
g63
NtRp3506
(dp3507
g66
(dp3508
g93
g94
ssg75
g3497
sg68
(lp3509
S':'
asbag61
(g82
g63
NtRp3510
(dp3511
g66
(dp3512
sg75
g3497
sg68
(lp3513
g61
(g62
g63
NtRp3514
(dp3515
g66
(dp3516
g74
I3
ssg75
g3510
sg68
(lp3517
g104
asbasbasbag61
(g77
g63
NtRp3518
(dp3519
g66
(dp3520
sg75
g2923
sg68
(lp3521
g61
(g82
g63
NtRp3522
(dp3523
g66
(dp3524
g86
g87
ssg75
g3518
sg68
(lp3525
S'wsgi.multithread'
p3526
asbag61
(g82
g63
NtRp3527
(dp3528
g66
(dp3529
g93
g94
ssg75
g3518
sg68
(lp3530
S':'
asbag61
(g82
g63
NtRp3531
(dp3532
g66
(dp3533
sg75
g3518
sg68
(lp3534
g61
(g62
g63
NtRp3535
(dp3536
g66
(dp3537
g74
I3
ssg75
g3531
sg68
(lp3538
g1985
asbasbasbag61
(g77
g63
NtRp3539
(dp3540
g66
(dp3541
sg75
g2923
sg68
(lp3542
g61
(g82
g63
NtRp3543
(dp3544
g66
(dp3545
g86
g87
ssg75
g3539
sg68
(lp3546
S'wsgi.run_once'
p3547
asbag61
(g82
g63
NtRp3548
(dp3549
g66
(dp3550
g93
g94
ssg75
g3539
sg68
(lp3551
S':'
asbag61
(g82
g63
NtRp3552
(dp3553
g66
(dp3554
sg75
g3539
sg68
(lp3555
g61
(g62
g63
NtRp3556
(dp3557
g66
(dp3558
g74
I3
ssg75
g3552
sg68
(lp3559
g104
asbasbasbag61
(g77
g63
NtRp3560
(dp3561
g66
(dp3562
sg75
g2923
sg68
(lp3563
g61
(g82
g63
NtRp3564
(dp3565
g66
(dp3566
g86
g87
ssg75
g3560
sg68
(lp3567
S'wsgi.url_scheme'
p3568
asbag61
(g82
g63
NtRp3569
(dp3570
g66
(dp3571
g93
g94
ssg75
g3560
sg68
(lp3572
S':'
asbag61
(g82
g63
NtRp3573
(dp3574
g66
(dp3575
sg75
g3560
sg68
(lp3576
g61
(g62
g63
NtRp3577
(dp3578
g66
(dp3579
g74
I3
ssg75
g3573
sg68
(lp3580
g2028
asbasbasbag61
(g77
g63
NtRp3581
(dp3582
g66
(dp3583
sg75
g2923
sg68
(lp3584
g61
(g82
g63
NtRp3585
(dp3586
g66
(dp3587
g86
g87
ssg75
g3581
sg68
(lp3588
S'wsgi.version'
p3589
asbag61
(g82
g63
NtRp3590
(dp3591
g66
(dp3592
g93
g94
ssg75
g3581
sg68
(lp3593
S':'
asbag61
(g82
g63
NtRp3594
(dp3595
g66
(dp3596
sg75
g3581
sg68
(lp3597
g61
(g62
g63
NtRp3598
(dp3599
g66
(dp3600
g74
I3
ssg75
g3594
sg68
(lp3601
S'1'
asbasbasbasbasbasbasbasbasbasbasbasbasbsS'frames'
p3602
(lp3603
(dp3604
S'file'
p3605
S'/Users/abaric/Downloads/web2py/web2py.app/Contents/Resources/gluon/restricted.py'
p3606
sS'dump'
p3607
(dp3608
sS'lnum'
p3609
I212
sS'lines'
p3610
(dp3611
sS'call'
p3612
S"(code='from gluon.tools import datetime\\nfrom gluon.tool...se._vars=response._caller(show_writing_comments)\\n', environment={'A': <class 'gluon.html.A'>, 'Auth': <class 'gluon.tools.Auth'>, 'B': <class 'gluon.html.B'>, 'BEAUTIFY': <class 'gluon.html.BEAUTIFY'>, 'BODY': <class 'gluon.html.BODY'>, 'BR': <class 'gluon.html.BR'>, 'BUTTON': <class 'gluon.html.BUTTON'>, 'CAT': <class 'gluon.html.CAT'>, 'CENTER': <class 'gluon.html.CENTER'>, 'CLEANUP': <class 'gluon.validators.CLEANUP'>, ...}, layer='/Users/abaric/Downloads/web2py/web2py.app/Conten...applications/Final_Impulse/controllers/default.py')"
p3613
sS'func'
p3614
S'restricted'
p3615
sa(dp3616
g3605
S'/Users/abaric/Downloads/web2py/web2py.app/Contents/Resources/applications/Final_Impulse/controllers/default.py'
p3617
sg3607
(dp3618
sg3609
I157
sg3610
(dp3619
I146
S'                                  video_id=video_id,'
p3620
sI147
S'                                  email=None,'
p3621
sI148
S'                                  body=video_comment,'
p3622
sI149
S'                                  date_of_entry=datetime.datetime.today())'
p3623
sI150
S'        db.commit()'
p3624
sI151
S''
sI152
S'    else:'
p3625
sI153
S"        session.flash='You must log in to post a comment.'"
p3626
sI154
S"    redirect(URL('show_video_comments'))"
p3627
sI155
S'    return locals()'
p3628
ssg3612
S'()'
p3629
sg3614
S'<module>'
p3630
sa(dp3631
g3605
S'/Users/abaric/Downloads/web2py/web2py.app/Contents/Resources/gluon/globals.py'
p3632
sg3607
(dp3633
sg3609
I188
sg3610
(dp3634
sg3612
S'(f=<function show_writing_comments at 0x8cfe9f0>)'
p3635
sg3614
S'<lambda>'
p3636
sa(dp3637
g3605
S'/Users/abaric/Downloads/web2py/web2py.app/Contents/Resources/applications/Final_Impulse/controllers/default.py'
p3638
sg3607
(dp3639
sg3609
I61
sg3610
(dp3640
I64
S'    writings=db(db.writing).select(db.writing.ALL, orderby=db.writing.id)'
p3641
sI65
S'    d={}'
p3642
sI56
S'    return locals()'
p3643
sI57
S''
sI58
S'def show_writing_comments():'
p3644
sI59
S"    writing_form=SQLFORM(db.writing,fields=['title','body'],labels={'body':'Insert your post'})"
p3645
sI60
S'    writing_form.vars.author_id=auth.user.id'
p3646
sI61
S'    if writing_form.process().accepted:'
p3647
sI62
S"        response.flash='writing post submitted!'"
p3648
sI63
S''
ssg3612
S'()'
p3649
sg3614
S'show_writing_comments'
p3650
sa(dp3651
g3605
S'/Users/abaric/Downloads/web2py/web2py.app/Contents/Resources/gluon/html.py'
p3652
sg3607
(dp3653
sg3609
I2170
sg3610
(dp3654
sg3612
S"(self=<gluon.sqlhtml.SQLFORM object at 0x8bdbcf0>, **kwargs={'dbio': True})"
p3655
sg3614
S'process'
p3656
sa(dp3657
g3605
S'/Users/abaric/Downloads/web2py/web2py.app/Contents/Resources/gluon/html.py'
p3658
sg3607
(dp3659
sg3609
I2109
sg3610
(dp3660
sg3612
S"(self=<gluon.sqlhtml.SQLFORM object at 0x8bdbcf0>, **kwargs={'dbio': True, 'request_vars': <Storage {'body': 'this is a poem\\r\\ni am so tal..._formname': 'writing/create', 'title': 'a poem'}>, 'session': <Storage {'_formkey[image/create]': '5baf2b83-27...reate]': 'cf933a56-b246-4f82-b116-0c9a860d1b5c'}>})"
p3661
sg3614
S'validate'
p3662
sa(dp3663
g3605
S'/Users/abaric/Downloads/web2py/web2py.app/Contents/Resources/gluon/sqlhtml.py'
p3664
sg3607
(dp3665
sg3609
I1475
sg3610
(dp3666
sg3612
S"(self=<gluon.sqlhtml.SQLFORM object at 0x8bdbcf0>, request_vars=<Storage {'body': 'this is a poem\\r\\ni am so tal..._formname': 'writing/create', 'title': 'a poem'}>, session=<Storage {'_formkey[image/create]': '5baf2b83-27...reate]': 'cf933a56-b246-4f82-b116-0c9a860d1b5c'}>, formname='writing/create', keepvalues=False, onvalidation=None, dbio=True, hideerror=False, detect_record_change=False, **kwargs={})"
p3667
sg3614
S'accepts'
p3668
sa(dp3669
g3605
S'/Users/abaric/Downloads/web2py/web2py.app/Contents/Resources/gluon/dal.py'
p3670
sg3607
(dp3671
sg3609
I7806
sg3610
(dp3672
sg3612
S"(self=<Table writing (id,title,body)>, **fields={'author_id': 1, 'body': 'this is a poem\\r\\ni am so talented\\r\\nwow so good\\r\\ni know thanks\\r\\ngoodbye\\r\\n       ok', 'title': 'a poem'})"
p3673
sg3614
S'insert'
p3674
sa(dp3675
g3605
S'/Users/abaric/Downloads/web2py/web2py.app/Contents/Resources/gluon/dal.py'
p3676
sg3607
(dp3677
sg3609
I7744
sg3610
(dp3678
sg3612
S"(self=<Table writing (id,title,body)>, fields={'author_id': 1, 'body': 'this is a poem\\r\\ni am so talented\\r\\nwow so good\\r\\ni know thanks\\r\\ngoodbye\\r\\n       ok', 'title': 'a poem'}, update=False)"
p3679
sg3614
S'_listify'
p3680
sasS'pyver'
p3681
S'Python 2.5.1: /Users/abaric/Downloads/web2py/web2py.app/Contents/MacOS/python'
p3682
sS'session'
p3683
g61
(g62
g63
NtRp3684
(dp3685
g66
(dp3686
sg68
(lp3687
g61
(g70
g63
NtRp3688
(dp3689
g66
(dp3690
g74
I5
ssg75
Nsg68
(lp3691
g61
(g77
g63
NtRp3692
(dp3693
g66
(dp3694
sg75
g3688
sg68
(lp3695
g61
(g82
g63
NtRp3696
(dp3697
g66
(dp3698
g86
g87
ssg75
g3692
sg68
(lp3699
S'auth'
p3700
asbag61
(g82
g63
NtRp3701
(dp3702
g66
(dp3703
g93
g94
ssg75
g3692
sg68
(lp3704
S':'
asbag61
(g82
g63
NtRp3705
(dp3706
g66
(dp3707
sg75
g3692
sg68
(lp3708
g61
(g62
g63
NtRp3709
(dp3710
g66
(dp3711
g74
I5
ssg75
g3705
sg68
(lp3712
g61
(g70
g63
NtRp3713
(dp3714
g66
(dp3715
g74
I4
ssg75
Nsg68
(lp3716
g61
(g77
g63
NtRp3717
(dp3718
g66
(dp3719
sg75
g3713
sg68
(lp3720
g61
(g82
g63
NtRp3721
(dp3722
g66
(dp3723
g86
g87
ssg75
g3717
sg68
(lp3724
S'expiration'
p3725
asbag61
(g82
g63
NtRp3726
(dp3727
g66
(dp3728
g93
g94
ssg75
g3717
sg68
(lp3729
S':'
asbag61
(g82
g63
NtRp3730
(dp3731
g66
(dp3732
sg75
g3717
sg68
(lp3733
g61
(g62
g63
NtRp3734
(dp3735
g66
(dp3736
g74
I4
ssg75
g3730
sg68
(lp3737
S'3600'
p3738
asbasbasbag61
(g77
g63
NtRp3739
(dp3740
g66
(dp3741
sg75
g3713
sg68
(lp3742
g61
(g82
g63
NtRp3743
(dp3744
g66
(dp3745
g86
g87
ssg75
g3739
sg68
(lp3746
S'hmac_key'
p3747
asbag61
(g82
g63
NtRp3748
(dp3749
g66
(dp3750
g93
g94
ssg75
g3739
sg68
(lp3751
S':'
asbag61
(g82
g63
NtRp3752
(dp3753
g66
(dp3754
sg75
g3739
sg68
(lp3755
g61
(g62
g63
NtRp3756
(dp3757
g66
(dp3758
g74
I4
ssg75
g3752
sg68
(lp3759
S'709ba8ac-5fd5-4dfc-beac-bcb92aab83e0'
p3760
asbasbasbag61
(g77
g63
NtRp3761
(dp3762
g66
(dp3763
sg75
g3713
sg68
(lp3764
g61
(g82
g63
NtRp3765
(dp3766
g66
(dp3767
g86
g87
ssg75
g3761
sg68
(lp3768
S'last_visit'
p3769
asbag61
(g82
g63
NtRp3770
(dp3771
g66
(dp3772
g93
g94
ssg75
g3761
sg68
(lp3773
S':'
asbag61
(g82
g63
NtRp3774
(dp3775
g66
(dp3776
sg75
g3761
sg68
(lp3777
g61
(g62
g63
NtRp3778
(dp3779
g66
(dp3780
g74
I4
ssg75
g3774
sg68
(lp3781
S'datetime.datetime(2014, 6, 9, 8, 55, 43, 306123)'
p3782
asbasbasbag61
(g77
g63
NtRp3783
(dp3784
g66
(dp3785
sg75
g3713
sg68
(lp3786
g61
(g82
g63
NtRp3787
(dp3788
g66
(dp3789
g86
g87
ssg75
g3783
sg68
(lp3790
S'remember'
p3791
asbag61
(g82
g63
NtRp3792
(dp3793
g66
(dp3794
g93
g94
ssg75
g3783
sg68
(lp3795
S':'
asbag61
(g82
g63
NtRp3796
(dp3797
g66
(dp3798
sg75
g3783
sg68
(lp3799
g61
(g62
g63
NtRp3800
(dp3801
g66
(dp3802
g74
I4
ssg75
g3796
sg68
(lp3803
g104
asbasbasbag61
(g77
g63
NtRp3804
(dp3805
g66
(dp3806
sg75
g3713
sg68
(lp3807
g61
(g82
g63
NtRp3808
(dp3809
g66
(dp3810
g86
g87
ssg75
g3804
sg68
(lp3811
S'user'
p3812
asbag61
(g82
g63
NtRp3813
(dp3814
g66
(dp3815
g93
g94
ssg75
g3804
sg68
(lp3816
S':'
asbag61
(g82
g63
NtRp3817
(dp3818
g66
(dp3819
sg75
g3804
sg68
(lp3820
g61
(g62
g63
NtRp3821
(dp3822
g66
(dp3823
g74
I4
ssg75
g3817
sg68
(lp3824
g61
(g70
g63
NtRp3825
(dp3826
g66
(dp3827
g74
I3
ssg75
Nsg68
(lp3828
g61
(g77
g63
NtRp3829
(dp3830
g66
(dp3831
sg75
g3825
sg68
(lp3832
g61
(g82
g63
NtRp3833
(dp3834
g66
(dp3835
g86
g87
ssg75
g3829
sg68
(lp3836
S'email'
p3837
asbag61
(g82
g63
NtRp3838
(dp3839
g66
(dp3840
g93
g94
ssg75
g3829
sg68
(lp3841
S':'
asbag61
(g82
g63
NtRp3842
(dp3843
g66
(dp3844
sg75
g3829
sg68
(lp3845
g61
(g62
g63
NtRp3846
(dp3847
g66
(dp3848
g74
I3
ssg75
g3842
sg68
(lp3849
S'abaric@agnesirwin.org'
p3850
asbasbasbag61
(g77
g63
NtRp3851
(dp3852
g66
(dp3853
sg75
g3825
sg68
(lp3854
g61
(g82
g63
NtRp3855
(dp3856
g66
(dp3857
g86
g87
ssg75
g3851
sg68
(lp3858
S'first_name'
p3859
asbag61
(g82
g63
NtRp3860
(dp3861
g66
(dp3862
g93
g94
ssg75
g3851
sg68
(lp3863
S':'
asbag61
(g82
g63
NtRp3864
(dp3865
g66
(dp3866
sg75
g3851
sg68
(lp3867
g61
(g62
g63
NtRp3868
(dp3869
g66
(dp3870
g74
I3
ssg75
g3864
sg68
(lp3871
S'Andrea'
p3872
asbasbasbag61
(g77
g63
NtRp3873
(dp3874
g66
(dp3875
sg75
g3825
sg68
(lp3876
g61
(g82
g63
NtRp3877
(dp3878
g66
(dp3879
g86
g87
ssg75
g3873
sg68
(lp3880
S'id'
p3881
asbag61
(g82
g63
NtRp3882
(dp3883
g66
(dp3884
g93
g94
ssg75
g3873
sg68
(lp3885
S':'
asbag61
(g82
g63
NtRp3886
(dp3887
g66
(dp3888
sg75
g3873
sg68
(lp3889
g61
(g62
g63
NtRp3890
(dp3891
g66
(dp3892
g74
I3
ssg75
g3886
sg68
(lp3893
S'1'
asbasbasbag61
(g77
g63
NtRp3894
(dp3895
g66
(dp3896
sg75
g3825
sg68
(lp3897
g61
(g82
g63
NtRp3898
(dp3899
g66
(dp3900
g86
g87
ssg75
g3894
sg68
(lp3901
S'last_name'
p3902
asbag61
(g82
g63
NtRp3903
(dp3904
g66
(dp3905
g93
g94
ssg75
g3894
sg68
(lp3906
S':'
asbag61
(g82
g63
NtRp3907
(dp3908
g66
(dp3909
sg75
g3894
sg68
(lp3910
g61
(g62
g63
NtRp3911
(dp3912
g66
(dp3913
g74
I3
ssg75
g3907
sg68
(lp3914
S'Baric'
p3915
asbasbasbag61
(g77
g63
NtRp3916
(dp3917
g66
(dp3918
sg75
g3825
sg68
(lp3919
g61
(g82
g63
NtRp3920
(dp3921
g66
(dp3922
g86
g87
ssg75
g3916
sg68
(lp3923
S'registration_id'
p3924
asbag61
(g82
g63
NtRp3925
(dp3926
g66
(dp3927
g93
g94
ssg75
g3916
sg68
(lp3928
S':'
asbag61
(g82
g63
NtRp3929
(dp3930
g66
(dp3931
sg75
g3916
sg68
(lp3932
g61
(g62
g63
NtRp3933
(dp3934
g66
(dp3935
g74
I3
ssg75
g3929
sg68
(lp3936
S''
asbasbasbag61
(g77
g63
NtRp3937
(dp3938
g66
(dp3939
sg75
g3825
sg68
(lp3940
g61
(g82
g63
NtRp3941
(dp3942
g66
(dp3943
g86
g87
ssg75
g3937
sg68
(lp3944
S'registration_key'
p3945
asbag61
(g82
g63
NtRp3946
(dp3947
g66
(dp3948
g93
g94
ssg75
g3937
sg68
(lp3949
S':'
asbag61
(g82
g63
NtRp3950
(dp3951
g66
(dp3952
sg75
g3937
sg68
(lp3953
g61
(g62
g63
NtRp3954
(dp3955
g66
(dp3956
g74
I3
ssg75
g3950
sg68
(lp3957
S''
asbasbasbag61
(g77
g63
NtRp3958
(dp3959
g66
(dp3960
sg75
g3825
sg68
(lp3961
g61
(g82
g63
NtRp3962
(dp3963
g66
(dp3964
g86
g87
ssg75
g3958
sg68
(lp3965
S'reset_password_key'
p3966
asbag61
(g82
g63
NtRp3967
(dp3968
g66
(dp3969
g93
g94
ssg75
g3958
sg68
(lp3970
S':'
asbag61
(g82
g63
NtRp3971
(dp3972
g66
(dp3973
sg75
g3958
sg68
(lp3974
g61
(g62
g63
NtRp3975
(dp3976
g66
(dp3977
g74
I3
ssg75
g3971
sg68
(lp3978
S''
asbasbasbasbasbasbasbag61
(g77
g63
NtRp3979
(dp3980
g66
(dp3981
sg75
g3713
sg68
(lp3982
g61
(g82
g63
NtRp3983
(dp3984
g66
(dp3985
g86
g87
ssg75
g3979
sg68
(lp3986
S'user_groups'
p3987
asbag61
(g82
g63
NtRp3988
(dp3989
g66
(dp3990
g93
g94
ssg75
g3979
sg68
(lp3991
S':'
asbag61
(g82
g63
NtRp3992
(dp3993
g66
(dp3994
sg75
g3979
sg68
(lp3995
g61
(g62
g63
NtRp3996
(dp3997
g66
(dp3998
g74
I4
ssg75
g3992
sg68
(lp3999
g61
(g70
g63
NtRp4000
(dp4001
g66
(dp4002
g74
I3
ssg75
Nsg68
(lp4003
sbasbasbasbasbasbasbasbag61
(g77
g63
NtRp4004
(dp4005
g66
(dp4006
sg75
g3688
sg68
(lp4007
g61
(g82
g63
NtRp4008
(dp4009
g66
(dp4010
g86
g87
ssg75
g4004
sg68
(lp4011
S'flash'
p4012
asbag61
(g82
g63
NtRp4013
(dp4014
g66
(dp4015
g93
g94
ssg75
g4004
sg68
(lp4016
S':'
asbag61
(g82
g63
NtRp4017
(dp4018
g66
(dp4019
sg75
g4004
sg68
(lp4020
g61
(g62
g63
NtRp4021
(dp4022
g66
(dp4023
g74
I5
ssg75
g4017
sg68
(lp4024
S'None'
p4025
asbasbasbag61
(g77
g63
NtRp4026
(dp4027
g66
(dp4028
sg75
g3688
sg68
(lp4029
g61
(g82
g63
NtRp4030
(dp4031
g66
(dp4032
g86
g87
ssg75
g4026
sg68
(lp4033
S'last_orderby'
p4034
asbag61
(g82
g63
NtRp4035
(dp4036
g66
(dp4037
g93
g94
ssg75
g4026
sg68
(lp4038
S':'
asbag61
(g82
g63
NtRp4039
(dp4040
g66
(dp4041
sg75
g4026
sg68
(lp4042
g61
(g62
g63
NtRp4043
(dp4044
g66
(dp4045
g74
I5
ssg75
g4039
sg68
(lp4046
S'None'
p4047
asbasbasbag61
(g77
g63
NtRp4048
(dp4049
g66
(dp4050
sg75
g3688
sg68
(lp4051
g61
(g82
g63
NtRp4052
(dp4053
g66
(dp4054
g86
g87
ssg75
g4048
sg68
(lp4055
S'last_query'
p4056
asbag61
(g82
g63
NtRp4057
(dp4058
g66
(dp4059
g93
g94
ssg75
g4048
sg68
(lp4060
S':'
asbag61
(g82
g63
NtRp4061
(dp4062
g66
(dp4063
sg75
g4048
sg68
(lp4064
g61
(g62
g63
NtRp4065
(dp4066
g66
(dp4067
g74
I5
ssg75
g4061
sg68
(lp4068
S'db.video.id>0'
p4069
asbasbasbasbasbsS'etype'
p4070
S"<type 'exceptions.SyntaxError'>"
p4071
sS'date'
p4072
S'Mon Jun  9 09:01:39 2014'
p4073
sS'response'
p4074
g61
(g62
g63
NtRp4075
(dp4076
g66
(dp4077
sg68
(lp4078
g61
(g70
g63
NtRp4079
(dp4080
g66
(dp4081
g74
I5
ssg75
Nsg68
(lp4082
g61
(g77
g63
NtRp4083
(dp4084
g66
(dp4085
sg75
g4079
sg68
(lp4086
g61
(g82
g63
NtRp4087
(dp4088
g66
(dp4089
g86
g87
ssg75
g4083
sg68
(lp4090
g159
asbag61
(g82
g63
NtRp4091
(dp4092
g66
(dp4093
g93
g94
ssg75
g4083
sg68
(lp4094
S':'
asbag61
(g82
g63
NtRp4095
(dp4096
g66
(dp4097
sg75
g4083
sg68
(lp4098
g61
(g62
g63
NtRp4099
(dp4100
g66
(dp4101
g74
I5
ssg75
g4095
sg68
(lp4102
S'<cStringIO.StringO object at 0x8ec2900>'
p4103
asbasbasbag61
(g77
g63
NtRp4104
(dp4105
g66
(dp4106
sg75
g4079
sg68
(lp4107
g61
(g82
g63
NtRp4108
(dp4109
g66
(dp4110
g86
g87
ssg75
g4104
sg68
(lp4111
g247
asbag61
(g82
g63
NtRp4112
(dp4113
g66
(dp4114
g93
g94
ssg75
g4104
sg68
(lp4115
S':'
asbag61
(g82
g63
NtRp4116
(dp4117
g66
(dp4118
sg75
g4104
sg68
(lp4119
g61
(g62
g63
NtRp4120
(dp4121
g66
(dp4122
g74
I5
ssg75
g4116
sg68
(lp4123
g61
(g70
g63
NtRp4124
(dp4125
g66
(dp4126
g74
I4
ssg75
Nsg68
(lp4127
g61
(g77
g63
NtRp4128
(dp4129
g66
(dp4130
sg75
g4124
sg68
(lp4131
g61
(g82
g63
NtRp4132
(dp4133
g66
(dp4134
g86
g87
ssg75
g4128
sg68
(lp4135
S'session_id_final_impulse'
p4136
asbag61
(g82
g63
NtRp4137
(dp4138
g66
(dp4139
g93
g94
ssg75
g4128
sg68
(lp4140
S':'
asbag61
(g82
g63
NtRp4141
(dp4142
g66
(dp4143
sg75
g4128
sg68
(lp4144
g61
(g62
g63
NtRp4145
(dp4146
g66
(dp4147
g74
I4
ssg75
g4141
sg68
(lp4148
g624
ag61
(g70
g63
NtRp4149
(dp4150
g66
(dp4151
g74
I3
ssg75
Nsg68
(lp4152
g61
(g77
g63
NtRp4153
(dp4154
g66
(dp4155
sg75
g4149
sg68
(lp4156
g61
(g82
g63
NtRp4157
(dp4158
g66
(dp4159
g86
g87
ssg75
g4153
sg68
(lp4160
g298
asbag61
(g82
g63
NtRp4161
(dp4162
g66
(dp4163
g93
g94
ssg75
g4153
sg68
(lp4164
S':'
asbag61
(g82
g63
NtRp4165
(dp4166
g66
(dp4167
sg75
g4153
sg68
(lp4168
g61
(g62
g63
NtRp4169
(dp4170
g66
(dp4171
g74
I3
ssg75
g4165
sg68
(lp4172
S''
asbasbasbag61
(g77
g63
NtRp4173
(dp4174
g66
(dp4175
sg75
g4149
sg68
(lp4176
g61
(g82
g63
NtRp4177
(dp4178
g66
(dp4179
g86
g87
ssg75
g4173
sg68
(lp4180
g319
asbag61
(g82
g63
NtRp4181
(dp4182
g66
(dp4183
g93
g94
ssg75
g4173
sg68
(lp4184
S':'
asbag61
(g82
g63
NtRp4185
(dp4186
g66
(dp4187
sg75
g4173
sg68
(lp4188
g61
(g62
g63
NtRp4189
(dp4190
g66
(dp4191
g74
I3
ssg75
g4185
sg68
(lp4192
S''
asbasbasbag61
(g77
g63
NtRp4193
(dp4194
g66
(dp4195
sg75
g4149
sg68
(lp4196
g61
(g82
g63
NtRp4197
(dp4198
g66
(dp4199
g86
g87
ssg75
g4193
sg68
(lp4200
g340
asbag61
(g82
g63
NtRp4201
(dp4202
g66
(dp4203
g93
g94
ssg75
g4193
sg68
(lp4204
S':'
asbag61
(g82
g63
NtRp4205
(dp4206
g66
(dp4207
sg75
g4193
sg68
(lp4208
g61
(g62
g63
NtRp4209
(dp4210
g66
(dp4211
g74
I3
ssg75
g4205
sg68
(lp4212
S''
asbasbasbag61
(g77
g63
NtRp4213
(dp4214
g66
(dp4215
sg75
g4149
sg68
(lp4216
g61
(g82
g63
NtRp4217
(dp4218
g66
(dp4219
g86
g87
ssg75
g4213
sg68
(lp4220
g361
asbag61
(g82
g63
NtRp4221
(dp4222
g66
(dp4223
g93
g94
ssg75
g4213
sg68
(lp4224
S':'
asbag61
(g82
g63
NtRp4225
(dp4226
g66
(dp4227
sg75
g4213
sg68
(lp4228
g61
(g62
g63
NtRp4229
(dp4230
g66
(dp4231
g74
I3
ssg75
g4225
sg68
(lp4232
S''
asbasbasbag61
(g77
g63
NtRp4233
(dp4234
g66
(dp4235
sg75
g4149
sg68
(lp4236
g61
(g82
g63
NtRp4237
(dp4238
g66
(dp4239
g86
g87
ssg75
g4233
sg68
(lp4240
g382
asbag61
(g82
g63
NtRp4241
(dp4242
g66
(dp4243
g93
g94
ssg75
g4233
sg68
(lp4244
S':'
asbag61
(g82
g63
NtRp4245
(dp4246
g66
(dp4247
sg75
g4233
sg68
(lp4248
g61
(g62
g63
NtRp4249
(dp4250
g66
(dp4251
g74
I3
ssg75
g4245
sg68
(lp4252
S'/'
asbasbasbag61
(g77
g63
NtRp4253
(dp4254
g66
(dp4255
sg75
g4149
sg68
(lp4256
g61
(g82
g63
NtRp4257
(dp4258
g66
(dp4259
g86
g87
ssg75
g4253
sg68
(lp4260
g403
asbag61
(g82
g63
NtRp4261
(dp4262
g66
(dp4263
g93
g94
ssg75
g4253
sg68
(lp4264
S':'
asbag61
(g82
g63
NtRp4265
(dp4266
g66
(dp4267
sg75
g4253
sg68
(lp4268
g61
(g62
g63
NtRp4269
(dp4270
g66
(dp4271
g74
I3
ssg75
g4265
sg68
(lp4272
S''
asbasbasbag61
(g77
g63
NtRp4273
(dp4274
g66
(dp4275
sg75
g4149
sg68
(lp4276
g61
(g82
g63
NtRp4277
(dp4278
g66
(dp4279
g86
g87
ssg75
g4273
sg68
(lp4280
g424
asbag61
(g82
g63
NtRp4281
(dp4282
g66
(dp4283
g93
g94
ssg75
g4273
sg68
(lp4284
S':'
asbag61
(g82
g63
NtRp4285
(dp4286
g66
(dp4287
sg75
g4273
sg68
(lp4288
g61
(g62
g63
NtRp4289
(dp4290
g66
(dp4291
g74
I3
ssg75
g4285
sg68
(lp4292
S''
asbasbasbasbasbasbasbasbasbasbasbag61
(g77
g63
NtRp4293
(dp4294
g66
(dp4295
sg75
g4079
sg68
(lp4296
g61
(g82
g63
NtRp4297
(dp4298
g66
(dp4299
g86
g87
ssg75
g4293
sg68
(lp4300
S'delimiters'
p4301
asbag61
(g82
g63
NtRp4302
(dp4303
g66
(dp4304
g93
g94
ssg75
g4293
sg68
(lp4305
S':'
asbag61
(g82
g63
NtRp4306
(dp4307
g66
(dp4308
sg75
g4293
sg68
(lp4309
g61
(g62
g63
NtRp4310
(dp4311
g66
(dp4312
g74
I5
ssg75
g4306
sg68
(lp4313
g61
(g70
g63
NtRp4314
(dp4315
g66
(dp4316
g74
I4
ssg75
Nsg68
(lp4317
g61
(g77
g63
NtRp4318
(dp4319
g66
(dp4320
sg75
g4314
sg68
(lp4321
g61
(g82
g63
NtRp4322
(dp4323
g66
(dp4324
sg75
g4318
sg68
(lp4325
g61
(g62
g63
NtRp4326
(dp4327
g66
(dp4328
g74
I4
ssg75
g4322
sg68
(lp4329
S'{{'
p4330
asbasbasbag61
(g77
g63
NtRp4331
(dp4332
g66
(dp4333
sg75
g4314
sg68
(lp4334
g61
(g82
g63
NtRp4335
(dp4336
g66
(dp4337
sg75
g4331
sg68
(lp4338
g61
(g62
g63
NtRp4339
(dp4340
g66
(dp4341
g74
I4
ssg75
g4335
sg68
(lp4342
S'}}'
p4343
asbasbasbasbasbasbasbag61
(g77
g63
NtRp4344
(dp4345
g66
(dp4346
sg75
g4079
sg68
(lp4347
g61
(g82
g63
NtRp4348
(dp4349
g66
(dp4350
g86
g87
ssg75
g4344
sg68
(lp4351
S'files'
p4352
asbag61
(g82
g63
NtRp4353
(dp4354
g66
(dp4355
g93
g94
ssg75
g4344
sg68
(lp4356
S':'
asbag61
(g82
g63
NtRp4357
(dp4358
g66
(dp4359
sg75
g4344
sg68
(lp4360
g61
(g62
g63
NtRp4361
(dp4362
g66
(dp4363
g74
I5
ssg75
g4357
sg68
(lp4364
g61
(g70
g63
NtRp4365
(dp4366
g66
(dp4367
g74
I4
ssg75
Nsg68
(lp4368
sbasbasbasbag61
(g77
g63
NtRp4369
(dp4370
g66
(dp4371
sg75
g4079
sg68
(lp4372
g61
(g82
g63
NtRp4373
(dp4374
g66
(dp4375
g86
g87
ssg75
g4369
sg68
(lp4376
S'flash'
p4377
asbag61
(g82
g63
NtRp4378
(dp4379
g66
(dp4380
g93
g94
ssg75
g4369
sg68
(lp4381
S':'
asbag61
(g82
g63
NtRp4382
(dp4383
g66
(dp4384
sg75
g4369
sg68
(lp4385
g61
(g62
g63
NtRp4386
(dp4387
g66
(dp4388
g74
I5
ssg75
g4382
sg68
(lp4389
S''
asbasbasbag61
(g77
g63
NtRp4390
(dp4391
g66
(dp4392
sg75
g4079
sg68
(lp4393
g61
(g82
g63
NtRp4394
(dp4395
g66
(dp4396
g86
g87
ssg75
g4390
sg68
(lp4397
S'generic_patterns'
p4398
asbag61
(g82
g63
NtRp4399
(dp4400
g66
(dp4401
g93
g94
ssg75
g4390
sg68
(lp4402
S':'
asbag61
(g82
g63
NtRp4403
(dp4404
g66
(dp4405
sg75
g4390
sg68
(lp4406
g61
(g62
g63
NtRp4407
(dp4408
g66
(dp4409
g74
I5
ssg75
g4403
sg68
(lp4410
g61
(g70
g63
NtRp4411
(dp4412
g66
(dp4413
g74
I4
ssg75
Nsg68
(lp4414
sbasbasbasbag61
(g77
g63
NtRp4415
(dp4416
g66
(dp4417
sg75
g4079
sg68
(lp4418
g61
(g82
g63
NtRp4419
(dp4420
g66
(dp4421
g86
g87
ssg75
g4415
sg68
(lp4422
S'google_analytics_id'
p4423
asbag61
(g82
g63
NtRp4424
(dp4425
g66
(dp4426
g93
g94
ssg75
g4415
sg68
(lp4427
S':'
asbag61
(g82
g63
NtRp4428
(dp4429
g66
(dp4430
sg75
g4415
sg68
(lp4431
g61
(g62
g63
NtRp4432
(dp4433
g66
(dp4434
g74
I5
ssg75
g4428
sg68
(lp4435
S'None'
p4436
asbasbasbag61
(g77
g63
NtRp4437
(dp4438
g66
(dp4439
sg75
g4079
sg68
(lp4440
g61
(g82
g63
NtRp4441
(dp4442
g66
(dp4443
g86
g87
ssg75
g4437
sg68
(lp4444
S'headers'
p4445
asbag61
(g82
g63
NtRp4446
(dp4447
g66
(dp4448
g93
g94
ssg75
g4437
sg68
(lp4449
S':'
asbag61
(g82
g63
NtRp4450
(dp4451
g66
(dp4452
sg75
g4437
sg68
(lp4453
g61
(g62
g63
NtRp4454
(dp4455
g66
(dp4456
g74
I5
ssg75
g4450
sg68
(lp4457
g61
(g70
g63
NtRp4458
(dp4459
g66
(dp4460
g74
I4
ssg75
Nsg68
(lp4461
g61
(g77
g63
NtRp4462
(dp4463
g66
(dp4464
sg75
g4458
sg68
(lp4465
g61
(g82
g63
NtRp4466
(dp4467
g66
(dp4468
g86
g87
ssg75
g4462
sg68
(lp4469
S'X-Powered-By'
p4470
asbag61
(g82
g63
NtRp4471
(dp4472
g66
(dp4473
g93
g94
ssg75
g4462
sg68
(lp4474
S':'
asbag61
(g82
g63
NtRp4475
(dp4476
g66
(dp4477
sg75
g4462
sg68
(lp4478
g61
(g62
g63
NtRp4479
(dp4480
g66
(dp4481
g74
I4
ssg75
g4475
sg68
(lp4482
S'web2py'
p4483
asbasbasbasbasbasbasbag61
(g77
g63
NtRp4484
(dp4485
g66
(dp4486
sg75
g4079
sg68
(lp4487
g61
(g82
g63
NtRp4488
(dp4489
g66
(dp4490
g86
g87
ssg75
g4484
sg68
(lp4491
S'menu'
p4492
asbag61
(g82
g63
NtRp4493
(dp4494
g66
(dp4495
g93
g94
ssg75
g4484
sg68
(lp4496
S':'
asbag61
(g82
g63
NtRp4497
(dp4498
g66
(dp4499
sg75
g4484
sg68
(lp4500
g61
(g62
g63
NtRp4501
(dp4502
g66
(dp4503
g74
I5
ssg75
g4497
sg68
(lp4504
g61
(g70
g63
NtRp4505
(dp4506
g66
(dp4507
g74
I4
ssg75
Nsg68
(lp4508
g61
(g77
g63
NtRp4509
(dp4510
g66
(dp4511
sg75
g4505
sg68
(lp4512
g61
(g82
g63
NtRp4513
(dp4514
g66
(dp4515
sg75
g4509
sg68
(lp4516
g61
(g62
g63
NtRp4517
(dp4518
g66
(dp4519
g74
I4
ssg75
g4513
sg68
(lp4520
g61
(g70
g63
NtRp4521
(dp4522
g66
(dp4523
g74
I3
ssg75
Nsg68
(lp4524
g61
(g77
g63
NtRp4525
(dp4526
g66
(dp4527
sg75
g4521
sg68
(lp4528
g61
(g82
g63
NtRp4529
(dp4530
g66
(dp4531
sg75
g4525
sg68
(lp4532
g61
(g62
g63
NtRp4533
(dp4534
g66
(dp4535
g74
I3
ssg75
g4529
sg68
(lp4536
cgluon.languages
lazyT_unpickle
p4537
(S't\x04\x00\x00\x00Home'
tRp4538
asbasbasbag61
(g77
g63
NtRp4539
(dp4540
g66
(dp4541
sg75
g4521
sg68
(lp4542
g61
(g82
g63
NtRp4543
(dp4544
g66
(dp4545
sg75
g4539
sg68
(lp4546
g61
(g62
g63
NtRp4547
(dp4548
g66
(dp4549
g74
I3
ssg75
g4543
sg68
(lp4550
g104
asbasbasbag61
(g77
g63
NtRp4551
(dp4552
g66
(dp4553
sg75
g4521
sg68
(lp4554
g61
(g82
g63
NtRp4555
(dp4556
g66
(dp4557
sg75
g4551
sg68
(lp4558
g61
(g62
g63
NtRp4559
(dp4560
g66
(dp4561
g74
I3
ssg75
g4555
sg68
(lp4562
S'/Final_Impulse/default/index'
p4563
asbasbasbag61
(g77
g63
NtRp4564
(dp4565
g66
(dp4566
sg75
g4521
sg68
(lp4567
g61
(g82
g63
NtRp4568
(dp4569
g66
(dp4570
sg75
g4564
sg68
(lp4571
g61
(g62
g63
NtRp4572
(dp4573
g66
(dp4574
g74
I3
ssg75
g4568
sg68
(lp4575
g61
(g70
g63
NtRp4576
(dp4577
g66
(dp4578
g74
I2
ssg75
Nsg68
(lp4579
sbasbasbasbasbasbasbasbag61
(g77
g63
NtRp4580
(dp4581
g66
(dp4582
sg75
g4505
sg68
(lp4583
g61
(g82
g63
NtRp4584
(dp4585
g66
(dp4586
sg75
g4580
sg68
(lp4587
g61
(g62
g63
NtRp4588
(dp4589
g66
(dp4590
g74
I4
ssg75
g4584
sg68
(lp4591
g61
(g70
g63
NtRp4592
(dp4593
g66
(dp4594
g74
I3
ssg75
Nsg68
(lp4595
g61
(g77
g63
NtRp4596
(dp4597
g66
(dp4598
sg75
g4592
sg68
(lp4599
g61
(g82
g63
NtRp4600
(dp4601
g66
(dp4602
sg75
g4596
sg68
(lp4603
g61
(g62
g63
NtRp4604
(dp4605
g66
(dp4606
g74
I3
ssg75
g4600
sg68
(lp4607
g61
(cgluon.html
SPAN
p4608
g63
NtRp4609
(dp4610
g66
(dp4611
S'_class'
p4612
S'highlighted'
p4613
ssg75
Nsg68
(lp4614
g4483
asbasbasbasbag61
(g77
g63
NtRp4615
(dp4616
g66
(dp4617
sg75
g4592
sg68
(lp4618
g61
(g82
g63
NtRp4619
(dp4620
g66
(dp4621
sg75
g4615
sg68
(lp4622
g61
(g62
g63
NtRp4623
(dp4624
g66
(dp4625
g74
I3
ssg75
g4619
sg68
(lp4626
g104
asbasbasbag61
(g77
g63
NtRp4627
(dp4628
g66
(dp4629
sg75
g4592
sg68
(lp4630
g61
(g82
g63
NtRp4631
(dp4632
g66
(dp4633
sg75
g4627
sg68
(lp4634
g61
(g62
g63
NtRp4635
(dp4636
g66
(dp4637
g74
I3
ssg75
g4631
sg68
(lp4638
S'http://web2py.com'
p4639
asbasbasbag61
(g77
g63
NtRp4640
(dp4641
g66
(dp4642
sg75
g4592
sg68
(lp4643
g61
(g82
g63
NtRp4644
(dp4645
g66
(dp4646
sg75
g4640
sg68
(lp4647
g61
(g62
g63
NtRp4648
(dp4649
g66
(dp4650
g74
I3
ssg75
g4644
sg68
(lp4651
g61
(g70
g63
NtRp4652
(dp4653
g66
(dp4654
g74
I2
ssg75
Nsg68
(lp4655
g61
(g77
g63
NtRp4656
(dp4657
g66
(dp4658
sg75
g4652
sg68
(lp4659
g61
(g82
g63
NtRp4660
(dp4661
g66
(dp4662
sg75
g4656
sg68
(lp4663
g61
(g62
g63
NtRp4664
(dp4665
g66
(dp4666
g74
I2
ssg75
g4660
sg68
(lp4667
g61
(g70
g63
NtRp4668
(dp4669
g66
(dp4670
g74
I1
ssg75
Nsg68
(lp4671
g61
(g77
g63
NtRp4672
(dp4673
g66
(dp4674
sg75
g4668
sg68
(lp4675
g61
(g82
g63
NtRp4676
(dp4677
g66
(dp4678
sg75
g4672
sg68
(lp4679
g61
(g62
g63
NtRp4680
(dp4681
g66
(dp4682
g74
I1
ssg75
g4676
sg68
(lp4683
g4537
(S's\x08\x00\x00\x00My Sites'
tRp4684
asbasbasbag61
(g77
g63
NtRp4685
(dp4686
g66
(dp4687
sg75
g4668
sg68
(lp4688
g61
(g82
g63
NtRp4689
(dp4690
g66
(dp4691
sg75
g4685
sg68
(lp4692
g61
(g62
g63
NtRp4693
(dp4694
g66
(dp4695
g74
I1
ssg75
g4689
sg68
(lp4696
I00
asbasbasbag61
(g77
g63
NtRp4697
(dp4698
g66
(dp4699
sg75
g4668
sg68
(lp4700
g61
(g82
g63
NtRp4701
(dp4702
g66
(dp4703
sg75
g4697
sg68
(lp4704
g61
(g62
g63
NtRp4705
(dp4706
g66
(dp4707
g74
I1
ssg75
g4701
sg68
(lp4708
S'/admin/default/site'
p4709
asbasbasbasbasbasbasbag61
(g77
g63
NtRp4710
(dp4711
g66
(dp4712
sg75
g4652
sg68
(lp4713
g61
(g82
g63
NtRp4714
(dp4715
g66
(dp4716
sg75
g4710
sg68
(lp4717
g61
(g62
g63
NtRp4718
(dp4719
g66
(dp4720
g74
I2
ssg75
g4714
sg68
(lp4721
g61
(g70
g63
NtRp4722
(dp4723
g66
(dp4724
g74
I1
ssg75
Nsg68
(lp4725
g61
(g77
g63
NtRp4726
(dp4727
g66
(dp4728
sg75
g4722
sg68
(lp4729
g61
(g82
g63
NtRp4730
(dp4731
g66
(dp4732
sg75
g4726
sg68
(lp4733
g61
(g62
g63
NtRp4734
(dp4735
g66
(dp4736
g74
I1
ssg75
g4730
sg68
(lp4737
g4537
(S's\x08\x00\x00\x00This App'
tRp4738
asbasbasbag61
(g77
g63
NtRp4739
(dp4740
g66
(dp4741
sg75
g4722
sg68
(lp4742
g61
(g82
g63
NtRp4743
(dp4744
g66
(dp4745
sg75
g4739
sg68
(lp4746
g61
(g62
g63
NtRp4747
(dp4748
g66
(dp4749
g74
I1
ssg75
g4743
sg68
(lp4750
I00
asbasbasbag61
(g77
g63
NtRp4751
(dp4752
g66
(dp4753
sg75
g4722
sg68
(lp4754
g61
(g82
g63
NtRp4755
(dp4756
g66
(dp4757
sg75
g4751
sg68
(lp4758
g61
(g62
g63
NtRp4759
(dp4760
g66
(dp4761
g74
I1
ssg75
g4755
sg68
(lp4762
S'/admin/default/design/Final_Impulse'
p4763
asbasbasbag61
(g77
g63
NtRp4764
(dp4765
g66
(dp4766
sg75
g4722
sg68
(lp4767
g61
(g82
g63
NtRp4768
(dp4769
g66
(dp4770
sg75
g4764
sg68
(lp4771
g61
(g62
g63
NtRp4772
(dp4773
g66
(dp4774
g74
I1
ssg75
g4768
sg68
(lp4775
(lp4776
(g4537
(S't\n\x00\x00\x00Controller'
tRp4777
I00
S'/admin/default/edit/Final_Impulse/controllers/default.py'
tp4778
a(g4537
(S't\x04\x00\x00\x00View'
tRp4779
I00
S'/admin/default/edit/Final_Impulse/views/default/show_writing_comments.html'
tp4780
a(g4537
(S't\x06\x00\x00\x00Layout'
tRp4781
I00
S'/admin/default/edit/Final_Impulse/views/layout.html'
tp4782
a(g4537
(S't\n\x00\x00\x00Stylesheet'
tRp4783
I00
S'/admin/default/edit/Final_Impulse/static/css/web2py.css'
tp4784
a(g4537
(S's\x08\x00\x00\x00DB Model'
tRp4785
I00
S'/admin/default/edit/Final_Impulse/models/db.py'
tp4786
a(g4537
(S's\n\x00\x00\x00Menu Model'
tRp4787
I00
S'/admin/default/edit/Final_Impulse/models/menu.py'
tp4788
a(g4537
(S't\x08\x00\x00\x00Database'
tRp4789
I00
S'/Final_Impulse/appadmin/index'
tp4790
a(g4537
(S't\x06\x00\x00\x00Errors'
tRp4791
I00
S'/admin/default/errors/Final_Impulse'
tp4792
a(g4537
(S't\x05\x00\x00\x00About'
tRp4793
I00
S'/admin/default/about/Final_Impulse'
tp4794
aasbasbasbasbasbasbasbag61
(g77
g63
NtRp4795
(dp4796
g66
(dp4797
sg75
g4652
sg68
(lp4798
g61
(g82
g63
NtRp4799
(dp4800
g66
(dp4801
sg75
g4795
sg68
(lp4802
g61
(g62
g63
NtRp4803
(dp4804
g66
(dp4805
g74
I2
ssg75
g4799
sg68
(lp4806
g61
(g70
g63
NtRp4807
(dp4808
g66
(dp4809
g74
I1
ssg75
Nsg68
(lp4810
g61
(g77
g63
NtRp4811
(dp4812
g66
(dp4813
sg75
g4807
sg68
(lp4814
g61
(g82
g63
NtRp4815
(dp4816
g66
(dp4817
sg75
g4811
sg68
(lp4818
g61
(g62
g63
NtRp4819
(dp4820
g66
(dp4821
g74
I1
ssg75
g4815
sg68
(lp4822
S'web2py.com'
p4823
asbasbasbag61
(g77
g63
NtRp4824
(dp4825
g66
(dp4826
sg75
g4807
sg68
(lp4827
g61
(g82
g63
NtRp4828
(dp4829
g66
(dp4830
sg75
g4824
sg68
(lp4831
g61
(g62
g63
NtRp4832
(dp4833
g66
(dp4834
g74
I1
ssg75
g4828
sg68
(lp4835
I00
asbasbasbag61
(g77
g63
NtRp4836
(dp4837
g66
(dp4838
sg75
g4807
sg68
(lp4839
g61
(g82
g63
NtRp4840
(dp4841
g66
(dp4842
sg75
g4836
sg68
(lp4843
g61
(g62
g63
NtRp4844
(dp4845
g66
(dp4846
g74
I1
ssg75
g4840
sg68
(lp4847
S'http://www.web2py.com'
p4848
asbasbasbag61
(g77
g63
NtRp4849
(dp4850
g66
(dp4851
sg75
g4807
sg68
(lp4852
g61
(g82
g63
NtRp4853
(dp4854
g66
(dp4855
sg75
g4849
sg68
(lp4856
g61
(g62
g63
NtRp4857
(dp4858
g66
(dp4859
g74
I1
ssg75
g4853
sg68
(lp4860
(lp4861
(g4537
(S't\x08\x00\x00\x00Download'
tRp4862
I00
S'http://www.web2py.com/examples/default/download'
p4863
tp4864
a(g4537
(S't\x07\x00\x00\x00Support'
tRp4865
I00
S'http://www.web2py.com/examples/default/support'
p4866
tp4867
a(g4537
(S't\x04\x00\x00\x00Demo'
tRp4868
I00
S'http://web2py.com/demo_admin'
p4869
tp4870
a(g4537
(S's\x0e\x00\x00\x00Quick Examples'
tRp4871
I00
S'http://web2py.com/examples/default/examples'
p4872
tp4873
a(g4537
(S't\x03\x00\x00\x00FAQ'
tRp4874
I00
S'http://web2py.com/AlterEgo'
p4875
tp4876
a(g4537
(S't\x06\x00\x00\x00Videos'
tRp4877
I00
S'http://www.web2py.com/examples/default/videos/'
p4878
tp4879
a(g4537
(S's\x11\x00\x00\x00Free Applications'
tRp4880
I00
S'http://web2py.com/appliances'
p4881
tp4882
a(g4537
(S't\x07\x00\x00\x00Plugins'
tRp4883
I00
S'http://web2py.com/plugins'
p4884
tp4885
a(g4537
(S't\x07\x00\x00\x00Layouts'
tRp4886
I00
S'http://web2py.com/layouts'
p4887
tp4888
a(g4537
(S't\x07\x00\x00\x00Recipes'
tRp4889
I00
S'http://web2pyslices.com/'
p4890
tp4891
a(g4537
(S't\x08\x00\x00\x00Semantic'
tRp4892
I00
S'http://web2py.com/semantic'
p4893
tp4894
aasbasbasbasbasbasbasbag61
(g77
g63
NtRp4895
(dp4896
g66
(dp4897
sg75
g4652
sg68
(lp4898
g61
(g82
g63
NtRp4899
(dp4900
g66
(dp4901
sg75
g4895
sg68
(lp4902
g61
(g62
g63
NtRp4903
(dp4904
g66
(dp4905
g74
I2
ssg75
g4899
sg68
(lp4906
g61
(g70
g63
NtRp4907
(dp4908
g66
(dp4909
g74
I1
ssg75
Nsg68
(lp4910
g61
(g77
g63
NtRp4911
(dp4912
g66
(dp4913
sg75
g4907
sg68
(lp4914
g61
(g82
g63
NtRp4915
(dp4916
g66
(dp4917
sg75
g4911
sg68
(lp4918
g61
(g62
g63
NtRp4919
(dp4920
g66
(dp4921
g74
I1
ssg75
g4915
sg68
(lp4922
g4537
(S't\r\x00\x00\x00Documentation'
tRp4923
asbasbasbag61
(g77
g63
NtRp4924
(dp4925
g66
(dp4926
sg75
g4907
sg68
(lp4927
g61
(g82
g63
NtRp4928
(dp4929
g66
(dp4930
sg75
g4924
sg68
(lp4931
g61
(g62
g63
NtRp4932
(dp4933
g66
(dp4934
g74
I1
ssg75
g4928
sg68
(lp4935
I00
asbasbasbag61
(g77
g63
NtRp4936
(dp4937
g66
(dp4938
sg75
g4907
sg68
(lp4939
g61
(g82
g63
NtRp4940
(dp4941
g66
(dp4942
sg75
g4936
sg68
(lp4943
g61
(g62
g63
NtRp4944
(dp4945
g66
(dp4946
g74
I1
ssg75
g4940
sg68
(lp4947
S'http://www.web2py.com/book'
p4948
asbasbasbag61
(g77
g63
NtRp4949
(dp4950
g66
(dp4951
sg75
g4907
sg68
(lp4952
g61
(g82
g63
NtRp4953
(dp4954
g66
(dp4955
sg75
g4949
sg68
(lp4956
g61
(g62
g63
NtRp4957
(dp4958
g66
(dp4959
g74
I1
ssg75
g4953
sg68
(lp4960
(lp4961
(g4537
(S't\x07\x00\x00\x00Preface'
tRp4962
I00
S'http://www.web2py.com/book/default/chapter/00'
p4963
tp4964
a(g4537
(S't\x0c\x00\x00\x00Introduction'
tRp4965
I00
S'http://www.web2py.com/book/default/chapter/01'
p4966
tp4967
a(g4537
(S't\x06\x00\x00\x00Python'
tRp4968
I00
S'http://www.web2py.com/book/default/chapter/02'
p4969
tp4970
a(g4537
(S't\x08\x00\x00\x00Overview'
tRp4971
I00
S'http://www.web2py.com/book/default/chapter/03'
p4972
tp4973
a(g4537
(S's\x08\x00\x00\x00The Core'
tRp4974
I00
S'http://www.web2py.com/book/default/chapter/04'
p4975
tp4976
a(g4537
(S's\t\x00\x00\x00The Views'
tRp4977
I00
S'http://www.web2py.com/book/default/chapter/05'
p4978
tp4979
a(g4537
(S't\x08\x00\x00\x00Database'
tRp4980
I00
S'http://www.web2py.com/book/default/chapter/06'
p4981
tp4982
a(g4537
(S's\x14\x00\x00\x00Forms and Validators'
tRp4983
I00
S'http://www.web2py.com/book/default/chapter/07'
p4984
tp4985
a(g4537
(S's\r\x00\x00\x00Email and SMS'
tRp4986
I00
S'http://www.web2py.com/book/default/chapter/08'
p4987
tp4988
a(g4537
(S's\x0e\x00\x00\x00Access Control'
tRp4989
I00
S'http://www.web2py.com/book/default/chapter/09'
p4990
tp4991
a(g4537
(S't\x08\x00\x00\x00Services'
tRp4992
I00
S'http://www.web2py.com/book/default/chapter/10'
p4993
tp4994
a(g4537
(S's\x0c\x00\x00\x00Ajax Recipes'
tRp4995
I00
S'http://www.web2py.com/book/default/chapter/11'
p4996
tp4997
a(g4537
(S's\x16\x00\x00\x00Components and Plugins'
tRp4998
I00
S'http://www.web2py.com/book/default/chapter/12'
p4999
tp5000
a(g4537
(S's\x12\x00\x00\x00Deployment Recipes'
tRp5001
I00
S'http://www.web2py.com/book/default/chapter/13'
p5002
tp5003
a(g4537
(S's\r\x00\x00\x00Other Recipes'
tRp5004
I00
S'http://www.web2py.com/book/default/chapter/14'
p5005
tp5006
a(g4537
(S's\r\x00\x00\x00Buy this book'
tRp5007
I00
S'http://stores.lulu.com/web2py'
p5008
tp5009
aasbasbasbasbasbasbasbag61
(g77
g63
NtRp5010
(dp5011
g66
(dp5012
sg75
g4652
sg68
(lp5013
g61
(g82
g63
NtRp5014
(dp5015
g66
(dp5016
sg75
g5010
sg68
(lp5017
g61
(g62
g63
NtRp5018
(dp5019
g66
(dp5020
g74
I2
ssg75
g5014
sg68
(lp5021
g61
(g70
g63
NtRp5022
(dp5023
g66
(dp5024
g74
I1
ssg75
Nsg68
(lp5025
g61
(g77
g63
NtRp5026
(dp5027
g66
(dp5028
sg75
g5022
sg68
(lp5029
g61
(g82
g63
NtRp5030
(dp5031
g66
(dp5032
sg75
g5026
sg68
(lp5033
g61
(g62
g63
NtRp5034
(dp5035
g66
(dp5036
g74
I1
ssg75
g5030
sg68
(lp5037
g4537
(S't\t\x00\x00\x00Community'
tRp5038
asbasbasbag61
(g77
g63
NtRp5039
(dp5040
g66
(dp5041
sg75
g5022
sg68
(lp5042
g61
(g82
g63
NtRp5043
(dp5044
g66
(dp5045
sg75
g5039
sg68
(lp5046
g61
(g62
g63
NtRp5047
(dp5048
g66
(dp5049
g74
I1
ssg75
g5043
sg68
(lp5050
I00
asbasbasbag61
(g77
g63
NtRp5051
(dp5052
g66
(dp5053
sg75
g5022
sg68
(lp5054
g61
(g82
g63
NtRp5055
(dp5056
g66
(dp5057
sg75
g5051
sg68
(lp5058
g61
(g62
g63
NtRp5059
(dp5060
g66
(dp5061
g74
I1
ssg75
g5055
sg68
(lp5062
Nasbasbasbag61
(g77
g63
NtRp5063
(dp5064
g66
(dp5065
sg75
g5022
sg68
(lp5066
g61
(g82
g63
NtRp5067
(dp5068
g66
(dp5069
sg75
g5063
sg68
(lp5070
g61
(g62
g63
NtRp5071
(dp5072
g66
(dp5073
g74
I1
ssg75
g5067
sg68
(lp5074
(lp5075
(g4537
(S't\x06\x00\x00\x00Groups'
tRp5076
I00
S'http://www.web2py.com/examples/default/usergroups'
p5077
tp5078
a(g4537
(S't\x07\x00\x00\x00Twitter'
tRp5079
I00
S'http://twitter.com/web2py'
p5080
tp5081
a(g4537
(S's\t\x00\x00\x00Live Chat'
tRp5082
I00
S'http://webchat.freenode.net/?channels=web2py'
p5083
tp5084
aasbasbasbasbasbasbasbag61
(g77
g63
NtRp5085
(dp5086
g66
(dp5087
sg75
g4652
sg68
(lp5088
g61
(g82
g63
NtRp5089
(dp5090
g66
(dp5091
sg75
g5085
sg68
(lp5092
g61
(g62
g63
NtRp5093
(dp5094
g66
(dp5095
g74
I2
ssg75
g5089
sg68
(lp5096
g61
(g70
g63
NtRp5097
(dp5098
g66
(dp5099
g74
I1
ssg75
Nsg68
(lp5100
g61
(g77
g63
NtRp5101
(dp5102
g66
(dp5103
sg75
g5097
sg68
(lp5104
g61
(g82
g63
NtRp5105
(dp5106
g66
(dp5107
sg75
g5101
sg68
(lp5108
g61
(g62
g63
NtRp5109
(dp5110
g66
(dp5111
g74
I1
ssg75
g5105
sg68
(lp5112
g4537
(S't\x07\x00\x00\x00Plugins'
tRp5113
asbasbasbag61
(g77
g63
NtRp5114
(dp5115
g66
(dp5116
sg75
g5097
sg68
(lp5117
g61
(g82
g63
NtRp5118
(dp5119
g66
(dp5120
sg75
g5114
sg68
(lp5121
g61
(g62
g63
NtRp5122
(dp5123
g66
(dp5124
g74
I1
ssg75
g5118
sg68
(lp5125
I00
asbasbasbag61
(g77
g63
NtRp5126
(dp5127
g66
(dp5128
sg75
g5097
sg68
(lp5129
g61
(g82
g63
NtRp5130
(dp5131
g66
(dp5132
sg75
g5126
sg68
(lp5133
g61
(g62
g63
NtRp5134
(dp5135
g66
(dp5136
g74
I1
ssg75
g5130
sg68
(lp5137
Nasbasbasbag61
(g77
g63
NtRp5138
(dp5139
g66
(dp5140
sg75
g5097
sg68
(lp5141
g61
(g82
g63
NtRp5142
(dp5143
g66
(dp5144
sg75
g5138
sg68
(lp5145
g61
(g62
g63
NtRp5146
(dp5147
g66
(dp5148
g74
I1
ssg75
g5142
sg68
(lp5149
(lp5150
(S'plugin_wiki'
p5151
I00
S'http://web2py.com/examples/default/download'
p5152
tp5153
a(g4537
(S's\r\x00\x00\x00Other Plugins'
tRp5154
I00
g4884
tp5155
a(g4537
(S's\x0e\x00\x00\x00Layout Plugins'
tRp5156
I00
g4887
tp5157
aasbasbasbasbasbasbasbasbasbasbasbasbasbasbasbasbasbasbasbag61
(g77
g63
NtRp5158
(dp5159
g66
(dp5160
sg75
g4079
sg68
(lp5161
g61
(g82
g63
NtRp5162
(dp5163
g66
(dp5164
g86
g87
ssg75
g5158
sg68
(lp5165
S'meta'
p5166
asbag61
(g82
g63
NtRp5167
(dp5168
g66
(dp5169
g93
g94
ssg75
g5158
sg68
(lp5170
S':'
asbag61
(g82
g63
NtRp5171
(dp5172
g66
(dp5173
sg75
g5158
sg68
(lp5174
g61
(g62
g63
NtRp5175
(dp5176
g66
(dp5177
g74
I5
ssg75
g5171
sg68
(lp5178
g61
(g70
g63
NtRp5179
(dp5180
g66
(dp5181
g74
I4
ssg75
Nsg68
(lp5182
g61
(g77
g63
NtRp5183
(dp5184
g66
(dp5185
sg75
g5179
sg68
(lp5186
g61
(g82
g63
NtRp5187
(dp5188
g66
(dp5189
g86
g87
ssg75
g5183
sg68
(lp5190
S'author'
p5191
asbag61
(g82
g63
NtRp5192
(dp5193
g66
(dp5194
g93
g94
ssg75
g5183
sg68
(lp5195
S':'
asbag61
(g82
g63
NtRp5196
(dp5197
g66
(dp5198
sg75
g5183
sg68
(lp5199
g61
(g62
g63
NtRp5200
(dp5201
g66
(dp5202
g74
I4
ssg75
g5196
sg68
(lp5203
S'Your Name <you@example.com>'
p5204
asbasbasbag61
(g77
g63
NtRp5205
(dp5206
g66
(dp5207
sg75
g5179
sg68
(lp5208
g61
(g82
g63
NtRp5209
(dp5210
g66
(dp5211
g86
g87
ssg75
g5205
sg68
(lp5212
S'description'
p5213
asbag61
(g82
g63
NtRp5214
(dp5215
g66
(dp5216
g93
g94
ssg75
g5205
sg68
(lp5217
S':'
asbag61
(g82
g63
NtRp5218
(dp5219
g66
(dp5220
sg75
g5205
sg68
(lp5221
g61
(g62
g63
NtRp5222
(dp5223
g66
(dp5224
g74
I4
ssg75
g5218
sg68
(lp5225
S'a cool new app'
p5226
asbasbasbag61
(g77
g63
NtRp5227
(dp5228
g66
(dp5229
sg75
g5179
sg68
(lp5230
g61
(g82
g63
NtRp5231
(dp5232
g66
(dp5233
g86
g87
ssg75
g5227
sg68
(lp5234
S'generator'
p5235
asbag61
(g82
g63
NtRp5236
(dp5237
g66
(dp5238
g93
g94
ssg75
g5227
sg68
(lp5239
S':'
asbag61
(g82
g63
NtRp5240
(dp5241
g66
(dp5242
sg75
g5227
sg68
(lp5243
g61
(g62
g63
NtRp5244
(dp5245
g66
(dp5246
g74
I4
ssg75
g5240
sg68
(lp5247
S'Web2py Web Framework'
p5248
asbasbasbag61
(g77
g63
NtRp5249
(dp5250
g66
(dp5251
sg75
g5179
sg68
(lp5252
g61
(g82
g63
NtRp5253
(dp5254
g66
(dp5255
g86
g87
ssg75
g5249
sg68
(lp5256
S'keywords'
p5257
asbag61
(g82
g63
NtRp5258
(dp5259
g66
(dp5260
g93
g94
ssg75
g5249
sg68
(lp5261
S':'
asbag61
(g82
g63
NtRp5262
(dp5263
g66
(dp5264
sg75
g5249
sg68
(lp5265
g61
(g62
g63
NtRp5266
(dp5267
g66
(dp5268
g74
I4
ssg75
g5262
sg68
(lp5269
S'web2py, python, framework'
p5270
asbasbasbasbasbasbasbag61
(g77
g63
NtRp5271
(dp5272
g66
(dp5273
sg75
g4079
sg68
(lp5274
g61
(g82
g63
NtRp5275
(dp5276
g66
(dp5277
g86
g87
ssg75
g5271
sg68
(lp5278
S'models_to_run'
p5279
asbag61
(g82
g63
NtRp5280
(dp5281
g66
(dp5282
g93
g94
ssg75
g5271
sg68
(lp5283
S':'
asbag61
(g82
g63
NtRp5284
(dp5285
g66
(dp5286
sg75
g5271
sg68
(lp5287
g61
(g62
g63
NtRp5288
(dp5289
g66
(dp5290
g74
I5
ssg75
g5284
sg68
(lp5291
g61
(g70
g63
NtRp5292
(dp5293
g66
(dp5294
g74
I4
ssg75
Nsg68
(lp5295
g61
(g77
g63
NtRp5296
(dp5297
g66
(dp5298
sg75
g5292
sg68
(lp5299
g61
(g82
g63
NtRp5300
(dp5301
g66
(dp5302
sg75
g5296
sg68
(lp5303
g61
(g62
g63
NtRp5304
(dp5305
g66
(dp5306
g74
I4
ssg75
g5300
sg68
(lp5307
S'^\\w+\\.py$'
p5308
asbasbasbag61
(g77
g63
NtRp5309
(dp5310
g66
(dp5311
sg75
g5292
sg68
(lp5312
g61
(g82
g63
NtRp5313
(dp5314
g66
(dp5315
sg75
g5309
sg68
(lp5316
g61
(g62
g63
NtRp5317
(dp5318
g66
(dp5319
g74
I4
ssg75
g5313
sg68
(lp5320
S'^default/\\w+\\.py$'
p5321
asbasbasbag61
(g77
g63
NtRp5322
(dp5323
g66
(dp5324
sg75
g5292
sg68
(lp5325
g61
(g82
g63
NtRp5326
(dp5327
g66
(dp5328
sg75
g5322
sg68
(lp5329
g61
(g62
g63
NtRp5330
(dp5331
g66
(dp5332
g74
I4
ssg75
g5326
sg68
(lp5333
S'^default/show_writing_comments/\\w+\\.py$'
p5334
asbasbasbasbasbasbasbag61
(g77
g63
NtRp5335
(dp5336
g66
(dp5337
sg75
g4079
sg68
(lp5338
g61
(g82
g63
NtRp5339
(dp5340
g66
(dp5341
g86
g87
ssg75
g5335
sg68
(lp5342
S'postprocessing'
p5343
asbag61
(g82
g63
NtRp5344
(dp5345
g66
(dp5346
g93
g94
ssg75
g5335
sg68
(lp5347
S':'
asbag61
(g82
g63
NtRp5348
(dp5349
g66
(dp5350
sg75
g5335
sg68
(lp5351
g61
(g62
g63
NtRp5352
(dp5353
g66
(dp5354
g74
I5
ssg75
g5348
sg68
(lp5355
g61
(g70
g63
NtRp5356
(dp5357
g66
(dp5358
g74
I4
ssg75
Nsg68
(lp5359
sbasbasbasbag61
(g77
g63
NtRp5360
(dp5361
g66
(dp5362
sg75
g4079
sg68
(lp5363
g61
(g82
g63
NtRp5364
(dp5365
g66
(dp5366
g86
g87
ssg75
g5360
sg68
(lp5367
S'session_cookie_expires'
p5368
asbag61
(g82
g63
NtRp5369
(dp5370
g66
(dp5371
g93
g94
ssg75
g5360
sg68
(lp5372
S':'
asbag61
(g82
g63
NtRp5373
(dp5374
g66
(dp5375
sg75
g5360
sg68
(lp5376
g61
(g62
g63
NtRp5377
(dp5378
g66
(dp5379
g74
I5
ssg75
g5373
sg68
(lp5380
S'None'
p5381
asbasbasbag61
(g77
g63
NtRp5382
(dp5383
g66
(dp5384
sg75
g4079
sg68
(lp5385
g61
(g82
g63
NtRp5386
(dp5387
g66
(dp5388
g86
g87
ssg75
g5382
sg68
(lp5389
S'session_data_name'
p5390
asbag61
(g82
g63
NtRp5391
(dp5392
g66
(dp5393
g93
g94
ssg75
g5382
sg68
(lp5394
S':'
asbag61
(g82
g63
NtRp5395
(dp5396
g66
(dp5397
sg75
g5382
sg68
(lp5398
g61
(g62
g63
NtRp5399
(dp5400
g66
(dp5401
g74
I5
ssg75
g5395
sg68
(lp5402
S'session_data_final_impulse'
p5403
asbasbasbag61
(g77
g63
NtRp5404
(dp5405
g66
(dp5406
sg75
g4079
sg68
(lp5407
g61
(g82
g63
NtRp5408
(dp5409
g66
(dp5410
g86
g87
ssg75
g5404
sg68
(lp5411
S'session_file'
p5412
asbag61
(g82
g63
NtRp5413
(dp5414
g66
(dp5415
g93
g94
ssg75
g5404
sg68
(lp5416
S':'
asbag61
(g82
g63
NtRp5417
(dp5418
g66
(dp5419
sg75
g5404
sg68
(lp5420
g61
(g62
g63
NtRp5421
(dp5422
g66
(dp5423
g74
I5
ssg75
g5417
sg68
(lp5424
S"<open file '/Users/abaric/Downloads/web2py/web2py.app/Contents/Resources/applications/Final_Impulse/sessions/127.0.0.1-196d16f0-df2a-4177-8038-20bcfac6a099', mode 'rb+' at 0x8dcf188>"
p5425
asbasbasbag61
(g77
g63
NtRp5426
(dp5427
g66
(dp5428
sg75
g4079
sg68
(lp5429
g61
(g82
g63
NtRp5430
(dp5431
g66
(dp5432
g86
g87
ssg75
g5426
sg68
(lp5433
S'session_filename'
p5434
asbag61
(g82
g63
NtRp5435
(dp5436
g66
(dp5437
g93
g94
ssg75
g5426
sg68
(lp5438
S':'
asbag61
(g82
g63
NtRp5439
(dp5440
g66
(dp5441
sg75
g5426
sg68
(lp5442
g61
(g62
g63
NtRp5443
(dp5444
g66
(dp5445
g74
I5
ssg75
g5439
sg68
(lp5446
S'/Users/abaric/Downloads/web2py/web2py.app/Contents/Resources/applications/Final_Impulse/sessions/127.0.0.1-196d16f0-df2a-4177-8038-20bcfac6a099'
p5447
asbasbasbag61
(g77
g63
NtRp5448
(dp5449
g66
(dp5450
sg75
g4079
sg68
(lp5451
g61
(g82
g63
NtRp5452
(dp5453
g66
(dp5454
g86
g87
ssg75
g5448
sg68
(lp5455
S'session_id'
p5456
asbag61
(g82
g63
NtRp5457
(dp5458
g66
(dp5459
g93
g94
ssg75
g5448
sg68
(lp5460
S':'
asbag61
(g82
g63
NtRp5461
(dp5462
g66
(dp5463
sg75
g5448
sg68
(lp5464
g61
(g62
g63
NtRp5465
(dp5466
g66
(dp5467
g74
I5
ssg75
g5461
sg68
(lp5468
g624
asbasbasbag61
(g77
g63
NtRp5469
(dp5470
g66
(dp5471
sg75
g4079
sg68
(lp5472
g61
(g82
g63
NtRp5473
(dp5474
g66
(dp5475
g86
g87
ssg75
g5469
sg68
(lp5476
S'session_id_name'
p5477
asbag61
(g82
g63
NtRp5478
(dp5479
g66
(dp5480
g93
g94
ssg75
g5469
sg68
(lp5481
S':'
asbag61
(g82
g63
NtRp5482
(dp5483
g66
(dp5484
sg75
g5469
sg68
(lp5485
g61
(g62
g63
NtRp5486
(dp5487
g66
(dp5488
g74
I5
ssg75
g5482
sg68
(lp5489
g4136
asbasbasbag61
(g77
g63
NtRp5490
(dp5491
g66
(dp5492
sg75
g4079
sg68
(lp5493
g61
(g82
g63
NtRp5494
(dp5495
g66
(dp5496
g86
g87
ssg75
g5490
sg68
(lp5497
S'session_locked'
p5498
asbag61
(g82
g63
NtRp5499
(dp5500
g66
(dp5501
g93
g94
ssg75
g5490
sg68
(lp5502
S':'
asbag61
(g82
g63
NtRp5503
(dp5504
g66
(dp5505
sg75
g5490
sg68
(lp5506
g61
(g62
g63
NtRp5507
(dp5508
g66
(dp5509
g74
I5
ssg75
g5503
sg68
(lp5510
g1985
asbasbasbag61
(g77
g63
NtRp5511
(dp5512
g66
(dp5513
sg75
g4079
sg68
(lp5514
g61
(g82
g63
NtRp5515
(dp5516
g66
(dp5517
g86
g87
ssg75
g5511
sg68
(lp5518
S'session_new'
p5519
asbag61
(g82
g63
NtRp5520
(dp5521
g66
(dp5522
g93
g94
ssg75
g5511
sg68
(lp5523
S':'
asbag61
(g82
g63
NtRp5524
(dp5525
g66
(dp5526
sg75
g5511
sg68
(lp5527
g61
(g62
g63
NtRp5528
(dp5529
g66
(dp5530
g74
I5
ssg75
g5524
sg68
(lp5531
g104
asbasbasbag61
(g77
g63
NtRp5532
(dp5533
g66
(dp5534
sg75
g4079
sg68
(lp5535
g61
(g82
g63
NtRp5536
(dp5537
g66
(dp5538
g86
g87
ssg75
g5532
sg68
(lp5539
S'session_storage_type'
p5540
asbag61
(g82
g63
NtRp5541
(dp5542
g66
(dp5543
g93
g94
ssg75
g5532
sg68
(lp5544
S':'
asbag61
(g82
g63
NtRp5545
(dp5546
g66
(dp5547
sg75
g5532
sg68
(lp5548
g61
(g62
g63
NtRp5549
(dp5550
g66
(dp5551
g74
I5
ssg75
g5545
sg68
(lp5552
g3605
asbasbasbag61
(g77
g63
NtRp5553
(dp5554
g66
(dp5555
sg75
g4079
sg68
(lp5556
g61
(g82
g63
NtRp5557
(dp5558
g66
(dp5559
g86
g87
ssg75
g5553
sg68
(lp5560
S'status'
p5561
asbag61
(g82
g63
NtRp5562
(dp5563
g66
(dp5564
g93
g94
ssg75
g5553
sg68
(lp5565
S':'
asbag61
(g82
g63
NtRp5566
(dp5567
g66
(dp5568
sg75
g5553
sg68
(lp5569
g61
(g62
g63
NtRp5570
(dp5571
g66
(dp5572
g74
I5
ssg75
g5566
sg68
(lp5573
S'200'
p5574
asbasbasbag61
(g77
g63
NtRp5575
(dp5576
g66
(dp5577
sg75
g4079
sg68
(lp5578
g61
(g82
g63
NtRp5579
(dp5580
g66
(dp5581
g86
g87
ssg75
g5575
sg68
(lp5582
S'subtitle'
p5583
asbag61
(g82
g63
NtRp5584
(dp5585
g66
(dp5586
g93
g94
ssg75
g5575
sg68
(lp5587
S':'
asbag61
(g82
g63
NtRp5588
(dp5589
g66
(dp5590
sg75
g5575
sg68
(lp5591
g61
(g62
g63
NtRp5592
(dp5593
g66
(dp5594
g74
I5
ssg75
g5588
sg68
(lp5595
g4537
(S's\r\x00\x00\x00customize me!'
tRp5596
asbasbasbag61
(g77
g63
NtRp5597
(dp5598
g66
(dp5599
sg75
g4079
sg68
(lp5600
g61
(g82
g63
NtRp5601
(dp5602
g66
(dp5603
g86
g87
ssg75
g5597
sg68
(lp5604
S'title'
p5605
asbag61
(g82
g63
NtRp5606
(dp5607
g66
(dp5608
g93
g94
ssg75
g5597
sg68
(lp5609
S':'
asbag61
(g82
g63
NtRp5610
(dp5611
g66
(dp5612
sg75
g5597
sg68
(lp5613
g61
(g62
g63
NtRp5614
(dp5615
g66
(dp5616
g74
I5
ssg75
g5610
sg68
(lp5617
S'Final Impulse'
p5618
asbasbasbag61
(g77
g63
NtRp5619
(dp5620
g66
(dp5621
sg75
g4079
sg68
(lp5622
g61
(g82
g63
NtRp5623
(dp5624
g66
(dp5625
g86
g87
ssg75
g5619
sg68
(lp5626
S'view'
p5627
asbag61
(g82
g63
NtRp5628
(dp5629
g66
(dp5630
g93
g94
ssg75
g5619
sg68
(lp5631
S':'
asbag61
(g82
g63
NtRp5632
(dp5633
g66
(dp5634
sg75
g5619
sg68
(lp5635
g61
(g62
g63
NtRp5636
(dp5637
g66
(dp5638
g74
I5
ssg75
g5632
sg68
(lp5639
S'default/show_writing_comments.html'
p5640
asbasbasbasbasbsS'locals'
p5641
(dp5642
S'name'
p5643
S"'author_id'"
p5644
sS'fields'
p5645
S"{'author_id': 1, 'body': 'this is a poem\\r\\ni am so talented\\r\\nwow so good\\r\\ni know thanks\\r\\ngoodbye\\r\\n       ok', 'title': 'a poem'}"
p5646
sS'self'
p5647
S'<Table writing (id,title,body)>'
p5648
sS'update'
p5649
g104
sS'value'
p5650
S"'this is a poem\\r\\ni am so talented\\r\\nwow so good\\r\\ni know thanks\\r\\ngoodbye\\r\\n       ok'"
p5651
sS'field'
p5652
S'<gluon.dal.Field object at 0x89946f0>'
p5653
sS'new_fields'
p5654
S"{'body': (<gluon.dal.Field object at 0x89946f0>, 'this is a poem\\r\\ni am so talented\\r\\nwow so good\\r\\ni know thanks\\r\\ngoodbye\\r\\n       ok')}"
p5655
sssS'traceback'
p5656
S'Traceback (most recent call last):\n  File "gluon/restricted.py", line 212, in restricted\n  File "/Users/abaric/Downloads/web2py/web2py.app/Contents/Resources/applications/Final_Impulse/controllers/default.py", line 157, in <module>\n  File "gluon/globals.py", line 188, in <lambda>\n  File "/Users/abaric/Downloads/web2py/web2py.app/Contents/Resources/applications/Final_Impulse/controllers/default.py", line 61, in show_writing_comments\n  File "gluon/html.py", line 2170, in process\n  File "gluon/html.py", line 2109, in validate\n  File "gluon/sqlhtml.py", line 1475, in accepts\n  File "gluon/dal.py", line 7806, in insert\n  File "gluon/dal.py", line 7744, in _listify\nSyntaxError: Field author_id does not belong to the table\n'
p5657
s.