(dp1
S'output'
p2
S"<type 'exceptions.AttributeError'> 'NoneType' object has no attribute 'id'"
p3
sS'layer'
p4
S'/Users/abaric/Downloads/web2py/web2py.app/Contents/Resources/applications/Final_Impulse/controllers/default.py'
p5
sS'code'
p6
S"from gluon.tools import datetime\nfrom gluon.tools import Auth\n        \n\ndef user():\n    return dict(form=auth())\n    \ndef load_roles():\n        session.roles=[]\n        if auth.has_membership('arts_board'):\n            session.user_arts_board_id=db(db.arts_board.email==auth.arts_board.email).select().first().id\n            a=('arts_board','index',session.user_arts_board_id)\n            session.roles.append(a)\n        return locals()\n                                      \ndef index():\n    return locals()\n\ndef download():\n    return response.download(request, db)\n\ndef show_image_comments():\n    image_form=SQLFORM(db.image,fields=['title','file'],labels={'file':'Your Image'})\n    image_form.vars.author_id=auth.user.id\n    image_form.add_button('Back', URL('index'))\n    if image_form.process().accepted:\n        response.flash='image post submitted!'\n    images=db(db.image).select(db.image.ALL, orderby=db.image.id)\n    \n    d={}\n    for image in images:\n        comments=db((db.image_comment.image_id==image.id) &\\\n                   (db.auth_user.id==db.image_comment.author_id)).select() \n        tuple_list=[]       \n        for comment in comments:\n            author=('%s %s')%(comment.auth_user.first_name,comment.auth_user.last_name)\n            body=('%s')%(comment.image_comment.body)\n            t=(author,body)\n            tuple_list.append(t)\n        d[image.id]=tuple_list\n  \n    form = SQLFORM(db.writing_comment)\n    if form.process().accepted:\n        response.flash = 'your comment is posted'\n    #images = db(db.image_comment.image_id==image.id).select()\n    return locals()\n    \ndef show_writing_comments():\n    writing_form=SQLFORM(db.writing,fields=['title','body'],labels={'body':'Insert your post'})\n    writing_form.vars.author_id=auth.user.id\n    writing_form.add_button('Back', URL('index'))\n    if writing_form.process().accepted:\n        response.flash='writing post submitted!'\n   \n    writings=db(db.writing).select(db.writing.ALL, orderby=db.writing.id)\n    d={}\n    for writing in writings:\n        comments=db((db.writing_comment.writing_id==writing.id) &\\\n                   (db.auth_user.id==db.writing_comment.author_id)).select() \n        tuple_list=[]       \n        for comment in comments:\n            author=('%s %s')%(comment.auth_user.first_name,comment.auth_user.last_name)\n            body=('%s')%(comment.writing_comment.body)\n            t=(author,body)\n            tuple_list.append(t)\n        d[writing.id]=tuple_list\n  \n    form = SQLFORM(db.writing_comment)\n    if form.process().accepted:\n        response.flash = 'your comment is posted'\n    return locals()\n\ndef show_video_comments():\n    video_form=SQLFORM(db.video,fields=['title','url_str'],labels={'url_str':'Insert url string per above directions'})\n    video_form.vars.author_id=auth.user.id\n    video_form.add_button('Back', URL('index'))\n    if video_form.process().accepted:\n        response.flash='video post submitted!'\n    \n    videos=db(db.video).select(db.video.ALL, orderby=db.video.id)\n    d={}\n    for video in videos:\n        comments=db((db.video_comment.video_id==video.id) &\\\n                   (db.auth_user.id==db.video_comment.author_id)).select() \n        tuple_list=[]       \n        for comment in comments:\n            author=('%s %s')%(comment.auth_user.first_name,comment.auth_user.last_name)\n            body=('%s')%(comment.video_comment.body)\n            t=(author,body)\n            tuple_list.append(t)\n        d[video.id]=tuple_list\n    form = SQLFORM(db.video_comment)\n    if form.process().accepted:\n        response.flash = 'your comment is posted'\n    return locals()  \n\ndef insert_writing_comment():\n    if auth.user:\n        writing_comment=request.post_vars.writing_comment\n        writing_id=request.args(0)\n        db.writing_comment.insert(author_id=auth.user.id,\n                                  writing_id=writing_id,\n                                  email=None,\n                                  body=writing_comment,\n                                  date_of_entry=datetime.datetime.today())\n        db.commit()\n       \n    else:\n        session.flash='You must log in to post a comment.'\n    redirect(URL('show_writing_comments'))\n    return locals()\n\n\ndef insert_image_comment():\n    if auth.user:\n        image_comment=request.post_vars.image_comment\n        image_id=request.args(0)\n        db.image_comment.insert(author_id=auth.user.id,\n                                  image_id=image_id,\n                                  email=None,\n                                  body=image_comment,\n                                  date_of_entry=datetime.datetime.today())\n        db.commit()\n       \n    else:\n        session.flash='You must log in to post a comment.'\n    redirect(URL('show_image_comments'))\n    return locals()\n    \ndef insert_video_comment():\n    if auth.user:\n        video_comment=request.post_vars.video_comment\n        video_id=request.args(0)\n        db.video_comment.insert(author_id=auth.user.id,\n                                  video_id=video_id,\n                                  email=None,\n                                  body=video_comment,\n                                  date_of_entry=datetime.datetime.today())\n        db.commit()\n       \n    else:\n        session.flash='You must log in to post a comment.'\n    redirect(URL('show_video_comments'))\n    return locals()\n\ndef all_media():\n    images=db(db.image).select(db.image.ALL)\n    writings=db(db.writing).select(db.image.ALL)\n    videos=db(db.video).select(db.video.ALL)\n    \n    images_with_app=[]\n    images_wo_app=[]\n    videos_with_app=[]\n    videos_wo_app=[]\n    writings_with_app=[]\n    writings_wo_app=[]\n    \n    for image in images:\n        if image.image.approved:\n            images_w_app.append(image)\n        else:\n            images_wo_app.append(image)\n            \n    for video in videos:\n        if video.video.approved:\n            videos_w_app.append(video)\n        else:\n            videos_wo_app.append(video)\n    \n    for writing in wristing:\n        if writing.writing.approved:\n            writings_w_app.append(writing)\n        else:\n            writings_wo_app.append(writing)\n    \n    return locals()\n\n\n#def update_approve():\n\nresponse._vars=response._caller(show_image_comments)\n"
p7
sS'snapshot'
p8
(dp9
S'exception'
p10
(dp11
S'__hash__'
p12
S"<method-wrapper '__hash__' of exceptions.AttributeError object at 0x7a5d4b8>"
p13
sS'__setattr__'
p14
S"<method-wrapper '__setattr__' of exceptions.AttributeError object at 0x7a5d4b8>"
p15
sS'__reduce_ex__'
p16
S'<built-in method __reduce_ex__ of exceptions.AttributeError object at 0x7a5d4b8>'
p17
sS'__getslice__'
p18
S"<method-wrapper '__getslice__' of exceptions.AttributeError object at 0x7a5d4b8>"
p19
sS'__getitem__'
p20
S"<method-wrapper '__getitem__' of exceptions.AttributeError object at 0x7a5d4b8>"
p21
sS'__setstate__'
p22
S'<built-in method __setstate__ of exceptions.AttributeError object at 0x7a5d4b8>'
p23
sS'__reduce__'
p24
S'<built-in method __reduce__ of exceptions.AttributeError object at 0x7a5d4b8>'
p25
sS'__str__'
p26
S"<method-wrapper '__str__' of exceptions.AttributeError object at 0x7a5d4b8>"
p27
sS'args'
p28
S'("\'NoneType\' object has no attribute \'id\'",)'
p29
sS'__getattribute__'
p30
S"<method-wrapper '__getattribute__' of exceptions.AttributeError object at 0x7a5d4b8>"
p31
sS'__class__'
p32
S"<type 'exceptions.AttributeError'>"
p33
sS'__delattr__'
p34
S"<method-wrapper '__delattr__' of exceptions.AttributeError object at 0x7a5d4b8>"
p35
sS'__repr__'
p36
S"<method-wrapper '__repr__' of exceptions.AttributeError object at 0x7a5d4b8>"
p37
sS'__dict__'
p38
S'{}'
p39
sS'__doc__'
p40
S"'Attribute not found.'"
p41
sS'__init__'
p42
S"<method-wrapper '__init__' of exceptions.AttributeError object at 0x7a5d4b8>"
p43
sS'__new__'
p44
S'<built-in method __new__ of type object at 0x5f94a0>'
p45
ssS'evalue'
p46
S"'NoneType' object has no attribute 'id'"
p47
sS'request'
p48
ccopy_reg
_reconstructor
p49
(cgluon.html
BEAUTIFY
p50
c__builtin__
object
p51
NtRp52
(dp53
S'attributes'
p54
(dp55
sS'components'
p56
(lp57
g49
(cgluon.html
TABLE
p58
g51
NtRp59
(dp60
g54
(dp61
S'level'
p62
I5
ssS'parent'
p63
Nsg56
(lp64
g49
(cgluon.html
TR
p65
g51
NtRp66
(dp67
g54
(dp68
sg63
g59
sg56
(lp69
g49
(cgluon.html
TD
p70
g51
NtRp71
(dp72
g54
(dp73
S'_style'
p74
S'font-weight:bold;vertical-align:top'
p75
ssg63
g66
sg56
(lp76
S'ajax'
p77
asbag49
(g70
g51
NtRp78
(dp79
g54
(dp80
S'_valign'
p81
S'top'
p82
ssg63
g66
sg56
(lp83
S':'
asbag49
(g70
g51
NtRp84
(dp85
g54
(dp86
sg63
g66
sg56
(lp87
g49
(g50
g51
NtRp88
(dp89
g54
(dp90
g62
I5
ssg63
g84
sg56
(lp91
S'False'
p92
asbasbasbag49
(g65
g51
NtRp93
(dp94
g54
(dp95
sg63
g59
sg56
(lp96
g49
(g70
g51
NtRp97
(dp98
g54
(dp99
g74
g75
ssg63
g93
sg56
(lp100
S'application'
p101
asbag49
(g70
g51
NtRp102
(dp103
g54
(dp104
g81
g82
ssg63
g93
sg56
(lp105
S':'
asbag49
(g70
g51
NtRp106
(dp107
g54
(dp108
sg63
g93
sg56
(lp109
g49
(g50
g51
NtRp110
(dp111
g54
(dp112
g62
I5
ssg63
g106
sg56
(lp113
S'Final_Impulse'
p114
asbasbasbag49
(g65
g51
NtRp115
(dp116
g54
(dp117
sg63
g59
sg56
(lp118
g49
(g70
g51
NtRp119
(dp120
g54
(dp121
g74
g75
ssg63
g115
sg56
(lp122
g28
asbag49
(g70
g51
NtRp123
(dp124
g54
(dp125
g81
g82
ssg63
g115
sg56
(lp126
S':'
asbag49
(g70
g51
NtRp127
(dp128
g54
(dp129
sg63
g115
sg56
(lp130
g49
(g50
g51
NtRp131
(dp132
g54
(dp133
g62
I5
ssg63
g127
sg56
(lp134
g49
(g58
g51
NtRp135
(dp136
g54
(dp137
g62
I4
ssg63
Nsg56
(lp138
sbasbasbasbag49
(g65
g51
NtRp139
(dp140
g54
(dp141
sg63
g59
sg56
(lp142
g49
(g70
g51
NtRp143
(dp144
g54
(dp145
g74
g75
ssg63
g139
sg56
(lp146
S'body'
p147
asbag49
(g70
g51
NtRp148
(dp149
g54
(dp150
g81
g82
ssg63
g139
sg56
(lp151
S':'
asbag49
(g70
g51
NtRp152
(dp153
g54
(dp154
sg63
g139
sg56
(lp155
g49
(g50
g51
NtRp156
(dp157
g54
(dp158
g62
I5
ssg63
g152
sg56
(lp159
S'<cStringIO.StringO object at 0x8dfccc0>'
p160
asbasbasbag49
(g65
g51
NtRp161
(dp162
g54
(dp163
sg63
g59
sg56
(lp164
g49
(g70
g51
NtRp165
(dp166
g54
(dp167
g74
g75
ssg63
g161
sg56
(lp168
S'cid'
p169
asbag49
(g70
g51
NtRp170
(dp171
g54
(dp172
g81
g82
ssg63
g161
sg56
(lp173
S':'
asbag49
(g70
g51
NtRp174
(dp175
g54
(dp176
sg63
g161
sg56
(lp177
g49
(g50
g51
NtRp178
(dp179
g54
(dp180
g62
I5
ssg63
g174
sg56
(lp181
S'None'
p182
asbasbasbag49
(g65
g51
NtRp183
(dp184
g54
(dp185
sg63
g59
sg56
(lp186
g49
(g70
g51
NtRp187
(dp188
g54
(dp189
g74
g75
ssg63
g183
sg56
(lp190
S'client'
p191
asbag49
(g70
g51
NtRp192
(dp193
g54
(dp194
g81
g82
ssg63
g183
sg56
(lp195
S':'
asbag49
(g70
g51
NtRp196
(dp197
g54
(dp198
sg63
g183
sg56
(lp199
g49
(g50
g51
NtRp200
(dp201
g54
(dp202
g62
I5
ssg63
g196
sg56
(lp203
S'127.0.0.1'
p204
asbasbasbag49
(g65
g51
NtRp205
(dp206
g54
(dp207
sg63
g59
sg56
(lp208
g49
(g70
g51
NtRp209
(dp210
g54
(dp211
g74
g75
ssg63
g205
sg56
(lp212
S'controller'
p213
asbag49
(g70
g51
NtRp214
(dp215
g54
(dp216
g81
g82
ssg63
g205
sg56
(lp217
S':'
asbag49
(g70
g51
NtRp218
(dp219
g54
(dp220
sg63
g205
sg56
(lp221
g49
(g50
g51
NtRp222
(dp223
g54
(dp224
g62
I5
ssg63
g218
sg56
(lp225
S'default'
p226
asbasbasbag49
(g65
g51
NtRp227
(dp228
g54
(dp229
sg63
g59
sg56
(lp230
g49
(g70
g51
NtRp231
(dp232
g54
(dp233
g74
g75
ssg63
g227
sg56
(lp234
S'cookies'
p235
asbag49
(g70
g51
NtRp236
(dp237
g54
(dp238
g81
g82
ssg63
g227
sg56
(lp239
S':'
asbag49
(g70
g51
NtRp240
(dp241
g54
(dp242
sg63
g227
sg56
(lp243
g49
(g50
g51
NtRp244
(dp245
g54
(dp246
g62
I5
ssg63
g240
sg56
(lp247
g49
(g58
g51
NtRp248
(dp249
g54
(dp250
g62
I4
ssg63
Nsg56
(lp251
g49
(g65
g51
NtRp252
(dp253
g54
(dp254
sg63
g248
sg56
(lp255
g49
(g70
g51
NtRp256
(dp257
g54
(dp258
g74
g75
ssg63
g252
sg56
(lp259
S'session_id_admin'
p260
asbag49
(g70
g51
NtRp261
(dp262
g54
(dp263
g81
g82
ssg63
g252
sg56
(lp264
S':'
asbag49
(g70
g51
NtRp265
(dp266
g54
(dp267
sg63
g252
sg56
(lp268
g49
(g50
g51
NtRp269
(dp270
g54
(dp271
g62
I4
ssg63
g265
sg56
(lp272
S'127.0.0.1-67366ae2-92b9-4efd-b49c-19ef6bad89ed'
p273
ag49
(g58
g51
NtRp274
(dp275
g54
(dp276
g62
I3
ssg63
Nsg56
(lp277
g49
(g65
g51
NtRp278
(dp279
g54
(dp280
sg63
g274
sg56
(lp281
g49
(g70
g51
NtRp282
(dp283
g54
(dp284
g74
g75
ssg63
g278
sg56
(lp285
S'comment'
p286
asbag49
(g70
g51
NtRp287
(dp288
g54
(dp289
g81
g82
ssg63
g278
sg56
(lp290
S':'
asbag49
(g70
g51
NtRp291
(dp292
g54
(dp293
sg63
g278
sg56
(lp294
g49
(g50
g51
NtRp295
(dp296
g54
(dp297
g62
I3
ssg63
g291
sg56
(lp298
S''
asbasbasbag49
(g65
g51
NtRp299
(dp300
g54
(dp301
sg63
g274
sg56
(lp302
g49
(g70
g51
NtRp303
(dp304
g54
(dp305
g74
g75
ssg63
g299
sg56
(lp306
S'domain'
p307
asbag49
(g70
g51
NtRp308
(dp309
g54
(dp310
g81
g82
ssg63
g299
sg56
(lp311
S':'
asbag49
(g70
g51
NtRp312
(dp313
g54
(dp314
sg63
g299
sg56
(lp315
g49
(g50
g51
NtRp316
(dp317
g54
(dp318
g62
I3
ssg63
g312
sg56
(lp319
S''
asbasbasbag49
(g65
g51
NtRp320
(dp321
g54
(dp322
sg63
g274
sg56
(lp323
g49
(g70
g51
NtRp324
(dp325
g54
(dp326
g74
g75
ssg63
g320
sg56
(lp327
S'expires'
p328
asbag49
(g70
g51
NtRp329
(dp330
g54
(dp331
g81
g82
ssg63
g320
sg56
(lp332
S':'
asbag49
(g70
g51
NtRp333
(dp334
g54
(dp335
sg63
g320
sg56
(lp336
g49
(g50
g51
NtRp337
(dp338
g54
(dp339
g62
I3
ssg63
g333
sg56
(lp340
S''
asbasbasbag49
(g65
g51
NtRp341
(dp342
g54
(dp343
sg63
g274
sg56
(lp344
g49
(g70
g51
NtRp345
(dp346
g54
(dp347
g74
g75
ssg63
g341
sg56
(lp348
S'max-age'
p349
asbag49
(g70
g51
NtRp350
(dp351
g54
(dp352
g81
g82
ssg63
g341
sg56
(lp353
S':'
asbag49
(g70
g51
NtRp354
(dp355
g54
(dp356
sg63
g341
sg56
(lp357
g49
(g50
g51
NtRp358
(dp359
g54
(dp360
g62
I3
ssg63
g354
sg56
(lp361
S''
asbasbasbag49
(g65
g51
NtRp362
(dp363
g54
(dp364
sg63
g274
sg56
(lp365
g49
(g70
g51
NtRp366
(dp367
g54
(dp368
g74
g75
ssg63
g362
sg56
(lp369
S'path'
p370
asbag49
(g70
g51
NtRp371
(dp372
g54
(dp373
g81
g82
ssg63
g362
sg56
(lp374
S':'
asbag49
(g70
g51
NtRp375
(dp376
g54
(dp377
sg63
g362
sg56
(lp378
g49
(g50
g51
NtRp379
(dp380
g54
(dp381
g62
I3
ssg63
g375
sg56
(lp382
S''
asbasbasbag49
(g65
g51
NtRp383
(dp384
g54
(dp385
sg63
g274
sg56
(lp386
g49
(g70
g51
NtRp387
(dp388
g54
(dp389
g74
g75
ssg63
g383
sg56
(lp390
S'secure'
p391
asbag49
(g70
g51
NtRp392
(dp393
g54
(dp394
g81
g82
ssg63
g383
sg56
(lp395
S':'
asbag49
(g70
g51
NtRp396
(dp397
g54
(dp398
sg63
g383
sg56
(lp399
g49
(g50
g51
NtRp400
(dp401
g54
(dp402
g62
I3
ssg63
g396
sg56
(lp403
S''
asbasbasbag49
(g65
g51
NtRp404
(dp405
g54
(dp406
sg63
g274
sg56
(lp407
g49
(g70
g51
NtRp408
(dp409
g54
(dp410
g74
g75
ssg63
g404
sg56
(lp411
S'version'
p412
asbag49
(g70
g51
NtRp413
(dp414
g54
(dp415
g81
g82
ssg63
g404
sg56
(lp416
S':'
asbag49
(g70
g51
NtRp417
(dp418
g54
(dp419
sg63
g404
sg56
(lp420
g49
(g50
g51
NtRp421
(dp422
g54
(dp423
g62
I3
ssg63
g417
sg56
(lp424
S''
asbasbasbasbasbasbasbag49
(g65
g51
NtRp425
(dp426
g54
(dp427
sg63
g248
sg56
(lp428
g49
(g70
g51
NtRp429
(dp430
g54
(dp431
g74
g75
ssg63
g425
sg56
(lp432
S'session_id_caldwell'
p433
asbag49
(g70
g51
NtRp434
(dp435
g54
(dp436
g81
g82
ssg63
g425
sg56
(lp437
S':'
asbag49
(g70
g51
NtRp438
(dp439
g54
(dp440
sg63
g425
sg56
(lp441
g49
(g50
g51
NtRp442
(dp443
g54
(dp444
g62
I4
ssg63
g438
sg56
(lp445
S'127.0.0.1-774f070d-0370-4fcd-8b83-d9dc7d2b5d2d'
p446
ag49
(g58
g51
NtRp447
(dp448
g54
(dp449
g62
I3
ssg63
Nsg56
(lp450
g49
(g65
g51
NtRp451
(dp452
g54
(dp453
sg63
g447
sg56
(lp454
g49
(g70
g51
NtRp455
(dp456
g54
(dp457
g74
g75
ssg63
g451
sg56
(lp458
g286
asbag49
(g70
g51
NtRp459
(dp460
g54
(dp461
g81
g82
ssg63
g451
sg56
(lp462
S':'
asbag49
(g70
g51
NtRp463
(dp464
g54
(dp465
sg63
g451
sg56
(lp466
g49
(g50
g51
NtRp467
(dp468
g54
(dp469
g62
I3
ssg63
g463
sg56
(lp470
S''
asbasbasbag49
(g65
g51
NtRp471
(dp472
g54
(dp473
sg63
g447
sg56
(lp474
g49
(g70
g51
NtRp475
(dp476
g54
(dp477
g74
g75
ssg63
g471
sg56
(lp478
g307
asbag49
(g70
g51
NtRp479
(dp480
g54
(dp481
g81
g82
ssg63
g471
sg56
(lp482
S':'
asbag49
(g70
g51
NtRp483
(dp484
g54
(dp485
sg63
g471
sg56
(lp486
g49
(g50
g51
NtRp487
(dp488
g54
(dp489
g62
I3
ssg63
g483
sg56
(lp490
S''
asbasbasbag49
(g65
g51
NtRp491
(dp492
g54
(dp493
sg63
g447
sg56
(lp494
g49
(g70
g51
NtRp495
(dp496
g54
(dp497
g74
g75
ssg63
g491
sg56
(lp498
g328
asbag49
(g70
g51
NtRp499
(dp500
g54
(dp501
g81
g82
ssg63
g491
sg56
(lp502
S':'
asbag49
(g70
g51
NtRp503
(dp504
g54
(dp505
sg63
g491
sg56
(lp506
g49
(g50
g51
NtRp507
(dp508
g54
(dp509
g62
I3
ssg63
g503
sg56
(lp510
S''
asbasbasbag49
(g65
g51
NtRp511
(dp512
g54
(dp513
sg63
g447
sg56
(lp514
g49
(g70
g51
NtRp515
(dp516
g54
(dp517
g74
g75
ssg63
g511
sg56
(lp518
g349
asbag49
(g70
g51
NtRp519
(dp520
g54
(dp521
g81
g82
ssg63
g511
sg56
(lp522
S':'
asbag49
(g70
g51
NtRp523
(dp524
g54
(dp525
sg63
g511
sg56
(lp526
g49
(g50
g51
NtRp527
(dp528
g54
(dp529
g62
I3
ssg63
g523
sg56
(lp530
S''
asbasbasbag49
(g65
g51
NtRp531
(dp532
g54
(dp533
sg63
g447
sg56
(lp534
g49
(g70
g51
NtRp535
(dp536
g54
(dp537
g74
g75
ssg63
g531
sg56
(lp538
g370
asbag49
(g70
g51
NtRp539
(dp540
g54
(dp541
g81
g82
ssg63
g531
sg56
(lp542
S':'
asbag49
(g70
g51
NtRp543
(dp544
g54
(dp545
sg63
g531
sg56
(lp546
g49
(g50
g51
NtRp547
(dp548
g54
(dp549
g62
I3
ssg63
g543
sg56
(lp550
S''
asbasbasbag49
(g65
g51
NtRp551
(dp552
g54
(dp553
sg63
g447
sg56
(lp554
g49
(g70
g51
NtRp555
(dp556
g54
(dp557
g74
g75
ssg63
g551
sg56
(lp558
g391
asbag49
(g70
g51
NtRp559
(dp560
g54
(dp561
g81
g82
ssg63
g551
sg56
(lp562
S':'
asbag49
(g70
g51
NtRp563
(dp564
g54
(dp565
sg63
g551
sg56
(lp566
g49
(g50
g51
NtRp567
(dp568
g54
(dp569
g62
I3
ssg63
g563
sg56
(lp570
S''
asbasbasbag49
(g65
g51
NtRp571
(dp572
g54
(dp573
sg63
g447
sg56
(lp574
g49
(g70
g51
NtRp575
(dp576
g54
(dp577
g74
g75
ssg63
g571
sg56
(lp578
g412
asbag49
(g70
g51
NtRp579
(dp580
g54
(dp581
g81
g82
ssg63
g571
sg56
(lp582
S':'
asbag49
(g70
g51
NtRp583
(dp584
g54
(dp585
sg63
g571
sg56
(lp586
g49
(g50
g51
NtRp587
(dp588
g54
(dp589
g62
I3
ssg63
g583
sg56
(lp590
S''
asbasbasbasbasbasbasbag49
(g65
g51
NtRp591
(dp592
g54
(dp593
sg63
g248
sg56
(lp594
g49
(g70
g51
NtRp595
(dp596
g54
(dp597
g74
g75
ssg63
g591
sg56
(lp598
S'session_id_course_recommendations'
p599
asbag49
(g70
g51
NtRp600
(dp601
g54
(dp602
g81
g82
ssg63
g591
sg56
(lp603
S':'
asbag49
(g70
g51
NtRp604
(dp605
g54
(dp606
sg63
g591
sg56
(lp607
g49
(g50
g51
NtRp608
(dp609
g54
(dp610
g62
I4
ssg63
g604
sg56
(lp611
S'127.0.0.1-eddf8dff-6ce0-4bec-bee5-62116570058b'
p612
ag49
(g58
g51
NtRp613
(dp614
g54
(dp615
g62
I3
ssg63
Nsg56
(lp616
g49
(g65
g51
NtRp617
(dp618
g54
(dp619
sg63
g613
sg56
(lp620
g49
(g70
g51
NtRp621
(dp622
g54
(dp623
g74
g75
ssg63
g617
sg56
(lp624
g286
asbag49
(g70
g51
NtRp625
(dp626
g54
(dp627
g81
g82
ssg63
g617
sg56
(lp628
S':'
asbag49
(g70
g51
NtRp629
(dp630
g54
(dp631
sg63
g617
sg56
(lp632
g49
(g50
g51
NtRp633
(dp634
g54
(dp635
g62
I3
ssg63
g629
sg56
(lp636
S''
asbasbasbag49
(g65
g51
NtRp637
(dp638
g54
(dp639
sg63
g613
sg56
(lp640
g49
(g70
g51
NtRp641
(dp642
g54
(dp643
g74
g75
ssg63
g637
sg56
(lp644
g307
asbag49
(g70
g51
NtRp645
(dp646
g54
(dp647
g81
g82
ssg63
g637
sg56
(lp648
S':'
asbag49
(g70
g51
NtRp649
(dp650
g54
(dp651
sg63
g637
sg56
(lp652
g49
(g50
g51
NtRp653
(dp654
g54
(dp655
g62
I3
ssg63
g649
sg56
(lp656
S''
asbasbasbag49
(g65
g51
NtRp657
(dp658
g54
(dp659
sg63
g613
sg56
(lp660
g49
(g70
g51
NtRp661
(dp662
g54
(dp663
g74
g75
ssg63
g657
sg56
(lp664
g328
asbag49
(g70
g51
NtRp665
(dp666
g54
(dp667
g81
g82
ssg63
g657
sg56
(lp668
S':'
asbag49
(g70
g51
NtRp669
(dp670
g54
(dp671
sg63
g657
sg56
(lp672
g49
(g50
g51
NtRp673
(dp674
g54
(dp675
g62
I3
ssg63
g669
sg56
(lp676
S''
asbasbasbag49
(g65
g51
NtRp677
(dp678
g54
(dp679
sg63
g613
sg56
(lp680
g49
(g70
g51
NtRp681
(dp682
g54
(dp683
g74
g75
ssg63
g677
sg56
(lp684
g349
asbag49
(g70
g51
NtRp685
(dp686
g54
(dp687
g81
g82
ssg63
g677
sg56
(lp688
S':'
asbag49
(g70
g51
NtRp689
(dp690
g54
(dp691
sg63
g677
sg56
(lp692
g49
(g50
g51
NtRp693
(dp694
g54
(dp695
g62
I3
ssg63
g689
sg56
(lp696
S''
asbasbasbag49
(g65
g51
NtRp697
(dp698
g54
(dp699
sg63
g613
sg56
(lp700
g49
(g70
g51
NtRp701
(dp702
g54
(dp703
g74
g75
ssg63
g697
sg56
(lp704
g370
asbag49
(g70
g51
NtRp705
(dp706
g54
(dp707
g81
g82
ssg63
g697
sg56
(lp708
S':'
asbag49
(g70
g51
NtRp709
(dp710
g54
(dp711
sg63
g697
sg56
(lp712
g49
(g50
g51
NtRp713
(dp714
g54
(dp715
g62
I3
ssg63
g709
sg56
(lp716
S''
asbasbasbag49
(g65
g51
NtRp717
(dp718
g54
(dp719
sg63
g613
sg56
(lp720
g49
(g70
g51
NtRp721
(dp722
g54
(dp723
g74
g75
ssg63
g717
sg56
(lp724
g391
asbag49
(g70
g51
NtRp725
(dp726
g54
(dp727
g81
g82
ssg63
g717
sg56
(lp728
S':'
asbag49
(g70
g51
NtRp729
(dp730
g54
(dp731
sg63
g717
sg56
(lp732
g49
(g50
g51
NtRp733
(dp734
g54
(dp735
g62
I3
ssg63
g729
sg56
(lp736
S''
asbasbasbag49
(g65
g51
NtRp737
(dp738
g54
(dp739
sg63
g613
sg56
(lp740
g49
(g70
g51
NtRp741
(dp742
g54
(dp743
g74
g75
ssg63
g737
sg56
(lp744
g412
asbag49
(g70
g51
NtRp745
(dp746
g54
(dp747
g81
g82
ssg63
g737
sg56
(lp748
S':'
asbag49
(g70
g51
NtRp749
(dp750
g54
(dp751
sg63
g737
sg56
(lp752
g49
(g50
g51
NtRp753
(dp754
g54
(dp755
g62
I3
ssg63
g749
sg56
(lp756
S''
asbasbasbasbasbasbasbag49
(g65
g51
NtRp757
(dp758
g54
(dp759
sg63
g248
sg56
(lp760
g49
(g70
g51
NtRp761
(dp762
g54
(dp763
g74
g75
ssg63
g757
sg56
(lp764
S'session_id_final_impulse'
p765
asbag49
(g70
g51
NtRp766
(dp767
g54
(dp768
g81
g82
ssg63
g757
sg56
(lp769
S':'
asbag49
(g70
g51
NtRp770
(dp771
g54
(dp772
sg63
g757
sg56
(lp773
g49
(g50
g51
NtRp774
(dp775
g54
(dp776
g62
I4
ssg63
g770
sg56
(lp777
S'127.0.0.1-038ae1e9-474e-4ce3-a220-4f787604230a'
p778
ag49
(g58
g51
NtRp779
(dp780
g54
(dp781
g62
I3
ssg63
Nsg56
(lp782
g49
(g65
g51
NtRp783
(dp784
g54
(dp785
sg63
g779
sg56
(lp786
g49
(g70
g51
NtRp787
(dp788
g54
(dp789
g74
g75
ssg63
g783
sg56
(lp790
g286
asbag49
(g70
g51
NtRp791
(dp792
g54
(dp793
g81
g82
ssg63
g783
sg56
(lp794
S':'
asbag49
(g70
g51
NtRp795
(dp796
g54
(dp797
sg63
g783
sg56
(lp798
g49
(g50
g51
NtRp799
(dp800
g54
(dp801
g62
I3
ssg63
g795
sg56
(lp802
S''
asbasbasbag49
(g65
g51
NtRp803
(dp804
g54
(dp805
sg63
g779
sg56
(lp806
g49
(g70
g51
NtRp807
(dp808
g54
(dp809
g74
g75
ssg63
g803
sg56
(lp810
g307
asbag49
(g70
g51
NtRp811
(dp812
g54
(dp813
g81
g82
ssg63
g803
sg56
(lp814
S':'
asbag49
(g70
g51
NtRp815
(dp816
g54
(dp817
sg63
g803
sg56
(lp818
g49
(g50
g51
NtRp819
(dp820
g54
(dp821
g62
I3
ssg63
g815
sg56
(lp822
S''
asbasbasbag49
(g65
g51
NtRp823
(dp824
g54
(dp825
sg63
g779
sg56
(lp826
g49
(g70
g51
NtRp827
(dp828
g54
(dp829
g74
g75
ssg63
g823
sg56
(lp830
g328
asbag49
(g70
g51
NtRp831
(dp832
g54
(dp833
g81
g82
ssg63
g823
sg56
(lp834
S':'
asbag49
(g70
g51
NtRp835
(dp836
g54
(dp837
sg63
g823
sg56
(lp838
g49
(g50
g51
NtRp839
(dp840
g54
(dp841
g62
I3
ssg63
g835
sg56
(lp842
S''
asbasbasbag49
(g65
g51
NtRp843
(dp844
g54
(dp845
sg63
g779
sg56
(lp846
g49
(g70
g51
NtRp847
(dp848
g54
(dp849
g74
g75
ssg63
g843
sg56
(lp850
g349
asbag49
(g70
g51
NtRp851
(dp852
g54
(dp853
g81
g82
ssg63
g843
sg56
(lp854
S':'
asbag49
(g70
g51
NtRp855
(dp856
g54
(dp857
sg63
g843
sg56
(lp858
g49
(g50
g51
NtRp859
(dp860
g54
(dp861
g62
I3
ssg63
g855
sg56
(lp862
S''
asbasbasbag49
(g65
g51
NtRp863
(dp864
g54
(dp865
sg63
g779
sg56
(lp866
g49
(g70
g51
NtRp867
(dp868
g54
(dp869
g74
g75
ssg63
g863
sg56
(lp870
g370
asbag49
(g70
g51
NtRp871
(dp872
g54
(dp873
g81
g82
ssg63
g863
sg56
(lp874
S':'
asbag49
(g70
g51
NtRp875
(dp876
g54
(dp877
sg63
g863
sg56
(lp878
g49
(g50
g51
NtRp879
(dp880
g54
(dp881
g62
I3
ssg63
g875
sg56
(lp882
S''
asbasbasbag49
(g65
g51
NtRp883
(dp884
g54
(dp885
sg63
g779
sg56
(lp886
g49
(g70
g51
NtRp887
(dp888
g54
(dp889
g74
g75
ssg63
g883
sg56
(lp890
g391
asbag49
(g70
g51
NtRp891
(dp892
g54
(dp893
g81
g82
ssg63
g883
sg56
(lp894
S':'
asbag49
(g70
g51
NtRp895
(dp896
g54
(dp897
sg63
g883
sg56
(lp898
g49
(g50
g51
NtRp899
(dp900
g54
(dp901
g62
I3
ssg63
g895
sg56
(lp902
S''
asbasbasbag49
(g65
g51
NtRp903
(dp904
g54
(dp905
sg63
g779
sg56
(lp906
g49
(g70
g51
NtRp907
(dp908
g54
(dp909
g74
g75
ssg63
g903
sg56
(lp910
g412
asbag49
(g70
g51
NtRp911
(dp912
g54
(dp913
g81
g82
ssg63
g903
sg56
(lp914
S':'
asbag49
(g70
g51
NtRp915
(dp916
g54
(dp917
sg63
g903
sg56
(lp918
g49
(g50
g51
NtRp919
(dp920
g54
(dp921
g62
I3
ssg63
g915
sg56
(lp922
S''
asbasbasbasbasbasbasbag49
(g65
g51
NtRp923
(dp924
g54
(dp925
sg63
g248
sg56
(lp926
g49
(g70
g51
NtRp927
(dp928
g54
(dp929
g74
g75
ssg63
g923
sg56
(lp930
S'session_id_welcome'
p931
asbag49
(g70
g51
NtRp932
(dp933
g54
(dp934
g81
g82
ssg63
g923
sg56
(lp935
S':'
asbag49
(g70
g51
NtRp936
(dp937
g54
(dp938
sg63
g923
sg56
(lp939
g49
(g50
g51
NtRp940
(dp941
g54
(dp942
g62
I4
ssg63
g936
sg56
(lp943
S'127.0.0.1-a1b29d7f-93ea-4f9a-855b-c9366e00dcc8'
p944
ag49
(g58
g51
NtRp945
(dp946
g54
(dp947
g62
I3
ssg63
Nsg56
(lp948
g49
(g65
g51
NtRp949
(dp950
g54
(dp951
sg63
g945
sg56
(lp952
g49
(g70
g51
NtRp953
(dp954
g54
(dp955
g74
g75
ssg63
g949
sg56
(lp956
g286
asbag49
(g70
g51
NtRp957
(dp958
g54
(dp959
g81
g82
ssg63
g949
sg56
(lp960
S':'
asbag49
(g70
g51
NtRp961
(dp962
g54
(dp963
sg63
g949
sg56
(lp964
g49
(g50
g51
NtRp965
(dp966
g54
(dp967
g62
I3
ssg63
g961
sg56
(lp968
S''
asbasbasbag49
(g65
g51
NtRp969
(dp970
g54
(dp971
sg63
g945
sg56
(lp972
g49
(g70
g51
NtRp973
(dp974
g54
(dp975
g74
g75
ssg63
g969
sg56
(lp976
g307
asbag49
(g70
g51
NtRp977
(dp978
g54
(dp979
g81
g82
ssg63
g969
sg56
(lp980
S':'
asbag49
(g70
g51
NtRp981
(dp982
g54
(dp983
sg63
g969
sg56
(lp984
g49
(g50
g51
NtRp985
(dp986
g54
(dp987
g62
I3
ssg63
g981
sg56
(lp988
S''
asbasbasbag49
(g65
g51
NtRp989
(dp990
g54
(dp991
sg63
g945
sg56
(lp992
g49
(g70
g51
NtRp993
(dp994
g54
(dp995
g74
g75
ssg63
g989
sg56
(lp996
g328
asbag49
(g70
g51
NtRp997
(dp998
g54
(dp999
g81
g82
ssg63
g989
sg56
(lp1000
S':'
asbag49
(g70
g51
NtRp1001
(dp1002
g54
(dp1003
sg63
g989
sg56
(lp1004
g49
(g50
g51
NtRp1005
(dp1006
g54
(dp1007
g62
I3
ssg63
g1001
sg56
(lp1008
S''
asbasbasbag49
(g65
g51
NtRp1009
(dp1010
g54
(dp1011
sg63
g945
sg56
(lp1012
g49
(g70
g51
NtRp1013
(dp1014
g54
(dp1015
g74
g75
ssg63
g1009
sg56
(lp1016
g349
asbag49
(g70
g51
NtRp1017
(dp1018
g54
(dp1019
g81
g82
ssg63
g1009
sg56
(lp1020
S':'
asbag49
(g70
g51
NtRp1021
(dp1022
g54
(dp1023
sg63
g1009
sg56
(lp1024
g49
(g50
g51
NtRp1025
(dp1026
g54
(dp1027
g62
I3
ssg63
g1021
sg56
(lp1028
S''
asbasbasbag49
(g65
g51
NtRp1029
(dp1030
g54
(dp1031
sg63
g945
sg56
(lp1032
g49
(g70
g51
NtRp1033
(dp1034
g54
(dp1035
g74
g75
ssg63
g1029
sg56
(lp1036
g370
asbag49
(g70
g51
NtRp1037
(dp1038
g54
(dp1039
g81
g82
ssg63
g1029
sg56
(lp1040
S':'
asbag49
(g70
g51
NtRp1041
(dp1042
g54
(dp1043
sg63
g1029
sg56
(lp1044
g49
(g50
g51
NtRp1045
(dp1046
g54
(dp1047
g62
I3
ssg63
g1041
sg56
(lp1048
S''
asbasbasbag49
(g65
g51
NtRp1049
(dp1050
g54
(dp1051
sg63
g945
sg56
(lp1052
g49
(g70
g51
NtRp1053
(dp1054
g54
(dp1055
g74
g75
ssg63
g1049
sg56
(lp1056
g391
asbag49
(g70
g51
NtRp1057
(dp1058
g54
(dp1059
g81
g82
ssg63
g1049
sg56
(lp1060
S':'
asbag49
(g70
g51
NtRp1061
(dp1062
g54
(dp1063
sg63
g1049
sg56
(lp1064
g49
(g50
g51
NtRp1065
(dp1066
g54
(dp1067
g62
I3
ssg63
g1061
sg56
(lp1068
S''
asbasbasbag49
(g65
g51
NtRp1069
(dp1070
g54
(dp1071
sg63
g945
sg56
(lp1072
g49
(g70
g51
NtRp1073
(dp1074
g54
(dp1075
g74
g75
ssg63
g1069
sg56
(lp1076
g412
asbag49
(g70
g51
NtRp1077
(dp1078
g54
(dp1079
g81
g82
ssg63
g1069
sg56
(lp1080
S':'
asbag49
(g70
g51
NtRp1081
(dp1082
g54
(dp1083
sg63
g1069
sg56
(lp1084
g49
(g50
g51
NtRp1085
(dp1086
g54
(dp1087
g62
I3
ssg63
g1081
sg56
(lp1088
S''
asbasbasbasbasbasbasbasbasbasbasbag49
(g65
g51
NtRp1089
(dp1090
g54
(dp1091
sg63
g59
sg56
(lp1092
g49
(g70
g51
NtRp1093
(dp1094
g54
(dp1095
g74
g75
ssg63
g1089
sg56
(lp1096
S'env'
p1097
asbag49
(g70
g51
NtRp1098
(dp1099
g54
(dp1100
g81
g82
ssg63
g1089
sg56
(lp1101
S':'
asbag49
(g70
g51
NtRp1102
(dp1103
g54
(dp1104
sg63
g1089
sg56
(lp1105
g49
(g50
g51
NtRp1106
(dp1107
g54
(dp1108
g62
I5
ssg63
g1102
sg56
(lp1109
g49
(g58
g51
NtRp1110
(dp1111
g54
(dp1112
g62
I4
ssg63
Nsg56
(lp1113
g49
(g65
g51
NtRp1114
(dp1115
g54
(dp1116
sg63
g1110
sg56
(lp1117
g49
(g70
g51
NtRp1118
(dp1119
g54
(dp1120
g74
g75
ssg63
g1114
sg56
(lp1121
S'app_folders'
p1122
asbag49
(g70
g51
NtRp1123
(dp1124
g54
(dp1125
g81
g82
ssg63
g1114
sg56
(lp1126
S':'
asbag49
(g70
g51
NtRp1127
(dp1128
g54
(dp1129
sg63
g1114
sg56
(lp1130
g49
(g50
g51
NtRp1131
(dp1132
g54
(dp1133
g62
I4
ssg63
g1127
sg56
(lp1134
S"set(['/Users/abaric/Downloads/web2py/web2py.app/Contents/Resources/applications/Final_Impulse/', '/Users/abaric/Downloads/web2py/web2py.app/Contents/Resources/applications/welcome/', '/Users/abaric/Downloads/web2py/web2py.app/Contents/Resources/applications/admin/', '/Users/abaric/Downloads/web2py/web2py.app/Contents/Resources/applications/Caldwell/', '/Users/abaric/Downloads/web2py/web2py.app/Contents/Resources/applications/Course_Recommendations/', '/Users/abaric/Downloads/web2py/web2py.app/Contents/Resources/applications/examples/'])"
p1135
asbasbasbag49
(g65
g51
NtRp1136
(dp1137
g54
(dp1138
sg63
g1110
sg56
(lp1139
g49
(g70
g51
NtRp1140
(dp1141
g54
(dp1142
g74
g75
ssg63
g1136
sg56
(lp1143
S'applications_parent'
p1144
asbag49
(g70
g51
NtRp1145
(dp1146
g54
(dp1147
g81
g82
ssg63
g1136
sg56
(lp1148
S':'
asbag49
(g70
g51
NtRp1149
(dp1150
g54
(dp1151
sg63
g1136
sg56
(lp1152
g49
(g50
g51
NtRp1153
(dp1154
g54
(dp1155
g62
I4
ssg63
g1149
sg56
(lp1156
S'/Users/abaric/Downloads/web2py/web2py.app/Contents/Resources'
p1157
asbasbasbag49
(g65
g51
NtRp1158
(dp1159
g54
(dp1160
sg63
g1110
sg56
(lp1161
g49
(g70
g51
NtRp1162
(dp1163
g54
(dp1164
g74
g75
ssg63
g1158
sg56
(lp1165
S'cmd_args'
p1166
asbag49
(g70
g51
NtRp1167
(dp1168
g54
(dp1169
g81
g82
ssg63
g1158
sg56
(lp1170
S':'
asbag49
(g70
g51
NtRp1171
(dp1172
g54
(dp1173
sg63
g1158
sg56
(lp1174
g49
(g50
g51
NtRp1175
(dp1176
g54
(dp1177
g62
I4
ssg63
g1171
sg56
(lp1178
g49
(g58
g51
NtRp1179
(dp1180
g54
(dp1181
g62
I3
ssg63
Nsg56
(lp1182
sbasbasbasbag49
(g65
g51
NtRp1183
(dp1184
g54
(dp1185
sg63
g1110
sg56
(lp1186
g49
(g70
g51
NtRp1187
(dp1188
g54
(dp1189
g74
g75
ssg63
g1183
sg56
(lp1190
S'cmd_options'
p1191
asbag49
(g70
g51
NtRp1192
(dp1193
g54
(dp1194
g81
g82
ssg63
g1183
sg56
(lp1195
S':'
asbag49
(g70
g51
NtRp1196
(dp1197
g54
(dp1198
sg63
g1183
sg56
(lp1199
g49
(g50
g51
NtRp1200
(dp1201
g54
(dp1202
g62
I4
ssg63
g1196
sg56
(lp1203
S"<Values at 0x45061c0: {'verbose': False, 'ip': '127.0.0.1', 'with_scheduler': False, 'ips': ['144.118.245.17'], 'shutdown_timeout': 5, 'taskbar': False, 'port': 8000, 'maxthreads': None, 'softcron': False, 'server_name': 'Andrea-Barics-MacBook-Pro.local', 'bpython': False, 'nogui': False, 'pid_filename': 'httpserver.pid', 'extcron': False, 'runcron': False, 'run_system_tests': False, 'test': None, 'folder': '/Users/abaric/Downloads/web2py/web2py.app/Contents/Resources', 'config': '', 'import_models': False, 'winservice': '', 'shell': None, 'run': '', 'log_filename': 'httpserver.log', 'debuglevel': 30, 'args': [''], 'socket_timeout': 5, 'ssl_ca_certificate': None, 'scheduler': None, 'profiler_filename': None, 'ssl_private_key': '', 'scheduler_groups': None, 'password': '<ask>', 'request_queue_size': 5, 'ssl_certificate': '', 'cronjob': False, 'numthreads': None, 'quiet': False, 'interfaces': None, 'minthreads': None, 'timeout': 10, 'plain': False, 'nobanner': False}>"
p1204
asbasbasbag49
(g65
g51
NtRp1205
(dp1206
g54
(dp1207
sg63
g1110
sg56
(lp1208
g49
(g70
g51
NtRp1209
(dp1210
g54
(dp1211
g74
g75
ssg63
g1205
sg56
(lp1212
S'db_sessions'
p1213
asbag49
(g70
g51
NtRp1214
(dp1215
g54
(dp1216
g81
g82
ssg63
g1205
sg56
(lp1217
S':'
asbag49
(g70
g51
NtRp1218
(dp1219
g54
(dp1220
sg63
g1205
sg56
(lp1221
g49
(g50
g51
NtRp1222
(dp1223
g54
(dp1224
g62
I4
ssg63
g1218
sg56
(lp1225
S'set([])'
p1226
asbasbasbag49
(g65
g51
NtRp1227
(dp1228
g54
(dp1229
sg63
g1110
sg56
(lp1230
g49
(g70
g51
NtRp1231
(dp1232
g54
(dp1233
g74
g75
ssg63
g1227
sg56
(lp1234
S'debugging'
p1235
asbag49
(g70
g51
NtRp1236
(dp1237
g54
(dp1238
g81
g82
ssg63
g1227
sg56
(lp1239
S':'
asbag49
(g70
g51
NtRp1240
(dp1241
g54
(dp1242
sg63
g1227
sg56
(lp1243
g49
(g50
g51
NtRp1244
(dp1245
g54
(dp1246
g62
I4
ssg63
g1240
sg56
(lp1247
g92
asbasbasbag49
(g65
g51
NtRp1248
(dp1249
g54
(dp1250
sg63
g1110
sg56
(lp1251
g49
(g70
g51
NtRp1252
(dp1253
g54
(dp1254
g74
g75
ssg63
g1248
sg56
(lp1255
S'gluon_parent'
p1256
asbag49
(g70
g51
NtRp1257
(dp1258
g54
(dp1259
g81
g82
ssg63
g1248
sg56
(lp1260
S':'
asbag49
(g70
g51
NtRp1261
(dp1262
g54
(dp1263
sg63
g1248
sg56
(lp1264
g49
(g50
g51
NtRp1265
(dp1266
g54
(dp1267
g62
I4
ssg63
g1261
sg56
(lp1268
S'/Users/abaric/Downloads/web2py/web2py.app/Contents/Resources'
p1269
asbasbasbag49
(g65
g51
NtRp1270
(dp1271
g54
(dp1272
sg63
g1110
sg56
(lp1273
g49
(g70
g51
NtRp1274
(dp1275
g54
(dp1276
g74
g75
ssg63
g1270
sg56
(lp1277
S'http_accept'
p1278
asbag49
(g70
g51
NtRp1279
(dp1280
g54
(dp1281
g81
g82
ssg63
g1270
sg56
(lp1282
S':'
asbag49
(g70
g51
NtRp1283
(dp1284
g54
(dp1285
sg63
g1270
sg56
(lp1286
g49
(g50
g51
NtRp1287
(dp1288
g54
(dp1289
g62
I4
ssg63
g1283
sg56
(lp1290
S'text/html,application/xhtml+xml,application/xml;q=0.9,image/webp,*/*;q=0.8'
p1291
asbasbasbag49
(g65
g51
NtRp1292
(dp1293
g54
(dp1294
sg63
g1110
sg56
(lp1295
g49
(g70
g51
NtRp1296
(dp1297
g54
(dp1298
g74
g75
ssg63
g1292
sg56
(lp1299
S'http_accept_encoding'
p1300
asbag49
(g70
g51
NtRp1301
(dp1302
g54
(dp1303
g81
g82
ssg63
g1292
sg56
(lp1304
S':'
asbag49
(g70
g51
NtRp1305
(dp1306
g54
(dp1307
sg63
g1292
sg56
(lp1308
g49
(g50
g51
NtRp1309
(dp1310
g54
(dp1311
g62
I4
ssg63
g1305
sg56
(lp1312
S'gzip, deflate, sdch'
p1313
asbasbasbag49
(g65
g51
NtRp1314
(dp1315
g54
(dp1316
sg63
g1110
sg56
(lp1317
g49
(g70
g51
NtRp1318
(dp1319
g54
(dp1320
g74
g75
ssg63
g1314
sg56
(lp1321
S'http_accept_language'
p1322
asbag49
(g70
g51
NtRp1323
(dp1324
g54
(dp1325
g81
g82
ssg63
g1314
sg56
(lp1326
S':'
asbag49
(g70
g51
NtRp1327
(dp1328
g54
(dp1329
sg63
g1314
sg56
(lp1330
g49
(g50
g51
NtRp1331
(dp1332
g54
(dp1333
g62
I4
ssg63
g1327
sg56
(lp1334
S'en-US,en;q=0.8'
p1335
asbasbasbag49
(g65
g51
NtRp1336
(dp1337
g54
(dp1338
sg63
g1110
sg56
(lp1339
g49
(g70
g51
NtRp1340
(dp1341
g54
(dp1342
g74
g75
ssg63
g1336
sg56
(lp1343
S'http_connection'
p1344
asbag49
(g70
g51
NtRp1345
(dp1346
g54
(dp1347
g81
g82
ssg63
g1336
sg56
(lp1348
S':'
asbag49
(g70
g51
NtRp1349
(dp1350
g54
(dp1351
sg63
g1336
sg56
(lp1352
g49
(g50
g51
NtRp1353
(dp1354
g54
(dp1355
g62
I4
ssg63
g1349
sg56
(lp1356
S'keep-alive'
p1357
asbasbasbag49
(g65
g51
NtRp1358
(dp1359
g54
(dp1360
sg63
g1110
sg56
(lp1361
g49
(g70
g51
NtRp1362
(dp1363
g54
(dp1364
g74
g75
ssg63
g1358
sg56
(lp1365
S'http_cookie'
p1366
asbag49
(g70
g51
NtRp1367
(dp1368
g54
(dp1369
g81
g82
ssg63
g1358
sg56
(lp1370
S':'
asbag49
(g70
g51
NtRp1371
(dp1372
g54
(dp1373
sg63
g1358
sg56
(lp1374
g49
(g50
g51
NtRp1375
(dp1376
g54
(dp1377
g62
I4
ssg63
g1371
sg56
(lp1378
S'session_id_welcome=127.0.0.1-a1b29d7f-93ea-4f9a-855b-c9366e00dcc8; session_id_caldwell=127.0.0.1-774f070d-0370-4fcd-8b83-d9dc7d2b5d2d; session_id_course_recommendations=127.0.0.1-eddf8dff-6ce0-4bec-bee5-62116570058b; session_id_admin=127.0.0.1-67366ae2-92b9-4efd-b49c-19ef6bad89ed; session_id_final_impulse=127.0.0.1-038ae1e9-474e-4ce3-a220-4f787604230a'
p1379
asbasbasbag49
(g65
g51
NtRp1380
(dp1381
g54
(dp1382
sg63
g1110
sg56
(lp1383
g49
(g70
g51
NtRp1384
(dp1385
g54
(dp1386
g74
g75
ssg63
g1380
sg56
(lp1387
S'http_host'
p1388
asbag49
(g70
g51
NtRp1389
(dp1390
g54
(dp1391
g81
g82
ssg63
g1380
sg56
(lp1392
S':'
asbag49
(g70
g51
NtRp1393
(dp1394
g54
(dp1395
sg63
g1380
sg56
(lp1396
g49
(g50
g51
NtRp1397
(dp1398
g54
(dp1399
g62
I4
ssg63
g1393
sg56
(lp1400
S'127.0.0.1:8000'
p1401
asbasbasbag49
(g65
g51
NtRp1402
(dp1403
g54
(dp1404
sg63
g1110
sg56
(lp1405
g49
(g70
g51
NtRp1406
(dp1407
g54
(dp1408
g74
g75
ssg63
g1402
sg56
(lp1409
S'http_referer'
p1410
asbag49
(g70
g51
NtRp1411
(dp1412
g54
(dp1413
g81
g82
ssg63
g1402
sg56
(lp1414
S':'
asbag49
(g70
g51
NtRp1415
(dp1416
g54
(dp1417
sg63
g1402
sg56
(lp1418
g49
(g50
g51
NtRp1419
(dp1420
g54
(dp1421
g62
I4
ssg63
g1415
sg56
(lp1422
S'http://127.0.0.1:8000/Final_Impulse/default/index'
p1423
asbasbasbag49
(g65
g51
NtRp1424
(dp1425
g54
(dp1426
sg63
g1110
sg56
(lp1427
g49
(g70
g51
NtRp1428
(dp1429
g54
(dp1430
g74
g75
ssg63
g1424
sg56
(lp1431
S'http_user_agent'
p1432
asbag49
(g70
g51
NtRp1433
(dp1434
g54
(dp1435
g81
g82
ssg63
g1424
sg56
(lp1436
S':'
asbag49
(g70
g51
NtRp1437
(dp1438
g54
(dp1439
sg63
g1424
sg56
(lp1440
g49
(g50
g51
NtRp1441
(dp1442
g54
(dp1443
g62
I4
ssg63
g1437
sg56
(lp1444
S'Mozilla/5.0 (Macintosh; Intel Mac OS X 10_8_4) AppleWebKit/537.36 (KHTML, like Gecko) Chrome/41.0.2272.104 Safari/537.36'
p1445
asbasbasbag49
(g65
g51
NtRp1446
(dp1447
g54
(dp1448
sg63
g1110
sg56
(lp1449
g49
(g70
g51
NtRp1450
(dp1451
g54
(dp1452
g74
g75
ssg63
g1446
sg56
(lp1453
S'is_jython'
p1454
asbag49
(g70
g51
NtRp1455
(dp1456
g54
(dp1457
g81
g82
ssg63
g1446
sg56
(lp1458
S':'
asbag49
(g70
g51
NtRp1459
(dp1460
g54
(dp1461
sg63
g1446
sg56
(lp1462
g49
(g50
g51
NtRp1463
(dp1464
g54
(dp1465
g62
I4
ssg63
g1459
sg56
(lp1466
g92
asbasbasbag49
(g65
g51
NtRp1467
(dp1468
g54
(dp1469
sg63
g1110
sg56
(lp1470
g49
(g70
g51
NtRp1471
(dp1472
g54
(dp1473
g74
g75
ssg63
g1467
sg56
(lp1474
S'is_pypy'
p1475
asbag49
(g70
g51
NtRp1476
(dp1477
g54
(dp1478
g81
g82
ssg63
g1467
sg56
(lp1479
S':'
asbag49
(g70
g51
NtRp1480
(dp1481
g54
(dp1482
sg63
g1467
sg56
(lp1483
g49
(g50
g51
NtRp1484
(dp1485
g54
(dp1486
g62
I4
ssg63
g1480
sg56
(lp1487
g92
asbasbasbag49
(g65
g51
NtRp1488
(dp1489
g54
(dp1490
sg63
g1110
sg56
(lp1491
g49
(g70
g51
NtRp1492
(dp1493
g54
(dp1494
g74
g75
ssg63
g1488
sg56
(lp1495
S'local_hosts'
p1496
asbag49
(g70
g51
NtRp1497
(dp1498
g54
(dp1499
g81
g82
ssg63
g1488
sg56
(lp1500
S':'
asbag49
(g70
g51
NtRp1501
(dp1502
g54
(dp1503
sg63
g1488
sg56
(lp1504
g49
(g50
g51
NtRp1505
(dp1506
g54
(dp1507
g62
I4
ssg63
g1501
sg56
(lp1508
g49
(g58
g51
NtRp1509
(dp1510
g54
(dp1511
g62
I3
ssg63
Nsg56
(lp1512
g49
(g65
g51
NtRp1513
(dp1514
g54
(dp1515
sg63
g1509
sg56
(lp1516
g49
(g70
g51
NtRp1517
(dp1518
g54
(dp1519
sg63
g1513
sg56
(lp1520
g49
(g50
g51
NtRp1521
(dp1522
g54
(dp1523
g62
I3
ssg63
g1517
sg56
(lp1524
S'127.0.0.1'
p1525
asbasbasbag49
(g65
g51
NtRp1526
(dp1527
g54
(dp1528
sg63
g1509
sg56
(lp1529
g49
(g70
g51
NtRp1530
(dp1531
g54
(dp1532
sg63
g1526
sg56
(lp1533
g49
(g50
g51
NtRp1534
(dp1535
g54
(dp1536
g62
I3
ssg63
g1530
sg56
(lp1537
S'::ffff:127.0.0.1'
p1538
asbasbasbag49
(g65
g51
NtRp1539
(dp1540
g54
(dp1541
sg63
g1509
sg56
(lp1542
g49
(g70
g51
NtRp1543
(dp1544
g54
(dp1545
sg63
g1539
sg56
(lp1546
g49
(g50
g51
NtRp1547
(dp1548
g54
(dp1549
g62
I3
ssg63
g1543
sg56
(lp1550
S'Andrea-Barics-MacBook-Pro.local'
p1551
asbasbasbag49
(g65
g51
NtRp1552
(dp1553
g54
(dp1554
sg63
g1509
sg56
(lp1555
g49
(g70
g51
NtRp1556
(dp1557
g54
(dp1558
sg63
g1552
sg56
(lp1559
g49
(g50
g51
NtRp1560
(dp1561
g54
(dp1562
g62
I3
ssg63
g1556
sg56
(lp1563
S'Andrea-Barics-MacBook-Pro.local'
p1564
asbasbasbag49
(g65
g51
NtRp1565
(dp1566
g54
(dp1567
sg63
g1509
sg56
(lp1568
g49
(g70
g51
NtRp1569
(dp1570
g54
(dp1571
sg63
g1565
sg56
(lp1572
g49
(g50
g51
NtRp1573
(dp1574
g54
(dp1575
g62
I3
ssg63
g1569
sg56
(lp1576
S'144.118.245.17'
p1577
asbasbasbasbasbasbasbag49
(g65
g51
NtRp1578
(dp1579
g54
(dp1580
sg63
g1110
sg56
(lp1581
g49
(g70
g51
NtRp1582
(dp1583
g54
(dp1584
g74
g75
ssg63
g1578
sg56
(lp1585
S'path_info'
p1586
asbag49
(g70
g51
NtRp1587
(dp1588
g54
(dp1589
g81
g82
ssg63
g1578
sg56
(lp1590
S':'
asbag49
(g70
g51
NtRp1591
(dp1592
g54
(dp1593
sg63
g1578
sg56
(lp1594
g49
(g50
g51
NtRp1595
(dp1596
g54
(dp1597
g62
I4
ssg63
g1591
sg56
(lp1598
S'/Final_Impulse/default/show_image_comments'
p1599
asbasbasbag49
(g65
g51
NtRp1600
(dp1601
g54
(dp1602
sg63
g1110
sg56
(lp1603
g49
(g70
g51
NtRp1604
(dp1605
g54
(dp1606
g74
g75
ssg63
g1600
sg56
(lp1607
S'query_string'
p1608
asbag49
(g70
g51
NtRp1609
(dp1610
g54
(dp1611
g81
g82
ssg63
g1600
sg56
(lp1612
S':'
asbag49
(g70
g51
NtRp1613
(dp1614
g54
(dp1615
sg63
g1600
sg56
(lp1616
g49
(g50
g51
NtRp1617
(dp1618
g54
(dp1619
g62
I4
ssg63
g1613
sg56
(lp1620
S''
asbasbasbag49
(g65
g51
NtRp1621
(dp1622
g54
(dp1623
sg63
g1110
sg56
(lp1624
g49
(g70
g51
NtRp1625
(dp1626
g54
(dp1627
g74
g75
ssg63
g1621
sg56
(lp1628
S'remote_addr'
p1629
asbag49
(g70
g51
NtRp1630
(dp1631
g54
(dp1632
g81
g82
ssg63
g1621
sg56
(lp1633
S':'
asbag49
(g70
g51
NtRp1634
(dp1635
g54
(dp1636
sg63
g1621
sg56
(lp1637
g49
(g50
g51
NtRp1638
(dp1639
g54
(dp1640
g62
I4
ssg63
g1634
sg56
(lp1641
g204
asbasbasbag49
(g65
g51
NtRp1642
(dp1643
g54
(dp1644
sg63
g1110
sg56
(lp1645
g49
(g70
g51
NtRp1646
(dp1647
g54
(dp1648
g74
g75
ssg63
g1642
sg56
(lp1649
S'remote_port'
p1650
asbag49
(g70
g51
NtRp1651
(dp1652
g54
(dp1653
g81
g82
ssg63
g1642
sg56
(lp1654
S':'
asbag49
(g70
g51
NtRp1655
(dp1656
g54
(dp1657
sg63
g1642
sg56
(lp1658
g49
(g50
g51
NtRp1659
(dp1660
g54
(dp1661
g62
I4
ssg63
g1655
sg56
(lp1662
S'63428'
p1663
asbasbasbag49
(g65
g51
NtRp1664
(dp1665
g54
(dp1666
sg63
g1110
sg56
(lp1667
g49
(g70
g51
NtRp1668
(dp1669
g54
(dp1670
g74
g75
ssg63
g1664
sg56
(lp1671
S'request_method'
p1672
asbag49
(g70
g51
NtRp1673
(dp1674
g54
(dp1675
g81
g82
ssg63
g1664
sg56
(lp1676
S':'
asbag49
(g70
g51
NtRp1677
(dp1678
g54
(dp1679
sg63
g1664
sg56
(lp1680
g49
(g50
g51
NtRp1681
(dp1682
g54
(dp1683
g62
I4
ssg63
g1677
sg56
(lp1684
S'GET'
p1685
asbasbasbag49
(g65
g51
NtRp1686
(dp1687
g54
(dp1688
sg63
g1110
sg56
(lp1689
g49
(g70
g51
NtRp1690
(dp1691
g54
(dp1692
g74
g75
ssg63
g1686
sg56
(lp1693
S'request_uri'
p1694
asbag49
(g70
g51
NtRp1695
(dp1696
g54
(dp1697
g81
g82
ssg63
g1686
sg56
(lp1698
S':'
asbag49
(g70
g51
NtRp1699
(dp1700
g54
(dp1701
sg63
g1686
sg56
(lp1702
g49
(g50
g51
NtRp1703
(dp1704
g54
(dp1705
g62
I4
ssg63
g1699
sg56
(lp1706
g1599
asbasbasbag49
(g65
g51
NtRp1707
(dp1708
g54
(dp1709
sg63
g1110
sg56
(lp1710
g49
(g70
g51
NtRp1711
(dp1712
g54
(dp1713
g74
g75
ssg63
g1707
sg56
(lp1714
S'script_name'
p1715
asbag49
(g70
g51
NtRp1716
(dp1717
g54
(dp1718
g81
g82
ssg63
g1707
sg56
(lp1719
S':'
asbag49
(g70
g51
NtRp1720
(dp1721
g54
(dp1722
sg63
g1707
sg56
(lp1723
g49
(g50
g51
NtRp1724
(dp1725
g54
(dp1726
g62
I4
ssg63
g1720
sg56
(lp1727
S''
asbasbasbag49
(g65
g51
NtRp1728
(dp1729
g54
(dp1730
sg63
g1110
sg56
(lp1731
g49
(g70
g51
NtRp1732
(dp1733
g54
(dp1734
g74
g75
ssg63
g1728
sg56
(lp1735
S'server_name'
p1736
asbag49
(g70
g51
NtRp1737
(dp1738
g54
(dp1739
g81
g82
ssg63
g1728
sg56
(lp1740
S':'
asbag49
(g70
g51
NtRp1741
(dp1742
g54
(dp1743
sg63
g1728
sg56
(lp1744
g49
(g50
g51
NtRp1745
(dp1746
g54
(dp1747
g62
I4
ssg63
g1741
sg56
(lp1748
g1564
asbasbasbag49
(g65
g51
NtRp1749
(dp1750
g54
(dp1751
sg63
g1110
sg56
(lp1752
g49
(g70
g51
NtRp1753
(dp1754
g54
(dp1755
g74
g75
ssg63
g1749
sg56
(lp1756
S'server_port'
p1757
asbag49
(g70
g51
NtRp1758
(dp1759
g54
(dp1760
g81
g82
ssg63
g1749
sg56
(lp1761
S':'
asbag49
(g70
g51
NtRp1762
(dp1763
g54
(dp1764
sg63
g1749
sg56
(lp1765
g49
(g50
g51
NtRp1766
(dp1767
g54
(dp1768
g62
I4
ssg63
g1762
sg56
(lp1769
S'8000'
p1770
asbasbasbag49
(g65
g51
NtRp1771
(dp1772
g54
(dp1773
sg63
g1110
sg56
(lp1774
g49
(g70
g51
NtRp1775
(dp1776
g54
(dp1777
g74
g75
ssg63
g1771
sg56
(lp1778
S'server_protocol'
p1779
asbag49
(g70
g51
NtRp1780
(dp1781
g54
(dp1782
g81
g82
ssg63
g1771
sg56
(lp1783
S':'
asbag49
(g70
g51
NtRp1784
(dp1785
g54
(dp1786
sg63
g1771
sg56
(lp1787
g49
(g50
g51
NtRp1788
(dp1789
g54
(dp1790
g62
I4
ssg63
g1784
sg56
(lp1791
S'HTTP/1.1'
p1792
asbasbasbag49
(g65
g51
NtRp1793
(dp1794
g54
(dp1795
sg63
g1110
sg56
(lp1796
g49
(g70
g51
NtRp1797
(dp1798
g54
(dp1799
g74
g75
ssg63
g1793
sg56
(lp1800
S'server_software'
p1801
asbag49
(g70
g51
NtRp1802
(dp1803
g54
(dp1804
g81
g82
ssg63
g1793
sg56
(lp1805
S':'
asbag49
(g70
g51
NtRp1806
(dp1807
g54
(dp1808
sg63
g1793
sg56
(lp1809
g49
(g50
g51
NtRp1810
(dp1811
g54
(dp1812
g62
I4
ssg63
g1806
sg56
(lp1813
S'Rocket 1.2.5'
p1814
asbasbasbag49
(g65
g51
NtRp1815
(dp1816
g54
(dp1817
sg63
g1110
sg56
(lp1818
g49
(g70
g51
NtRp1819
(dp1820
g54
(dp1821
g74
g75
ssg63
g1815
sg56
(lp1822
S'web2py_path'
p1823
asbag49
(g70
g51
NtRp1824
(dp1825
g54
(dp1826
g81
g82
ssg63
g1815
sg56
(lp1827
S':'
asbag49
(g70
g51
NtRp1828
(dp1829
g54
(dp1830
sg63
g1815
sg56
(lp1831
g49
(g50
g51
NtRp1832
(dp1833
g54
(dp1834
g62
I4
ssg63
g1828
sg56
(lp1835
g1157
asbasbasbag49
(g65
g51
NtRp1836
(dp1837
g54
(dp1838
sg63
g1110
sg56
(lp1839
g49
(g70
g51
NtRp1840
(dp1841
g54
(dp1842
g74
g75
ssg63
g1836
sg56
(lp1843
S'web2py_version'
p1844
asbag49
(g70
g51
NtRp1845
(dp1846
g54
(dp1847
g81
g82
ssg63
g1836
sg56
(lp1848
S':'
asbag49
(g70
g51
NtRp1849
(dp1850
g54
(dp1851
sg63
g1836
sg56
(lp1852
g49
(g50
g51
NtRp1853
(dp1854
g54
(dp1855
g62
I4
ssg63
g1849
sg56
(lp1856
g49
(g58
g51
NtRp1857
(dp1858
g54
(dp1859
g62
I3
ssg63
Nsg56
(lp1860
g49
(g65
g51
NtRp1861
(dp1862
g54
(dp1863
sg63
g1857
sg56
(lp1864
g49
(g70
g51
NtRp1865
(dp1866
g54
(dp1867
sg63
g1861
sg56
(lp1868
g49
(g50
g51
NtRp1869
(dp1870
g54
(dp1871
g62
I3
ssg63
g1865
sg56
(lp1872
S'2'
asbasbasbag49
(g65
g51
NtRp1873
(dp1874
g54
(dp1875
sg63
g1857
sg56
(lp1876
g49
(g70
g51
NtRp1877
(dp1878
g54
(dp1879
sg63
g1873
sg56
(lp1880
g49
(g50
g51
NtRp1881
(dp1882
g54
(dp1883
g62
I3
ssg63
g1877
sg56
(lp1884
S'2'
asbasbasbag49
(g65
g51
NtRp1885
(dp1886
g54
(dp1887
sg63
g1857
sg56
(lp1888
g49
(g70
g51
NtRp1889
(dp1890
g54
(dp1891
sg63
g1885
sg56
(lp1892
g49
(g50
g51
NtRp1893
(dp1894
g54
(dp1895
g62
I3
ssg63
g1889
sg56
(lp1896
S'1'
asbasbasbag49
(g65
g51
NtRp1897
(dp1898
g54
(dp1899
sg63
g1857
sg56
(lp1900
g49
(g70
g51
NtRp1901
(dp1902
g54
(dp1903
sg63
g1897
sg56
(lp1904
g49
(g50
g51
NtRp1905
(dp1906
g54
(dp1907
g62
I3
ssg63
g1901
sg56
(lp1908
S'datetime.datetime(2012, 10, 21, 16, 57, 4)'
p1909
asbasbasbag49
(g65
g51
NtRp1910
(dp1911
g54
(dp1912
sg63
g1857
sg56
(lp1913
g49
(g70
g51
NtRp1914
(dp1915
g54
(dp1916
sg63
g1910
sg56
(lp1917
g49
(g50
g51
NtRp1918
(dp1919
g54
(dp1920
g62
I3
ssg63
g1914
sg56
(lp1921
S'stable'
p1922
asbasbasbasbasbasbasbag49
(g65
g51
NtRp1923
(dp1924
g54
(dp1925
sg63
g1110
sg56
(lp1926
g49
(g70
g51
NtRp1927
(dp1928
g54
(dp1929
g74
g75
ssg63
g1923
sg56
(lp1930
S'wsgi_errors'
p1931
asbag49
(g70
g51
NtRp1932
(dp1933
g54
(dp1934
g81
g82
ssg63
g1923
sg56
(lp1935
S':'
asbag49
(g70
g51
NtRp1936
(dp1937
g54
(dp1938
sg63
g1923
sg56
(lp1939
g49
(g50
g51
NtRp1940
(dp1941
g54
(dp1942
g62
I4
ssg63
g1936
sg56
(lp1943
S"<open file '<stderr>', mode 'w' at 0x540b0>"
p1944
asbasbasbag49
(g65
g51
NtRp1945
(dp1946
g54
(dp1947
sg63
g1110
sg56
(lp1948
g49
(g70
g51
NtRp1949
(dp1950
g54
(dp1951
g74
g75
ssg63
g1945
sg56
(lp1952
S'wsgi_file_wrapper'
p1953
asbag49
(g70
g51
NtRp1954
(dp1955
g54
(dp1956
g81
g82
ssg63
g1945
sg56
(lp1957
S':'
asbag49
(g70
g51
NtRp1958
(dp1959
g54
(dp1960
sg63
g1945
sg56
(lp1961
g49
(g50
g51
NtRp1962
(dp1963
g54
(dp1964
g62
I4
ssg63
g1958
sg56
(lp1965
S'<class wsgiref.util.FileWrapper at 0x44d82d0>'
p1966
asbasbasbag49
(g65
g51
NtRp1967
(dp1968
g54
(dp1969
sg63
g1110
sg56
(lp1970
g49
(g70
g51
NtRp1971
(dp1972
g54
(dp1973
g74
g75
ssg63
g1967
sg56
(lp1974
S'wsgi_input'
p1975
asbag49
(g70
g51
NtRp1976
(dp1977
g54
(dp1978
g81
g82
ssg63
g1967
sg56
(lp1979
S':'
asbag49
(g70
g51
NtRp1980
(dp1981
g54
(dp1982
sg63
g1967
sg56
(lp1983
g49
(g50
g51
NtRp1984
(dp1985
g54
(dp1986
g62
I4
ssg63
g1980
sg56
(lp1987
S'<socket._fileobject object at 0x78c3c70>'
p1988
asbasbasbag49
(g65
g51
NtRp1989
(dp1990
g54
(dp1991
sg63
g1110
sg56
(lp1992
g49
(g70
g51
NtRp1993
(dp1994
g54
(dp1995
g74
g75
ssg63
g1989
sg56
(lp1996
S'wsgi_multiprocess'
p1997
asbag49
(g70
g51
NtRp1998
(dp1999
g54
(dp2000
g81
g82
ssg63
g1989
sg56
(lp2001
S':'
asbag49
(g70
g51
NtRp2002
(dp2003
g54
(dp2004
sg63
g1989
sg56
(lp2005
g49
(g50
g51
NtRp2006
(dp2007
g54
(dp2008
g62
I4
ssg63
g2002
sg56
(lp2009
g92
asbasbasbag49
(g65
g51
NtRp2010
(dp2011
g54
(dp2012
sg63
g1110
sg56
(lp2013
g49
(g70
g51
NtRp2014
(dp2015
g54
(dp2016
g74
g75
ssg63
g2010
sg56
(lp2017
S'wsgi_multithread'
p2018
asbag49
(g70
g51
NtRp2019
(dp2020
g54
(dp2021
g81
g82
ssg63
g2010
sg56
(lp2022
S':'
asbag49
(g70
g51
NtRp2023
(dp2024
g54
(dp2025
sg63
g2010
sg56
(lp2026
g49
(g50
g51
NtRp2027
(dp2028
g54
(dp2029
g62
I4
ssg63
g2023
sg56
(lp2030
S'True'
p2031
asbasbasbag49
(g65
g51
NtRp2032
(dp2033
g54
(dp2034
sg63
g1110
sg56
(lp2035
g49
(g70
g51
NtRp2036
(dp2037
g54
(dp2038
g74
g75
ssg63
g2032
sg56
(lp2039
S'wsgi_run_once'
p2040
asbag49
(g70
g51
NtRp2041
(dp2042
g54
(dp2043
g81
g82
ssg63
g2032
sg56
(lp2044
S':'
asbag49
(g70
g51
NtRp2045
(dp2046
g54
(dp2047
sg63
g2032
sg56
(lp2048
g49
(g50
g51
NtRp2049
(dp2050
g54
(dp2051
g62
I4
ssg63
g2045
sg56
(lp2052
g92
asbasbasbag49
(g65
g51
NtRp2053
(dp2054
g54
(dp2055
sg63
g1110
sg56
(lp2056
g49
(g70
g51
NtRp2057
(dp2058
g54
(dp2059
g74
g75
ssg63
g2053
sg56
(lp2060
S'wsgi_url_scheme'
p2061
asbag49
(g70
g51
NtRp2062
(dp2063
g54
(dp2064
g81
g82
ssg63
g2053
sg56
(lp2065
S':'
asbag49
(g70
g51
NtRp2066
(dp2067
g54
(dp2068
sg63
g2053
sg56
(lp2069
g49
(g50
g51
NtRp2070
(dp2071
g54
(dp2072
g62
I4
ssg63
g2066
sg56
(lp2073
S'http'
p2074
asbasbasbag49
(g65
g51
NtRp2075
(dp2076
g54
(dp2077
sg63
g1110
sg56
(lp2078
g49
(g70
g51
NtRp2079
(dp2080
g54
(dp2081
g74
g75
ssg63
g2075
sg56
(lp2082
S'wsgi_version'
p2083
asbag49
(g70
g51
NtRp2084
(dp2085
g54
(dp2086
g81
g82
ssg63
g2075
sg56
(lp2087
S':'
asbag49
(g70
g51
NtRp2088
(dp2089
g54
(dp2090
sg63
g2075
sg56
(lp2091
g49
(g50
g51
NtRp2092
(dp2093
g54
(dp2094
g62
I4
ssg63
g2088
sg56
(lp2095
g49
(g58
g51
NtRp2096
(dp2097
g54
(dp2098
g62
I3
ssg63
Nsg56
(lp2099
g49
(g65
g51
NtRp2100
(dp2101
g54
(dp2102
sg63
g2096
sg56
(lp2103
g49
(g70
g51
NtRp2104
(dp2105
g54
(dp2106
sg63
g2100
sg56
(lp2107
g49
(g50
g51
NtRp2108
(dp2109
g54
(dp2110
g62
I3
ssg63
g2104
sg56
(lp2111
S'1'
asbasbasbag49
(g65
g51
NtRp2112
(dp2113
g54
(dp2114
sg63
g2096
sg56
(lp2115
g49
(g70
g51
NtRp2116
(dp2117
g54
(dp2118
sg63
g2112
sg56
(lp2119
g49
(g50
g51
NtRp2120
(dp2121
g54
(dp2122
g62
I3
ssg63
g2116
sg56
(lp2123
S'0'
asbasbasbasbasbasbasbasbasbasbasbag49
(g65
g51
NtRp2124
(dp2125
g54
(dp2126
sg63
g59
sg56
(lp2127
g49
(g70
g51
NtRp2128
(dp2129
g54
(dp2130
g74
g75
ssg63
g2124
sg56
(lp2131
S'extension'
p2132
asbag49
(g70
g51
NtRp2133
(dp2134
g54
(dp2135
g81
g82
ssg63
g2124
sg56
(lp2136
S':'
asbag49
(g70
g51
NtRp2137
(dp2138
g54
(dp2139
sg63
g2124
sg56
(lp2140
g49
(g50
g51
NtRp2141
(dp2142
g54
(dp2143
g62
I5
ssg63
g2137
sg56
(lp2144
S'html'
p2145
asbasbasbag49
(g65
g51
NtRp2146
(dp2147
g54
(dp2148
sg63
g59
sg56
(lp2149
g49
(g70
g51
NtRp2150
(dp2151
g54
(dp2152
g74
g75
ssg63
g2146
sg56
(lp2153
S'folder'
p2154
asbag49
(g70
g51
NtRp2155
(dp2156
g54
(dp2157
g81
g82
ssg63
g2146
sg56
(lp2158
S':'
asbag49
(g70
g51
NtRp2159
(dp2160
g54
(dp2161
sg63
g2146
sg56
(lp2162
g49
(g50
g51
NtRp2163
(dp2164
g54
(dp2165
g62
I5
ssg63
g2159
sg56
(lp2166
S'/Users/abaric/Downloads/web2py/web2py.app/Contents/Resources/applications/Final_Impulse/'
p2167
asbasbasbag49
(g65
g51
NtRp2168
(dp2169
g54
(dp2170
sg63
g59
sg56
(lp2171
g49
(g70
g51
NtRp2172
(dp2173
g54
(dp2174
g74
g75
ssg63
g2168
sg56
(lp2175
S'function'
p2176
asbag49
(g70
g51
NtRp2177
(dp2178
g54
(dp2179
g81
g82
ssg63
g2168
sg56
(lp2180
S':'
asbag49
(g70
g51
NtRp2181
(dp2182
g54
(dp2183
sg63
g2168
sg56
(lp2184
g49
(g50
g51
NtRp2185
(dp2186
g54
(dp2187
g62
I5
ssg63
g2181
sg56
(lp2188
S'show_image_comments'
p2189
asbasbasbag49
(g65
g51
NtRp2190
(dp2191
g54
(dp2192
sg63
g59
sg56
(lp2193
g49
(g70
g51
NtRp2194
(dp2195
g54
(dp2196
g74
g75
ssg63
g2190
sg56
(lp2197
S'get_vars'
p2198
asbag49
(g70
g51
NtRp2199
(dp2200
g54
(dp2201
g81
g82
ssg63
g2190
sg56
(lp2202
S':'
asbag49
(g70
g51
NtRp2203
(dp2204
g54
(dp2205
sg63
g2190
sg56
(lp2206
g49
(g50
g51
NtRp2207
(dp2208
g54
(dp2209
g62
I5
ssg63
g2203
sg56
(lp2210
g49
(g58
g51
NtRp2211
(dp2212
g54
(dp2213
g62
I4
ssg63
Nsg56
(lp2214
sbasbasbasbag49
(g65
g51
NtRp2215
(dp2216
g54
(dp2217
sg63
g59
sg56
(lp2218
g49
(g70
g51
NtRp2219
(dp2220
g54
(dp2221
g74
g75
ssg63
g2215
sg56
(lp2222
S'global_settings'
p2223
asbag49
(g70
g51
NtRp2224
(dp2225
g54
(dp2226
g81
g82
ssg63
g2215
sg56
(lp2227
S':'
asbag49
(g70
g51
NtRp2228
(dp2229
g54
(dp2230
sg63
g2215
sg56
(lp2231
g49
(g50
g51
NtRp2232
(dp2233
g54
(dp2234
g62
I5
ssg63
g2228
sg56
(lp2235
g49
(g58
g51
NtRp2236
(dp2237
g54
(dp2238
g62
I4
ssg63
Nsg56
(lp2239
g49
(g65
g51
NtRp2240
(dp2241
g54
(dp2242
sg63
g2236
sg56
(lp2243
g49
(g70
g51
NtRp2244
(dp2245
g54
(dp2246
g74
g75
ssg63
g2240
sg56
(lp2247
g1122
asbag49
(g70
g51
NtRp2248
(dp2249
g54
(dp2250
g81
g82
ssg63
g2240
sg56
(lp2251
S':'
asbag49
(g70
g51
NtRp2252
(dp2253
g54
(dp2254
sg63
g2240
sg56
(lp2255
g49
(g50
g51
NtRp2256
(dp2257
g54
(dp2258
g62
I4
ssg63
g2252
sg56
(lp2259
S"set(['/Users/abaric/Downloads/web2py/web2py.app/Contents/Resources/applications/Final_Impulse/', '/Users/abaric/Downloads/web2py/web2py.app/Contents/Resources/applications/welcome/', '/Users/abaric/Downloads/web2py/web2py.app/Contents/Resources/applications/admin/', '/Users/abaric/Downloads/web2py/web2py.app/Contents/Resources/applications/Caldwell/', '/Users/abaric/Downloads/web2py/web2py.app/Contents/Resources/applications/Course_Recommendations/', '/Users/abaric/Downloads/web2py/web2py.app/Contents/Resources/applications/examples/'])"
p2260
asbasbasbag49
(g65
g51
NtRp2261
(dp2262
g54
(dp2263
sg63
g2236
sg56
(lp2264
g49
(g70
g51
NtRp2265
(dp2266
g54
(dp2267
g74
g75
ssg63
g2261
sg56
(lp2268
g1144
asbag49
(g70
g51
NtRp2269
(dp2270
g54
(dp2271
g81
g82
ssg63
g2261
sg56
(lp2272
S':'
asbag49
(g70
g51
NtRp2273
(dp2274
g54
(dp2275
sg63
g2261
sg56
(lp2276
g49
(g50
g51
NtRp2277
(dp2278
g54
(dp2279
g62
I4
ssg63
g2273
sg56
(lp2280
g1157
asbasbasbag49
(g65
g51
NtRp2281
(dp2282
g54
(dp2283
sg63
g2236
sg56
(lp2284
g49
(g70
g51
NtRp2285
(dp2286
g54
(dp2287
g74
g75
ssg63
g2281
sg56
(lp2288
g1166
asbag49
(g70
g51
NtRp2289
(dp2290
g54
(dp2291
g81
g82
ssg63
g2281
sg56
(lp2292
S':'
asbag49
(g70
g51
NtRp2293
(dp2294
g54
(dp2295
sg63
g2281
sg56
(lp2296
g49
(g50
g51
NtRp2297
(dp2298
g54
(dp2299
g62
I4
ssg63
g2293
sg56
(lp2300
g49
(g58
g51
NtRp2301
(dp2302
g54
(dp2303
g62
I3
ssg63
Nsg56
(lp2304
sbasbasbasbag49
(g65
g51
NtRp2305
(dp2306
g54
(dp2307
sg63
g2236
sg56
(lp2308
g49
(g70
g51
NtRp2309
(dp2310
g54
(dp2311
g74
g75
ssg63
g2305
sg56
(lp2312
g1191
asbag49
(g70
g51
NtRp2313
(dp2314
g54
(dp2315
g81
g82
ssg63
g2305
sg56
(lp2316
S':'
asbag49
(g70
g51
NtRp2317
(dp2318
g54
(dp2319
sg63
g2305
sg56
(lp2320
g49
(g50
g51
NtRp2321
(dp2322
g54
(dp2323
g62
I4
ssg63
g2317
sg56
(lp2324
S"<Values at 0x45061c0: {'verbose': False, 'ip': '127.0.0.1', 'with_scheduler': False, 'ips': ['144.118.245.17'], 'shutdown_timeout': 5, 'taskbar': False, 'port': 8000, 'maxthreads': None, 'softcron': False, 'server_name': 'Andrea-Barics-MacBook-Pro.local', 'bpython': False, 'nogui': False, 'pid_filename': 'httpserver.pid', 'extcron': False, 'runcron': False, 'run_system_tests': False, 'test': None, 'folder': '/Users/abaric/Downloads/web2py/web2py.app/Contents/Resources', 'config': '', 'import_models': False, 'winservice': '', 'shell': None, 'run': '', 'log_filename': 'httpserver.log', 'debuglevel': 30, 'args': [''], 'socket_timeout': 5, 'ssl_ca_certificate': None, 'scheduler': None, 'profiler_filename': None, 'ssl_private_key': '', 'scheduler_groups': None, 'password': '<ask>', 'request_queue_size': 5, 'ssl_certificate': '', 'cronjob': False, 'numthreads': None, 'quiet': False, 'interfaces': None, 'minthreads': None, 'timeout': 10, 'plain': False, 'nobanner': False}>"
p2325
asbasbasbag49
(g65
g51
NtRp2326
(dp2327
g54
(dp2328
sg63
g2236
sg56
(lp2329
g49
(g70
g51
NtRp2330
(dp2331
g54
(dp2332
g74
g75
ssg63
g2326
sg56
(lp2333
g1213
asbag49
(g70
g51
NtRp2334
(dp2335
g54
(dp2336
g81
g82
ssg63
g2326
sg56
(lp2337
S':'
asbag49
(g70
g51
NtRp2338
(dp2339
g54
(dp2340
sg63
g2326
sg56
(lp2341
g49
(g50
g51
NtRp2342
(dp2343
g54
(dp2344
g62
I4
ssg63
g2338
sg56
(lp2345
S'set([])'
p2346
asbasbasbag49
(g65
g51
NtRp2347
(dp2348
g54
(dp2349
sg63
g2236
sg56
(lp2350
g49
(g70
g51
NtRp2351
(dp2352
g54
(dp2353
g74
g75
ssg63
g2347
sg56
(lp2354
g1235
asbag49
(g70
g51
NtRp2355
(dp2356
g54
(dp2357
g81
g82
ssg63
g2347
sg56
(lp2358
S':'
asbag49
(g70
g51
NtRp2359
(dp2360
g54
(dp2361
sg63
g2347
sg56
(lp2362
g49
(g50
g51
NtRp2363
(dp2364
g54
(dp2365
g62
I4
ssg63
g2359
sg56
(lp2366
g92
asbasbasbag49
(g65
g51
NtRp2367
(dp2368
g54
(dp2369
sg63
g2236
sg56
(lp2370
g49
(g70
g51
NtRp2371
(dp2372
g54
(dp2373
g74
g75
ssg63
g2367
sg56
(lp2374
g1256
asbag49
(g70
g51
NtRp2375
(dp2376
g54
(dp2377
g81
g82
ssg63
g2367
sg56
(lp2378
S':'
asbag49
(g70
g51
NtRp2379
(dp2380
g54
(dp2381
sg63
g2367
sg56
(lp2382
g49
(g50
g51
NtRp2383
(dp2384
g54
(dp2385
g62
I4
ssg63
g2379
sg56
(lp2386
g1269
asbasbasbag49
(g65
g51
NtRp2387
(dp2388
g54
(dp2389
sg63
g2236
sg56
(lp2390
g49
(g70
g51
NtRp2391
(dp2392
g54
(dp2393
g74
g75
ssg63
g2387
sg56
(lp2394
g1454
asbag49
(g70
g51
NtRp2395
(dp2396
g54
(dp2397
g81
g82
ssg63
g2387
sg56
(lp2398
S':'
asbag49
(g70
g51
NtRp2399
(dp2400
g54
(dp2401
sg63
g2387
sg56
(lp2402
g49
(g50
g51
NtRp2403
(dp2404
g54
(dp2405
g62
I4
ssg63
g2399
sg56
(lp2406
g92
asbasbasbag49
(g65
g51
NtRp2407
(dp2408
g54
(dp2409
sg63
g2236
sg56
(lp2410
g49
(g70
g51
NtRp2411
(dp2412
g54
(dp2413
g74
g75
ssg63
g2407
sg56
(lp2414
g1475
asbag49
(g70
g51
NtRp2415
(dp2416
g54
(dp2417
g81
g82
ssg63
g2407
sg56
(lp2418
S':'
asbag49
(g70
g51
NtRp2419
(dp2420
g54
(dp2421
sg63
g2407
sg56
(lp2422
g49
(g50
g51
NtRp2423
(dp2424
g54
(dp2425
g62
I4
ssg63
g2419
sg56
(lp2426
g92
asbasbasbag49
(g65
g51
NtRp2427
(dp2428
g54
(dp2429
sg63
g2236
sg56
(lp2430
g49
(g70
g51
NtRp2431
(dp2432
g54
(dp2433
g74
g75
ssg63
g2427
sg56
(lp2434
g1496
asbag49
(g70
g51
NtRp2435
(dp2436
g54
(dp2437
g81
g82
ssg63
g2427
sg56
(lp2438
S':'
asbag49
(g70
g51
NtRp2439
(dp2440
g54
(dp2441
sg63
g2427
sg56
(lp2442
g49
(g50
g51
NtRp2443
(dp2444
g54
(dp2445
g62
I4
ssg63
g2439
sg56
(lp2446
g49
(g58
g51
NtRp2447
(dp2448
g54
(dp2449
g62
I3
ssg63
Nsg56
(lp2450
g49
(g65
g51
NtRp2451
(dp2452
g54
(dp2453
sg63
g2447
sg56
(lp2454
g49
(g70
g51
NtRp2455
(dp2456
g54
(dp2457
sg63
g2451
sg56
(lp2458
g49
(g50
g51
NtRp2459
(dp2460
g54
(dp2461
g62
I3
ssg63
g2455
sg56
(lp2462
g1525
asbasbasbag49
(g65
g51
NtRp2463
(dp2464
g54
(dp2465
sg63
g2447
sg56
(lp2466
g49
(g70
g51
NtRp2467
(dp2468
g54
(dp2469
sg63
g2463
sg56
(lp2470
g49
(g50
g51
NtRp2471
(dp2472
g54
(dp2473
g62
I3
ssg63
g2467
sg56
(lp2474
g1538
asbasbasbag49
(g65
g51
NtRp2475
(dp2476
g54
(dp2477
sg63
g2447
sg56
(lp2478
g49
(g70
g51
NtRp2479
(dp2480
g54
(dp2481
sg63
g2475
sg56
(lp2482
g49
(g50
g51
NtRp2483
(dp2484
g54
(dp2485
g62
I3
ssg63
g2479
sg56
(lp2486
g1551
asbasbasbag49
(g65
g51
NtRp2487
(dp2488
g54
(dp2489
sg63
g2447
sg56
(lp2490
g49
(g70
g51
NtRp2491
(dp2492
g54
(dp2493
sg63
g2487
sg56
(lp2494
g49
(g50
g51
NtRp2495
(dp2496
g54
(dp2497
g62
I3
ssg63
g2491
sg56
(lp2498
g1564
asbasbasbag49
(g65
g51
NtRp2499
(dp2500
g54
(dp2501
sg63
g2447
sg56
(lp2502
g49
(g70
g51
NtRp2503
(dp2504
g54
(dp2505
sg63
g2499
sg56
(lp2506
g49
(g50
g51
NtRp2507
(dp2508
g54
(dp2509
g62
I3
ssg63
g2503
sg56
(lp2510
g1577
asbasbasbasbasbasbasbag49
(g65
g51
NtRp2511
(dp2512
g54
(dp2513
sg63
g2236
sg56
(lp2514
g49
(g70
g51
NtRp2515
(dp2516
g54
(dp2517
g74
g75
ssg63
g2511
sg56
(lp2518
g1844
asbag49
(g70
g51
NtRp2519
(dp2520
g54
(dp2521
g81
g82
ssg63
g2511
sg56
(lp2522
S':'
asbag49
(g70
g51
NtRp2523
(dp2524
g54
(dp2525
sg63
g2511
sg56
(lp2526
g49
(g50
g51
NtRp2527
(dp2528
g54
(dp2529
g62
I4
ssg63
g2523
sg56
(lp2530
g49
(g58
g51
NtRp2531
(dp2532
g54
(dp2533
g62
I3
ssg63
Nsg56
(lp2534
g49
(g65
g51
NtRp2535
(dp2536
g54
(dp2537
sg63
g2531
sg56
(lp2538
g49
(g70
g51
NtRp2539
(dp2540
g54
(dp2541
sg63
g2535
sg56
(lp2542
g49
(g50
g51
NtRp2543
(dp2544
g54
(dp2545
g62
I3
ssg63
g2539
sg56
(lp2546
S'2'
asbasbasbag49
(g65
g51
NtRp2547
(dp2548
g54
(dp2549
sg63
g2531
sg56
(lp2550
g49
(g70
g51
NtRp2551
(dp2552
g54
(dp2553
sg63
g2547
sg56
(lp2554
g49
(g50
g51
NtRp2555
(dp2556
g54
(dp2557
g62
I3
ssg63
g2551
sg56
(lp2558
S'2'
asbasbasbag49
(g65
g51
NtRp2559
(dp2560
g54
(dp2561
sg63
g2531
sg56
(lp2562
g49
(g70
g51
NtRp2563
(dp2564
g54
(dp2565
sg63
g2559
sg56
(lp2566
g49
(g50
g51
NtRp2567
(dp2568
g54
(dp2569
g62
I3
ssg63
g2563
sg56
(lp2570
S'1'
asbasbasbag49
(g65
g51
NtRp2571
(dp2572
g54
(dp2573
sg63
g2531
sg56
(lp2574
g49
(g70
g51
NtRp2575
(dp2576
g54
(dp2577
sg63
g2571
sg56
(lp2578
g49
(g50
g51
NtRp2579
(dp2580
g54
(dp2581
g62
I3
ssg63
g2575
sg56
(lp2582
S'datetime.datetime(2012, 10, 21, 16, 57, 4)'
p2583
asbasbasbag49
(g65
g51
NtRp2584
(dp2585
g54
(dp2586
sg63
g2531
sg56
(lp2587
g49
(g70
g51
NtRp2588
(dp2589
g54
(dp2590
sg63
g2584
sg56
(lp2591
g49
(g50
g51
NtRp2592
(dp2593
g54
(dp2594
g62
I3
ssg63
g2588
sg56
(lp2595
g1922
asbasbasbasbasbasbasbasbasbasbasbag49
(g65
g51
NtRp2596
(dp2597
g54
(dp2598
sg63
g59
sg56
(lp2599
g49
(g70
g51
NtRp2600
(dp2601
g54
(dp2602
g74
g75
ssg63
g2596
sg56
(lp2603
S'is_https'
p2604
asbag49
(g70
g51
NtRp2605
(dp2606
g54
(dp2607
g81
g82
ssg63
g2596
sg56
(lp2608
S':'
asbag49
(g70
g51
NtRp2609
(dp2610
g54
(dp2611
sg63
g2596
sg56
(lp2612
g49
(g50
g51
NtRp2613
(dp2614
g54
(dp2615
g62
I5
ssg63
g2609
sg56
(lp2616
g92
asbasbasbag49
(g65
g51
NtRp2617
(dp2618
g54
(dp2619
sg63
g59
sg56
(lp2620
g49
(g70
g51
NtRp2621
(dp2622
g54
(dp2623
g74
g75
ssg63
g2617
sg56
(lp2624
S'is_local'
p2625
asbag49
(g70
g51
NtRp2626
(dp2627
g54
(dp2628
g81
g82
ssg63
g2617
sg56
(lp2629
S':'
asbag49
(g70
g51
NtRp2630
(dp2631
g54
(dp2632
sg63
g2617
sg56
(lp2633
g49
(g50
g51
NtRp2634
(dp2635
g54
(dp2636
g62
I5
ssg63
g2630
sg56
(lp2637
g2031
asbasbasbag49
(g65
g51
NtRp2638
(dp2639
g54
(dp2640
sg63
g59
sg56
(lp2641
g49
(g70
g51
NtRp2642
(dp2643
g54
(dp2644
g74
g75
ssg63
g2638
sg56
(lp2645
S'is_restful'
p2646
asbag49
(g70
g51
NtRp2647
(dp2648
g54
(dp2649
g81
g82
ssg63
g2638
sg56
(lp2650
S':'
asbag49
(g70
g51
NtRp2651
(dp2652
g54
(dp2653
sg63
g2638
sg56
(lp2654
g49
(g50
g51
NtRp2655
(dp2656
g54
(dp2657
g62
I5
ssg63
g2651
sg56
(lp2658
g92
asbasbasbag49
(g65
g51
NtRp2659
(dp2660
g54
(dp2661
sg63
g59
sg56
(lp2662
g49
(g70
g51
NtRp2663
(dp2664
g54
(dp2665
g74
g75
ssg63
g2659
sg56
(lp2666
S'now'
p2667
asbag49
(g70
g51
NtRp2668
(dp2669
g54
(dp2670
g81
g82
ssg63
g2659
sg56
(lp2671
S':'
asbag49
(g70
g51
NtRp2672
(dp2673
g54
(dp2674
sg63
g2659
sg56
(lp2675
g49
(g50
g51
NtRp2676
(dp2677
g54
(dp2678
g62
I5
ssg63
g2672
sg56
(lp2679
S'datetime.datetime(2015, 4, 1, 12, 3, 2, 156058)'
p2680
asbasbasbag49
(g65
g51
NtRp2681
(dp2682
g54
(dp2683
sg63
g59
sg56
(lp2684
g49
(g70
g51
NtRp2685
(dp2686
g54
(dp2687
g74
g75
ssg63
g2681
sg56
(lp2688
S'post_vars'
p2689
asbag49
(g70
g51
NtRp2690
(dp2691
g54
(dp2692
g81
g82
ssg63
g2681
sg56
(lp2693
S':'
asbag49
(g70
g51
NtRp2694
(dp2695
g54
(dp2696
sg63
g2681
sg56
(lp2697
g49
(g50
g51
NtRp2698
(dp2699
g54
(dp2700
g62
I5
ssg63
g2694
sg56
(lp2701
g49
(g58
g51
NtRp2702
(dp2703
g54
(dp2704
g62
I4
ssg63
Nsg56
(lp2705
sbasbasbasbag49
(g65
g51
NtRp2706
(dp2707
g54
(dp2708
sg63
g59
sg56
(lp2709
g49
(g70
g51
NtRp2710
(dp2711
g54
(dp2712
g74
g75
ssg63
g2706
sg56
(lp2713
S'raw_args'
p2714
asbag49
(g70
g51
NtRp2715
(dp2716
g54
(dp2717
g81
g82
ssg63
g2706
sg56
(lp2718
S':'
asbag49
(g70
g51
NtRp2719
(dp2720
g54
(dp2721
sg63
g2706
sg56
(lp2722
g49
(g50
g51
NtRp2723
(dp2724
g54
(dp2725
g62
I5
ssg63
g2719
sg56
(lp2726
S''
asbasbasbag49
(g65
g51
NtRp2727
(dp2728
g54
(dp2729
sg63
g59
sg56
(lp2730
g49
(g70
g51
NtRp2731
(dp2732
g54
(dp2733
g74
g75
ssg63
g2727
sg56
(lp2734
S'raw_extension'
p2735
asbag49
(g70
g51
NtRp2736
(dp2737
g54
(dp2738
g81
g82
ssg63
g2727
sg56
(lp2739
S':'
asbag49
(g70
g51
NtRp2740
(dp2741
g54
(dp2742
sg63
g2727
sg56
(lp2743
g49
(g50
g51
NtRp2744
(dp2745
g54
(dp2746
g62
I5
ssg63
g2740
sg56
(lp2747
S'None'
p2748
asbasbasbag49
(g65
g51
NtRp2749
(dp2750
g54
(dp2751
sg63
g59
sg56
(lp2752
g49
(g70
g51
NtRp2753
(dp2754
g54
(dp2755
g74
g75
ssg63
g2749
sg56
(lp2756
S'url'
p2757
asbag49
(g70
g51
NtRp2758
(dp2759
g54
(dp2760
g81
g82
ssg63
g2749
sg56
(lp2761
S':'
asbag49
(g70
g51
NtRp2762
(dp2763
g54
(dp2764
sg63
g2749
sg56
(lp2765
g49
(g50
g51
NtRp2766
(dp2767
g54
(dp2768
g62
I5
ssg63
g2762
sg56
(lp2769
g1599
asbasbasbag49
(g65
g51
NtRp2770
(dp2771
g54
(dp2772
sg63
g59
sg56
(lp2773
g49
(g70
g51
NtRp2774
(dp2775
g54
(dp2776
g74
g75
ssg63
g2770
sg56
(lp2777
S'utcnow'
p2778
asbag49
(g70
g51
NtRp2779
(dp2780
g54
(dp2781
g81
g82
ssg63
g2770
sg56
(lp2782
S':'
asbag49
(g70
g51
NtRp2783
(dp2784
g54
(dp2785
sg63
g2770
sg56
(lp2786
g49
(g50
g51
NtRp2787
(dp2788
g54
(dp2789
g62
I5
ssg63
g2783
sg56
(lp2790
S'datetime.datetime(2015, 4, 1, 16, 3, 2, 156074)'
p2791
asbasbasbag49
(g65
g51
NtRp2792
(dp2793
g54
(dp2794
sg63
g59
sg56
(lp2795
g49
(g70
g51
NtRp2796
(dp2797
g54
(dp2798
g74
g75
ssg63
g2792
sg56
(lp2799
S'uuid'
p2800
asbag49
(g70
g51
NtRp2801
(dp2802
g54
(dp2803
g81
g82
ssg63
g2792
sg56
(lp2804
S':'
asbag49
(g70
g51
NtRp2805
(dp2806
g54
(dp2807
sg63
g2792
sg56
(lp2808
g49
(g50
g51
NtRp2809
(dp2810
g54
(dp2811
g62
I5
ssg63
g2805
sg56
(lp2812
S'Final_Impulse/127.0.0.1.2015-04-01.12-03-02.468884cb-fe6f-49b0-8ff7-d62b0b1d856a'
p2813
asbasbasbag49
(g65
g51
NtRp2814
(dp2815
g54
(dp2816
sg63
g59
sg56
(lp2817
g49
(g70
g51
NtRp2818
(dp2819
g54
(dp2820
g74
g75
ssg63
g2814
sg56
(lp2821
S'vars'
p2822
asbag49
(g70
g51
NtRp2823
(dp2824
g54
(dp2825
g81
g82
ssg63
g2814
sg56
(lp2826
S':'
asbag49
(g70
g51
NtRp2827
(dp2828
g54
(dp2829
sg63
g2814
sg56
(lp2830
g49
(g50
g51
NtRp2831
(dp2832
g54
(dp2833
g62
I5
ssg63
g2827
sg56
(lp2834
g49
(g58
g51
NtRp2835
(dp2836
g54
(dp2837
g62
I4
ssg63
Nsg56
(lp2838
sbasbasbasbag49
(g65
g51
NtRp2839
(dp2840
g54
(dp2841
sg63
g59
sg56
(lp2842
g49
(g70
g51
NtRp2843
(dp2844
g54
(dp2845
g74
g75
ssg63
g2839
sg56
(lp2846
S'wsgi'
p2847
asbag49
(g70
g51
NtRp2848
(dp2849
g54
(dp2850
g81
g82
ssg63
g2839
sg56
(lp2851
S':'
asbag49
(g70
g51
NtRp2852
(dp2853
g54
(dp2854
sg63
g2839
sg56
(lp2855
g49
(g50
g51
NtRp2856
(dp2857
g54
(dp2858
g62
I5
ssg63
g2852
sg56
(lp2859
g49
(g58
g51
NtRp2860
(dp2861
g54
(dp2862
g62
I4
ssg63
Nsg56
(lp2863
g49
(g65
g51
NtRp2864
(dp2865
g54
(dp2866
sg63
g2860
sg56
(lp2867
g49
(g70
g51
NtRp2868
(dp2869
g54
(dp2870
g74
g75
ssg63
g2864
sg56
(lp2871
S'environ'
p2872
asbag49
(g70
g51
NtRp2873
(dp2874
g54
(dp2875
g81
g82
ssg63
g2864
sg56
(lp2876
S':'
asbag49
(g70
g51
NtRp2877
(dp2878
g54
(dp2879
sg63
g2864
sg56
(lp2880
g49
(g50
g51
NtRp2881
(dp2882
g54
(dp2883
g62
I4
ssg63
g2877
sg56
(lp2884
g49
(g58
g51
NtRp2885
(dp2886
g54
(dp2887
g62
I3
ssg63
Nsg56
(lp2888
g49
(g65
g51
NtRp2889
(dp2890
g54
(dp2891
sg63
g2885
sg56
(lp2892
g49
(g70
g51
NtRp2893
(dp2894
g54
(dp2895
g74
g75
ssg63
g2889
sg56
(lp2896
S'HTTP_ACCEPT'
p2897
asbag49
(g70
g51
NtRp2898
(dp2899
g54
(dp2900
g81
g82
ssg63
g2889
sg56
(lp2901
S':'
asbag49
(g70
g51
NtRp2902
(dp2903
g54
(dp2904
sg63
g2889
sg56
(lp2905
g49
(g50
g51
NtRp2906
(dp2907
g54
(dp2908
g62
I3
ssg63
g2902
sg56
(lp2909
g1291
asbasbasbag49
(g65
g51
NtRp2910
(dp2911
g54
(dp2912
sg63
g2885
sg56
(lp2913
g49
(g70
g51
NtRp2914
(dp2915
g54
(dp2916
g74
g75
ssg63
g2910
sg56
(lp2917
S'HTTP_ACCEPT_ENCODING'
p2918
asbag49
(g70
g51
NtRp2919
(dp2920
g54
(dp2921
g81
g82
ssg63
g2910
sg56
(lp2922
S':'
asbag49
(g70
g51
NtRp2923
(dp2924
g54
(dp2925
sg63
g2910
sg56
(lp2926
g49
(g50
g51
NtRp2927
(dp2928
g54
(dp2929
g62
I3
ssg63
g2923
sg56
(lp2930
g1313
asbasbasbag49
(g65
g51
NtRp2931
(dp2932
g54
(dp2933
sg63
g2885
sg56
(lp2934
g49
(g70
g51
NtRp2935
(dp2936
g54
(dp2937
g74
g75
ssg63
g2931
sg56
(lp2938
S'HTTP_ACCEPT_LANGUAGE'
p2939
asbag49
(g70
g51
NtRp2940
(dp2941
g54
(dp2942
g81
g82
ssg63
g2931
sg56
(lp2943
S':'
asbag49
(g70
g51
NtRp2944
(dp2945
g54
(dp2946
sg63
g2931
sg56
(lp2947
g49
(g50
g51
NtRp2948
(dp2949
g54
(dp2950
g62
I3
ssg63
g2944
sg56
(lp2951
g1335
asbasbasbag49
(g65
g51
NtRp2952
(dp2953
g54
(dp2954
sg63
g2885
sg56
(lp2955
g49
(g70
g51
NtRp2956
(dp2957
g54
(dp2958
g74
g75
ssg63
g2952
sg56
(lp2959
S'HTTP_CONNECTION'
p2960
asbag49
(g70
g51
NtRp2961
(dp2962
g54
(dp2963
g81
g82
ssg63
g2952
sg56
(lp2964
S':'
asbag49
(g70
g51
NtRp2965
(dp2966
g54
(dp2967
sg63
g2952
sg56
(lp2968
g49
(g50
g51
NtRp2969
(dp2970
g54
(dp2971
g62
I3
ssg63
g2965
sg56
(lp2972
g1357
asbasbasbag49
(g65
g51
NtRp2973
(dp2974
g54
(dp2975
sg63
g2885
sg56
(lp2976
g49
(g70
g51
NtRp2977
(dp2978
g54
(dp2979
g74
g75
ssg63
g2973
sg56
(lp2980
S'HTTP_COOKIE'
p2981
asbag49
(g70
g51
NtRp2982
(dp2983
g54
(dp2984
g81
g82
ssg63
g2973
sg56
(lp2985
S':'
asbag49
(g70
g51
NtRp2986
(dp2987
g54
(dp2988
sg63
g2973
sg56
(lp2989
g49
(g50
g51
NtRp2990
(dp2991
g54
(dp2992
g62
I3
ssg63
g2986
sg56
(lp2993
g1379
asbasbasbag49
(g65
g51
NtRp2994
(dp2995
g54
(dp2996
sg63
g2885
sg56
(lp2997
g49
(g70
g51
NtRp2998
(dp2999
g54
(dp3000
g74
g75
ssg63
g2994
sg56
(lp3001
S'HTTP_HOST'
p3002
asbag49
(g70
g51
NtRp3003
(dp3004
g54
(dp3005
g81
g82
ssg63
g2994
sg56
(lp3006
S':'
asbag49
(g70
g51
NtRp3007
(dp3008
g54
(dp3009
sg63
g2994
sg56
(lp3010
g49
(g50
g51
NtRp3011
(dp3012
g54
(dp3013
g62
I3
ssg63
g3007
sg56
(lp3014
g1401
asbasbasbag49
(g65
g51
NtRp3015
(dp3016
g54
(dp3017
sg63
g2885
sg56
(lp3018
g49
(g70
g51
NtRp3019
(dp3020
g54
(dp3021
g74
g75
ssg63
g3015
sg56
(lp3022
S'HTTP_REFERER'
p3023
asbag49
(g70
g51
NtRp3024
(dp3025
g54
(dp3026
g81
g82
ssg63
g3015
sg56
(lp3027
S':'
asbag49
(g70
g51
NtRp3028
(dp3029
g54
(dp3030
sg63
g3015
sg56
(lp3031
g49
(g50
g51
NtRp3032
(dp3033
g54
(dp3034
g62
I3
ssg63
g3028
sg56
(lp3035
g1423
asbasbasbag49
(g65
g51
NtRp3036
(dp3037
g54
(dp3038
sg63
g2885
sg56
(lp3039
g49
(g70
g51
NtRp3040
(dp3041
g54
(dp3042
g74
g75
ssg63
g3036
sg56
(lp3043
S'HTTP_USER_AGENT'
p3044
asbag49
(g70
g51
NtRp3045
(dp3046
g54
(dp3047
g81
g82
ssg63
g3036
sg56
(lp3048
S':'
asbag49
(g70
g51
NtRp3049
(dp3050
g54
(dp3051
sg63
g3036
sg56
(lp3052
g49
(g50
g51
NtRp3053
(dp3054
g54
(dp3055
g62
I3
ssg63
g3049
sg56
(lp3056
g1445
asbasbasbag49
(g65
g51
NtRp3057
(dp3058
g54
(dp3059
sg63
g2885
sg56
(lp3060
g49
(g70
g51
NtRp3061
(dp3062
g54
(dp3063
g74
g75
ssg63
g3057
sg56
(lp3064
S'PATH_INFO'
p3065
asbag49
(g70
g51
NtRp3066
(dp3067
g54
(dp3068
g81
g82
ssg63
g3057
sg56
(lp3069
S':'
asbag49
(g70
g51
NtRp3070
(dp3071
g54
(dp3072
sg63
g3057
sg56
(lp3073
g49
(g50
g51
NtRp3074
(dp3075
g54
(dp3076
g62
I3
ssg63
g3070
sg56
(lp3077
g1599
asbasbasbag49
(g65
g51
NtRp3078
(dp3079
g54
(dp3080
sg63
g2885
sg56
(lp3081
g49
(g70
g51
NtRp3082
(dp3083
g54
(dp3084
g74
g75
ssg63
g3078
sg56
(lp3085
S'QUERY_STRING'
p3086
asbag49
(g70
g51
NtRp3087
(dp3088
g54
(dp3089
g81
g82
ssg63
g3078
sg56
(lp3090
S':'
asbag49
(g70
g51
NtRp3091
(dp3092
g54
(dp3093
sg63
g3078
sg56
(lp3094
g49
(g50
g51
NtRp3095
(dp3096
g54
(dp3097
g62
I3
ssg63
g3091
sg56
(lp3098
S''
asbasbasbag49
(g65
g51
NtRp3099
(dp3100
g54
(dp3101
sg63
g2885
sg56
(lp3102
g49
(g70
g51
NtRp3103
(dp3104
g54
(dp3105
g74
g75
ssg63
g3099
sg56
(lp3106
S'REMOTE_ADDR'
p3107
asbag49
(g70
g51
NtRp3108
(dp3109
g54
(dp3110
g81
g82
ssg63
g3099
sg56
(lp3111
S':'
asbag49
(g70
g51
NtRp3112
(dp3113
g54
(dp3114
sg63
g3099
sg56
(lp3115
g49
(g50
g51
NtRp3116
(dp3117
g54
(dp3118
g62
I3
ssg63
g3112
sg56
(lp3119
g204
asbasbasbag49
(g65
g51
NtRp3120
(dp3121
g54
(dp3122
sg63
g2885
sg56
(lp3123
g49
(g70
g51
NtRp3124
(dp3125
g54
(dp3126
g74
g75
ssg63
g3120
sg56
(lp3127
S'REMOTE_PORT'
p3128
asbag49
(g70
g51
NtRp3129
(dp3130
g54
(dp3131
g81
g82
ssg63
g3120
sg56
(lp3132
S':'
asbag49
(g70
g51
NtRp3133
(dp3134
g54
(dp3135
sg63
g3120
sg56
(lp3136
g49
(g50
g51
NtRp3137
(dp3138
g54
(dp3139
g62
I3
ssg63
g3133
sg56
(lp3140
g1663
asbasbasbag49
(g65
g51
NtRp3141
(dp3142
g54
(dp3143
sg63
g2885
sg56
(lp3144
g49
(g70
g51
NtRp3145
(dp3146
g54
(dp3147
g74
g75
ssg63
g3141
sg56
(lp3148
S'REQUEST_METHOD'
p3149
asbag49
(g70
g51
NtRp3150
(dp3151
g54
(dp3152
g81
g82
ssg63
g3141
sg56
(lp3153
S':'
asbag49
(g70
g51
NtRp3154
(dp3155
g54
(dp3156
sg63
g3141
sg56
(lp3157
g49
(g50
g51
NtRp3158
(dp3159
g54
(dp3160
g62
I3
ssg63
g3154
sg56
(lp3161
g1685
asbasbasbag49
(g65
g51
NtRp3162
(dp3163
g54
(dp3164
sg63
g2885
sg56
(lp3165
g49
(g70
g51
NtRp3166
(dp3167
g54
(dp3168
g74
g75
ssg63
g3162
sg56
(lp3169
S'REQUEST_URI'
p3170
asbag49
(g70
g51
NtRp3171
(dp3172
g54
(dp3173
g81
g82
ssg63
g3162
sg56
(lp3174
S':'
asbag49
(g70
g51
NtRp3175
(dp3176
g54
(dp3177
sg63
g3162
sg56
(lp3178
g49
(g50
g51
NtRp3179
(dp3180
g54
(dp3181
g62
I3
ssg63
g3175
sg56
(lp3182
g1599
asbasbasbag49
(g65
g51
NtRp3183
(dp3184
g54
(dp3185
sg63
g2885
sg56
(lp3186
g49
(g70
g51
NtRp3187
(dp3188
g54
(dp3189
g74
g75
ssg63
g3183
sg56
(lp3190
S'SCRIPT_NAME'
p3191
asbag49
(g70
g51
NtRp3192
(dp3193
g54
(dp3194
g81
g82
ssg63
g3183
sg56
(lp3195
S':'
asbag49
(g70
g51
NtRp3196
(dp3197
g54
(dp3198
sg63
g3183
sg56
(lp3199
g49
(g50
g51
NtRp3200
(dp3201
g54
(dp3202
g62
I3
ssg63
g3196
sg56
(lp3203
S''
asbasbasbag49
(g65
g51
NtRp3204
(dp3205
g54
(dp3206
sg63
g2885
sg56
(lp3207
g49
(g70
g51
NtRp3208
(dp3209
g54
(dp3210
g74
g75
ssg63
g3204
sg56
(lp3211
S'SERVER_NAME'
p3212
asbag49
(g70
g51
NtRp3213
(dp3214
g54
(dp3215
g81
g82
ssg63
g3204
sg56
(lp3216
S':'
asbag49
(g70
g51
NtRp3217
(dp3218
g54
(dp3219
sg63
g3204
sg56
(lp3220
g49
(g50
g51
NtRp3221
(dp3222
g54
(dp3223
g62
I3
ssg63
g3217
sg56
(lp3224
g1564
asbasbasbag49
(g65
g51
NtRp3225
(dp3226
g54
(dp3227
sg63
g2885
sg56
(lp3228
g49
(g70
g51
NtRp3229
(dp3230
g54
(dp3231
g74
g75
ssg63
g3225
sg56
(lp3232
S'SERVER_PORT'
p3233
asbag49
(g70
g51
NtRp3234
(dp3235
g54
(dp3236
g81
g82
ssg63
g3225
sg56
(lp3237
S':'
asbag49
(g70
g51
NtRp3238
(dp3239
g54
(dp3240
sg63
g3225
sg56
(lp3241
g49
(g50
g51
NtRp3242
(dp3243
g54
(dp3244
g62
I3
ssg63
g3238
sg56
(lp3245
g1770
asbasbasbag49
(g65
g51
NtRp3246
(dp3247
g54
(dp3248
sg63
g2885
sg56
(lp3249
g49
(g70
g51
NtRp3250
(dp3251
g54
(dp3252
g74
g75
ssg63
g3246
sg56
(lp3253
S'SERVER_PROTOCOL'
p3254
asbag49
(g70
g51
NtRp3255
(dp3256
g54
(dp3257
g81
g82
ssg63
g3246
sg56
(lp3258
S':'
asbag49
(g70
g51
NtRp3259
(dp3260
g54
(dp3261
sg63
g3246
sg56
(lp3262
g49
(g50
g51
NtRp3263
(dp3264
g54
(dp3265
g62
I3
ssg63
g3259
sg56
(lp3266
g1792
asbasbasbag49
(g65
g51
NtRp3267
(dp3268
g54
(dp3269
sg63
g2885
sg56
(lp3270
g49
(g70
g51
NtRp3271
(dp3272
g54
(dp3273
g74
g75
ssg63
g3267
sg56
(lp3274
S'SERVER_SOFTWARE'
p3275
asbag49
(g70
g51
NtRp3276
(dp3277
g54
(dp3278
g81
g82
ssg63
g3267
sg56
(lp3279
S':'
asbag49
(g70
g51
NtRp3280
(dp3281
g54
(dp3282
sg63
g3267
sg56
(lp3283
g49
(g50
g51
NtRp3284
(dp3285
g54
(dp3286
g62
I3
ssg63
g3280
sg56
(lp3287
g1814
asbasbasbag49
(g65
g51
NtRp3288
(dp3289
g54
(dp3290
sg63
g2885
sg56
(lp3291
g49
(g70
g51
NtRp3292
(dp3293
g54
(dp3294
g74
g75
ssg63
g3288
sg56
(lp3295
S'wsgi.errors'
p3296
asbag49
(g70
g51
NtRp3297
(dp3298
g54
(dp3299
g81
g82
ssg63
g3288
sg56
(lp3300
S':'
asbag49
(g70
g51
NtRp3301
(dp3302
g54
(dp3303
sg63
g3288
sg56
(lp3304
g49
(g50
g51
NtRp3305
(dp3306
g54
(dp3307
g62
I3
ssg63
g3301
sg56
(lp3308
S"<open file '<stderr>', mode 'w' at 0x540b0>"
p3309
asbasbasbag49
(g65
g51
NtRp3310
(dp3311
g54
(dp3312
sg63
g2885
sg56
(lp3313
g49
(g70
g51
NtRp3314
(dp3315
g54
(dp3316
g74
g75
ssg63
g3310
sg56
(lp3317
S'wsgi.file_wrapper'
p3318
asbag49
(g70
g51
NtRp3319
(dp3320
g54
(dp3321
g81
g82
ssg63
g3310
sg56
(lp3322
S':'
asbag49
(g70
g51
NtRp3323
(dp3324
g54
(dp3325
sg63
g3310
sg56
(lp3326
g49
(g50
g51
NtRp3327
(dp3328
g54
(dp3329
g62
I3
ssg63
g3323
sg56
(lp3330
S'<class wsgiref.util.FileWrapper at 0x44d82d0>'
p3331
asbasbasbag49
(g65
g51
NtRp3332
(dp3333
g54
(dp3334
sg63
g2885
sg56
(lp3335
g49
(g70
g51
NtRp3336
(dp3337
g54
(dp3338
g74
g75
ssg63
g3332
sg56
(lp3339
S'wsgi.input'
p3340
asbag49
(g70
g51
NtRp3341
(dp3342
g54
(dp3343
g81
g82
ssg63
g3332
sg56
(lp3344
S':'
asbag49
(g70
g51
NtRp3345
(dp3346
g54
(dp3347
sg63
g3332
sg56
(lp3348
g49
(g50
g51
NtRp3349
(dp3350
g54
(dp3351
g62
I3
ssg63
g3345
sg56
(lp3352
S'<cStringIO.StringO object at 0x8dfccc0>'
p3353
asbasbasbag49
(g65
g51
NtRp3354
(dp3355
g54
(dp3356
sg63
g2885
sg56
(lp3357
g49
(g70
g51
NtRp3358
(dp3359
g54
(dp3360
g74
g75
ssg63
g3354
sg56
(lp3361
S'wsgi.multiprocess'
p3362
asbag49
(g70
g51
NtRp3363
(dp3364
g54
(dp3365
g81
g82
ssg63
g3354
sg56
(lp3366
S':'
asbag49
(g70
g51
NtRp3367
(dp3368
g54
(dp3369
sg63
g3354
sg56
(lp3370
g49
(g50
g51
NtRp3371
(dp3372
g54
(dp3373
g62
I3
ssg63
g3367
sg56
(lp3374
g92
asbasbasbag49
(g65
g51
NtRp3375
(dp3376
g54
(dp3377
sg63
g2885
sg56
(lp3378
g49
(g70
g51
NtRp3379
(dp3380
g54
(dp3381
g74
g75
ssg63
g3375
sg56
(lp3382
S'wsgi.multithread'
p3383
asbag49
(g70
g51
NtRp3384
(dp3385
g54
(dp3386
g81
g82
ssg63
g3375
sg56
(lp3387
S':'
asbag49
(g70
g51
NtRp3388
(dp3389
g54
(dp3390
sg63
g3375
sg56
(lp3391
g49
(g50
g51
NtRp3392
(dp3393
g54
(dp3394
g62
I3
ssg63
g3388
sg56
(lp3395
g2031
asbasbasbag49
(g65
g51
NtRp3396
(dp3397
g54
(dp3398
sg63
g2885
sg56
(lp3399
g49
(g70
g51
NtRp3400
(dp3401
g54
(dp3402
g74
g75
ssg63
g3396
sg56
(lp3403
S'wsgi.run_once'
p3404
asbag49
(g70
g51
NtRp3405
(dp3406
g54
(dp3407
g81
g82
ssg63
g3396
sg56
(lp3408
S':'
asbag49
(g70
g51
NtRp3409
(dp3410
g54
(dp3411
sg63
g3396
sg56
(lp3412
g49
(g50
g51
NtRp3413
(dp3414
g54
(dp3415
g62
I3
ssg63
g3409
sg56
(lp3416
g92
asbasbasbag49
(g65
g51
NtRp3417
(dp3418
g54
(dp3419
sg63
g2885
sg56
(lp3420
g49
(g70
g51
NtRp3421
(dp3422
g54
(dp3423
g74
g75
ssg63
g3417
sg56
(lp3424
S'wsgi.url_scheme'
p3425
asbag49
(g70
g51
NtRp3426
(dp3427
g54
(dp3428
g81
g82
ssg63
g3417
sg56
(lp3429
S':'
asbag49
(g70
g51
NtRp3430
(dp3431
g54
(dp3432
sg63
g3417
sg56
(lp3433
g49
(g50
g51
NtRp3434
(dp3435
g54
(dp3436
g62
I3
ssg63
g3430
sg56
(lp3437
g2074
asbasbasbag49
(g65
g51
NtRp3438
(dp3439
g54
(dp3440
sg63
g2885
sg56
(lp3441
g49
(g70
g51
NtRp3442
(dp3443
g54
(dp3444
g74
g75
ssg63
g3438
sg56
(lp3445
S'wsgi.version'
p3446
asbag49
(g70
g51
NtRp3447
(dp3448
g54
(dp3449
g81
g82
ssg63
g3438
sg56
(lp3450
S':'
asbag49
(g70
g51
NtRp3451
(dp3452
g54
(dp3453
sg63
g3438
sg56
(lp3454
g49
(g50
g51
NtRp3455
(dp3456
g54
(dp3457
g62
I3
ssg63
g3451
sg56
(lp3458
S'1'
asbasbasbasbasbasbasbasbasbasbasbasbasbsS'frames'
p3459
(lp3460
(dp3461
S'file'
p3462
S'/Users/abaric/Downloads/web2py/web2py.app/Contents/Resources/gluon/restricted.py'
p3463
sS'dump'
p3464
(dp3465
sS'lnum'
p3466
I212
sS'lines'
p3467
(dp3468
sS'call'
p3469
S"(code='from gluon.tools import datetime\\nfrom gluon.tool...onse._vars=response._caller(show_image_comments)\\n', environment={'A': <class 'gluon.html.A'>, 'Auth': <class 'gluon.tools.Auth'>, 'B': <class 'gluon.html.B'>, 'BEAUTIFY': <class 'gluon.html.BEAUTIFY'>, 'BODY': <class 'gluon.html.BODY'>, 'BR': <class 'gluon.html.BR'>, 'BUTTON': <class 'gluon.html.BUTTON'>, 'CAT': <class 'gluon.html.CAT'>, 'CENTER': <class 'gluon.html.CENTER'>, 'CLEANUP': <class 'gluon.validators.CLEANUP'>, ...}, layer='/Users/abaric/Downloads/web2py/web2py.app/Conten...applications/Final_Impulse/controllers/default.py')"
p3470
sS'func'
p3471
S'restricted'
p3472
sa(dp3473
g3462
S'/Users/abaric/Downloads/web2py/web2py.app/Contents/Resources/applications/Final_Impulse/controllers/default.py'
p3474
sg3464
(dp3475
sg3466
I181
sg3467
(dp3476
I170
S'    for writing in wristing:'
p3477
sI171
S'        if writing.writing.approved:'
p3478
sI172
S'            writings_w_app.append(writing)'
p3479
sI173
S'        else:'
p3480
sI174
S'            writings_wo_app.append(writing)'
p3481
sI175
S''
sI176
S'    return locals()'
p3482
sI177
S''
sI178
S''
sI179
S'#def update_approve():'
p3483
ssg3469
S'()'
p3484
sg3471
S'<module>'
p3485
sa(dp3486
g3462
S'/Users/abaric/Downloads/web2py/web2py.app/Contents/Resources/gluon/globals.py'
p3487
sg3464
(dp3488
sg3466
I188
sg3467
(dp3489
sg3469
S'(f=<function show_image_comments at 0x8ca9fb0>)'
p3490
sg3471
S'<lambda>'
p3491
sa(dp3492
g3462
S'/Users/abaric/Downloads/web2py/web2py.app/Contents/Resources/applications/Final_Impulse/controllers/default.py'
p3493
sg3464
(dp3494
sg3466
I24
sg3467
(dp3495
I19
S'def download():'
p3496
sI20
S'    return response.download(request, db)'
p3497
sI21
S''
sI22
S'def show_image_comments():'
p3498
sI23
S"    image_form=SQLFORM(db.image,fields=['title','file'],labels={'file':'Your Image'})"
p3499
sI24
S'    image_form.vars.author_id=auth.user.id'
p3500
sI25
S"    image_form.add_button('Back', URL('index'))"
p3501
sI26
S'    if image_form.process().accepted:'
p3502
sI27
S"        response.flash='image post submitted!'"
p3503
sI28
S'    images=db(db.image).select(db.image.ALL, orderby=db.image.id)'
p3504
ssg3469
S'()'
p3505
sg3471
S'show_image_comments'
p3506
sasS'pyver'
p3507
S'Python 2.5.1: /Users/abaric/Downloads/web2py/web2py.app/Contents/MacOS/python'
p3508
sS'session'
p3509
g49
(g50
g51
NtRp3510
(dp3511
g54
(dp3512
sg56
(lp3513
g49
(g58
g51
NtRp3514
(dp3515
g54
(dp3516
g62
I5
ssg63
Nsg56
(lp3517
g49
(g65
g51
NtRp3518
(dp3519
g54
(dp3520
sg63
g3514
sg56
(lp3521
g49
(g70
g51
NtRp3522
(dp3523
g54
(dp3524
g74
g75
ssg63
g3518
sg56
(lp3525
S'flash'
p3526
asbag49
(g70
g51
NtRp3527
(dp3528
g54
(dp3529
g81
g82
ssg63
g3518
sg56
(lp3530
S':'
asbag49
(g70
g51
NtRp3531
(dp3532
g54
(dp3533
sg63
g3518
sg56
(lp3534
g49
(g50
g51
NtRp3535
(dp3536
g54
(dp3537
g62
I5
ssg63
g3531
sg56
(lp3538
S'None'
p3539
asbasbasbasbasbsS'etype'
p3540
S"<type 'exceptions.AttributeError'>"
p3541
sS'date'
p3542
S'Wed Apr  1 12:03:02 2015'
p3543
sS'response'
p3544
g49
(g50
g51
NtRp3545
(dp3546
g54
(dp3547
sg56
(lp3548
g49
(g58
g51
NtRp3549
(dp3550
g54
(dp3551
g62
I5
ssg63
Nsg56
(lp3552
g49
(g65
g51
NtRp3553
(dp3554
g54
(dp3555
sg63
g3549
sg56
(lp3556
g49
(g70
g51
NtRp3557
(dp3558
g54
(dp3559
g74
g75
ssg63
g3553
sg56
(lp3560
g147
asbag49
(g70
g51
NtRp3561
(dp3562
g54
(dp3563
g81
g82
ssg63
g3553
sg56
(lp3564
S':'
asbag49
(g70
g51
NtRp3565
(dp3566
g54
(dp3567
sg63
g3553
sg56
(lp3568
g49
(g50
g51
NtRp3569
(dp3570
g54
(dp3571
g62
I5
ssg63
g3565
sg56
(lp3572
S'<cStringIO.StringO object at 0x914ab20>'
p3573
asbasbasbag49
(g65
g51
NtRp3574
(dp3575
g54
(dp3576
sg63
g3549
sg56
(lp3577
g49
(g70
g51
NtRp3578
(dp3579
g54
(dp3580
g74
g75
ssg63
g3574
sg56
(lp3581
g235
asbag49
(g70
g51
NtRp3582
(dp3583
g54
(dp3584
g81
g82
ssg63
g3574
sg56
(lp3585
S':'
asbag49
(g70
g51
NtRp3586
(dp3587
g54
(dp3588
sg63
g3574
sg56
(lp3589
g49
(g50
g51
NtRp3590
(dp3591
g54
(dp3592
g62
I5
ssg63
g3586
sg56
(lp3593
g49
(g58
g51
NtRp3594
(dp3595
g54
(dp3596
g62
I4
ssg63
Nsg56
(lp3597
g49
(g65
g51
NtRp3598
(dp3599
g54
(dp3600
sg63
g3594
sg56
(lp3601
g49
(g70
g51
NtRp3602
(dp3603
g54
(dp3604
g74
g75
ssg63
g3598
sg56
(lp3605
S'session_id_final_impulse'
p3606
asbag49
(g70
g51
NtRp3607
(dp3608
g54
(dp3609
g81
g82
ssg63
g3598
sg56
(lp3610
S':'
asbag49
(g70
g51
NtRp3611
(dp3612
g54
(dp3613
sg63
g3598
sg56
(lp3614
g49
(g50
g51
NtRp3615
(dp3616
g54
(dp3617
g62
I4
ssg63
g3611
sg56
(lp3618
g778
ag49
(g58
g51
NtRp3619
(dp3620
g54
(dp3621
g62
I3
ssg63
Nsg56
(lp3622
g49
(g65
g51
NtRp3623
(dp3624
g54
(dp3625
sg63
g3619
sg56
(lp3626
g49
(g70
g51
NtRp3627
(dp3628
g54
(dp3629
g74
g75
ssg63
g3623
sg56
(lp3630
g286
asbag49
(g70
g51
NtRp3631
(dp3632
g54
(dp3633
g81
g82
ssg63
g3623
sg56
(lp3634
S':'
asbag49
(g70
g51
NtRp3635
(dp3636
g54
(dp3637
sg63
g3623
sg56
(lp3638
g49
(g50
g51
NtRp3639
(dp3640
g54
(dp3641
g62
I3
ssg63
g3635
sg56
(lp3642
S''
asbasbasbag49
(g65
g51
NtRp3643
(dp3644
g54
(dp3645
sg63
g3619
sg56
(lp3646
g49
(g70
g51
NtRp3647
(dp3648
g54
(dp3649
g74
g75
ssg63
g3643
sg56
(lp3650
g307
asbag49
(g70
g51
NtRp3651
(dp3652
g54
(dp3653
g81
g82
ssg63
g3643
sg56
(lp3654
S':'
asbag49
(g70
g51
NtRp3655
(dp3656
g54
(dp3657
sg63
g3643
sg56
(lp3658
g49
(g50
g51
NtRp3659
(dp3660
g54
(dp3661
g62
I3
ssg63
g3655
sg56
(lp3662
S''
asbasbasbag49
(g65
g51
NtRp3663
(dp3664
g54
(dp3665
sg63
g3619
sg56
(lp3666
g49
(g70
g51
NtRp3667
(dp3668
g54
(dp3669
g74
g75
ssg63
g3663
sg56
(lp3670
g328
asbag49
(g70
g51
NtRp3671
(dp3672
g54
(dp3673
g81
g82
ssg63
g3663
sg56
(lp3674
S':'
asbag49
(g70
g51
NtRp3675
(dp3676
g54
(dp3677
sg63
g3663
sg56
(lp3678
g49
(g50
g51
NtRp3679
(dp3680
g54
(dp3681
g62
I3
ssg63
g3675
sg56
(lp3682
S''
asbasbasbag49
(g65
g51
NtRp3683
(dp3684
g54
(dp3685
sg63
g3619
sg56
(lp3686
g49
(g70
g51
NtRp3687
(dp3688
g54
(dp3689
g74
g75
ssg63
g3683
sg56
(lp3690
g349
asbag49
(g70
g51
NtRp3691
(dp3692
g54
(dp3693
g81
g82
ssg63
g3683
sg56
(lp3694
S':'
asbag49
(g70
g51
NtRp3695
(dp3696
g54
(dp3697
sg63
g3683
sg56
(lp3698
g49
(g50
g51
NtRp3699
(dp3700
g54
(dp3701
g62
I3
ssg63
g3695
sg56
(lp3702
S''
asbasbasbag49
(g65
g51
NtRp3703
(dp3704
g54
(dp3705
sg63
g3619
sg56
(lp3706
g49
(g70
g51
NtRp3707
(dp3708
g54
(dp3709
g74
g75
ssg63
g3703
sg56
(lp3710
g370
asbag49
(g70
g51
NtRp3711
(dp3712
g54
(dp3713
g81
g82
ssg63
g3703
sg56
(lp3714
S':'
asbag49
(g70
g51
NtRp3715
(dp3716
g54
(dp3717
sg63
g3703
sg56
(lp3718
g49
(g50
g51
NtRp3719
(dp3720
g54
(dp3721
g62
I3
ssg63
g3715
sg56
(lp3722
S'/'
asbasbasbag49
(g65
g51
NtRp3723
(dp3724
g54
(dp3725
sg63
g3619
sg56
(lp3726
g49
(g70
g51
NtRp3727
(dp3728
g54
(dp3729
g74
g75
ssg63
g3723
sg56
(lp3730
g391
asbag49
(g70
g51
NtRp3731
(dp3732
g54
(dp3733
g81
g82
ssg63
g3723
sg56
(lp3734
S':'
asbag49
(g70
g51
NtRp3735
(dp3736
g54
(dp3737
sg63
g3723
sg56
(lp3738
g49
(g50
g51
NtRp3739
(dp3740
g54
(dp3741
g62
I3
ssg63
g3735
sg56
(lp3742
S''
asbasbasbag49
(g65
g51
NtRp3743
(dp3744
g54
(dp3745
sg63
g3619
sg56
(lp3746
g49
(g70
g51
NtRp3747
(dp3748
g54
(dp3749
g74
g75
ssg63
g3743
sg56
(lp3750
g412
asbag49
(g70
g51
NtRp3751
(dp3752
g54
(dp3753
g81
g82
ssg63
g3743
sg56
(lp3754
S':'
asbag49
(g70
g51
NtRp3755
(dp3756
g54
(dp3757
sg63
g3743
sg56
(lp3758
g49
(g50
g51
NtRp3759
(dp3760
g54
(dp3761
g62
I3
ssg63
g3755
sg56
(lp3762
S''
asbasbasbasbasbasbasbasbasbasbasbag49
(g65
g51
NtRp3763
(dp3764
g54
(dp3765
sg63
g3549
sg56
(lp3766
g49
(g70
g51
NtRp3767
(dp3768
g54
(dp3769
g74
g75
ssg63
g3763
sg56
(lp3770
S'delimiters'
p3771
asbag49
(g70
g51
NtRp3772
(dp3773
g54
(dp3774
g81
g82
ssg63
g3763
sg56
(lp3775
S':'
asbag49
(g70
g51
NtRp3776
(dp3777
g54
(dp3778
sg63
g3763
sg56
(lp3779
g49
(g50
g51
NtRp3780
(dp3781
g54
(dp3782
g62
I5
ssg63
g3776
sg56
(lp3783
g49
(g58
g51
NtRp3784
(dp3785
g54
(dp3786
g62
I4
ssg63
Nsg56
(lp3787
g49
(g65
g51
NtRp3788
(dp3789
g54
(dp3790
sg63
g3784
sg56
(lp3791
g49
(g70
g51
NtRp3792
(dp3793
g54
(dp3794
sg63
g3788
sg56
(lp3795
g49
(g50
g51
NtRp3796
(dp3797
g54
(dp3798
g62
I4
ssg63
g3792
sg56
(lp3799
S'{{'
p3800
asbasbasbag49
(g65
g51
NtRp3801
(dp3802
g54
(dp3803
sg63
g3784
sg56
(lp3804
g49
(g70
g51
NtRp3805
(dp3806
g54
(dp3807
sg63
g3801
sg56
(lp3808
g49
(g50
g51
NtRp3809
(dp3810
g54
(dp3811
g62
I4
ssg63
g3805
sg56
(lp3812
S'}}'
p3813
asbasbasbasbasbasbasbag49
(g65
g51
NtRp3814
(dp3815
g54
(dp3816
sg63
g3549
sg56
(lp3817
g49
(g70
g51
NtRp3818
(dp3819
g54
(dp3820
g74
g75
ssg63
g3814
sg56
(lp3821
S'files'
p3822
asbag49
(g70
g51
NtRp3823
(dp3824
g54
(dp3825
g81
g82
ssg63
g3814
sg56
(lp3826
S':'
asbag49
(g70
g51
NtRp3827
(dp3828
g54
(dp3829
sg63
g3814
sg56
(lp3830
g49
(g50
g51
NtRp3831
(dp3832
g54
(dp3833
g62
I5
ssg63
g3827
sg56
(lp3834
g49
(g58
g51
NtRp3835
(dp3836
g54
(dp3837
g62
I4
ssg63
Nsg56
(lp3838
sbasbasbasbag49
(g65
g51
NtRp3839
(dp3840
g54
(dp3841
sg63
g3549
sg56
(lp3842
g49
(g70
g51
NtRp3843
(dp3844
g54
(dp3845
g74
g75
ssg63
g3839
sg56
(lp3846
S'flash'
p3847
asbag49
(g70
g51
NtRp3848
(dp3849
g54
(dp3850
g81
g82
ssg63
g3839
sg56
(lp3851
S':'
asbag49
(g70
g51
NtRp3852
(dp3853
g54
(dp3854
sg63
g3839
sg56
(lp3855
g49
(g50
g51
NtRp3856
(dp3857
g54
(dp3858
g62
I5
ssg63
g3852
sg56
(lp3859
S''
asbasbasbag49
(g65
g51
NtRp3860
(dp3861
g54
(dp3862
sg63
g3549
sg56
(lp3863
g49
(g70
g51
NtRp3864
(dp3865
g54
(dp3866
g74
g75
ssg63
g3860
sg56
(lp3867
S'generic_patterns'
p3868
asbag49
(g70
g51
NtRp3869
(dp3870
g54
(dp3871
g81
g82
ssg63
g3860
sg56
(lp3872
S':'
asbag49
(g70
g51
NtRp3873
(dp3874
g54
(dp3875
sg63
g3860
sg56
(lp3876
g49
(g50
g51
NtRp3877
(dp3878
g54
(dp3879
g62
I5
ssg63
g3873
sg56
(lp3880
g49
(g58
g51
NtRp3881
(dp3882
g54
(dp3883
g62
I4
ssg63
Nsg56
(lp3884
sbasbasbasbag49
(g65
g51
NtRp3885
(dp3886
g54
(dp3887
sg63
g3549
sg56
(lp3888
g49
(g70
g51
NtRp3889
(dp3890
g54
(dp3891
g74
g75
ssg63
g3885
sg56
(lp3892
S'google_analytics_id'
p3893
asbag49
(g70
g51
NtRp3894
(dp3895
g54
(dp3896
g81
g82
ssg63
g3885
sg56
(lp3897
S':'
asbag49
(g70
g51
NtRp3898
(dp3899
g54
(dp3900
sg63
g3885
sg56
(lp3901
g49
(g50
g51
NtRp3902
(dp3903
g54
(dp3904
g62
I5
ssg63
g3898
sg56
(lp3905
S'None'
p3906
asbasbasbag49
(g65
g51
NtRp3907
(dp3908
g54
(dp3909
sg63
g3549
sg56
(lp3910
g49
(g70
g51
NtRp3911
(dp3912
g54
(dp3913
g74
g75
ssg63
g3907
sg56
(lp3914
S'headers'
p3915
asbag49
(g70
g51
NtRp3916
(dp3917
g54
(dp3918
g81
g82
ssg63
g3907
sg56
(lp3919
S':'
asbag49
(g70
g51
NtRp3920
(dp3921
g54
(dp3922
sg63
g3907
sg56
(lp3923
g49
(g50
g51
NtRp3924
(dp3925
g54
(dp3926
g62
I5
ssg63
g3920
sg56
(lp3927
g49
(g58
g51
NtRp3928
(dp3929
g54
(dp3930
g62
I4
ssg63
Nsg56
(lp3931
g49
(g65
g51
NtRp3932
(dp3933
g54
(dp3934
sg63
g3928
sg56
(lp3935
g49
(g70
g51
NtRp3936
(dp3937
g54
(dp3938
g74
g75
ssg63
g3932
sg56
(lp3939
S'X-Powered-By'
p3940
asbag49
(g70
g51
NtRp3941
(dp3942
g54
(dp3943
g81
g82
ssg63
g3932
sg56
(lp3944
S':'
asbag49
(g70
g51
NtRp3945
(dp3946
g54
(dp3947
sg63
g3932
sg56
(lp3948
g49
(g50
g51
NtRp3949
(dp3950
g54
(dp3951
g62
I4
ssg63
g3945
sg56
(lp3952
S'web2py'
p3953
asbasbasbasbasbasbasbag49
(g65
g51
NtRp3954
(dp3955
g54
(dp3956
sg63
g3549
sg56
(lp3957
g49
(g70
g51
NtRp3958
(dp3959
g54
(dp3960
g74
g75
ssg63
g3954
sg56
(lp3961
S'menu'
p3962
asbag49
(g70
g51
NtRp3963
(dp3964
g54
(dp3965
g81
g82
ssg63
g3954
sg56
(lp3966
S':'
asbag49
(g70
g51
NtRp3967
(dp3968
g54
(dp3969
sg63
g3954
sg56
(lp3970
g49
(g50
g51
NtRp3971
(dp3972
g54
(dp3973
g62
I5
ssg63
g3967
sg56
(lp3974
g49
(g58
g51
NtRp3975
(dp3976
g54
(dp3977
g62
I4
ssg63
Nsg56
(lp3978
g49
(g65
g51
NtRp3979
(dp3980
g54
(dp3981
sg63
g3975
sg56
(lp3982
g49
(g70
g51
NtRp3983
(dp3984
g54
(dp3985
sg63
g3979
sg56
(lp3986
g49
(g50
g51
NtRp3987
(dp3988
g54
(dp3989
g62
I4
ssg63
g3983
sg56
(lp3990
g49
(g58
g51
NtRp3991
(dp3992
g54
(dp3993
g62
I3
ssg63
Nsg56
(lp3994
g49
(g65
g51
NtRp3995
(dp3996
g54
(dp3997
sg63
g3991
sg56
(lp3998
g49
(g70
g51
NtRp3999
(dp4000
g54
(dp4001
sg63
g3995
sg56
(lp4002
g49
(g50
g51
NtRp4003
(dp4004
g54
(dp4005
g62
I3
ssg63
g3999
sg56
(lp4006
cgluon.languages
lazyT_unpickle
p4007
(S't\x04\x00\x00\x00Home'
tRp4008
asbasbasbag49
(g65
g51
NtRp4009
(dp4010
g54
(dp4011
sg63
g3991
sg56
(lp4012
g49
(g70
g51
NtRp4013
(dp4014
g54
(dp4015
sg63
g4009
sg56
(lp4016
g49
(g50
g51
NtRp4017
(dp4018
g54
(dp4019
g62
I3
ssg63
g4013
sg56
(lp4020
g92
asbasbasbag49
(g65
g51
NtRp4021
(dp4022
g54
(dp4023
sg63
g3991
sg56
(lp4024
g49
(g70
g51
NtRp4025
(dp4026
g54
(dp4027
sg63
g4021
sg56
(lp4028
g49
(g50
g51
NtRp4029
(dp4030
g54
(dp4031
g62
I3
ssg63
g4025
sg56
(lp4032
S'/Final_Impulse/default/index'
p4033
asbasbasbag49
(g65
g51
NtRp4034
(dp4035
g54
(dp4036
sg63
g3991
sg56
(lp4037
g49
(g70
g51
NtRp4038
(dp4039
g54
(dp4040
sg63
g4034
sg56
(lp4041
g49
(g50
g51
NtRp4042
(dp4043
g54
(dp4044
g62
I3
ssg63
g4038
sg56
(lp4045
g49
(g58
g51
NtRp4046
(dp4047
g54
(dp4048
g62
I2
ssg63
Nsg56
(lp4049
sbasbasbasbasbasbasbasbag49
(g65
g51
NtRp4050
(dp4051
g54
(dp4052
sg63
g3975
sg56
(lp4053
g49
(g70
g51
NtRp4054
(dp4055
g54
(dp4056
sg63
g4050
sg56
(lp4057
g49
(g50
g51
NtRp4058
(dp4059
g54
(dp4060
g62
I4
ssg63
g4054
sg56
(lp4061
g49
(g58
g51
NtRp4062
(dp4063
g54
(dp4064
g62
I3
ssg63
Nsg56
(lp4065
g49
(g65
g51
NtRp4066
(dp4067
g54
(dp4068
sg63
g4062
sg56
(lp4069
g49
(g70
g51
NtRp4070
(dp4071
g54
(dp4072
sg63
g4066
sg56
(lp4073
g49
(g50
g51
NtRp4074
(dp4075
g54
(dp4076
g62
I3
ssg63
g4070
sg56
(lp4077
g49
(cgluon.html
SPAN
p4078
g51
NtRp4079
(dp4080
g54
(dp4081
S'_class'
p4082
S'highlighted'
p4083
ssg63
Nsg56
(lp4084
g3953
asbasbasbasbag49
(g65
g51
NtRp4085
(dp4086
g54
(dp4087
sg63
g4062
sg56
(lp4088
g49
(g70
g51
NtRp4089
(dp4090
g54
(dp4091
sg63
g4085
sg56
(lp4092
g49
(g50
g51
NtRp4093
(dp4094
g54
(dp4095
g62
I3
ssg63
g4089
sg56
(lp4096
g92
asbasbasbag49
(g65
g51
NtRp4097
(dp4098
g54
(dp4099
sg63
g4062
sg56
(lp4100
g49
(g70
g51
NtRp4101
(dp4102
g54
(dp4103
sg63
g4097
sg56
(lp4104
g49
(g50
g51
NtRp4105
(dp4106
g54
(dp4107
g62
I3
ssg63
g4101
sg56
(lp4108
S'http://web2py.com'
p4109
asbasbasbag49
(g65
g51
NtRp4110
(dp4111
g54
(dp4112
sg63
g4062
sg56
(lp4113
g49
(g70
g51
NtRp4114
(dp4115
g54
(dp4116
sg63
g4110
sg56
(lp4117
g49
(g50
g51
NtRp4118
(dp4119
g54
(dp4120
g62
I3
ssg63
g4114
sg56
(lp4121
g49
(g58
g51
NtRp4122
(dp4123
g54
(dp4124
g62
I2
ssg63
Nsg56
(lp4125
g49
(g65
g51
NtRp4126
(dp4127
g54
(dp4128
sg63
g4122
sg56
(lp4129
g49
(g70
g51
NtRp4130
(dp4131
g54
(dp4132
sg63
g4126
sg56
(lp4133
g49
(g50
g51
NtRp4134
(dp4135
g54
(dp4136
g62
I2
ssg63
g4130
sg56
(lp4137
g49
(g58
g51
NtRp4138
(dp4139
g54
(dp4140
g62
I1
ssg63
Nsg56
(lp4141
g49
(g65
g51
NtRp4142
(dp4143
g54
(dp4144
sg63
g4138
sg56
(lp4145
g49
(g70
g51
NtRp4146
(dp4147
g54
(dp4148
sg63
g4142
sg56
(lp4149
g49
(g50
g51
NtRp4150
(dp4151
g54
(dp4152
g62
I1
ssg63
g4146
sg56
(lp4153
g4007
(S's\x08\x00\x00\x00My Sites'
tRp4154
asbasbasbag49
(g65
g51
NtRp4155
(dp4156
g54
(dp4157
sg63
g4138
sg56
(lp4158
g49
(g70
g51
NtRp4159
(dp4160
g54
(dp4161
sg63
g4155
sg56
(lp4162
g49
(g50
g51
NtRp4163
(dp4164
g54
(dp4165
g62
I1
ssg63
g4159
sg56
(lp4166
I00
asbasbasbag49
(g65
g51
NtRp4167
(dp4168
g54
(dp4169
sg63
g4138
sg56
(lp4170
g49
(g70
g51
NtRp4171
(dp4172
g54
(dp4173
sg63
g4167
sg56
(lp4174
g49
(g50
g51
NtRp4175
(dp4176
g54
(dp4177
g62
I1
ssg63
g4171
sg56
(lp4178
S'/admin/default/site'
p4179
asbasbasbasbasbasbasbag49
(g65
g51
NtRp4180
(dp4181
g54
(dp4182
sg63
g4122
sg56
(lp4183
g49
(g70
g51
NtRp4184
(dp4185
g54
(dp4186
sg63
g4180
sg56
(lp4187
g49
(g50
g51
NtRp4188
(dp4189
g54
(dp4190
g62
I2
ssg63
g4184
sg56
(lp4191
g49
(g58
g51
NtRp4192
(dp4193
g54
(dp4194
g62
I1
ssg63
Nsg56
(lp4195
g49
(g65
g51
NtRp4196
(dp4197
g54
(dp4198
sg63
g4192
sg56
(lp4199
g49
(g70
g51
NtRp4200
(dp4201
g54
(dp4202
sg63
g4196
sg56
(lp4203
g49
(g50
g51
NtRp4204
(dp4205
g54
(dp4206
g62
I1
ssg63
g4200
sg56
(lp4207
g4007
(S's\x08\x00\x00\x00This App'
tRp4208
asbasbasbag49
(g65
g51
NtRp4209
(dp4210
g54
(dp4211
sg63
g4192
sg56
(lp4212
g49
(g70
g51
NtRp4213
(dp4214
g54
(dp4215
sg63
g4209
sg56
(lp4216
g49
(g50
g51
NtRp4217
(dp4218
g54
(dp4219
g62
I1
ssg63
g4213
sg56
(lp4220
I00
asbasbasbag49
(g65
g51
NtRp4221
(dp4222
g54
(dp4223
sg63
g4192
sg56
(lp4224
g49
(g70
g51
NtRp4225
(dp4226
g54
(dp4227
sg63
g4221
sg56
(lp4228
g49
(g50
g51
NtRp4229
(dp4230
g54
(dp4231
g62
I1
ssg63
g4225
sg56
(lp4232
S'/admin/default/design/Final_Impulse'
p4233
asbasbasbag49
(g65
g51
NtRp4234
(dp4235
g54
(dp4236
sg63
g4192
sg56
(lp4237
g49
(g70
g51
NtRp4238
(dp4239
g54
(dp4240
sg63
g4234
sg56
(lp4241
g49
(g50
g51
NtRp4242
(dp4243
g54
(dp4244
g62
I1
ssg63
g4238
sg56
(lp4245
(lp4246
(g4007
(S't\n\x00\x00\x00Controller'
tRp4247
I00
S'/admin/default/edit/Final_Impulse/controllers/default.py'
tp4248
a(g4007
(S't\x04\x00\x00\x00View'
tRp4249
I00
S'/admin/default/edit/Final_Impulse/views/default/show_image_comments.html'
tp4250
a(g4007
(S't\x06\x00\x00\x00Layout'
tRp4251
I00
S'/admin/default/edit/Final_Impulse/views/layout.html'
tp4252
a(g4007
(S't\n\x00\x00\x00Stylesheet'
tRp4253
I00
S'/admin/default/edit/Final_Impulse/static/css/web2py.css'
tp4254
a(g4007
(S's\x08\x00\x00\x00DB Model'
tRp4255
I00
S'/admin/default/edit/Final_Impulse/models/db.py'
tp4256
a(g4007
(S's\n\x00\x00\x00Menu Model'
tRp4257
I00
S'/admin/default/edit/Final_Impulse/models/menu.py'
tp4258
a(g4007
(S't\x08\x00\x00\x00Database'
tRp4259
I00
S'/Final_Impulse/appadmin/index'
tp4260
a(g4007
(S't\x06\x00\x00\x00Errors'
tRp4261
I00
S'/admin/default/errors/Final_Impulse'
tp4262
a(g4007
(S't\x05\x00\x00\x00About'
tRp4263
I00
S'/admin/default/about/Final_Impulse'
tp4264
aasbasbasbasbasbasbasbag49
(g65
g51
NtRp4265
(dp4266
g54
(dp4267
sg63
g4122
sg56
(lp4268
g49
(g70
g51
NtRp4269
(dp4270
g54
(dp4271
sg63
g4265
sg56
(lp4272
g49
(g50
g51
NtRp4273
(dp4274
g54
(dp4275
g62
I2
ssg63
g4269
sg56
(lp4276
g49
(g58
g51
NtRp4277
(dp4278
g54
(dp4279
g62
I1
ssg63
Nsg56
(lp4280
g49
(g65
g51
NtRp4281
(dp4282
g54
(dp4283
sg63
g4277
sg56
(lp4284
g49
(g70
g51
NtRp4285
(dp4286
g54
(dp4287
sg63
g4281
sg56
(lp4288
g49
(g50
g51
NtRp4289
(dp4290
g54
(dp4291
g62
I1
ssg63
g4285
sg56
(lp4292
S'web2py.com'
p4293
asbasbasbag49
(g65
g51
NtRp4294
(dp4295
g54
(dp4296
sg63
g4277
sg56
(lp4297
g49
(g70
g51
NtRp4298
(dp4299
g54
(dp4300
sg63
g4294
sg56
(lp4301
g49
(g50
g51
NtRp4302
(dp4303
g54
(dp4304
g62
I1
ssg63
g4298
sg56
(lp4305
I00
asbasbasbag49
(g65
g51
NtRp4306
(dp4307
g54
(dp4308
sg63
g4277
sg56
(lp4309
g49
(g70
g51
NtRp4310
(dp4311
g54
(dp4312
sg63
g4306
sg56
(lp4313
g49
(g50
g51
NtRp4314
(dp4315
g54
(dp4316
g62
I1
ssg63
g4310
sg56
(lp4317
S'http://www.web2py.com'
p4318
asbasbasbag49
(g65
g51
NtRp4319
(dp4320
g54
(dp4321
sg63
g4277
sg56
(lp4322
g49
(g70
g51
NtRp4323
(dp4324
g54
(dp4325
sg63
g4319
sg56
(lp4326
g49
(g50
g51
NtRp4327
(dp4328
g54
(dp4329
g62
I1
ssg63
g4323
sg56
(lp4330
(lp4331
(g4007
(S't\x08\x00\x00\x00Download'
tRp4332
I00
S'http://www.web2py.com/examples/default/download'
p4333
tp4334
a(g4007
(S't\x07\x00\x00\x00Support'
tRp4335
I00
S'http://www.web2py.com/examples/default/support'
p4336
tp4337
a(g4007
(S't\x04\x00\x00\x00Demo'
tRp4338
I00
S'http://web2py.com/demo_admin'
p4339
tp4340
a(g4007
(S's\x0e\x00\x00\x00Quick Examples'
tRp4341
I00
S'http://web2py.com/examples/default/examples'
p4342
tp4343
a(g4007
(S't\x03\x00\x00\x00FAQ'
tRp4344
I00
S'http://web2py.com/AlterEgo'
p4345
tp4346
a(g4007
(S't\x06\x00\x00\x00Videos'
tRp4347
I00
S'http://www.web2py.com/examples/default/videos/'
p4348
tp4349
a(g4007
(S's\x11\x00\x00\x00Free Applications'
tRp4350
I00
S'http://web2py.com/appliances'
p4351
tp4352
a(g4007
(S't\x07\x00\x00\x00Plugins'
tRp4353
I00
S'http://web2py.com/plugins'
p4354
tp4355
a(g4007
(S't\x07\x00\x00\x00Layouts'
tRp4356
I00
S'http://web2py.com/layouts'
p4357
tp4358
a(g4007
(S't\x07\x00\x00\x00Recipes'
tRp4359
I00
S'http://web2pyslices.com/'
p4360
tp4361
a(g4007
(S't\x08\x00\x00\x00Semantic'
tRp4362
I00
S'http://web2py.com/semantic'
p4363
tp4364
aasbasbasbasbasbasbasbag49
(g65
g51
NtRp4365
(dp4366
g54
(dp4367
sg63
g4122
sg56
(lp4368
g49
(g70
g51
NtRp4369
(dp4370
g54
(dp4371
sg63
g4365
sg56
(lp4372
g49
(g50
g51
NtRp4373
(dp4374
g54
(dp4375
g62
I2
ssg63
g4369
sg56
(lp4376
g49
(g58
g51
NtRp4377
(dp4378
g54
(dp4379
g62
I1
ssg63
Nsg56
(lp4380
g49
(g65
g51
NtRp4381
(dp4382
g54
(dp4383
sg63
g4377
sg56
(lp4384
g49
(g70
g51
NtRp4385
(dp4386
g54
(dp4387
sg63
g4381
sg56
(lp4388
g49
(g50
g51
NtRp4389
(dp4390
g54
(dp4391
g62
I1
ssg63
g4385
sg56
(lp4392
g4007
(S't\r\x00\x00\x00Documentation'
tRp4393
asbasbasbag49
(g65
g51
NtRp4394
(dp4395
g54
(dp4396
sg63
g4377
sg56
(lp4397
g49
(g70
g51
NtRp4398
(dp4399
g54
(dp4400
sg63
g4394
sg56
(lp4401
g49
(g50
g51
NtRp4402
(dp4403
g54
(dp4404
g62
I1
ssg63
g4398
sg56
(lp4405
I00
asbasbasbag49
(g65
g51
NtRp4406
(dp4407
g54
(dp4408
sg63
g4377
sg56
(lp4409
g49
(g70
g51
NtRp4410
(dp4411
g54
(dp4412
sg63
g4406
sg56
(lp4413
g49
(g50
g51
NtRp4414
(dp4415
g54
(dp4416
g62
I1
ssg63
g4410
sg56
(lp4417
S'http://www.web2py.com/book'
p4418
asbasbasbag49
(g65
g51
NtRp4419
(dp4420
g54
(dp4421
sg63
g4377
sg56
(lp4422
g49
(g70
g51
NtRp4423
(dp4424
g54
(dp4425
sg63
g4419
sg56
(lp4426
g49
(g50
g51
NtRp4427
(dp4428
g54
(dp4429
g62
I1
ssg63
g4423
sg56
(lp4430
(lp4431
(g4007
(S't\x07\x00\x00\x00Preface'
tRp4432
I00
S'http://www.web2py.com/book/default/chapter/00'
p4433
tp4434
a(g4007
(S't\x0c\x00\x00\x00Introduction'
tRp4435
I00
S'http://www.web2py.com/book/default/chapter/01'
p4436
tp4437
a(g4007
(S't\x06\x00\x00\x00Python'
tRp4438
I00
S'http://www.web2py.com/book/default/chapter/02'
p4439
tp4440
a(g4007
(S't\x08\x00\x00\x00Overview'
tRp4441
I00
S'http://www.web2py.com/book/default/chapter/03'
p4442
tp4443
a(g4007
(S's\x08\x00\x00\x00The Core'
tRp4444
I00
S'http://www.web2py.com/book/default/chapter/04'
p4445
tp4446
a(g4007
(S's\t\x00\x00\x00The Views'
tRp4447
I00
S'http://www.web2py.com/book/default/chapter/05'
p4448
tp4449
a(g4007
(S't\x08\x00\x00\x00Database'
tRp4450
I00
S'http://www.web2py.com/book/default/chapter/06'
p4451
tp4452
a(g4007
(S's\x14\x00\x00\x00Forms and Validators'
tRp4453
I00
S'http://www.web2py.com/book/default/chapter/07'
p4454
tp4455
a(g4007
(S's\r\x00\x00\x00Email and SMS'
tRp4456
I00
S'http://www.web2py.com/book/default/chapter/08'
p4457
tp4458
a(g4007
(S's\x0e\x00\x00\x00Access Control'
tRp4459
I00
S'http://www.web2py.com/book/default/chapter/09'
p4460
tp4461
a(g4007
(S't\x08\x00\x00\x00Services'
tRp4462
I00
S'http://www.web2py.com/book/default/chapter/10'
p4463
tp4464
a(g4007
(S's\x0c\x00\x00\x00Ajax Recipes'
tRp4465
I00
S'http://www.web2py.com/book/default/chapter/11'
p4466
tp4467
a(g4007
(S's\x16\x00\x00\x00Components and Plugins'
tRp4468
I00
S'http://www.web2py.com/book/default/chapter/12'
p4469
tp4470
a(g4007
(S's\x12\x00\x00\x00Deployment Recipes'
tRp4471
I00
S'http://www.web2py.com/book/default/chapter/13'
p4472
tp4473
a(g4007
(S's\r\x00\x00\x00Other Recipes'
tRp4474
I00
S'http://www.web2py.com/book/default/chapter/14'
p4475
tp4476
a(g4007
(S's\r\x00\x00\x00Buy this book'
tRp4477
I00
S'http://stores.lulu.com/web2py'
p4478
tp4479
aasbasbasbasbasbasbasbag49
(g65
g51
NtRp4480
(dp4481
g54
(dp4482
sg63
g4122
sg56
(lp4483
g49
(g70
g51
NtRp4484
(dp4485
g54
(dp4486
sg63
g4480
sg56
(lp4487
g49
(g50
g51
NtRp4488
(dp4489
g54
(dp4490
g62
I2
ssg63
g4484
sg56
(lp4491
g49
(g58
g51
NtRp4492
(dp4493
g54
(dp4494
g62
I1
ssg63
Nsg56
(lp4495
g49
(g65
g51
NtRp4496
(dp4497
g54
(dp4498
sg63
g4492
sg56
(lp4499
g49
(g70
g51
NtRp4500
(dp4501
g54
(dp4502
sg63
g4496
sg56
(lp4503
g49
(g50
g51
NtRp4504
(dp4505
g54
(dp4506
g62
I1
ssg63
g4500
sg56
(lp4507
g4007
(S't\t\x00\x00\x00Community'
tRp4508
asbasbasbag49
(g65
g51
NtRp4509
(dp4510
g54
(dp4511
sg63
g4492
sg56
(lp4512
g49
(g70
g51
NtRp4513
(dp4514
g54
(dp4515
sg63
g4509
sg56
(lp4516
g49
(g50
g51
NtRp4517
(dp4518
g54
(dp4519
g62
I1
ssg63
g4513
sg56
(lp4520
I00
asbasbasbag49
(g65
g51
NtRp4521
(dp4522
g54
(dp4523
sg63
g4492
sg56
(lp4524
g49
(g70
g51
NtRp4525
(dp4526
g54
(dp4527
sg63
g4521
sg56
(lp4528
g49
(g50
g51
NtRp4529
(dp4530
g54
(dp4531
g62
I1
ssg63
g4525
sg56
(lp4532
Nasbasbasbag49
(g65
g51
NtRp4533
(dp4534
g54
(dp4535
sg63
g4492
sg56
(lp4536
g49
(g70
g51
NtRp4537
(dp4538
g54
(dp4539
sg63
g4533
sg56
(lp4540
g49
(g50
g51
NtRp4541
(dp4542
g54
(dp4543
g62
I1
ssg63
g4537
sg56
(lp4544
(lp4545
(g4007
(S't\x06\x00\x00\x00Groups'
tRp4546
I00
S'http://www.web2py.com/examples/default/usergroups'
p4547
tp4548
a(g4007
(S't\x07\x00\x00\x00Twitter'
tRp4549
I00
S'http://twitter.com/web2py'
p4550
tp4551
a(g4007
(S's\t\x00\x00\x00Live Chat'
tRp4552
I00
S'http://webchat.freenode.net/?channels=web2py'
p4553
tp4554
aasbasbasbasbasbasbasbag49
(g65
g51
NtRp4555
(dp4556
g54
(dp4557
sg63
g4122
sg56
(lp4558
g49
(g70
g51
NtRp4559
(dp4560
g54
(dp4561
sg63
g4555
sg56
(lp4562
g49
(g50
g51
NtRp4563
(dp4564
g54
(dp4565
g62
I2
ssg63
g4559
sg56
(lp4566
g49
(g58
g51
NtRp4567
(dp4568
g54
(dp4569
g62
I1
ssg63
Nsg56
(lp4570
g49
(g65
g51
NtRp4571
(dp4572
g54
(dp4573
sg63
g4567
sg56
(lp4574
g49
(g70
g51
NtRp4575
(dp4576
g54
(dp4577
sg63
g4571
sg56
(lp4578
g49
(g50
g51
NtRp4579
(dp4580
g54
(dp4581
g62
I1
ssg63
g4575
sg56
(lp4582
g4007
(S't\x07\x00\x00\x00Plugins'
tRp4583
asbasbasbag49
(g65
g51
NtRp4584
(dp4585
g54
(dp4586
sg63
g4567
sg56
(lp4587
g49
(g70
g51
NtRp4588
(dp4589
g54
(dp4590
sg63
g4584
sg56
(lp4591
g49
(g50
g51
NtRp4592
(dp4593
g54
(dp4594
g62
I1
ssg63
g4588
sg56
(lp4595
I00
asbasbasbag49
(g65
g51
NtRp4596
(dp4597
g54
(dp4598
sg63
g4567
sg56
(lp4599
g49
(g70
g51
NtRp4600
(dp4601
g54
(dp4602
sg63
g4596
sg56
(lp4603
g49
(g50
g51
NtRp4604
(dp4605
g54
(dp4606
g62
I1
ssg63
g4600
sg56
(lp4607
Nasbasbasbag49
(g65
g51
NtRp4608
(dp4609
g54
(dp4610
sg63
g4567
sg56
(lp4611
g49
(g70
g51
NtRp4612
(dp4613
g54
(dp4614
sg63
g4608
sg56
(lp4615
g49
(g50
g51
NtRp4616
(dp4617
g54
(dp4618
g62
I1
ssg63
g4612
sg56
(lp4619
(lp4620
(S'plugin_wiki'
p4621
I00
S'http://web2py.com/examples/default/download'
p4622
tp4623
a(g4007
(S's\r\x00\x00\x00Other Plugins'
tRp4624
I00
g4354
tp4625
a(g4007
(S's\x0e\x00\x00\x00Layout Plugins'
tRp4626
I00
g4357
tp4627
aasbasbasbasbasbasbasbasbasbasbasbasbasbasbasbasbasbasbasbag49
(g65
g51
NtRp4628
(dp4629
g54
(dp4630
sg63
g3549
sg56
(lp4631
g49
(g70
g51
NtRp4632
(dp4633
g54
(dp4634
g74
g75
ssg63
g4628
sg56
(lp4635
S'meta'
p4636
asbag49
(g70
g51
NtRp4637
(dp4638
g54
(dp4639
g81
g82
ssg63
g4628
sg56
(lp4640
S':'
asbag49
(g70
g51
NtRp4641
(dp4642
g54
(dp4643
sg63
g4628
sg56
(lp4644
g49
(g50
g51
NtRp4645
(dp4646
g54
(dp4647
g62
I5
ssg63
g4641
sg56
(lp4648
g49
(g58
g51
NtRp4649
(dp4650
g54
(dp4651
g62
I4
ssg63
Nsg56
(lp4652
g49
(g65
g51
NtRp4653
(dp4654
g54
(dp4655
sg63
g4649
sg56
(lp4656
g49
(g70
g51
NtRp4657
(dp4658
g54
(dp4659
g74
g75
ssg63
g4653
sg56
(lp4660
S'author'
p4661
asbag49
(g70
g51
NtRp4662
(dp4663
g54
(dp4664
g81
g82
ssg63
g4653
sg56
(lp4665
S':'
asbag49
(g70
g51
NtRp4666
(dp4667
g54
(dp4668
sg63
g4653
sg56
(lp4669
g49
(g50
g51
NtRp4670
(dp4671
g54
(dp4672
g62
I4
ssg63
g4666
sg56
(lp4673
S'Your Name <you@example.com>'
p4674
asbasbasbag49
(g65
g51
NtRp4675
(dp4676
g54
(dp4677
sg63
g4649
sg56
(lp4678
g49
(g70
g51
NtRp4679
(dp4680
g54
(dp4681
g74
g75
ssg63
g4675
sg56
(lp4682
S'description'
p4683
asbag49
(g70
g51
NtRp4684
(dp4685
g54
(dp4686
g81
g82
ssg63
g4675
sg56
(lp4687
S':'
asbag49
(g70
g51
NtRp4688
(dp4689
g54
(dp4690
sg63
g4675
sg56
(lp4691
g49
(g50
g51
NtRp4692
(dp4693
g54
(dp4694
g62
I4
ssg63
g4688
sg56
(lp4695
S'a cool new app'
p4696
asbasbasbag49
(g65
g51
NtRp4697
(dp4698
g54
(dp4699
sg63
g4649
sg56
(lp4700
g49
(g70
g51
NtRp4701
(dp4702
g54
(dp4703
g74
g75
ssg63
g4697
sg56
(lp4704
S'generator'
p4705
asbag49
(g70
g51
NtRp4706
(dp4707
g54
(dp4708
g81
g82
ssg63
g4697
sg56
(lp4709
S':'
asbag49
(g70
g51
NtRp4710
(dp4711
g54
(dp4712
sg63
g4697
sg56
(lp4713
g49
(g50
g51
NtRp4714
(dp4715
g54
(dp4716
g62
I4
ssg63
g4710
sg56
(lp4717
S'Web2py Web Framework'
p4718
asbasbasbag49
(g65
g51
NtRp4719
(dp4720
g54
(dp4721
sg63
g4649
sg56
(lp4722
g49
(g70
g51
NtRp4723
(dp4724
g54
(dp4725
g74
g75
ssg63
g4719
sg56
(lp4726
S'keywords'
p4727
asbag49
(g70
g51
NtRp4728
(dp4729
g54
(dp4730
g81
g82
ssg63
g4719
sg56
(lp4731
S':'
asbag49
(g70
g51
NtRp4732
(dp4733
g54
(dp4734
sg63
g4719
sg56
(lp4735
g49
(g50
g51
NtRp4736
(dp4737
g54
(dp4738
g62
I4
ssg63
g4732
sg56
(lp4739
S'web2py, python, framework'
p4740
asbasbasbasbasbasbasbag49
(g65
g51
NtRp4741
(dp4742
g54
(dp4743
sg63
g3549
sg56
(lp4744
g49
(g70
g51
NtRp4745
(dp4746
g54
(dp4747
g74
g75
ssg63
g4741
sg56
(lp4748
S'models_to_run'
p4749
asbag49
(g70
g51
NtRp4750
(dp4751
g54
(dp4752
g81
g82
ssg63
g4741
sg56
(lp4753
S':'
asbag49
(g70
g51
NtRp4754
(dp4755
g54
(dp4756
sg63
g4741
sg56
(lp4757
g49
(g50
g51
NtRp4758
(dp4759
g54
(dp4760
g62
I5
ssg63
g4754
sg56
(lp4761
g49
(g58
g51
NtRp4762
(dp4763
g54
(dp4764
g62
I4
ssg63
Nsg56
(lp4765
g49
(g65
g51
NtRp4766
(dp4767
g54
(dp4768
sg63
g4762
sg56
(lp4769
g49
(g70
g51
NtRp4770
(dp4771
g54
(dp4772
sg63
g4766
sg56
(lp4773
g49
(g50
g51
NtRp4774
(dp4775
g54
(dp4776
g62
I4
ssg63
g4770
sg56
(lp4777
S'^\\w+\\.py$'
p4778
asbasbasbag49
(g65
g51
NtRp4779
(dp4780
g54
(dp4781
sg63
g4762
sg56
(lp4782
g49
(g70
g51
NtRp4783
(dp4784
g54
(dp4785
sg63
g4779
sg56
(lp4786
g49
(g50
g51
NtRp4787
(dp4788
g54
(dp4789
g62
I4
ssg63
g4783
sg56
(lp4790
S'^default/\\w+\\.py$'
p4791
asbasbasbag49
(g65
g51
NtRp4792
(dp4793
g54
(dp4794
sg63
g4762
sg56
(lp4795
g49
(g70
g51
NtRp4796
(dp4797
g54
(dp4798
sg63
g4792
sg56
(lp4799
g49
(g50
g51
NtRp4800
(dp4801
g54
(dp4802
g62
I4
ssg63
g4796
sg56
(lp4803
S'^default/show_image_comments/\\w+\\.py$'
p4804
asbasbasbasbasbasbasbag49
(g65
g51
NtRp4805
(dp4806
g54
(dp4807
sg63
g3549
sg56
(lp4808
g49
(g70
g51
NtRp4809
(dp4810
g54
(dp4811
g74
g75
ssg63
g4805
sg56
(lp4812
S'postprocessing'
p4813
asbag49
(g70
g51
NtRp4814
(dp4815
g54
(dp4816
g81
g82
ssg63
g4805
sg56
(lp4817
S':'
asbag49
(g70
g51
NtRp4818
(dp4819
g54
(dp4820
sg63
g4805
sg56
(lp4821
g49
(g50
g51
NtRp4822
(dp4823
g54
(dp4824
g62
I5
ssg63
g4818
sg56
(lp4825
g49
(g58
g51
NtRp4826
(dp4827
g54
(dp4828
g62
I4
ssg63
Nsg56
(lp4829
sbasbasbasbag49
(g65
g51
NtRp4830
(dp4831
g54
(dp4832
sg63
g3549
sg56
(lp4833
g49
(g70
g51
NtRp4834
(dp4835
g54
(dp4836
g74
g75
ssg63
g4830
sg56
(lp4837
S'session_cookie_expires'
p4838
asbag49
(g70
g51
NtRp4839
(dp4840
g54
(dp4841
g81
g82
ssg63
g4830
sg56
(lp4842
S':'
asbag49
(g70
g51
NtRp4843
(dp4844
g54
(dp4845
sg63
g4830
sg56
(lp4846
g49
(g50
g51
NtRp4847
(dp4848
g54
(dp4849
g62
I5
ssg63
g4843
sg56
(lp4850
S'None'
p4851
asbasbasbag49
(g65
g51
NtRp4852
(dp4853
g54
(dp4854
sg63
g3549
sg56
(lp4855
g49
(g70
g51
NtRp4856
(dp4857
g54
(dp4858
g74
g75
ssg63
g4852
sg56
(lp4859
S'session_data_name'
p4860
asbag49
(g70
g51
NtRp4861
(dp4862
g54
(dp4863
g81
g82
ssg63
g4852
sg56
(lp4864
S':'
asbag49
(g70
g51
NtRp4865
(dp4866
g54
(dp4867
sg63
g4852
sg56
(lp4868
g49
(g50
g51
NtRp4869
(dp4870
g54
(dp4871
g62
I5
ssg63
g4865
sg56
(lp4872
S'session_data_final_impulse'
p4873
asbasbasbag49
(g65
g51
NtRp4874
(dp4875
g54
(dp4876
sg63
g3549
sg56
(lp4877
g49
(g70
g51
NtRp4878
(dp4879
g54
(dp4880
g74
g75
ssg63
g4874
sg56
(lp4881
S'session_file'
p4882
asbag49
(g70
g51
NtRp4883
(dp4884
g54
(dp4885
g81
g82
ssg63
g4874
sg56
(lp4886
S':'
asbag49
(g70
g51
NtRp4887
(dp4888
g54
(dp4889
sg63
g4874
sg56
(lp4890
g49
(g50
g51
NtRp4891
(dp4892
g54
(dp4893
g62
I5
ssg63
g4887
sg56
(lp4894
S"<open file '/Users/abaric/Downloads/web2py/web2py.app/Contents/Resources/applications/Final_Impulse/sessions/127.0.0.1-038ae1e9-474e-4ce3-a220-4f787604230a', mode 'rb+' at 0x8c7b260>"
p4895
asbasbasbag49
(g65
g51
NtRp4896
(dp4897
g54
(dp4898
sg63
g3549
sg56
(lp4899
g49
(g70
g51
NtRp4900
(dp4901
g54
(dp4902
g74
g75
ssg63
g4896
sg56
(lp4903
S'session_filename'
p4904
asbag49
(g70
g51
NtRp4905
(dp4906
g54
(dp4907
g81
g82
ssg63
g4896
sg56
(lp4908
S':'
asbag49
(g70
g51
NtRp4909
(dp4910
g54
(dp4911
sg63
g4896
sg56
(lp4912
g49
(g50
g51
NtRp4913
(dp4914
g54
(dp4915
g62
I5
ssg63
g4909
sg56
(lp4916
S'/Users/abaric/Downloads/web2py/web2py.app/Contents/Resources/applications/Final_Impulse/sessions/127.0.0.1-038ae1e9-474e-4ce3-a220-4f787604230a'
p4917
asbasbasbag49
(g65
g51
NtRp4918
(dp4919
g54
(dp4920
sg63
g3549
sg56
(lp4921
g49
(g70
g51
NtRp4922
(dp4923
g54
(dp4924
g74
g75
ssg63
g4918
sg56
(lp4925
S'session_id'
p4926
asbag49
(g70
g51
NtRp4927
(dp4928
g54
(dp4929
g81
g82
ssg63
g4918
sg56
(lp4930
S':'
asbag49
(g70
g51
NtRp4931
(dp4932
g54
(dp4933
sg63
g4918
sg56
(lp4934
g49
(g50
g51
NtRp4935
(dp4936
g54
(dp4937
g62
I5
ssg63
g4931
sg56
(lp4938
g778
asbasbasbag49
(g65
g51
NtRp4939
(dp4940
g54
(dp4941
sg63
g3549
sg56
(lp4942
g49
(g70
g51
NtRp4943
(dp4944
g54
(dp4945
g74
g75
ssg63
g4939
sg56
(lp4946
S'session_id_name'
p4947
asbag49
(g70
g51
NtRp4948
(dp4949
g54
(dp4950
g81
g82
ssg63
g4939
sg56
(lp4951
S':'
asbag49
(g70
g51
NtRp4952
(dp4953
g54
(dp4954
sg63
g4939
sg56
(lp4955
g49
(g50
g51
NtRp4956
(dp4957
g54
(dp4958
g62
I5
ssg63
g4952
sg56
(lp4959
g3606
asbasbasbag49
(g65
g51
NtRp4960
(dp4961
g54
(dp4962
sg63
g3549
sg56
(lp4963
g49
(g70
g51
NtRp4964
(dp4965
g54
(dp4966
g74
g75
ssg63
g4960
sg56
(lp4967
S'session_locked'
p4968
asbag49
(g70
g51
NtRp4969
(dp4970
g54
(dp4971
g81
g82
ssg63
g4960
sg56
(lp4972
S':'
asbag49
(g70
g51
NtRp4973
(dp4974
g54
(dp4975
sg63
g4960
sg56
(lp4976
g49
(g50
g51
NtRp4977
(dp4978
g54
(dp4979
g62
I5
ssg63
g4973
sg56
(lp4980
g2031
asbasbasbag49
(g65
g51
NtRp4981
(dp4982
g54
(dp4983
sg63
g3549
sg56
(lp4984
g49
(g70
g51
NtRp4985
(dp4986
g54
(dp4987
g74
g75
ssg63
g4981
sg56
(lp4988
S'session_new'
p4989
asbag49
(g70
g51
NtRp4990
(dp4991
g54
(dp4992
g81
g82
ssg63
g4981
sg56
(lp4993
S':'
asbag49
(g70
g51
NtRp4994
(dp4995
g54
(dp4996
sg63
g4981
sg56
(lp4997
g49
(g50
g51
NtRp4998
(dp4999
g54
(dp5000
g62
I5
ssg63
g4994
sg56
(lp5001
g92
asbasbasbag49
(g65
g51
NtRp5002
(dp5003
g54
(dp5004
sg63
g3549
sg56
(lp5005
g49
(g70
g51
NtRp5006
(dp5007
g54
(dp5008
g74
g75
ssg63
g5002
sg56
(lp5009
S'session_storage_type'
p5010
asbag49
(g70
g51
NtRp5011
(dp5012
g54
(dp5013
g81
g82
ssg63
g5002
sg56
(lp5014
S':'
asbag49
(g70
g51
NtRp5015
(dp5016
g54
(dp5017
sg63
g5002
sg56
(lp5018
g49
(g50
g51
NtRp5019
(dp5020
g54
(dp5021
g62
I5
ssg63
g5015
sg56
(lp5022
g3462
asbasbasbag49
(g65
g51
NtRp5023
(dp5024
g54
(dp5025
sg63
g3549
sg56
(lp5026
g49
(g70
g51
NtRp5027
(dp5028
g54
(dp5029
g74
g75
ssg63
g5023
sg56
(lp5030
S'status'
p5031
asbag49
(g70
g51
NtRp5032
(dp5033
g54
(dp5034
g81
g82
ssg63
g5023
sg56
(lp5035
S':'
asbag49
(g70
g51
NtRp5036
(dp5037
g54
(dp5038
sg63
g5023
sg56
(lp5039
g49
(g50
g51
NtRp5040
(dp5041
g54
(dp5042
g62
I5
ssg63
g5036
sg56
(lp5043
S'200'
p5044
asbasbasbag49
(g65
g51
NtRp5045
(dp5046
g54
(dp5047
sg63
g3549
sg56
(lp5048
g49
(g70
g51
NtRp5049
(dp5050
g54
(dp5051
g74
g75
ssg63
g5045
sg56
(lp5052
S'subtitle'
p5053
asbag49
(g70
g51
NtRp5054
(dp5055
g54
(dp5056
g81
g82
ssg63
g5045
sg56
(lp5057
S':'
asbag49
(g70
g51
NtRp5058
(dp5059
g54
(dp5060
sg63
g5045
sg56
(lp5061
g49
(g50
g51
NtRp5062
(dp5063
g54
(dp5064
g62
I5
ssg63
g5058
sg56
(lp5065
g4007
(S's\r\x00\x00\x00customize me!'
tRp5066
asbasbasbag49
(g65
g51
NtRp5067
(dp5068
g54
(dp5069
sg63
g3549
sg56
(lp5070
g49
(g70
g51
NtRp5071
(dp5072
g54
(dp5073
g74
g75
ssg63
g5067
sg56
(lp5074
S'title'
p5075
asbag49
(g70
g51
NtRp5076
(dp5077
g54
(dp5078
g81
g82
ssg63
g5067
sg56
(lp5079
S':'
asbag49
(g70
g51
NtRp5080
(dp5081
g54
(dp5082
sg63
g5067
sg56
(lp5083
g49
(g50
g51
NtRp5084
(dp5085
g54
(dp5086
g62
I5
ssg63
g5080
sg56
(lp5087
S'Final Impulse'
p5088
asbasbasbag49
(g65
g51
NtRp5089
(dp5090
g54
(dp5091
sg63
g3549
sg56
(lp5092
g49
(g70
g51
NtRp5093
(dp5094
g54
(dp5095
g74
g75
ssg63
g5089
sg56
(lp5096
S'view'
p5097
asbag49
(g70
g51
NtRp5098
(dp5099
g54
(dp5100
g81
g82
ssg63
g5089
sg56
(lp5101
S':'
asbag49
(g70
g51
NtRp5102
(dp5103
g54
(dp5104
sg63
g5089
sg56
(lp5105
g49
(g50
g51
NtRp5106
(dp5107
g54
(dp5108
g62
I5
ssg63
g5102
sg56
(lp5109
S'default/show_image_comments.html'
p5110
asbasbasbasbasbsS'locals'
p5111
(dp5112
S'image_form'
p5113
S'<gluon.sqlhtml.SQLFORM object at 0x91dd1f0>'
p5114
sssS'traceback'
p5115
S'Traceback (most recent call last):\n  File "gluon/restricted.py", line 212, in restricted\n  File "/Users/abaric/Downloads/web2py/web2py.app/Contents/Resources/applications/Final_Impulse/controllers/default.py", line 181, in <module>\n  File "gluon/globals.py", line 188, in <lambda>\n  File "/Users/abaric/Downloads/web2py/web2py.app/Contents/Resources/applications/Final_Impulse/controllers/default.py", line 24, in show_image_comments\nAttributeError: \'NoneType\' object has no attribute \'id\'\n'
p5116
s.