(dp1
S'output'
p2
S"<type 'exceptions.AttributeError'> 'NoneType' object has no attribute 'id'"
p3
sS'layer'
p4
S'/Users/abaric/Downloads/web2py/web2py.app/Contents/Resources/applications/Final_Impulse/controllers/default.py'
p5
sS'code'
p6
S"from gluon.tools import datetime\nfrom gluon.tools import Auth\n        \n\ndef user():\n    return dict(form=auth())\n    \ndef load_roles():\n        session.roles=[]\n        if auth.has_membership('arts_board'):\n            session.user_arts_board_id=db(db.arts_board.email==auth.arts_board.email).select().first().id\n            a=('arts_board','index',session.user_arts_board_id)\n            session.roles.append(a)\n        return locals()\n                                      \ndef index():\n    return locals()\n\ndef download():\n    return response.download(request, db)\n\ndef show_image_comments():\n    image_form=SQLFORM(db.image,fields=['title','file'],labels={'file':'Your Image'})\n    image_form.vars.author_id=auth.user.id\n    image_form.add_button('Back', URL('index'))\n    if image_form.process().accepted:\n        response.flash='image post submitted!'\n    images=db(db.image).select(db.image.ALL, orderby=db.image.id)\n    \n    d={}\n    for image in images:\n        comments=db((db.image_comment.image_id==image.id) &\\\n                   (db.auth_user.id==db.image_comment.author_id)).select() \n        tuple_list=[]       \n        for comment in comments:\n            author=('%s %s')%(comment.auth_user.first_name,comment.auth_user.last_name)\n            body=('%s')%(comment.image_comment.body)\n            t=(author,body)\n            tuple_list.append(t)\n        d[image.id]=tuple_list\n  \n    form = SQLFORM(db.writing_comment)\n    if form.process().accepted:\n        response.flash = 'your comment is posted'\n    #images = db(db.image_comment.image_id==image.id).select()\n    return locals()\n    \ndef show_writing_comments():\n    writing_form=SQLFORM(db.writing,fields=['title','body'],labels={'body':'Insert your post'})\n    writing_form.vars.author_id=auth.user.id\n    writing_form.add_button('Back', URL('index'))\n    if writing_form.process().accepted:\n        response.flash='writing post submitted!'\n   \n    writings=db(db.writing).select(db.writing.ALL, orderby=db.writing.id)\n    d={}\n    for writing in writings:\n        comments=db((db.writing_comment.writing_id==writing.id) &\\\n                   (db.auth_user.id==db.writing_comment.author_id)).select() \n        tuple_list=[]       \n        for comment in comments:\n            author=('%s %s')%(comment.auth_user.first_name,comment.auth_user.last_name)\n            body=('%s')%(comment.writing_comment.body)\n            t=(author,body)\n            tuple_list.append(t)\n        d[writing.id]=tuple_list\n  \n    form = SQLFORM(db.writing_comment)\n    if form.process().accepted:\n        response.flash = 'your comment is posted'\n    return locals()\n\ndef show_video_comments():\n    video_form=SQLFORM(db.video,fields=['title','url_str'],labels={'url_str':'Insert url string per above directions'})\n    video_form.vars.author_id=auth.user.id\n    video_form.add_button('Back', URL('index'))\n    if video_form.process().accepted:\n        response.flash='video post submitted!'\n    \n    videos=db(db.video).select(db.video.ALL, orderby=db.video.id)\n    d={}\n    for video in videos:\n        comments=db((db.video_comment.video_id==video.id) &\\\n                   (db.auth_user.id==db.video_comment.author_id)).select() \n        tuple_list=[]       \n        for comment in comments:\n            author=('%s %s')%(comment.auth_user.first_name,comment.auth_user.last_name)\n            body=('%s')%(comment.video_comment.body)\n            t=(author,body)\n            tuple_list.append(t)\n        d[video.id]=tuple_list\n    form = SQLFORM(db.video_comment)\n    if form.process().accepted:\n        response.flash = 'your comment is posted'\n    return locals()  \n\ndef insert_writing_comment():\n    if auth.user:\n        writing_comment=request.post_vars.writing_comment\n        writing_id=request.args(0)\n        db.writing_comment.insert(author_id=auth.user.id,\n                                  writing_id=writing_id,\n                                  email=None,\n                                  body=writing_comment,\n                                  date_of_entry=datetime.datetime.today())\n        db.commit()\n       \n    else:\n        session.flash='You must log in to post a comment.'\n    redirect(URL('show_writing_comments'))\n    return locals()\n\n\ndef insert_image_comment():\n    if auth.user:\n        image_comment=request.post_vars.image_comment\n        image_id=request.args(0)\n        db.image_comment.insert(author_id=auth.user.id,\n                                  image_id=image_id,\n                                  email=None,\n                                  body=image_comment,\n                                  date_of_entry=datetime.datetime.today())\n        db.commit()\n       \n    else:\n        session.flash='You must log in to post a comment.'\n    redirect(URL('show_image_comments'))\n    return locals()\n    \ndef insert_video_comment():\n    if auth.user:\n        video_comment=request.post_vars.video_comment\n        video_id=request.args(0)\n        db.video_comment.insert(author_id=auth.user.id,\n                                  video_id=video_id,\n                                  email=None,\n                                  body=video_comment,\n                                  date_of_entry=datetime.datetime.today())\n        db.commit()\n       \n    else:\n        session.flash='You must log in to post a comment.'\n    redirect(URL('show_video_comments'))\n    return locals()\n\ndef all_media():\n    images=db(db.image).select(db.image.ALL)\n    writings=db(db.writing).select(db.image.ALL)\n    videos=db(db.video).select(db.video.ALL)\n    \n    images_with_app=[]\n    images_wo_app=[]\n    videos_with_app=[]\n    videos_wo_app=[]\n    writings_with_app=[]\n    writings_wo_app=[]\n    \n    for image in images:\n        if image.image.approved:\n            images_w_app.append(image)\n        else:\n            images_wo_app.append(image)\n            \n    for video in videos:\n        if video.video.approved:\n            videos_w_app.append(video)\n        else:\n            videos_wo_app.append(video)\n    \n    for writing in wristing:\n        if writing.writing.approved:\n            writings_w_app.append(writing)\n        else:\n            writings_wo_app.append(writing)\n    \n    return locals()\n\n\n#def update_approve():\n\nresponse._vars=response._caller(show_image_comments)\n"
p7
sS'snapshot'
p8
(dp9
S'exception'
p10
(dp11
S'__hash__'
p12
S"<method-wrapper '__hash__' of exceptions.AttributeError object at 0x993f148>"
p13
sS'__setattr__'
p14
S"<method-wrapper '__setattr__' of exceptions.AttributeError object at 0x993f148>"
p15
sS'__reduce_ex__'
p16
S'<built-in method __reduce_ex__ of exceptions.AttributeError object at 0x993f148>'
p17
sS'__getslice__'
p18
S"<method-wrapper '__getslice__' of exceptions.AttributeError object at 0x993f148>"
p19
sS'__getitem__'
p20
S"<method-wrapper '__getitem__' of exceptions.AttributeError object at 0x993f148>"
p21
sS'__setstate__'
p22
S'<built-in method __setstate__ of exceptions.AttributeError object at 0x993f148>'
p23
sS'__reduce__'
p24
S'<built-in method __reduce__ of exceptions.AttributeError object at 0x993f148>'
p25
sS'__str__'
p26
S"<method-wrapper '__str__' of exceptions.AttributeError object at 0x993f148>"
p27
sS'args'
p28
S'("\'NoneType\' object has no attribute \'id\'",)'
p29
sS'__getattribute__'
p30
S"<method-wrapper '__getattribute__' of exceptions.AttributeError object at 0x993f148>"
p31
sS'__class__'
p32
S"<type 'exceptions.AttributeError'>"
p33
sS'__delattr__'
p34
S"<method-wrapper '__delattr__' of exceptions.AttributeError object at 0x993f148>"
p35
sS'__repr__'
p36
S"<method-wrapper '__repr__' of exceptions.AttributeError object at 0x993f148>"
p37
sS'__dict__'
p38
S'{}'
p39
sS'__doc__'
p40
S"'Attribute not found.'"
p41
sS'__init__'
p42
S"<method-wrapper '__init__' of exceptions.AttributeError object at 0x993f148>"
p43
sS'__new__'
p44
S'<built-in method __new__ of type object at 0x5f94a0>'
p45
ssS'evalue'
p46
S"'NoneType' object has no attribute 'id'"
p47
sS'request'
p48
ccopy_reg
_reconstructor
p49
(cgluon.html
BEAUTIFY
p50
c__builtin__
object
p51
NtRp52
(dp53
S'attributes'
p54
(dp55
sS'components'
p56
(lp57
g49
(cgluon.html
TABLE
p58
g51
NtRp59
(dp60
g54
(dp61
S'level'
p62
I5
ssS'parent'
p63
Nsg56
(lp64
g49
(cgluon.html
TR
p65
g51
NtRp66
(dp67
g54
(dp68
sg63
g59
sg56
(lp69
g49
(cgluon.html
TD
p70
g51
NtRp71
(dp72
g54
(dp73
S'_style'
p74
S'font-weight:bold;vertical-align:top'
p75
ssg63
g66
sg56
(lp76
S'ajax'
p77
asbag49
(g70
g51
NtRp78
(dp79
g54
(dp80
S'_valign'
p81
S'top'
p82
ssg63
g66
sg56
(lp83
S':'
asbag49
(g70
g51
NtRp84
(dp85
g54
(dp86
sg63
g66
sg56
(lp87
g49
(g50
g51
NtRp88
(dp89
g54
(dp90
g62
I5
ssg63
g84
sg56
(lp91
S'False'
p92
asbasbasbag49
(g65
g51
NtRp93
(dp94
g54
(dp95
sg63
g59
sg56
(lp96
g49
(g70
g51
NtRp97
(dp98
g54
(dp99
g74
g75
ssg63
g93
sg56
(lp100
S'application'
p101
asbag49
(g70
g51
NtRp102
(dp103
g54
(dp104
g81
g82
ssg63
g93
sg56
(lp105
S':'
asbag49
(g70
g51
NtRp106
(dp107
g54
(dp108
sg63
g93
sg56
(lp109
g49
(g50
g51
NtRp110
(dp111
g54
(dp112
g62
I5
ssg63
g106
sg56
(lp113
S'Final_Impulse'
p114
asbasbasbag49
(g65
g51
NtRp115
(dp116
g54
(dp117
sg63
g59
sg56
(lp118
g49
(g70
g51
NtRp119
(dp120
g54
(dp121
g74
g75
ssg63
g115
sg56
(lp122
g28
asbag49
(g70
g51
NtRp123
(dp124
g54
(dp125
g81
g82
ssg63
g115
sg56
(lp126
S':'
asbag49
(g70
g51
NtRp127
(dp128
g54
(dp129
sg63
g115
sg56
(lp130
g49
(g50
g51
NtRp131
(dp132
g54
(dp133
g62
I5
ssg63
g127
sg56
(lp134
g49
(g58
g51
NtRp135
(dp136
g54
(dp137
g62
I4
ssg63
Nsg56
(lp138
sbasbasbasbag49
(g65
g51
NtRp139
(dp140
g54
(dp141
sg63
g59
sg56
(lp142
g49
(g70
g51
NtRp143
(dp144
g54
(dp145
g74
g75
ssg63
g139
sg56
(lp146
S'body'
p147
asbag49
(g70
g51
NtRp148
(dp149
g54
(dp150
g81
g82
ssg63
g139
sg56
(lp151
S':'
asbag49
(g70
g51
NtRp152
(dp153
g54
(dp154
sg63
g139
sg56
(lp155
g49
(g50
g51
NtRp156
(dp157
g54
(dp158
g62
I5
ssg63
g152
sg56
(lp159
S'<cStringIO.StringO object at 0x93f9880>'
p160
asbasbasbag49
(g65
g51
NtRp161
(dp162
g54
(dp163
sg63
g59
sg56
(lp164
g49
(g70
g51
NtRp165
(dp166
g54
(dp167
g74
g75
ssg63
g161
sg56
(lp168
S'cid'
p169
asbag49
(g70
g51
NtRp170
(dp171
g54
(dp172
g81
g82
ssg63
g161
sg56
(lp173
S':'
asbag49
(g70
g51
NtRp174
(dp175
g54
(dp176
sg63
g161
sg56
(lp177
g49
(g50
g51
NtRp178
(dp179
g54
(dp180
g62
I5
ssg63
g174
sg56
(lp181
S'None'
p182
asbasbasbag49
(g65
g51
NtRp183
(dp184
g54
(dp185
sg63
g59
sg56
(lp186
g49
(g70
g51
NtRp187
(dp188
g54
(dp189
g74
g75
ssg63
g183
sg56
(lp190
S'client'
p191
asbag49
(g70
g51
NtRp192
(dp193
g54
(dp194
g81
g82
ssg63
g183
sg56
(lp195
S':'
asbag49
(g70
g51
NtRp196
(dp197
g54
(dp198
sg63
g183
sg56
(lp199
g49
(g50
g51
NtRp200
(dp201
g54
(dp202
g62
I5
ssg63
g196
sg56
(lp203
S'127.0.0.1'
p204
asbasbasbag49
(g65
g51
NtRp205
(dp206
g54
(dp207
sg63
g59
sg56
(lp208
g49
(g70
g51
NtRp209
(dp210
g54
(dp211
g74
g75
ssg63
g205
sg56
(lp212
S'controller'
p213
asbag49
(g70
g51
NtRp214
(dp215
g54
(dp216
g81
g82
ssg63
g205
sg56
(lp217
S':'
asbag49
(g70
g51
NtRp218
(dp219
g54
(dp220
sg63
g205
sg56
(lp221
g49
(g50
g51
NtRp222
(dp223
g54
(dp224
g62
I5
ssg63
g218
sg56
(lp225
S'default'
p226
asbasbasbag49
(g65
g51
NtRp227
(dp228
g54
(dp229
sg63
g59
sg56
(lp230
g49
(g70
g51
NtRp231
(dp232
g54
(dp233
g74
g75
ssg63
g227
sg56
(lp234
S'cookies'
p235
asbag49
(g70
g51
NtRp236
(dp237
g54
(dp238
g81
g82
ssg63
g227
sg56
(lp239
S':'
asbag49
(g70
g51
NtRp240
(dp241
g54
(dp242
sg63
g227
sg56
(lp243
g49
(g50
g51
NtRp244
(dp245
g54
(dp246
g62
I5
ssg63
g240
sg56
(lp247
g49
(g58
g51
NtRp248
(dp249
g54
(dp250
g62
I4
ssg63
Nsg56
(lp251
g49
(g65
g51
NtRp252
(dp253
g54
(dp254
sg63
g248
sg56
(lp255
g49
(g70
g51
NtRp256
(dp257
g54
(dp258
g74
g75
ssg63
g252
sg56
(lp259
S'session_id_admin'
p260
asbag49
(g70
g51
NtRp261
(dp262
g54
(dp263
g81
g82
ssg63
g252
sg56
(lp264
S':'
asbag49
(g70
g51
NtRp265
(dp266
g54
(dp267
sg63
g252
sg56
(lp268
g49
(g50
g51
NtRp269
(dp270
g54
(dp271
g62
I4
ssg63
g265
sg56
(lp272
S'127.0.0.1-78422ea9-f684-495a-9e76-2db5117c417f'
p273
ag49
(g58
g51
NtRp274
(dp275
g54
(dp276
g62
I3
ssg63
Nsg56
(lp277
g49
(g65
g51
NtRp278
(dp279
g54
(dp280
sg63
g274
sg56
(lp281
g49
(g70
g51
NtRp282
(dp283
g54
(dp284
g74
g75
ssg63
g278
sg56
(lp285
S'comment'
p286
asbag49
(g70
g51
NtRp287
(dp288
g54
(dp289
g81
g82
ssg63
g278
sg56
(lp290
S':'
asbag49
(g70
g51
NtRp291
(dp292
g54
(dp293
sg63
g278
sg56
(lp294
g49
(g50
g51
NtRp295
(dp296
g54
(dp297
g62
I3
ssg63
g291
sg56
(lp298
S''
asbasbasbag49
(g65
g51
NtRp299
(dp300
g54
(dp301
sg63
g274
sg56
(lp302
g49
(g70
g51
NtRp303
(dp304
g54
(dp305
g74
g75
ssg63
g299
sg56
(lp306
S'domain'
p307
asbag49
(g70
g51
NtRp308
(dp309
g54
(dp310
g81
g82
ssg63
g299
sg56
(lp311
S':'
asbag49
(g70
g51
NtRp312
(dp313
g54
(dp314
sg63
g299
sg56
(lp315
g49
(g50
g51
NtRp316
(dp317
g54
(dp318
g62
I3
ssg63
g312
sg56
(lp319
S''
asbasbasbag49
(g65
g51
NtRp320
(dp321
g54
(dp322
sg63
g274
sg56
(lp323
g49
(g70
g51
NtRp324
(dp325
g54
(dp326
g74
g75
ssg63
g320
sg56
(lp327
S'expires'
p328
asbag49
(g70
g51
NtRp329
(dp330
g54
(dp331
g81
g82
ssg63
g320
sg56
(lp332
S':'
asbag49
(g70
g51
NtRp333
(dp334
g54
(dp335
sg63
g320
sg56
(lp336
g49
(g50
g51
NtRp337
(dp338
g54
(dp339
g62
I3
ssg63
g333
sg56
(lp340
S''
asbasbasbag49
(g65
g51
NtRp341
(dp342
g54
(dp343
sg63
g274
sg56
(lp344
g49
(g70
g51
NtRp345
(dp346
g54
(dp347
g74
g75
ssg63
g341
sg56
(lp348
S'max-age'
p349
asbag49
(g70
g51
NtRp350
(dp351
g54
(dp352
g81
g82
ssg63
g341
sg56
(lp353
S':'
asbag49
(g70
g51
NtRp354
(dp355
g54
(dp356
sg63
g341
sg56
(lp357
g49
(g50
g51
NtRp358
(dp359
g54
(dp360
g62
I3
ssg63
g354
sg56
(lp361
S''
asbasbasbag49
(g65
g51
NtRp362
(dp363
g54
(dp364
sg63
g274
sg56
(lp365
g49
(g70
g51
NtRp366
(dp367
g54
(dp368
g74
g75
ssg63
g362
sg56
(lp369
S'path'
p370
asbag49
(g70
g51
NtRp371
(dp372
g54
(dp373
g81
g82
ssg63
g362
sg56
(lp374
S':'
asbag49
(g70
g51
NtRp375
(dp376
g54
(dp377
sg63
g362
sg56
(lp378
g49
(g50
g51
NtRp379
(dp380
g54
(dp381
g62
I3
ssg63
g375
sg56
(lp382
S''
asbasbasbag49
(g65
g51
NtRp383
(dp384
g54
(dp385
sg63
g274
sg56
(lp386
g49
(g70
g51
NtRp387
(dp388
g54
(dp389
g74
g75
ssg63
g383
sg56
(lp390
S'secure'
p391
asbag49
(g70
g51
NtRp392
(dp393
g54
(dp394
g81
g82
ssg63
g383
sg56
(lp395
S':'
asbag49
(g70
g51
NtRp396
(dp397
g54
(dp398
sg63
g383
sg56
(lp399
g49
(g50
g51
NtRp400
(dp401
g54
(dp402
g62
I3
ssg63
g396
sg56
(lp403
S''
asbasbasbag49
(g65
g51
NtRp404
(dp405
g54
(dp406
sg63
g274
sg56
(lp407
g49
(g70
g51
NtRp408
(dp409
g54
(dp410
g74
g75
ssg63
g404
sg56
(lp411
S'version'
p412
asbag49
(g70
g51
NtRp413
(dp414
g54
(dp415
g81
g82
ssg63
g404
sg56
(lp416
S':'
asbag49
(g70
g51
NtRp417
(dp418
g54
(dp419
sg63
g404
sg56
(lp420
g49
(g50
g51
NtRp421
(dp422
g54
(dp423
g62
I3
ssg63
g417
sg56
(lp424
S''
asbasbasbasbasbasbasbag49
(g65
g51
NtRp425
(dp426
g54
(dp427
sg63
g248
sg56
(lp428
g49
(g70
g51
NtRp429
(dp430
g54
(dp431
g74
g75
ssg63
g425
sg56
(lp432
S'session_id_course_recommendations'
p433
asbag49
(g70
g51
NtRp434
(dp435
g54
(dp436
g81
g82
ssg63
g425
sg56
(lp437
S':'
asbag49
(g70
g51
NtRp438
(dp439
g54
(dp440
sg63
g425
sg56
(lp441
g49
(g50
g51
NtRp442
(dp443
g54
(dp444
g62
I4
ssg63
g438
sg56
(lp445
S'127.0.0.1-cb8f05e9-0587-4e87-8439-3e1e68871c8f'
p446
ag49
(g58
g51
NtRp447
(dp448
g54
(dp449
g62
I3
ssg63
Nsg56
(lp450
g49
(g65
g51
NtRp451
(dp452
g54
(dp453
sg63
g447
sg56
(lp454
g49
(g70
g51
NtRp455
(dp456
g54
(dp457
g74
g75
ssg63
g451
sg56
(lp458
g286
asbag49
(g70
g51
NtRp459
(dp460
g54
(dp461
g81
g82
ssg63
g451
sg56
(lp462
S':'
asbag49
(g70
g51
NtRp463
(dp464
g54
(dp465
sg63
g451
sg56
(lp466
g49
(g50
g51
NtRp467
(dp468
g54
(dp469
g62
I3
ssg63
g463
sg56
(lp470
S''
asbasbasbag49
(g65
g51
NtRp471
(dp472
g54
(dp473
sg63
g447
sg56
(lp474
g49
(g70
g51
NtRp475
(dp476
g54
(dp477
g74
g75
ssg63
g471
sg56
(lp478
g307
asbag49
(g70
g51
NtRp479
(dp480
g54
(dp481
g81
g82
ssg63
g471
sg56
(lp482
S':'
asbag49
(g70
g51
NtRp483
(dp484
g54
(dp485
sg63
g471
sg56
(lp486
g49
(g50
g51
NtRp487
(dp488
g54
(dp489
g62
I3
ssg63
g483
sg56
(lp490
S''
asbasbasbag49
(g65
g51
NtRp491
(dp492
g54
(dp493
sg63
g447
sg56
(lp494
g49
(g70
g51
NtRp495
(dp496
g54
(dp497
g74
g75
ssg63
g491
sg56
(lp498
g328
asbag49
(g70
g51
NtRp499
(dp500
g54
(dp501
g81
g82
ssg63
g491
sg56
(lp502
S':'
asbag49
(g70
g51
NtRp503
(dp504
g54
(dp505
sg63
g491
sg56
(lp506
g49
(g50
g51
NtRp507
(dp508
g54
(dp509
g62
I3
ssg63
g503
sg56
(lp510
S''
asbasbasbag49
(g65
g51
NtRp511
(dp512
g54
(dp513
sg63
g447
sg56
(lp514
g49
(g70
g51
NtRp515
(dp516
g54
(dp517
g74
g75
ssg63
g511
sg56
(lp518
g349
asbag49
(g70
g51
NtRp519
(dp520
g54
(dp521
g81
g82
ssg63
g511
sg56
(lp522
S':'
asbag49
(g70
g51
NtRp523
(dp524
g54
(dp525
sg63
g511
sg56
(lp526
g49
(g50
g51
NtRp527
(dp528
g54
(dp529
g62
I3
ssg63
g523
sg56
(lp530
S''
asbasbasbag49
(g65
g51
NtRp531
(dp532
g54
(dp533
sg63
g447
sg56
(lp534
g49
(g70
g51
NtRp535
(dp536
g54
(dp537
g74
g75
ssg63
g531
sg56
(lp538
g370
asbag49
(g70
g51
NtRp539
(dp540
g54
(dp541
g81
g82
ssg63
g531
sg56
(lp542
S':'
asbag49
(g70
g51
NtRp543
(dp544
g54
(dp545
sg63
g531
sg56
(lp546
g49
(g50
g51
NtRp547
(dp548
g54
(dp549
g62
I3
ssg63
g543
sg56
(lp550
S''
asbasbasbag49
(g65
g51
NtRp551
(dp552
g54
(dp553
sg63
g447
sg56
(lp554
g49
(g70
g51
NtRp555
(dp556
g54
(dp557
g74
g75
ssg63
g551
sg56
(lp558
g391
asbag49
(g70
g51
NtRp559
(dp560
g54
(dp561
g81
g82
ssg63
g551
sg56
(lp562
S':'
asbag49
(g70
g51
NtRp563
(dp564
g54
(dp565
sg63
g551
sg56
(lp566
g49
(g50
g51
NtRp567
(dp568
g54
(dp569
g62
I3
ssg63
g563
sg56
(lp570
S''
asbasbasbag49
(g65
g51
NtRp571
(dp572
g54
(dp573
sg63
g447
sg56
(lp574
g49
(g70
g51
NtRp575
(dp576
g54
(dp577
g74
g75
ssg63
g571
sg56
(lp578
g412
asbag49
(g70
g51
NtRp579
(dp580
g54
(dp581
g81
g82
ssg63
g571
sg56
(lp582
S':'
asbag49
(g70
g51
NtRp583
(dp584
g54
(dp585
sg63
g571
sg56
(lp586
g49
(g50
g51
NtRp587
(dp588
g54
(dp589
g62
I3
ssg63
g583
sg56
(lp590
S''
asbasbasbasbasbasbasbag49
(g65
g51
NtRp591
(dp592
g54
(dp593
sg63
g248
sg56
(lp594
g49
(g70
g51
NtRp595
(dp596
g54
(dp597
g74
g75
ssg63
g591
sg56
(lp598
S'session_id_final_impulse'
p599
asbag49
(g70
g51
NtRp600
(dp601
g54
(dp602
g81
g82
ssg63
g591
sg56
(lp603
S':'
asbag49
(g70
g51
NtRp604
(dp605
g54
(dp606
sg63
g591
sg56
(lp607
g49
(g50
g51
NtRp608
(dp609
g54
(dp610
g62
I4
ssg63
g604
sg56
(lp611
S'127.0.0.1-196d16f0-df2a-4177-8038-20bcfac6a099'
p612
ag49
(g58
g51
NtRp613
(dp614
g54
(dp615
g62
I3
ssg63
Nsg56
(lp616
g49
(g65
g51
NtRp617
(dp618
g54
(dp619
sg63
g613
sg56
(lp620
g49
(g70
g51
NtRp621
(dp622
g54
(dp623
g74
g75
ssg63
g617
sg56
(lp624
g286
asbag49
(g70
g51
NtRp625
(dp626
g54
(dp627
g81
g82
ssg63
g617
sg56
(lp628
S':'
asbag49
(g70
g51
NtRp629
(dp630
g54
(dp631
sg63
g617
sg56
(lp632
g49
(g50
g51
NtRp633
(dp634
g54
(dp635
g62
I3
ssg63
g629
sg56
(lp636
S''
asbasbasbag49
(g65
g51
NtRp637
(dp638
g54
(dp639
sg63
g613
sg56
(lp640
g49
(g70
g51
NtRp641
(dp642
g54
(dp643
g74
g75
ssg63
g637
sg56
(lp644
g307
asbag49
(g70
g51
NtRp645
(dp646
g54
(dp647
g81
g82
ssg63
g637
sg56
(lp648
S':'
asbag49
(g70
g51
NtRp649
(dp650
g54
(dp651
sg63
g637
sg56
(lp652
g49
(g50
g51
NtRp653
(dp654
g54
(dp655
g62
I3
ssg63
g649
sg56
(lp656
S''
asbasbasbag49
(g65
g51
NtRp657
(dp658
g54
(dp659
sg63
g613
sg56
(lp660
g49
(g70
g51
NtRp661
(dp662
g54
(dp663
g74
g75
ssg63
g657
sg56
(lp664
g328
asbag49
(g70
g51
NtRp665
(dp666
g54
(dp667
g81
g82
ssg63
g657
sg56
(lp668
S':'
asbag49
(g70
g51
NtRp669
(dp670
g54
(dp671
sg63
g657
sg56
(lp672
g49
(g50
g51
NtRp673
(dp674
g54
(dp675
g62
I3
ssg63
g669
sg56
(lp676
S''
asbasbasbag49
(g65
g51
NtRp677
(dp678
g54
(dp679
sg63
g613
sg56
(lp680
g49
(g70
g51
NtRp681
(dp682
g54
(dp683
g74
g75
ssg63
g677
sg56
(lp684
g349
asbag49
(g70
g51
NtRp685
(dp686
g54
(dp687
g81
g82
ssg63
g677
sg56
(lp688
S':'
asbag49
(g70
g51
NtRp689
(dp690
g54
(dp691
sg63
g677
sg56
(lp692
g49
(g50
g51
NtRp693
(dp694
g54
(dp695
g62
I3
ssg63
g689
sg56
(lp696
S''
asbasbasbag49
(g65
g51
NtRp697
(dp698
g54
(dp699
sg63
g613
sg56
(lp700
g49
(g70
g51
NtRp701
(dp702
g54
(dp703
g74
g75
ssg63
g697
sg56
(lp704
g370
asbag49
(g70
g51
NtRp705
(dp706
g54
(dp707
g81
g82
ssg63
g697
sg56
(lp708
S':'
asbag49
(g70
g51
NtRp709
(dp710
g54
(dp711
sg63
g697
sg56
(lp712
g49
(g50
g51
NtRp713
(dp714
g54
(dp715
g62
I3
ssg63
g709
sg56
(lp716
S''
asbasbasbag49
(g65
g51
NtRp717
(dp718
g54
(dp719
sg63
g613
sg56
(lp720
g49
(g70
g51
NtRp721
(dp722
g54
(dp723
g74
g75
ssg63
g717
sg56
(lp724
g391
asbag49
(g70
g51
NtRp725
(dp726
g54
(dp727
g81
g82
ssg63
g717
sg56
(lp728
S':'
asbag49
(g70
g51
NtRp729
(dp730
g54
(dp731
sg63
g717
sg56
(lp732
g49
(g50
g51
NtRp733
(dp734
g54
(dp735
g62
I3
ssg63
g729
sg56
(lp736
S''
asbasbasbag49
(g65
g51
NtRp737
(dp738
g54
(dp739
sg63
g613
sg56
(lp740
g49
(g70
g51
NtRp741
(dp742
g54
(dp743
g74
g75
ssg63
g737
sg56
(lp744
g412
asbag49
(g70
g51
NtRp745
(dp746
g54
(dp747
g81
g82
ssg63
g737
sg56
(lp748
S':'
asbag49
(g70
g51
NtRp749
(dp750
g54
(dp751
sg63
g737
sg56
(lp752
g49
(g50
g51
NtRp753
(dp754
g54
(dp755
g62
I3
ssg63
g749
sg56
(lp756
S''
asbasbasbasbasbasbasbag49
(g65
g51
NtRp757
(dp758
g54
(dp759
sg63
g248
sg56
(lp760
g49
(g70
g51
NtRp761
(dp762
g54
(dp763
g74
g75
ssg63
g757
sg56
(lp764
S'session_id_welcome'
p765
asbag49
(g70
g51
NtRp766
(dp767
g54
(dp768
g81
g82
ssg63
g757
sg56
(lp769
S':'
asbag49
(g70
g51
NtRp770
(dp771
g54
(dp772
sg63
g757
sg56
(lp773
g49
(g50
g51
NtRp774
(dp775
g54
(dp776
g62
I4
ssg63
g770
sg56
(lp777
S'127.0.0.1-606c4975-59a2-46ec-9b90-30ba0dd357a1'
p778
ag49
(g58
g51
NtRp779
(dp780
g54
(dp781
g62
I3
ssg63
Nsg56
(lp782
g49
(g65
g51
NtRp783
(dp784
g54
(dp785
sg63
g779
sg56
(lp786
g49
(g70
g51
NtRp787
(dp788
g54
(dp789
g74
g75
ssg63
g783
sg56
(lp790
g286
asbag49
(g70
g51
NtRp791
(dp792
g54
(dp793
g81
g82
ssg63
g783
sg56
(lp794
S':'
asbag49
(g70
g51
NtRp795
(dp796
g54
(dp797
sg63
g783
sg56
(lp798
g49
(g50
g51
NtRp799
(dp800
g54
(dp801
g62
I3
ssg63
g795
sg56
(lp802
S''
asbasbasbag49
(g65
g51
NtRp803
(dp804
g54
(dp805
sg63
g779
sg56
(lp806
g49
(g70
g51
NtRp807
(dp808
g54
(dp809
g74
g75
ssg63
g803
sg56
(lp810
g307
asbag49
(g70
g51
NtRp811
(dp812
g54
(dp813
g81
g82
ssg63
g803
sg56
(lp814
S':'
asbag49
(g70
g51
NtRp815
(dp816
g54
(dp817
sg63
g803
sg56
(lp818
g49
(g50
g51
NtRp819
(dp820
g54
(dp821
g62
I3
ssg63
g815
sg56
(lp822
S''
asbasbasbag49
(g65
g51
NtRp823
(dp824
g54
(dp825
sg63
g779
sg56
(lp826
g49
(g70
g51
NtRp827
(dp828
g54
(dp829
g74
g75
ssg63
g823
sg56
(lp830
g328
asbag49
(g70
g51
NtRp831
(dp832
g54
(dp833
g81
g82
ssg63
g823
sg56
(lp834
S':'
asbag49
(g70
g51
NtRp835
(dp836
g54
(dp837
sg63
g823
sg56
(lp838
g49
(g50
g51
NtRp839
(dp840
g54
(dp841
g62
I3
ssg63
g835
sg56
(lp842
S''
asbasbasbag49
(g65
g51
NtRp843
(dp844
g54
(dp845
sg63
g779
sg56
(lp846
g49
(g70
g51
NtRp847
(dp848
g54
(dp849
g74
g75
ssg63
g843
sg56
(lp850
g349
asbag49
(g70
g51
NtRp851
(dp852
g54
(dp853
g81
g82
ssg63
g843
sg56
(lp854
S':'
asbag49
(g70
g51
NtRp855
(dp856
g54
(dp857
sg63
g843
sg56
(lp858
g49
(g50
g51
NtRp859
(dp860
g54
(dp861
g62
I3
ssg63
g855
sg56
(lp862
S''
asbasbasbag49
(g65
g51
NtRp863
(dp864
g54
(dp865
sg63
g779
sg56
(lp866
g49
(g70
g51
NtRp867
(dp868
g54
(dp869
g74
g75
ssg63
g863
sg56
(lp870
g370
asbag49
(g70
g51
NtRp871
(dp872
g54
(dp873
g81
g82
ssg63
g863
sg56
(lp874
S':'
asbag49
(g70
g51
NtRp875
(dp876
g54
(dp877
sg63
g863
sg56
(lp878
g49
(g50
g51
NtRp879
(dp880
g54
(dp881
g62
I3
ssg63
g875
sg56
(lp882
S''
asbasbasbag49
(g65
g51
NtRp883
(dp884
g54
(dp885
sg63
g779
sg56
(lp886
g49
(g70
g51
NtRp887
(dp888
g54
(dp889
g74
g75
ssg63
g883
sg56
(lp890
g391
asbag49
(g70
g51
NtRp891
(dp892
g54
(dp893
g81
g82
ssg63
g883
sg56
(lp894
S':'
asbag49
(g70
g51
NtRp895
(dp896
g54
(dp897
sg63
g883
sg56
(lp898
g49
(g50
g51
NtRp899
(dp900
g54
(dp901
g62
I3
ssg63
g895
sg56
(lp902
S''
asbasbasbag49
(g65
g51
NtRp903
(dp904
g54
(dp905
sg63
g779
sg56
(lp906
g49
(g70
g51
NtRp907
(dp908
g54
(dp909
g74
g75
ssg63
g903
sg56
(lp910
g412
asbag49
(g70
g51
NtRp911
(dp912
g54
(dp913
g81
g82
ssg63
g903
sg56
(lp914
S':'
asbag49
(g70
g51
NtRp915
(dp916
g54
(dp917
sg63
g903
sg56
(lp918
g49
(g50
g51
NtRp919
(dp920
g54
(dp921
g62
I3
ssg63
g915
sg56
(lp922
S''
asbasbasbasbasbasbasbasbasbasbasbag49
(g65
g51
NtRp923
(dp924
g54
(dp925
sg63
g59
sg56
(lp926
g49
(g70
g51
NtRp927
(dp928
g54
(dp929
g74
g75
ssg63
g923
sg56
(lp930
S'env'
p931
asbag49
(g70
g51
NtRp932
(dp933
g54
(dp934
g81
g82
ssg63
g923
sg56
(lp935
S':'
asbag49
(g70
g51
NtRp936
(dp937
g54
(dp938
sg63
g923
sg56
(lp939
g49
(g50
g51
NtRp940
(dp941
g54
(dp942
g62
I5
ssg63
g936
sg56
(lp943
g49
(g58
g51
NtRp944
(dp945
g54
(dp946
g62
I4
ssg63
Nsg56
(lp947
g49
(g65
g51
NtRp948
(dp949
g54
(dp950
sg63
g944
sg56
(lp951
g49
(g70
g51
NtRp952
(dp953
g54
(dp954
g74
g75
ssg63
g948
sg56
(lp955
S'app_folders'
p956
asbag49
(g70
g51
NtRp957
(dp958
g54
(dp959
g81
g82
ssg63
g948
sg56
(lp960
S':'
asbag49
(g70
g51
NtRp961
(dp962
g54
(dp963
sg63
g948
sg56
(lp964
g49
(g50
g51
NtRp965
(dp966
g54
(dp967
g62
I4
ssg63
g961
sg56
(lp968
S"set(['/Users/abaric/Downloads/web2py/web2py.app/Contents/Resources/applications/examples/', '/Users/abaric/Downloads/web2py/web2py.app/Contents/Resources/applications/Final_Impulse/', '/Users/abaric/Downloads/web2py/web2py.app/Contents/Resources/applications/Course_Recommendations/', '/Users/abaric/Downloads/web2py/web2py.app/Contents/Resources/applications/welcome/', '/Users/abaric/Downloads/web2py/web2py.app/Contents/Resources/applications/admin/'])"
p969
asbasbasbag49
(g65
g51
NtRp970
(dp971
g54
(dp972
sg63
g944
sg56
(lp973
g49
(g70
g51
NtRp974
(dp975
g54
(dp976
g74
g75
ssg63
g970
sg56
(lp977
S'applications_parent'
p978
asbag49
(g70
g51
NtRp979
(dp980
g54
(dp981
g81
g82
ssg63
g970
sg56
(lp982
S':'
asbag49
(g70
g51
NtRp983
(dp984
g54
(dp985
sg63
g970
sg56
(lp986
g49
(g50
g51
NtRp987
(dp988
g54
(dp989
g62
I4
ssg63
g983
sg56
(lp990
S'/Users/abaric/Downloads/web2py/web2py.app/Contents/Resources'
p991
asbasbasbag49
(g65
g51
NtRp992
(dp993
g54
(dp994
sg63
g944
sg56
(lp995
g49
(g70
g51
NtRp996
(dp997
g54
(dp998
g74
g75
ssg63
g992
sg56
(lp999
S'cmd_args'
p1000
asbag49
(g70
g51
NtRp1001
(dp1002
g54
(dp1003
g81
g82
ssg63
g992
sg56
(lp1004
S':'
asbag49
(g70
g51
NtRp1005
(dp1006
g54
(dp1007
sg63
g992
sg56
(lp1008
g49
(g50
g51
NtRp1009
(dp1010
g54
(dp1011
g62
I4
ssg63
g1005
sg56
(lp1012
g49
(g58
g51
NtRp1013
(dp1014
g54
(dp1015
g62
I3
ssg63
Nsg56
(lp1016
sbasbasbasbag49
(g65
g51
NtRp1017
(dp1018
g54
(dp1019
sg63
g944
sg56
(lp1020
g49
(g70
g51
NtRp1021
(dp1022
g54
(dp1023
g74
g75
ssg63
g1017
sg56
(lp1024
S'cmd_options'
p1025
asbag49
(g70
g51
NtRp1026
(dp1027
g54
(dp1028
g81
g82
ssg63
g1017
sg56
(lp1029
S':'
asbag49
(g70
g51
NtRp1030
(dp1031
g54
(dp1032
sg63
g1017
sg56
(lp1033
g49
(g50
g51
NtRp1034
(dp1035
g54
(dp1036
g62
I4
ssg63
g1030
sg56
(lp1037
S"<Values at 0x43bc1c0: {'verbose': False, 'ip': '127.0.0.1', 'with_scheduler': False, 'ips': [], 'shutdown_timeout': 5, 'taskbar': False, 'port': 8000, 'maxthreads': None, 'softcron': False, 'server_name': 'Andrea-Barics-MacBook-Pro.local', 'bpython': False, 'nogui': False, 'pid_filename': 'httpserver.pid', 'extcron': False, 'runcron': False, 'run_system_tests': False, 'test': None, 'folder': '/Users/abaric/Downloads/web2py/web2py.app/Contents/Resources', 'config': '', 'import_models': False, 'winservice': '', 'shell': None, 'run': '', 'log_filename': 'httpserver.log', 'debuglevel': 30, 'args': [''], 'socket_timeout': 5, 'ssl_ca_certificate': None, 'scheduler': None, 'profiler_filename': None, 'ssl_private_key': '', 'scheduler_groups': None, 'password': '<ask>', 'request_queue_size': 5, 'ssl_certificate': '', 'cronjob': False, 'numthreads': None, 'quiet': False, 'interfaces': None, 'minthreads': None, 'timeout': 10, 'plain': False, 'nobanner': False}>"
p1038
asbasbasbag49
(g65
g51
NtRp1039
(dp1040
g54
(dp1041
sg63
g944
sg56
(lp1042
g49
(g70
g51
NtRp1043
(dp1044
g54
(dp1045
g74
g75
ssg63
g1039
sg56
(lp1046
S'db_sessions'
p1047
asbag49
(g70
g51
NtRp1048
(dp1049
g54
(dp1050
g81
g82
ssg63
g1039
sg56
(lp1051
S':'
asbag49
(g70
g51
NtRp1052
(dp1053
g54
(dp1054
sg63
g1039
sg56
(lp1055
g49
(g50
g51
NtRp1056
(dp1057
g54
(dp1058
g62
I4
ssg63
g1052
sg56
(lp1059
S'set([])'
p1060
asbasbasbag49
(g65
g51
NtRp1061
(dp1062
g54
(dp1063
sg63
g944
sg56
(lp1064
g49
(g70
g51
NtRp1065
(dp1066
g54
(dp1067
g74
g75
ssg63
g1061
sg56
(lp1068
S'debugging'
p1069
asbag49
(g70
g51
NtRp1070
(dp1071
g54
(dp1072
g81
g82
ssg63
g1061
sg56
(lp1073
S':'
asbag49
(g70
g51
NtRp1074
(dp1075
g54
(dp1076
sg63
g1061
sg56
(lp1077
g49
(g50
g51
NtRp1078
(dp1079
g54
(dp1080
g62
I4
ssg63
g1074
sg56
(lp1081
g92
asbasbasbag49
(g65
g51
NtRp1082
(dp1083
g54
(dp1084
sg63
g944
sg56
(lp1085
g49
(g70
g51
NtRp1086
(dp1087
g54
(dp1088
g74
g75
ssg63
g1082
sg56
(lp1089
S'gluon_parent'
p1090
asbag49
(g70
g51
NtRp1091
(dp1092
g54
(dp1093
g81
g82
ssg63
g1082
sg56
(lp1094
S':'
asbag49
(g70
g51
NtRp1095
(dp1096
g54
(dp1097
sg63
g1082
sg56
(lp1098
g49
(g50
g51
NtRp1099
(dp1100
g54
(dp1101
g62
I4
ssg63
g1095
sg56
(lp1102
S'/Users/abaric/Downloads/web2py/web2py.app/Contents/Resources'
p1103
asbasbasbag49
(g65
g51
NtRp1104
(dp1105
g54
(dp1106
sg63
g944
sg56
(lp1107
g49
(g70
g51
NtRp1108
(dp1109
g54
(dp1110
g74
g75
ssg63
g1104
sg56
(lp1111
S'http_accept'
p1112
asbag49
(g70
g51
NtRp1113
(dp1114
g54
(dp1115
g81
g82
ssg63
g1104
sg56
(lp1116
S':'
asbag49
(g70
g51
NtRp1117
(dp1118
g54
(dp1119
sg63
g1104
sg56
(lp1120
g49
(g50
g51
NtRp1121
(dp1122
g54
(dp1123
g62
I4
ssg63
g1117
sg56
(lp1124
S'text/html,application/xhtml+xml,application/xml;q=0.9,*/*;q=0.8'
p1125
asbasbasbag49
(g65
g51
NtRp1126
(dp1127
g54
(dp1128
sg63
g944
sg56
(lp1129
g49
(g70
g51
NtRp1130
(dp1131
g54
(dp1132
g74
g75
ssg63
g1126
sg56
(lp1133
S'http_accept_encoding'
p1134
asbag49
(g70
g51
NtRp1135
(dp1136
g54
(dp1137
g81
g82
ssg63
g1126
sg56
(lp1138
S':'
asbag49
(g70
g51
NtRp1139
(dp1140
g54
(dp1141
sg63
g1126
sg56
(lp1142
g49
(g50
g51
NtRp1143
(dp1144
g54
(dp1145
g62
I4
ssg63
g1139
sg56
(lp1146
S'gzip, deflate'
p1147
asbasbasbag49
(g65
g51
NtRp1148
(dp1149
g54
(dp1150
sg63
g944
sg56
(lp1151
g49
(g70
g51
NtRp1152
(dp1153
g54
(dp1154
g74
g75
ssg63
g1148
sg56
(lp1155
S'http_accept_language'
p1156
asbag49
(g70
g51
NtRp1157
(dp1158
g54
(dp1159
g81
g82
ssg63
g1148
sg56
(lp1160
S':'
asbag49
(g70
g51
NtRp1161
(dp1162
g54
(dp1163
sg63
g1148
sg56
(lp1164
g49
(g50
g51
NtRp1165
(dp1166
g54
(dp1167
g62
I4
ssg63
g1161
sg56
(lp1168
S'en-us'
p1169
asbasbasbag49
(g65
g51
NtRp1170
(dp1171
g54
(dp1172
sg63
g944
sg56
(lp1173
g49
(g70
g51
NtRp1174
(dp1175
g54
(dp1176
g74
g75
ssg63
g1170
sg56
(lp1177
S'http_connection'
p1178
asbag49
(g70
g51
NtRp1179
(dp1180
g54
(dp1181
g81
g82
ssg63
g1170
sg56
(lp1182
S':'
asbag49
(g70
g51
NtRp1183
(dp1184
g54
(dp1185
sg63
g1170
sg56
(lp1186
g49
(g50
g51
NtRp1187
(dp1188
g54
(dp1189
g62
I4
ssg63
g1183
sg56
(lp1190
S'keep-alive'
p1191
asbasbasbag49
(g65
g51
NtRp1192
(dp1193
g54
(dp1194
sg63
g944
sg56
(lp1195
g49
(g70
g51
NtRp1196
(dp1197
g54
(dp1198
g74
g75
ssg63
g1192
sg56
(lp1199
S'http_cookie'
p1200
asbag49
(g70
g51
NtRp1201
(dp1202
g54
(dp1203
g81
g82
ssg63
g1192
sg56
(lp1204
S':'
asbag49
(g70
g51
NtRp1205
(dp1206
g54
(dp1207
sg63
g1192
sg56
(lp1208
g49
(g50
g51
NtRp1209
(dp1210
g54
(dp1211
g62
I4
ssg63
g1205
sg56
(lp1212
S'session_id_final_impulse=127.0.0.1-196d16f0-df2a-4177-8038-20bcfac6a099; session_id_admin=127.0.0.1-78422ea9-f684-495a-9e76-2db5117c417f; session_id_welcome=127.0.0.1-606c4975-59a2-46ec-9b90-30ba0dd357a1; session_id_course_recommendations=127.0.0.1-cb8f05e9-0587-4e87-8439-3e1e68871c8f'
p1213
asbasbasbag49
(g65
g51
NtRp1214
(dp1215
g54
(dp1216
sg63
g944
sg56
(lp1217
g49
(g70
g51
NtRp1218
(dp1219
g54
(dp1220
g74
g75
ssg63
g1214
sg56
(lp1221
S'http_host'
p1222
asbag49
(g70
g51
NtRp1223
(dp1224
g54
(dp1225
g81
g82
ssg63
g1214
sg56
(lp1226
S':'
asbag49
(g70
g51
NtRp1227
(dp1228
g54
(dp1229
sg63
g1214
sg56
(lp1230
g49
(g50
g51
NtRp1231
(dp1232
g54
(dp1233
g62
I4
ssg63
g1227
sg56
(lp1234
S'127.0.0.1:8000'
p1235
asbasbasbag49
(g65
g51
NtRp1236
(dp1237
g54
(dp1238
sg63
g944
sg56
(lp1239
g49
(g70
g51
NtRp1240
(dp1241
g54
(dp1242
g74
g75
ssg63
g1236
sg56
(lp1243
S'http_referer'
p1244
asbag49
(g70
g51
NtRp1245
(dp1246
g54
(dp1247
g81
g82
ssg63
g1236
sg56
(lp1248
S':'
asbag49
(g70
g51
NtRp1249
(dp1250
g54
(dp1251
sg63
g1236
sg56
(lp1252
g49
(g50
g51
NtRp1253
(dp1254
g54
(dp1255
g62
I4
ssg63
g1249
sg56
(lp1256
S'http://127.0.0.1:8000/Final_Impulse/default/index'
p1257
asbasbasbag49
(g65
g51
NtRp1258
(dp1259
g54
(dp1260
sg63
g944
sg56
(lp1261
g49
(g70
g51
NtRp1262
(dp1263
g54
(dp1264
g74
g75
ssg63
g1258
sg56
(lp1265
S'http_user_agent'
p1266
asbag49
(g70
g51
NtRp1267
(dp1268
g54
(dp1269
g81
g82
ssg63
g1258
sg56
(lp1270
S':'
asbag49
(g70
g51
NtRp1271
(dp1272
g54
(dp1273
sg63
g1258
sg56
(lp1274
g49
(g50
g51
NtRp1275
(dp1276
g54
(dp1277
g62
I4
ssg63
g1271
sg56
(lp1278
S'Mozilla/5.0 (Macintosh; Intel Mac OS X 10_8_4) AppleWebKit/536.30.1 (KHTML, like Gecko) Version/6.0.5 Safari/536.30.1'
p1279
asbasbasbag49
(g65
g51
NtRp1280
(dp1281
g54
(dp1282
sg63
g944
sg56
(lp1283
g49
(g70
g51
NtRp1284
(dp1285
g54
(dp1286
g74
g75
ssg63
g1280
sg56
(lp1287
S'is_jython'
p1288
asbag49
(g70
g51
NtRp1289
(dp1290
g54
(dp1291
g81
g82
ssg63
g1280
sg56
(lp1292
S':'
asbag49
(g70
g51
NtRp1293
(dp1294
g54
(dp1295
sg63
g1280
sg56
(lp1296
g49
(g50
g51
NtRp1297
(dp1298
g54
(dp1299
g62
I4
ssg63
g1293
sg56
(lp1300
g92
asbasbasbag49
(g65
g51
NtRp1301
(dp1302
g54
(dp1303
sg63
g944
sg56
(lp1304
g49
(g70
g51
NtRp1305
(dp1306
g54
(dp1307
g74
g75
ssg63
g1301
sg56
(lp1308
S'is_pypy'
p1309
asbag49
(g70
g51
NtRp1310
(dp1311
g54
(dp1312
g81
g82
ssg63
g1301
sg56
(lp1313
S':'
asbag49
(g70
g51
NtRp1314
(dp1315
g54
(dp1316
sg63
g1301
sg56
(lp1317
g49
(g50
g51
NtRp1318
(dp1319
g54
(dp1320
g62
I4
ssg63
g1314
sg56
(lp1321
g92
asbasbasbag49
(g65
g51
NtRp1322
(dp1323
g54
(dp1324
sg63
g944
sg56
(lp1325
g49
(g70
g51
NtRp1326
(dp1327
g54
(dp1328
g74
g75
ssg63
g1322
sg56
(lp1329
S'local_hosts'
p1330
asbag49
(g70
g51
NtRp1331
(dp1332
g54
(dp1333
g81
g82
ssg63
g1322
sg56
(lp1334
S':'
asbag49
(g70
g51
NtRp1335
(dp1336
g54
(dp1337
sg63
g1322
sg56
(lp1338
g49
(g50
g51
NtRp1339
(dp1340
g54
(dp1341
g62
I4
ssg63
g1335
sg56
(lp1342
g49
(g58
g51
NtRp1343
(dp1344
g54
(dp1345
g62
I3
ssg63
Nsg56
(lp1346
g49
(g65
g51
NtRp1347
(dp1348
g54
(dp1349
sg63
g1343
sg56
(lp1350
g49
(g70
g51
NtRp1351
(dp1352
g54
(dp1353
sg63
g1347
sg56
(lp1354
g49
(g50
g51
NtRp1355
(dp1356
g54
(dp1357
g62
I3
ssg63
g1351
sg56
(lp1358
S'127.0.0.1'
p1359
asbasbasbag49
(g65
g51
NtRp1360
(dp1361
g54
(dp1362
sg63
g1343
sg56
(lp1363
g49
(g70
g51
NtRp1364
(dp1365
g54
(dp1366
sg63
g1360
sg56
(lp1367
g49
(g50
g51
NtRp1368
(dp1369
g54
(dp1370
g62
I3
ssg63
g1364
sg56
(lp1371
S'::ffff:127.0.0.1'
p1372
asbasbasbag49
(g65
g51
NtRp1373
(dp1374
g54
(dp1375
sg63
g1343
sg56
(lp1376
g49
(g70
g51
NtRp1377
(dp1378
g54
(dp1379
sg63
g1373
sg56
(lp1380
g49
(g50
g51
NtRp1381
(dp1382
g54
(dp1383
g62
I3
ssg63
g1377
sg56
(lp1384
S'Andrea-Barics-MacBook-Pro.local'
p1385
asbasbasbag49
(g65
g51
NtRp1386
(dp1387
g54
(dp1388
sg63
g1343
sg56
(lp1389
g49
(g70
g51
NtRp1390
(dp1391
g54
(dp1392
sg63
g1386
sg56
(lp1393
g49
(g50
g51
NtRp1394
(dp1395
g54
(dp1396
g62
I3
ssg63
g1390
sg56
(lp1397
S'Andrea-Barics-MacBook-Pro.local'
p1398
asbasbasbag49
(g65
g51
NtRp1399
(dp1400
g54
(dp1401
sg63
g1343
sg56
(lp1402
g49
(g70
g51
NtRp1403
(dp1404
g54
(dp1405
sg63
g1399
sg56
(lp1406
g49
(g50
g51
NtRp1407
(dp1408
g54
(dp1409
g62
I3
ssg63
g1403
sg56
(lp1410
S'127.0.0.1'
p1411
asbasbasbasbasbasbasbag49
(g65
g51
NtRp1412
(dp1413
g54
(dp1414
sg63
g944
sg56
(lp1415
g49
(g70
g51
NtRp1416
(dp1417
g54
(dp1418
g74
g75
ssg63
g1412
sg56
(lp1419
S'path_info'
p1420
asbag49
(g70
g51
NtRp1421
(dp1422
g54
(dp1423
g81
g82
ssg63
g1412
sg56
(lp1424
S':'
asbag49
(g70
g51
NtRp1425
(dp1426
g54
(dp1427
sg63
g1412
sg56
(lp1428
g49
(g50
g51
NtRp1429
(dp1430
g54
(dp1431
g62
I4
ssg63
g1425
sg56
(lp1432
S'/Final_Impulse/default/show_image_comments'
p1433
asbasbasbag49
(g65
g51
NtRp1434
(dp1435
g54
(dp1436
sg63
g944
sg56
(lp1437
g49
(g70
g51
NtRp1438
(dp1439
g54
(dp1440
g74
g75
ssg63
g1434
sg56
(lp1441
S'query_string'
p1442
asbag49
(g70
g51
NtRp1443
(dp1444
g54
(dp1445
g81
g82
ssg63
g1434
sg56
(lp1446
S':'
asbag49
(g70
g51
NtRp1447
(dp1448
g54
(dp1449
sg63
g1434
sg56
(lp1450
g49
(g50
g51
NtRp1451
(dp1452
g54
(dp1453
g62
I4
ssg63
g1447
sg56
(lp1454
S''
asbasbasbag49
(g65
g51
NtRp1455
(dp1456
g54
(dp1457
sg63
g944
sg56
(lp1458
g49
(g70
g51
NtRp1459
(dp1460
g54
(dp1461
g74
g75
ssg63
g1455
sg56
(lp1462
S'remote_addr'
p1463
asbag49
(g70
g51
NtRp1464
(dp1465
g54
(dp1466
g81
g82
ssg63
g1455
sg56
(lp1467
S':'
asbag49
(g70
g51
NtRp1468
(dp1469
g54
(dp1470
sg63
g1455
sg56
(lp1471
g49
(g50
g51
NtRp1472
(dp1473
g54
(dp1474
g62
I4
ssg63
g1468
sg56
(lp1475
g204
asbasbasbag49
(g65
g51
NtRp1476
(dp1477
g54
(dp1478
sg63
g944
sg56
(lp1479
g49
(g70
g51
NtRp1480
(dp1481
g54
(dp1482
g74
g75
ssg63
g1476
sg56
(lp1483
S'remote_port'
p1484
asbag49
(g70
g51
NtRp1485
(dp1486
g54
(dp1487
g81
g82
ssg63
g1476
sg56
(lp1488
S':'
asbag49
(g70
g51
NtRp1489
(dp1490
g54
(dp1491
sg63
g1476
sg56
(lp1492
g49
(g50
g51
NtRp1493
(dp1494
g54
(dp1495
g62
I4
ssg63
g1489
sg56
(lp1496
S'60918'
p1497
asbasbasbag49
(g65
g51
NtRp1498
(dp1499
g54
(dp1500
sg63
g944
sg56
(lp1501
g49
(g70
g51
NtRp1502
(dp1503
g54
(dp1504
g74
g75
ssg63
g1498
sg56
(lp1505
S'request_method'
p1506
asbag49
(g70
g51
NtRp1507
(dp1508
g54
(dp1509
g81
g82
ssg63
g1498
sg56
(lp1510
S':'
asbag49
(g70
g51
NtRp1511
(dp1512
g54
(dp1513
sg63
g1498
sg56
(lp1514
g49
(g50
g51
NtRp1515
(dp1516
g54
(dp1517
g62
I4
ssg63
g1511
sg56
(lp1518
S'GET'
p1519
asbasbasbag49
(g65
g51
NtRp1520
(dp1521
g54
(dp1522
sg63
g944
sg56
(lp1523
g49
(g70
g51
NtRp1524
(dp1525
g54
(dp1526
g74
g75
ssg63
g1520
sg56
(lp1527
S'request_uri'
p1528
asbag49
(g70
g51
NtRp1529
(dp1530
g54
(dp1531
g81
g82
ssg63
g1520
sg56
(lp1532
S':'
asbag49
(g70
g51
NtRp1533
(dp1534
g54
(dp1535
sg63
g1520
sg56
(lp1536
g49
(g50
g51
NtRp1537
(dp1538
g54
(dp1539
g62
I4
ssg63
g1533
sg56
(lp1540
g1433
asbasbasbag49
(g65
g51
NtRp1541
(dp1542
g54
(dp1543
sg63
g944
sg56
(lp1544
g49
(g70
g51
NtRp1545
(dp1546
g54
(dp1547
g74
g75
ssg63
g1541
sg56
(lp1548
S'script_name'
p1549
asbag49
(g70
g51
NtRp1550
(dp1551
g54
(dp1552
g81
g82
ssg63
g1541
sg56
(lp1553
S':'
asbag49
(g70
g51
NtRp1554
(dp1555
g54
(dp1556
sg63
g1541
sg56
(lp1557
g49
(g50
g51
NtRp1558
(dp1559
g54
(dp1560
g62
I4
ssg63
g1554
sg56
(lp1561
S''
asbasbasbag49
(g65
g51
NtRp1562
(dp1563
g54
(dp1564
sg63
g944
sg56
(lp1565
g49
(g70
g51
NtRp1566
(dp1567
g54
(dp1568
g74
g75
ssg63
g1562
sg56
(lp1569
S'server_name'
p1570
asbag49
(g70
g51
NtRp1571
(dp1572
g54
(dp1573
g81
g82
ssg63
g1562
sg56
(lp1574
S':'
asbag49
(g70
g51
NtRp1575
(dp1576
g54
(dp1577
sg63
g1562
sg56
(lp1578
g49
(g50
g51
NtRp1579
(dp1580
g54
(dp1581
g62
I4
ssg63
g1575
sg56
(lp1582
g1398
asbasbasbag49
(g65
g51
NtRp1583
(dp1584
g54
(dp1585
sg63
g944
sg56
(lp1586
g49
(g70
g51
NtRp1587
(dp1588
g54
(dp1589
g74
g75
ssg63
g1583
sg56
(lp1590
S'server_port'
p1591
asbag49
(g70
g51
NtRp1592
(dp1593
g54
(dp1594
g81
g82
ssg63
g1583
sg56
(lp1595
S':'
asbag49
(g70
g51
NtRp1596
(dp1597
g54
(dp1598
sg63
g1583
sg56
(lp1599
g49
(g50
g51
NtRp1600
(dp1601
g54
(dp1602
g62
I4
ssg63
g1596
sg56
(lp1603
S'8000'
p1604
asbasbasbag49
(g65
g51
NtRp1605
(dp1606
g54
(dp1607
sg63
g944
sg56
(lp1608
g49
(g70
g51
NtRp1609
(dp1610
g54
(dp1611
g74
g75
ssg63
g1605
sg56
(lp1612
S'server_protocol'
p1613
asbag49
(g70
g51
NtRp1614
(dp1615
g54
(dp1616
g81
g82
ssg63
g1605
sg56
(lp1617
S':'
asbag49
(g70
g51
NtRp1618
(dp1619
g54
(dp1620
sg63
g1605
sg56
(lp1621
g49
(g50
g51
NtRp1622
(dp1623
g54
(dp1624
g62
I4
ssg63
g1618
sg56
(lp1625
S'HTTP/1.1'
p1626
asbasbasbag49
(g65
g51
NtRp1627
(dp1628
g54
(dp1629
sg63
g944
sg56
(lp1630
g49
(g70
g51
NtRp1631
(dp1632
g54
(dp1633
g74
g75
ssg63
g1627
sg56
(lp1634
S'server_software'
p1635
asbag49
(g70
g51
NtRp1636
(dp1637
g54
(dp1638
g81
g82
ssg63
g1627
sg56
(lp1639
S':'
asbag49
(g70
g51
NtRp1640
(dp1641
g54
(dp1642
sg63
g1627
sg56
(lp1643
g49
(g50
g51
NtRp1644
(dp1645
g54
(dp1646
g62
I4
ssg63
g1640
sg56
(lp1647
S'Rocket 1.2.5'
p1648
asbasbasbag49
(g65
g51
NtRp1649
(dp1650
g54
(dp1651
sg63
g944
sg56
(lp1652
g49
(g70
g51
NtRp1653
(dp1654
g54
(dp1655
g74
g75
ssg63
g1649
sg56
(lp1656
S'web2py_path'
p1657
asbag49
(g70
g51
NtRp1658
(dp1659
g54
(dp1660
g81
g82
ssg63
g1649
sg56
(lp1661
S':'
asbag49
(g70
g51
NtRp1662
(dp1663
g54
(dp1664
sg63
g1649
sg56
(lp1665
g49
(g50
g51
NtRp1666
(dp1667
g54
(dp1668
g62
I4
ssg63
g1662
sg56
(lp1669
g991
asbasbasbag49
(g65
g51
NtRp1670
(dp1671
g54
(dp1672
sg63
g944
sg56
(lp1673
g49
(g70
g51
NtRp1674
(dp1675
g54
(dp1676
g74
g75
ssg63
g1670
sg56
(lp1677
S'web2py_version'
p1678
asbag49
(g70
g51
NtRp1679
(dp1680
g54
(dp1681
g81
g82
ssg63
g1670
sg56
(lp1682
S':'
asbag49
(g70
g51
NtRp1683
(dp1684
g54
(dp1685
sg63
g1670
sg56
(lp1686
g49
(g50
g51
NtRp1687
(dp1688
g54
(dp1689
g62
I4
ssg63
g1683
sg56
(lp1690
g49
(g58
g51
NtRp1691
(dp1692
g54
(dp1693
g62
I3
ssg63
Nsg56
(lp1694
g49
(g65
g51
NtRp1695
(dp1696
g54
(dp1697
sg63
g1691
sg56
(lp1698
g49
(g70
g51
NtRp1699
(dp1700
g54
(dp1701
sg63
g1695
sg56
(lp1702
g49
(g50
g51
NtRp1703
(dp1704
g54
(dp1705
g62
I3
ssg63
g1699
sg56
(lp1706
S'2'
asbasbasbag49
(g65
g51
NtRp1707
(dp1708
g54
(dp1709
sg63
g1691
sg56
(lp1710
g49
(g70
g51
NtRp1711
(dp1712
g54
(dp1713
sg63
g1707
sg56
(lp1714
g49
(g50
g51
NtRp1715
(dp1716
g54
(dp1717
g62
I3
ssg63
g1711
sg56
(lp1718
S'2'
asbasbasbag49
(g65
g51
NtRp1719
(dp1720
g54
(dp1721
sg63
g1691
sg56
(lp1722
g49
(g70
g51
NtRp1723
(dp1724
g54
(dp1725
sg63
g1719
sg56
(lp1726
g49
(g50
g51
NtRp1727
(dp1728
g54
(dp1729
g62
I3
ssg63
g1723
sg56
(lp1730
S'1'
asbasbasbag49
(g65
g51
NtRp1731
(dp1732
g54
(dp1733
sg63
g1691
sg56
(lp1734
g49
(g70
g51
NtRp1735
(dp1736
g54
(dp1737
sg63
g1731
sg56
(lp1738
g49
(g50
g51
NtRp1739
(dp1740
g54
(dp1741
g62
I3
ssg63
g1735
sg56
(lp1742
S'datetime.datetime(2012, 10, 21, 16, 57, 4)'
p1743
asbasbasbag49
(g65
g51
NtRp1744
(dp1745
g54
(dp1746
sg63
g1691
sg56
(lp1747
g49
(g70
g51
NtRp1748
(dp1749
g54
(dp1750
sg63
g1744
sg56
(lp1751
g49
(g50
g51
NtRp1752
(dp1753
g54
(dp1754
g62
I3
ssg63
g1748
sg56
(lp1755
S'stable'
p1756
asbasbasbasbasbasbasbag49
(g65
g51
NtRp1757
(dp1758
g54
(dp1759
sg63
g944
sg56
(lp1760
g49
(g70
g51
NtRp1761
(dp1762
g54
(dp1763
g74
g75
ssg63
g1757
sg56
(lp1764
S'wsgi_errors'
p1765
asbag49
(g70
g51
NtRp1766
(dp1767
g54
(dp1768
g81
g82
ssg63
g1757
sg56
(lp1769
S':'
asbag49
(g70
g51
NtRp1770
(dp1771
g54
(dp1772
sg63
g1757
sg56
(lp1773
g49
(g50
g51
NtRp1774
(dp1775
g54
(dp1776
g62
I4
ssg63
g1770
sg56
(lp1777
S"<open file '<stderr>', mode 'w' at 0x540b0>"
p1778
asbasbasbag49
(g65
g51
NtRp1779
(dp1780
g54
(dp1781
sg63
g944
sg56
(lp1782
g49
(g70
g51
NtRp1783
(dp1784
g54
(dp1785
g74
g75
ssg63
g1779
sg56
(lp1786
S'wsgi_file_wrapper'
p1787
asbag49
(g70
g51
NtRp1788
(dp1789
g54
(dp1790
g81
g82
ssg63
g1779
sg56
(lp1791
S':'
asbag49
(g70
g51
NtRp1792
(dp1793
g54
(dp1794
sg63
g1779
sg56
(lp1795
g49
(g50
g51
NtRp1796
(dp1797
g54
(dp1798
g62
I4
ssg63
g1792
sg56
(lp1799
S'<class wsgiref.util.FileWrapper at 0x45782d0>'
p1800
asbasbasbag49
(g65
g51
NtRp1801
(dp1802
g54
(dp1803
sg63
g944
sg56
(lp1804
g49
(g70
g51
NtRp1805
(dp1806
g54
(dp1807
g74
g75
ssg63
g1801
sg56
(lp1808
S'wsgi_input'
p1809
asbag49
(g70
g51
NtRp1810
(dp1811
g54
(dp1812
g81
g82
ssg63
g1801
sg56
(lp1813
S':'
asbag49
(g70
g51
NtRp1814
(dp1815
g54
(dp1816
sg63
g1801
sg56
(lp1817
g49
(g50
g51
NtRp1818
(dp1819
g54
(dp1820
g62
I4
ssg63
g1814
sg56
(lp1821
S'<socket._fileobject object at 0x9402930>'
p1822
asbasbasbag49
(g65
g51
NtRp1823
(dp1824
g54
(dp1825
sg63
g944
sg56
(lp1826
g49
(g70
g51
NtRp1827
(dp1828
g54
(dp1829
g74
g75
ssg63
g1823
sg56
(lp1830
S'wsgi_multiprocess'
p1831
asbag49
(g70
g51
NtRp1832
(dp1833
g54
(dp1834
g81
g82
ssg63
g1823
sg56
(lp1835
S':'
asbag49
(g70
g51
NtRp1836
(dp1837
g54
(dp1838
sg63
g1823
sg56
(lp1839
g49
(g50
g51
NtRp1840
(dp1841
g54
(dp1842
g62
I4
ssg63
g1836
sg56
(lp1843
g92
asbasbasbag49
(g65
g51
NtRp1844
(dp1845
g54
(dp1846
sg63
g944
sg56
(lp1847
g49
(g70
g51
NtRp1848
(dp1849
g54
(dp1850
g74
g75
ssg63
g1844
sg56
(lp1851
S'wsgi_multithread'
p1852
asbag49
(g70
g51
NtRp1853
(dp1854
g54
(dp1855
g81
g82
ssg63
g1844
sg56
(lp1856
S':'
asbag49
(g70
g51
NtRp1857
(dp1858
g54
(dp1859
sg63
g1844
sg56
(lp1860
g49
(g50
g51
NtRp1861
(dp1862
g54
(dp1863
g62
I4
ssg63
g1857
sg56
(lp1864
S'True'
p1865
asbasbasbag49
(g65
g51
NtRp1866
(dp1867
g54
(dp1868
sg63
g944
sg56
(lp1869
g49
(g70
g51
NtRp1870
(dp1871
g54
(dp1872
g74
g75
ssg63
g1866
sg56
(lp1873
S'wsgi_run_once'
p1874
asbag49
(g70
g51
NtRp1875
(dp1876
g54
(dp1877
g81
g82
ssg63
g1866
sg56
(lp1878
S':'
asbag49
(g70
g51
NtRp1879
(dp1880
g54
(dp1881
sg63
g1866
sg56
(lp1882
g49
(g50
g51
NtRp1883
(dp1884
g54
(dp1885
g62
I4
ssg63
g1879
sg56
(lp1886
g92
asbasbasbag49
(g65
g51
NtRp1887
(dp1888
g54
(dp1889
sg63
g944
sg56
(lp1890
g49
(g70
g51
NtRp1891
(dp1892
g54
(dp1893
g74
g75
ssg63
g1887
sg56
(lp1894
S'wsgi_url_scheme'
p1895
asbag49
(g70
g51
NtRp1896
(dp1897
g54
(dp1898
g81
g82
ssg63
g1887
sg56
(lp1899
S':'
asbag49
(g70
g51
NtRp1900
(dp1901
g54
(dp1902
sg63
g1887
sg56
(lp1903
g49
(g50
g51
NtRp1904
(dp1905
g54
(dp1906
g62
I4
ssg63
g1900
sg56
(lp1907
S'http'
p1908
asbasbasbag49
(g65
g51
NtRp1909
(dp1910
g54
(dp1911
sg63
g944
sg56
(lp1912
g49
(g70
g51
NtRp1913
(dp1914
g54
(dp1915
g74
g75
ssg63
g1909
sg56
(lp1916
S'wsgi_version'
p1917
asbag49
(g70
g51
NtRp1918
(dp1919
g54
(dp1920
g81
g82
ssg63
g1909
sg56
(lp1921
S':'
asbag49
(g70
g51
NtRp1922
(dp1923
g54
(dp1924
sg63
g1909
sg56
(lp1925
g49
(g50
g51
NtRp1926
(dp1927
g54
(dp1928
g62
I4
ssg63
g1922
sg56
(lp1929
g49
(g58
g51
NtRp1930
(dp1931
g54
(dp1932
g62
I3
ssg63
Nsg56
(lp1933
g49
(g65
g51
NtRp1934
(dp1935
g54
(dp1936
sg63
g1930
sg56
(lp1937
g49
(g70
g51
NtRp1938
(dp1939
g54
(dp1940
sg63
g1934
sg56
(lp1941
g49
(g50
g51
NtRp1942
(dp1943
g54
(dp1944
g62
I3
ssg63
g1938
sg56
(lp1945
S'1'
asbasbasbag49
(g65
g51
NtRp1946
(dp1947
g54
(dp1948
sg63
g1930
sg56
(lp1949
g49
(g70
g51
NtRp1950
(dp1951
g54
(dp1952
sg63
g1946
sg56
(lp1953
g49
(g50
g51
NtRp1954
(dp1955
g54
(dp1956
g62
I3
ssg63
g1950
sg56
(lp1957
S'0'
asbasbasbasbasbasbasbasbasbasbasbag49
(g65
g51
NtRp1958
(dp1959
g54
(dp1960
sg63
g59
sg56
(lp1961
g49
(g70
g51
NtRp1962
(dp1963
g54
(dp1964
g74
g75
ssg63
g1958
sg56
(lp1965
S'extension'
p1966
asbag49
(g70
g51
NtRp1967
(dp1968
g54
(dp1969
g81
g82
ssg63
g1958
sg56
(lp1970
S':'
asbag49
(g70
g51
NtRp1971
(dp1972
g54
(dp1973
sg63
g1958
sg56
(lp1974
g49
(g50
g51
NtRp1975
(dp1976
g54
(dp1977
g62
I5
ssg63
g1971
sg56
(lp1978
S'html'
p1979
asbasbasbag49
(g65
g51
NtRp1980
(dp1981
g54
(dp1982
sg63
g59
sg56
(lp1983
g49
(g70
g51
NtRp1984
(dp1985
g54
(dp1986
g74
g75
ssg63
g1980
sg56
(lp1987
S'folder'
p1988
asbag49
(g70
g51
NtRp1989
(dp1990
g54
(dp1991
g81
g82
ssg63
g1980
sg56
(lp1992
S':'
asbag49
(g70
g51
NtRp1993
(dp1994
g54
(dp1995
sg63
g1980
sg56
(lp1996
g49
(g50
g51
NtRp1997
(dp1998
g54
(dp1999
g62
I5
ssg63
g1993
sg56
(lp2000
S'/Users/abaric/Downloads/web2py/web2py.app/Contents/Resources/applications/Final_Impulse/'
p2001
asbasbasbag49
(g65
g51
NtRp2002
(dp2003
g54
(dp2004
sg63
g59
sg56
(lp2005
g49
(g70
g51
NtRp2006
(dp2007
g54
(dp2008
g74
g75
ssg63
g2002
sg56
(lp2009
S'function'
p2010
asbag49
(g70
g51
NtRp2011
(dp2012
g54
(dp2013
g81
g82
ssg63
g2002
sg56
(lp2014
S':'
asbag49
(g70
g51
NtRp2015
(dp2016
g54
(dp2017
sg63
g2002
sg56
(lp2018
g49
(g50
g51
NtRp2019
(dp2020
g54
(dp2021
g62
I5
ssg63
g2015
sg56
(lp2022
S'show_image_comments'
p2023
asbasbasbag49
(g65
g51
NtRp2024
(dp2025
g54
(dp2026
sg63
g59
sg56
(lp2027
g49
(g70
g51
NtRp2028
(dp2029
g54
(dp2030
g74
g75
ssg63
g2024
sg56
(lp2031
S'get_vars'
p2032
asbag49
(g70
g51
NtRp2033
(dp2034
g54
(dp2035
g81
g82
ssg63
g2024
sg56
(lp2036
S':'
asbag49
(g70
g51
NtRp2037
(dp2038
g54
(dp2039
sg63
g2024
sg56
(lp2040
g49
(g50
g51
NtRp2041
(dp2042
g54
(dp2043
g62
I5
ssg63
g2037
sg56
(lp2044
g49
(g58
g51
NtRp2045
(dp2046
g54
(dp2047
g62
I4
ssg63
Nsg56
(lp2048
sbasbasbasbag49
(g65
g51
NtRp2049
(dp2050
g54
(dp2051
sg63
g59
sg56
(lp2052
g49
(g70
g51
NtRp2053
(dp2054
g54
(dp2055
g74
g75
ssg63
g2049
sg56
(lp2056
S'global_settings'
p2057
asbag49
(g70
g51
NtRp2058
(dp2059
g54
(dp2060
g81
g82
ssg63
g2049
sg56
(lp2061
S':'
asbag49
(g70
g51
NtRp2062
(dp2063
g54
(dp2064
sg63
g2049
sg56
(lp2065
g49
(g50
g51
NtRp2066
(dp2067
g54
(dp2068
g62
I5
ssg63
g2062
sg56
(lp2069
g49
(g58
g51
NtRp2070
(dp2071
g54
(dp2072
g62
I4
ssg63
Nsg56
(lp2073
g49
(g65
g51
NtRp2074
(dp2075
g54
(dp2076
sg63
g2070
sg56
(lp2077
g49
(g70
g51
NtRp2078
(dp2079
g54
(dp2080
g74
g75
ssg63
g2074
sg56
(lp2081
g956
asbag49
(g70
g51
NtRp2082
(dp2083
g54
(dp2084
g81
g82
ssg63
g2074
sg56
(lp2085
S':'
asbag49
(g70
g51
NtRp2086
(dp2087
g54
(dp2088
sg63
g2074
sg56
(lp2089
g49
(g50
g51
NtRp2090
(dp2091
g54
(dp2092
g62
I4
ssg63
g2086
sg56
(lp2093
S"set(['/Users/abaric/Downloads/web2py/web2py.app/Contents/Resources/applications/examples/', '/Users/abaric/Downloads/web2py/web2py.app/Contents/Resources/applications/Final_Impulse/', '/Users/abaric/Downloads/web2py/web2py.app/Contents/Resources/applications/Course_Recommendations/', '/Users/abaric/Downloads/web2py/web2py.app/Contents/Resources/applications/welcome/', '/Users/abaric/Downloads/web2py/web2py.app/Contents/Resources/applications/admin/'])"
p2094
asbasbasbag49
(g65
g51
NtRp2095
(dp2096
g54
(dp2097
sg63
g2070
sg56
(lp2098
g49
(g70
g51
NtRp2099
(dp2100
g54
(dp2101
g74
g75
ssg63
g2095
sg56
(lp2102
g978
asbag49
(g70
g51
NtRp2103
(dp2104
g54
(dp2105
g81
g82
ssg63
g2095
sg56
(lp2106
S':'
asbag49
(g70
g51
NtRp2107
(dp2108
g54
(dp2109
sg63
g2095
sg56
(lp2110
g49
(g50
g51
NtRp2111
(dp2112
g54
(dp2113
g62
I4
ssg63
g2107
sg56
(lp2114
g991
asbasbasbag49
(g65
g51
NtRp2115
(dp2116
g54
(dp2117
sg63
g2070
sg56
(lp2118
g49
(g70
g51
NtRp2119
(dp2120
g54
(dp2121
g74
g75
ssg63
g2115
sg56
(lp2122
g1000
asbag49
(g70
g51
NtRp2123
(dp2124
g54
(dp2125
g81
g82
ssg63
g2115
sg56
(lp2126
S':'
asbag49
(g70
g51
NtRp2127
(dp2128
g54
(dp2129
sg63
g2115
sg56
(lp2130
g49
(g50
g51
NtRp2131
(dp2132
g54
(dp2133
g62
I4
ssg63
g2127
sg56
(lp2134
g49
(g58
g51
NtRp2135
(dp2136
g54
(dp2137
g62
I3
ssg63
Nsg56
(lp2138
sbasbasbasbag49
(g65
g51
NtRp2139
(dp2140
g54
(dp2141
sg63
g2070
sg56
(lp2142
g49
(g70
g51
NtRp2143
(dp2144
g54
(dp2145
g74
g75
ssg63
g2139
sg56
(lp2146
g1025
asbag49
(g70
g51
NtRp2147
(dp2148
g54
(dp2149
g81
g82
ssg63
g2139
sg56
(lp2150
S':'
asbag49
(g70
g51
NtRp2151
(dp2152
g54
(dp2153
sg63
g2139
sg56
(lp2154
g49
(g50
g51
NtRp2155
(dp2156
g54
(dp2157
g62
I4
ssg63
g2151
sg56
(lp2158
S"<Values at 0x43bc1c0: {'verbose': False, 'ip': '127.0.0.1', 'with_scheduler': False, 'ips': [], 'shutdown_timeout': 5, 'taskbar': False, 'port': 8000, 'maxthreads': None, 'softcron': False, 'server_name': 'Andrea-Barics-MacBook-Pro.local', 'bpython': False, 'nogui': False, 'pid_filename': 'httpserver.pid', 'extcron': False, 'runcron': False, 'run_system_tests': False, 'test': None, 'folder': '/Users/abaric/Downloads/web2py/web2py.app/Contents/Resources', 'config': '', 'import_models': False, 'winservice': '', 'shell': None, 'run': '', 'log_filename': 'httpserver.log', 'debuglevel': 30, 'args': [''], 'socket_timeout': 5, 'ssl_ca_certificate': None, 'scheduler': None, 'profiler_filename': None, 'ssl_private_key': '', 'scheduler_groups': None, 'password': '<ask>', 'request_queue_size': 5, 'ssl_certificate': '', 'cronjob': False, 'numthreads': None, 'quiet': False, 'interfaces': None, 'minthreads': None, 'timeout': 10, 'plain': False, 'nobanner': False}>"
p2159
asbasbasbag49
(g65
g51
NtRp2160
(dp2161
g54
(dp2162
sg63
g2070
sg56
(lp2163
g49
(g70
g51
NtRp2164
(dp2165
g54
(dp2166
g74
g75
ssg63
g2160
sg56
(lp2167
g1047
asbag49
(g70
g51
NtRp2168
(dp2169
g54
(dp2170
g81
g82
ssg63
g2160
sg56
(lp2171
S':'
asbag49
(g70
g51
NtRp2172
(dp2173
g54
(dp2174
sg63
g2160
sg56
(lp2175
g49
(g50
g51
NtRp2176
(dp2177
g54
(dp2178
g62
I4
ssg63
g2172
sg56
(lp2179
S'set([])'
p2180
asbasbasbag49
(g65
g51
NtRp2181
(dp2182
g54
(dp2183
sg63
g2070
sg56
(lp2184
g49
(g70
g51
NtRp2185
(dp2186
g54
(dp2187
g74
g75
ssg63
g2181
sg56
(lp2188
g1069
asbag49
(g70
g51
NtRp2189
(dp2190
g54
(dp2191
g81
g82
ssg63
g2181
sg56
(lp2192
S':'
asbag49
(g70
g51
NtRp2193
(dp2194
g54
(dp2195
sg63
g2181
sg56
(lp2196
g49
(g50
g51
NtRp2197
(dp2198
g54
(dp2199
g62
I4
ssg63
g2193
sg56
(lp2200
g92
asbasbasbag49
(g65
g51
NtRp2201
(dp2202
g54
(dp2203
sg63
g2070
sg56
(lp2204
g49
(g70
g51
NtRp2205
(dp2206
g54
(dp2207
g74
g75
ssg63
g2201
sg56
(lp2208
g1090
asbag49
(g70
g51
NtRp2209
(dp2210
g54
(dp2211
g81
g82
ssg63
g2201
sg56
(lp2212
S':'
asbag49
(g70
g51
NtRp2213
(dp2214
g54
(dp2215
sg63
g2201
sg56
(lp2216
g49
(g50
g51
NtRp2217
(dp2218
g54
(dp2219
g62
I4
ssg63
g2213
sg56
(lp2220
g1103
asbasbasbag49
(g65
g51
NtRp2221
(dp2222
g54
(dp2223
sg63
g2070
sg56
(lp2224
g49
(g70
g51
NtRp2225
(dp2226
g54
(dp2227
g74
g75
ssg63
g2221
sg56
(lp2228
g1288
asbag49
(g70
g51
NtRp2229
(dp2230
g54
(dp2231
g81
g82
ssg63
g2221
sg56
(lp2232
S':'
asbag49
(g70
g51
NtRp2233
(dp2234
g54
(dp2235
sg63
g2221
sg56
(lp2236
g49
(g50
g51
NtRp2237
(dp2238
g54
(dp2239
g62
I4
ssg63
g2233
sg56
(lp2240
g92
asbasbasbag49
(g65
g51
NtRp2241
(dp2242
g54
(dp2243
sg63
g2070
sg56
(lp2244
g49
(g70
g51
NtRp2245
(dp2246
g54
(dp2247
g74
g75
ssg63
g2241
sg56
(lp2248
g1309
asbag49
(g70
g51
NtRp2249
(dp2250
g54
(dp2251
g81
g82
ssg63
g2241
sg56
(lp2252
S':'
asbag49
(g70
g51
NtRp2253
(dp2254
g54
(dp2255
sg63
g2241
sg56
(lp2256
g49
(g50
g51
NtRp2257
(dp2258
g54
(dp2259
g62
I4
ssg63
g2253
sg56
(lp2260
g92
asbasbasbag49
(g65
g51
NtRp2261
(dp2262
g54
(dp2263
sg63
g2070
sg56
(lp2264
g49
(g70
g51
NtRp2265
(dp2266
g54
(dp2267
g74
g75
ssg63
g2261
sg56
(lp2268
g1330
asbag49
(g70
g51
NtRp2269
(dp2270
g54
(dp2271
g81
g82
ssg63
g2261
sg56
(lp2272
S':'
asbag49
(g70
g51
NtRp2273
(dp2274
g54
(dp2275
sg63
g2261
sg56
(lp2276
g49
(g50
g51
NtRp2277
(dp2278
g54
(dp2279
g62
I4
ssg63
g2273
sg56
(lp2280
g49
(g58
g51
NtRp2281
(dp2282
g54
(dp2283
g62
I3
ssg63
Nsg56
(lp2284
g49
(g65
g51
NtRp2285
(dp2286
g54
(dp2287
sg63
g2281
sg56
(lp2288
g49
(g70
g51
NtRp2289
(dp2290
g54
(dp2291
sg63
g2285
sg56
(lp2292
g49
(g50
g51
NtRp2293
(dp2294
g54
(dp2295
g62
I3
ssg63
g2289
sg56
(lp2296
g1359
asbasbasbag49
(g65
g51
NtRp2297
(dp2298
g54
(dp2299
sg63
g2281
sg56
(lp2300
g49
(g70
g51
NtRp2301
(dp2302
g54
(dp2303
sg63
g2297
sg56
(lp2304
g49
(g50
g51
NtRp2305
(dp2306
g54
(dp2307
g62
I3
ssg63
g2301
sg56
(lp2308
g1372
asbasbasbag49
(g65
g51
NtRp2309
(dp2310
g54
(dp2311
sg63
g2281
sg56
(lp2312
g49
(g70
g51
NtRp2313
(dp2314
g54
(dp2315
sg63
g2309
sg56
(lp2316
g49
(g50
g51
NtRp2317
(dp2318
g54
(dp2319
g62
I3
ssg63
g2313
sg56
(lp2320
g1385
asbasbasbag49
(g65
g51
NtRp2321
(dp2322
g54
(dp2323
sg63
g2281
sg56
(lp2324
g49
(g70
g51
NtRp2325
(dp2326
g54
(dp2327
sg63
g2321
sg56
(lp2328
g49
(g50
g51
NtRp2329
(dp2330
g54
(dp2331
g62
I3
ssg63
g2325
sg56
(lp2332
g1398
asbasbasbag49
(g65
g51
NtRp2333
(dp2334
g54
(dp2335
sg63
g2281
sg56
(lp2336
g49
(g70
g51
NtRp2337
(dp2338
g54
(dp2339
sg63
g2333
sg56
(lp2340
g49
(g50
g51
NtRp2341
(dp2342
g54
(dp2343
g62
I3
ssg63
g2337
sg56
(lp2344
g1411
asbasbasbasbasbasbasbag49
(g65
g51
NtRp2345
(dp2346
g54
(dp2347
sg63
g2070
sg56
(lp2348
g49
(g70
g51
NtRp2349
(dp2350
g54
(dp2351
g74
g75
ssg63
g2345
sg56
(lp2352
g1678
asbag49
(g70
g51
NtRp2353
(dp2354
g54
(dp2355
g81
g82
ssg63
g2345
sg56
(lp2356
S':'
asbag49
(g70
g51
NtRp2357
(dp2358
g54
(dp2359
sg63
g2345
sg56
(lp2360
g49
(g50
g51
NtRp2361
(dp2362
g54
(dp2363
g62
I4
ssg63
g2357
sg56
(lp2364
g49
(g58
g51
NtRp2365
(dp2366
g54
(dp2367
g62
I3
ssg63
Nsg56
(lp2368
g49
(g65
g51
NtRp2369
(dp2370
g54
(dp2371
sg63
g2365
sg56
(lp2372
g49
(g70
g51
NtRp2373
(dp2374
g54
(dp2375
sg63
g2369
sg56
(lp2376
g49
(g50
g51
NtRp2377
(dp2378
g54
(dp2379
g62
I3
ssg63
g2373
sg56
(lp2380
S'2'
asbasbasbag49
(g65
g51
NtRp2381
(dp2382
g54
(dp2383
sg63
g2365
sg56
(lp2384
g49
(g70
g51
NtRp2385
(dp2386
g54
(dp2387
sg63
g2381
sg56
(lp2388
g49
(g50
g51
NtRp2389
(dp2390
g54
(dp2391
g62
I3
ssg63
g2385
sg56
(lp2392
S'2'
asbasbasbag49
(g65
g51
NtRp2393
(dp2394
g54
(dp2395
sg63
g2365
sg56
(lp2396
g49
(g70
g51
NtRp2397
(dp2398
g54
(dp2399
sg63
g2393
sg56
(lp2400
g49
(g50
g51
NtRp2401
(dp2402
g54
(dp2403
g62
I3
ssg63
g2397
sg56
(lp2404
S'1'
asbasbasbag49
(g65
g51
NtRp2405
(dp2406
g54
(dp2407
sg63
g2365
sg56
(lp2408
g49
(g70
g51
NtRp2409
(dp2410
g54
(dp2411
sg63
g2405
sg56
(lp2412
g49
(g50
g51
NtRp2413
(dp2414
g54
(dp2415
g62
I3
ssg63
g2409
sg56
(lp2416
S'datetime.datetime(2012, 10, 21, 16, 57, 4)'
p2417
asbasbasbag49
(g65
g51
NtRp2418
(dp2419
g54
(dp2420
sg63
g2365
sg56
(lp2421
g49
(g70
g51
NtRp2422
(dp2423
g54
(dp2424
sg63
g2418
sg56
(lp2425
g49
(g50
g51
NtRp2426
(dp2427
g54
(dp2428
g62
I3
ssg63
g2422
sg56
(lp2429
g1756
asbasbasbasbasbasbasbasbasbasbasbag49
(g65
g51
NtRp2430
(dp2431
g54
(dp2432
sg63
g59
sg56
(lp2433
g49
(g70
g51
NtRp2434
(dp2435
g54
(dp2436
g74
g75
ssg63
g2430
sg56
(lp2437
S'is_https'
p2438
asbag49
(g70
g51
NtRp2439
(dp2440
g54
(dp2441
g81
g82
ssg63
g2430
sg56
(lp2442
S':'
asbag49
(g70
g51
NtRp2443
(dp2444
g54
(dp2445
sg63
g2430
sg56
(lp2446
g49
(g50
g51
NtRp2447
(dp2448
g54
(dp2449
g62
I5
ssg63
g2443
sg56
(lp2450
g92
asbasbasbag49
(g65
g51
NtRp2451
(dp2452
g54
(dp2453
sg63
g59
sg56
(lp2454
g49
(g70
g51
NtRp2455
(dp2456
g54
(dp2457
g74
g75
ssg63
g2451
sg56
(lp2458
S'is_local'
p2459
asbag49
(g70
g51
NtRp2460
(dp2461
g54
(dp2462
g81
g82
ssg63
g2451
sg56
(lp2463
S':'
asbag49
(g70
g51
NtRp2464
(dp2465
g54
(dp2466
sg63
g2451
sg56
(lp2467
g49
(g50
g51
NtRp2468
(dp2469
g54
(dp2470
g62
I5
ssg63
g2464
sg56
(lp2471
g1865
asbasbasbag49
(g65
g51
NtRp2472
(dp2473
g54
(dp2474
sg63
g59
sg56
(lp2475
g49
(g70
g51
NtRp2476
(dp2477
g54
(dp2478
g74
g75
ssg63
g2472
sg56
(lp2479
S'is_restful'
p2480
asbag49
(g70
g51
NtRp2481
(dp2482
g54
(dp2483
g81
g82
ssg63
g2472
sg56
(lp2484
S':'
asbag49
(g70
g51
NtRp2485
(dp2486
g54
(dp2487
sg63
g2472
sg56
(lp2488
g49
(g50
g51
NtRp2489
(dp2490
g54
(dp2491
g62
I5
ssg63
g2485
sg56
(lp2492
g92
asbasbasbag49
(g65
g51
NtRp2493
(dp2494
g54
(dp2495
sg63
g59
sg56
(lp2496
g49
(g70
g51
NtRp2497
(dp2498
g54
(dp2499
g74
g75
ssg63
g2493
sg56
(lp2500
S'now'
p2501
asbag49
(g70
g51
NtRp2502
(dp2503
g54
(dp2504
g81
g82
ssg63
g2493
sg56
(lp2505
S':'
asbag49
(g70
g51
NtRp2506
(dp2507
g54
(dp2508
sg63
g2493
sg56
(lp2509
g49
(g50
g51
NtRp2510
(dp2511
g54
(dp2512
g62
I5
ssg63
g2506
sg56
(lp2513
S'datetime.datetime(2014, 6, 10, 23, 43, 55, 152509)'
p2514
asbasbasbag49
(g65
g51
NtRp2515
(dp2516
g54
(dp2517
sg63
g59
sg56
(lp2518
g49
(g70
g51
NtRp2519
(dp2520
g54
(dp2521
g74
g75
ssg63
g2515
sg56
(lp2522
S'post_vars'
p2523
asbag49
(g70
g51
NtRp2524
(dp2525
g54
(dp2526
g81
g82
ssg63
g2515
sg56
(lp2527
S':'
asbag49
(g70
g51
NtRp2528
(dp2529
g54
(dp2530
sg63
g2515
sg56
(lp2531
g49
(g50
g51
NtRp2532
(dp2533
g54
(dp2534
g62
I5
ssg63
g2528
sg56
(lp2535
g49
(g58
g51
NtRp2536
(dp2537
g54
(dp2538
g62
I4
ssg63
Nsg56
(lp2539
sbasbasbasbag49
(g65
g51
NtRp2540
(dp2541
g54
(dp2542
sg63
g59
sg56
(lp2543
g49
(g70
g51
NtRp2544
(dp2545
g54
(dp2546
g74
g75
ssg63
g2540
sg56
(lp2547
S'raw_args'
p2548
asbag49
(g70
g51
NtRp2549
(dp2550
g54
(dp2551
g81
g82
ssg63
g2540
sg56
(lp2552
S':'
asbag49
(g70
g51
NtRp2553
(dp2554
g54
(dp2555
sg63
g2540
sg56
(lp2556
g49
(g50
g51
NtRp2557
(dp2558
g54
(dp2559
g62
I5
ssg63
g2553
sg56
(lp2560
S''
asbasbasbag49
(g65
g51
NtRp2561
(dp2562
g54
(dp2563
sg63
g59
sg56
(lp2564
g49
(g70
g51
NtRp2565
(dp2566
g54
(dp2567
g74
g75
ssg63
g2561
sg56
(lp2568
S'raw_extension'
p2569
asbag49
(g70
g51
NtRp2570
(dp2571
g54
(dp2572
g81
g82
ssg63
g2561
sg56
(lp2573
S':'
asbag49
(g70
g51
NtRp2574
(dp2575
g54
(dp2576
sg63
g2561
sg56
(lp2577
g49
(g50
g51
NtRp2578
(dp2579
g54
(dp2580
g62
I5
ssg63
g2574
sg56
(lp2581
S'None'
p2582
asbasbasbag49
(g65
g51
NtRp2583
(dp2584
g54
(dp2585
sg63
g59
sg56
(lp2586
g49
(g70
g51
NtRp2587
(dp2588
g54
(dp2589
g74
g75
ssg63
g2583
sg56
(lp2590
S'url'
p2591
asbag49
(g70
g51
NtRp2592
(dp2593
g54
(dp2594
g81
g82
ssg63
g2583
sg56
(lp2595
S':'
asbag49
(g70
g51
NtRp2596
(dp2597
g54
(dp2598
sg63
g2583
sg56
(lp2599
g49
(g50
g51
NtRp2600
(dp2601
g54
(dp2602
g62
I5
ssg63
g2596
sg56
(lp2603
g1433
asbasbasbag49
(g65
g51
NtRp2604
(dp2605
g54
(dp2606
sg63
g59
sg56
(lp2607
g49
(g70
g51
NtRp2608
(dp2609
g54
(dp2610
g74
g75
ssg63
g2604
sg56
(lp2611
S'utcnow'
p2612
asbag49
(g70
g51
NtRp2613
(dp2614
g54
(dp2615
g81
g82
ssg63
g2604
sg56
(lp2616
S':'
asbag49
(g70
g51
NtRp2617
(dp2618
g54
(dp2619
sg63
g2604
sg56
(lp2620
g49
(g50
g51
NtRp2621
(dp2622
g54
(dp2623
g62
I5
ssg63
g2617
sg56
(lp2624
S'datetime.datetime(2014, 6, 11, 3, 43, 55, 152542)'
p2625
asbasbasbag49
(g65
g51
NtRp2626
(dp2627
g54
(dp2628
sg63
g59
sg56
(lp2629
g49
(g70
g51
NtRp2630
(dp2631
g54
(dp2632
g74
g75
ssg63
g2626
sg56
(lp2633
S'uuid'
p2634
asbag49
(g70
g51
NtRp2635
(dp2636
g54
(dp2637
g81
g82
ssg63
g2626
sg56
(lp2638
S':'
asbag49
(g70
g51
NtRp2639
(dp2640
g54
(dp2641
sg63
g2626
sg56
(lp2642
g49
(g50
g51
NtRp2643
(dp2644
g54
(dp2645
g62
I5
ssg63
g2639
sg56
(lp2646
S'Final_Impulse/127.0.0.1.2014-06-10.23-43-55.83fca26d-8a24-443c-9d18-060caaf4a2b7'
p2647
asbasbasbag49
(g65
g51
NtRp2648
(dp2649
g54
(dp2650
sg63
g59
sg56
(lp2651
g49
(g70
g51
NtRp2652
(dp2653
g54
(dp2654
g74
g75
ssg63
g2648
sg56
(lp2655
S'vars'
p2656
asbag49
(g70
g51
NtRp2657
(dp2658
g54
(dp2659
g81
g82
ssg63
g2648
sg56
(lp2660
S':'
asbag49
(g70
g51
NtRp2661
(dp2662
g54
(dp2663
sg63
g2648
sg56
(lp2664
g49
(g50
g51
NtRp2665
(dp2666
g54
(dp2667
g62
I5
ssg63
g2661
sg56
(lp2668
g49
(g58
g51
NtRp2669
(dp2670
g54
(dp2671
g62
I4
ssg63
Nsg56
(lp2672
sbasbasbasbag49
(g65
g51
NtRp2673
(dp2674
g54
(dp2675
sg63
g59
sg56
(lp2676
g49
(g70
g51
NtRp2677
(dp2678
g54
(dp2679
g74
g75
ssg63
g2673
sg56
(lp2680
S'wsgi'
p2681
asbag49
(g70
g51
NtRp2682
(dp2683
g54
(dp2684
g81
g82
ssg63
g2673
sg56
(lp2685
S':'
asbag49
(g70
g51
NtRp2686
(dp2687
g54
(dp2688
sg63
g2673
sg56
(lp2689
g49
(g50
g51
NtRp2690
(dp2691
g54
(dp2692
g62
I5
ssg63
g2686
sg56
(lp2693
g49
(g58
g51
NtRp2694
(dp2695
g54
(dp2696
g62
I4
ssg63
Nsg56
(lp2697
g49
(g65
g51
NtRp2698
(dp2699
g54
(dp2700
sg63
g2694
sg56
(lp2701
g49
(g70
g51
NtRp2702
(dp2703
g54
(dp2704
g74
g75
ssg63
g2698
sg56
(lp2705
S'environ'
p2706
asbag49
(g70
g51
NtRp2707
(dp2708
g54
(dp2709
g81
g82
ssg63
g2698
sg56
(lp2710
S':'
asbag49
(g70
g51
NtRp2711
(dp2712
g54
(dp2713
sg63
g2698
sg56
(lp2714
g49
(g50
g51
NtRp2715
(dp2716
g54
(dp2717
g62
I4
ssg63
g2711
sg56
(lp2718
g49
(g58
g51
NtRp2719
(dp2720
g54
(dp2721
g62
I3
ssg63
Nsg56
(lp2722
g49
(g65
g51
NtRp2723
(dp2724
g54
(dp2725
sg63
g2719
sg56
(lp2726
g49
(g70
g51
NtRp2727
(dp2728
g54
(dp2729
g74
g75
ssg63
g2723
sg56
(lp2730
S'HTTP_ACCEPT'
p2731
asbag49
(g70
g51
NtRp2732
(dp2733
g54
(dp2734
g81
g82
ssg63
g2723
sg56
(lp2735
S':'
asbag49
(g70
g51
NtRp2736
(dp2737
g54
(dp2738
sg63
g2723
sg56
(lp2739
g49
(g50
g51
NtRp2740
(dp2741
g54
(dp2742
g62
I3
ssg63
g2736
sg56
(lp2743
g1125
asbasbasbag49
(g65
g51
NtRp2744
(dp2745
g54
(dp2746
sg63
g2719
sg56
(lp2747
g49
(g70
g51
NtRp2748
(dp2749
g54
(dp2750
g74
g75
ssg63
g2744
sg56
(lp2751
S'HTTP_ACCEPT_ENCODING'
p2752
asbag49
(g70
g51
NtRp2753
(dp2754
g54
(dp2755
g81
g82
ssg63
g2744
sg56
(lp2756
S':'
asbag49
(g70
g51
NtRp2757
(dp2758
g54
(dp2759
sg63
g2744
sg56
(lp2760
g49
(g50
g51
NtRp2761
(dp2762
g54
(dp2763
g62
I3
ssg63
g2757
sg56
(lp2764
g1147
asbasbasbag49
(g65
g51
NtRp2765
(dp2766
g54
(dp2767
sg63
g2719
sg56
(lp2768
g49
(g70
g51
NtRp2769
(dp2770
g54
(dp2771
g74
g75
ssg63
g2765
sg56
(lp2772
S'HTTP_ACCEPT_LANGUAGE'
p2773
asbag49
(g70
g51
NtRp2774
(dp2775
g54
(dp2776
g81
g82
ssg63
g2765
sg56
(lp2777
S':'
asbag49
(g70
g51
NtRp2778
(dp2779
g54
(dp2780
sg63
g2765
sg56
(lp2781
g49
(g50
g51
NtRp2782
(dp2783
g54
(dp2784
g62
I3
ssg63
g2778
sg56
(lp2785
g1169
asbasbasbag49
(g65
g51
NtRp2786
(dp2787
g54
(dp2788
sg63
g2719
sg56
(lp2789
g49
(g70
g51
NtRp2790
(dp2791
g54
(dp2792
g74
g75
ssg63
g2786
sg56
(lp2793
S'HTTP_CONNECTION'
p2794
asbag49
(g70
g51
NtRp2795
(dp2796
g54
(dp2797
g81
g82
ssg63
g2786
sg56
(lp2798
S':'
asbag49
(g70
g51
NtRp2799
(dp2800
g54
(dp2801
sg63
g2786
sg56
(lp2802
g49
(g50
g51
NtRp2803
(dp2804
g54
(dp2805
g62
I3
ssg63
g2799
sg56
(lp2806
g1191
asbasbasbag49
(g65
g51
NtRp2807
(dp2808
g54
(dp2809
sg63
g2719
sg56
(lp2810
g49
(g70
g51
NtRp2811
(dp2812
g54
(dp2813
g74
g75
ssg63
g2807
sg56
(lp2814
S'HTTP_COOKIE'
p2815
asbag49
(g70
g51
NtRp2816
(dp2817
g54
(dp2818
g81
g82
ssg63
g2807
sg56
(lp2819
S':'
asbag49
(g70
g51
NtRp2820
(dp2821
g54
(dp2822
sg63
g2807
sg56
(lp2823
g49
(g50
g51
NtRp2824
(dp2825
g54
(dp2826
g62
I3
ssg63
g2820
sg56
(lp2827
g1213
asbasbasbag49
(g65
g51
NtRp2828
(dp2829
g54
(dp2830
sg63
g2719
sg56
(lp2831
g49
(g70
g51
NtRp2832
(dp2833
g54
(dp2834
g74
g75
ssg63
g2828
sg56
(lp2835
S'HTTP_HOST'
p2836
asbag49
(g70
g51
NtRp2837
(dp2838
g54
(dp2839
g81
g82
ssg63
g2828
sg56
(lp2840
S':'
asbag49
(g70
g51
NtRp2841
(dp2842
g54
(dp2843
sg63
g2828
sg56
(lp2844
g49
(g50
g51
NtRp2845
(dp2846
g54
(dp2847
g62
I3
ssg63
g2841
sg56
(lp2848
g1235
asbasbasbag49
(g65
g51
NtRp2849
(dp2850
g54
(dp2851
sg63
g2719
sg56
(lp2852
g49
(g70
g51
NtRp2853
(dp2854
g54
(dp2855
g74
g75
ssg63
g2849
sg56
(lp2856
S'HTTP_REFERER'
p2857
asbag49
(g70
g51
NtRp2858
(dp2859
g54
(dp2860
g81
g82
ssg63
g2849
sg56
(lp2861
S':'
asbag49
(g70
g51
NtRp2862
(dp2863
g54
(dp2864
sg63
g2849
sg56
(lp2865
g49
(g50
g51
NtRp2866
(dp2867
g54
(dp2868
g62
I3
ssg63
g2862
sg56
(lp2869
g1257
asbasbasbag49
(g65
g51
NtRp2870
(dp2871
g54
(dp2872
sg63
g2719
sg56
(lp2873
g49
(g70
g51
NtRp2874
(dp2875
g54
(dp2876
g74
g75
ssg63
g2870
sg56
(lp2877
S'HTTP_USER_AGENT'
p2878
asbag49
(g70
g51
NtRp2879
(dp2880
g54
(dp2881
g81
g82
ssg63
g2870
sg56
(lp2882
S':'
asbag49
(g70
g51
NtRp2883
(dp2884
g54
(dp2885
sg63
g2870
sg56
(lp2886
g49
(g50
g51
NtRp2887
(dp2888
g54
(dp2889
g62
I3
ssg63
g2883
sg56
(lp2890
g1279
asbasbasbag49
(g65
g51
NtRp2891
(dp2892
g54
(dp2893
sg63
g2719
sg56
(lp2894
g49
(g70
g51
NtRp2895
(dp2896
g54
(dp2897
g74
g75
ssg63
g2891
sg56
(lp2898
S'PATH_INFO'
p2899
asbag49
(g70
g51
NtRp2900
(dp2901
g54
(dp2902
g81
g82
ssg63
g2891
sg56
(lp2903
S':'
asbag49
(g70
g51
NtRp2904
(dp2905
g54
(dp2906
sg63
g2891
sg56
(lp2907
g49
(g50
g51
NtRp2908
(dp2909
g54
(dp2910
g62
I3
ssg63
g2904
sg56
(lp2911
g1433
asbasbasbag49
(g65
g51
NtRp2912
(dp2913
g54
(dp2914
sg63
g2719
sg56
(lp2915
g49
(g70
g51
NtRp2916
(dp2917
g54
(dp2918
g74
g75
ssg63
g2912
sg56
(lp2919
S'QUERY_STRING'
p2920
asbag49
(g70
g51
NtRp2921
(dp2922
g54
(dp2923
g81
g82
ssg63
g2912
sg56
(lp2924
S':'
asbag49
(g70
g51
NtRp2925
(dp2926
g54
(dp2927
sg63
g2912
sg56
(lp2928
g49
(g50
g51
NtRp2929
(dp2930
g54
(dp2931
g62
I3
ssg63
g2925
sg56
(lp2932
S''
asbasbasbag49
(g65
g51
NtRp2933
(dp2934
g54
(dp2935
sg63
g2719
sg56
(lp2936
g49
(g70
g51
NtRp2937
(dp2938
g54
(dp2939
g74
g75
ssg63
g2933
sg56
(lp2940
S'REMOTE_ADDR'
p2941
asbag49
(g70
g51
NtRp2942
(dp2943
g54
(dp2944
g81
g82
ssg63
g2933
sg56
(lp2945
S':'
asbag49
(g70
g51
NtRp2946
(dp2947
g54
(dp2948
sg63
g2933
sg56
(lp2949
g49
(g50
g51
NtRp2950
(dp2951
g54
(dp2952
g62
I3
ssg63
g2946
sg56
(lp2953
g204
asbasbasbag49
(g65
g51
NtRp2954
(dp2955
g54
(dp2956
sg63
g2719
sg56
(lp2957
g49
(g70
g51
NtRp2958
(dp2959
g54
(dp2960
g74
g75
ssg63
g2954
sg56
(lp2961
S'REMOTE_PORT'
p2962
asbag49
(g70
g51
NtRp2963
(dp2964
g54
(dp2965
g81
g82
ssg63
g2954
sg56
(lp2966
S':'
asbag49
(g70
g51
NtRp2967
(dp2968
g54
(dp2969
sg63
g2954
sg56
(lp2970
g49
(g50
g51
NtRp2971
(dp2972
g54
(dp2973
g62
I3
ssg63
g2967
sg56
(lp2974
g1497
asbasbasbag49
(g65
g51
NtRp2975
(dp2976
g54
(dp2977
sg63
g2719
sg56
(lp2978
g49
(g70
g51
NtRp2979
(dp2980
g54
(dp2981
g74
g75
ssg63
g2975
sg56
(lp2982
S'REQUEST_METHOD'
p2983
asbag49
(g70
g51
NtRp2984
(dp2985
g54
(dp2986
g81
g82
ssg63
g2975
sg56
(lp2987
S':'
asbag49
(g70
g51
NtRp2988
(dp2989
g54
(dp2990
sg63
g2975
sg56
(lp2991
g49
(g50
g51
NtRp2992
(dp2993
g54
(dp2994
g62
I3
ssg63
g2988
sg56
(lp2995
g1519
asbasbasbag49
(g65
g51
NtRp2996
(dp2997
g54
(dp2998
sg63
g2719
sg56
(lp2999
g49
(g70
g51
NtRp3000
(dp3001
g54
(dp3002
g74
g75
ssg63
g2996
sg56
(lp3003
S'REQUEST_URI'
p3004
asbag49
(g70
g51
NtRp3005
(dp3006
g54
(dp3007
g81
g82
ssg63
g2996
sg56
(lp3008
S':'
asbag49
(g70
g51
NtRp3009
(dp3010
g54
(dp3011
sg63
g2996
sg56
(lp3012
g49
(g50
g51
NtRp3013
(dp3014
g54
(dp3015
g62
I3
ssg63
g3009
sg56
(lp3016
g1433
asbasbasbag49
(g65
g51
NtRp3017
(dp3018
g54
(dp3019
sg63
g2719
sg56
(lp3020
g49
(g70
g51
NtRp3021
(dp3022
g54
(dp3023
g74
g75
ssg63
g3017
sg56
(lp3024
S'SCRIPT_NAME'
p3025
asbag49
(g70
g51
NtRp3026
(dp3027
g54
(dp3028
g81
g82
ssg63
g3017
sg56
(lp3029
S':'
asbag49
(g70
g51
NtRp3030
(dp3031
g54
(dp3032
sg63
g3017
sg56
(lp3033
g49
(g50
g51
NtRp3034
(dp3035
g54
(dp3036
g62
I3
ssg63
g3030
sg56
(lp3037
S''
asbasbasbag49
(g65
g51
NtRp3038
(dp3039
g54
(dp3040
sg63
g2719
sg56
(lp3041
g49
(g70
g51
NtRp3042
(dp3043
g54
(dp3044
g74
g75
ssg63
g3038
sg56
(lp3045
S'SERVER_NAME'
p3046
asbag49
(g70
g51
NtRp3047
(dp3048
g54
(dp3049
g81
g82
ssg63
g3038
sg56
(lp3050
S':'
asbag49
(g70
g51
NtRp3051
(dp3052
g54
(dp3053
sg63
g3038
sg56
(lp3054
g49
(g50
g51
NtRp3055
(dp3056
g54
(dp3057
g62
I3
ssg63
g3051
sg56
(lp3058
g1398
asbasbasbag49
(g65
g51
NtRp3059
(dp3060
g54
(dp3061
sg63
g2719
sg56
(lp3062
g49
(g70
g51
NtRp3063
(dp3064
g54
(dp3065
g74
g75
ssg63
g3059
sg56
(lp3066
S'SERVER_PORT'
p3067
asbag49
(g70
g51
NtRp3068
(dp3069
g54
(dp3070
g81
g82
ssg63
g3059
sg56
(lp3071
S':'
asbag49
(g70
g51
NtRp3072
(dp3073
g54
(dp3074
sg63
g3059
sg56
(lp3075
g49
(g50
g51
NtRp3076
(dp3077
g54
(dp3078
g62
I3
ssg63
g3072
sg56
(lp3079
g1604
asbasbasbag49
(g65
g51
NtRp3080
(dp3081
g54
(dp3082
sg63
g2719
sg56
(lp3083
g49
(g70
g51
NtRp3084
(dp3085
g54
(dp3086
g74
g75
ssg63
g3080
sg56
(lp3087
S'SERVER_PROTOCOL'
p3088
asbag49
(g70
g51
NtRp3089
(dp3090
g54
(dp3091
g81
g82
ssg63
g3080
sg56
(lp3092
S':'
asbag49
(g70
g51
NtRp3093
(dp3094
g54
(dp3095
sg63
g3080
sg56
(lp3096
g49
(g50
g51
NtRp3097
(dp3098
g54
(dp3099
g62
I3
ssg63
g3093
sg56
(lp3100
g1626
asbasbasbag49
(g65
g51
NtRp3101
(dp3102
g54
(dp3103
sg63
g2719
sg56
(lp3104
g49
(g70
g51
NtRp3105
(dp3106
g54
(dp3107
g74
g75
ssg63
g3101
sg56
(lp3108
S'SERVER_SOFTWARE'
p3109
asbag49
(g70
g51
NtRp3110
(dp3111
g54
(dp3112
g81
g82
ssg63
g3101
sg56
(lp3113
S':'
asbag49
(g70
g51
NtRp3114
(dp3115
g54
(dp3116
sg63
g3101
sg56
(lp3117
g49
(g50
g51
NtRp3118
(dp3119
g54
(dp3120
g62
I3
ssg63
g3114
sg56
(lp3121
g1648
asbasbasbag49
(g65
g51
NtRp3122
(dp3123
g54
(dp3124
sg63
g2719
sg56
(lp3125
g49
(g70
g51
NtRp3126
(dp3127
g54
(dp3128
g74
g75
ssg63
g3122
sg56
(lp3129
S'wsgi.errors'
p3130
asbag49
(g70
g51
NtRp3131
(dp3132
g54
(dp3133
g81
g82
ssg63
g3122
sg56
(lp3134
S':'
asbag49
(g70
g51
NtRp3135
(dp3136
g54
(dp3137
sg63
g3122
sg56
(lp3138
g49
(g50
g51
NtRp3139
(dp3140
g54
(dp3141
g62
I3
ssg63
g3135
sg56
(lp3142
S"<open file '<stderr>', mode 'w' at 0x540b0>"
p3143
asbasbasbag49
(g65
g51
NtRp3144
(dp3145
g54
(dp3146
sg63
g2719
sg56
(lp3147
g49
(g70
g51
NtRp3148
(dp3149
g54
(dp3150
g74
g75
ssg63
g3144
sg56
(lp3151
S'wsgi.file_wrapper'
p3152
asbag49
(g70
g51
NtRp3153
(dp3154
g54
(dp3155
g81
g82
ssg63
g3144
sg56
(lp3156
S':'
asbag49
(g70
g51
NtRp3157
(dp3158
g54
(dp3159
sg63
g3144
sg56
(lp3160
g49
(g50
g51
NtRp3161
(dp3162
g54
(dp3163
g62
I3
ssg63
g3157
sg56
(lp3164
S'<class wsgiref.util.FileWrapper at 0x45782d0>'
p3165
asbasbasbag49
(g65
g51
NtRp3166
(dp3167
g54
(dp3168
sg63
g2719
sg56
(lp3169
g49
(g70
g51
NtRp3170
(dp3171
g54
(dp3172
g74
g75
ssg63
g3166
sg56
(lp3173
S'wsgi.input'
p3174
asbag49
(g70
g51
NtRp3175
(dp3176
g54
(dp3177
g81
g82
ssg63
g3166
sg56
(lp3178
S':'
asbag49
(g70
g51
NtRp3179
(dp3180
g54
(dp3181
sg63
g3166
sg56
(lp3182
g49
(g50
g51
NtRp3183
(dp3184
g54
(dp3185
g62
I3
ssg63
g3179
sg56
(lp3186
S'<cStringIO.StringO object at 0x93f9880>'
p3187
asbasbasbag49
(g65
g51
NtRp3188
(dp3189
g54
(dp3190
sg63
g2719
sg56
(lp3191
g49
(g70
g51
NtRp3192
(dp3193
g54
(dp3194
g74
g75
ssg63
g3188
sg56
(lp3195
S'wsgi.multiprocess'
p3196
asbag49
(g70
g51
NtRp3197
(dp3198
g54
(dp3199
g81
g82
ssg63
g3188
sg56
(lp3200
S':'
asbag49
(g70
g51
NtRp3201
(dp3202
g54
(dp3203
sg63
g3188
sg56
(lp3204
g49
(g50
g51
NtRp3205
(dp3206
g54
(dp3207
g62
I3
ssg63
g3201
sg56
(lp3208
g92
asbasbasbag49
(g65
g51
NtRp3209
(dp3210
g54
(dp3211
sg63
g2719
sg56
(lp3212
g49
(g70
g51
NtRp3213
(dp3214
g54
(dp3215
g74
g75
ssg63
g3209
sg56
(lp3216
S'wsgi.multithread'
p3217
asbag49
(g70
g51
NtRp3218
(dp3219
g54
(dp3220
g81
g82
ssg63
g3209
sg56
(lp3221
S':'
asbag49
(g70
g51
NtRp3222
(dp3223
g54
(dp3224
sg63
g3209
sg56
(lp3225
g49
(g50
g51
NtRp3226
(dp3227
g54
(dp3228
g62
I3
ssg63
g3222
sg56
(lp3229
g1865
asbasbasbag49
(g65
g51
NtRp3230
(dp3231
g54
(dp3232
sg63
g2719
sg56
(lp3233
g49
(g70
g51
NtRp3234
(dp3235
g54
(dp3236
g74
g75
ssg63
g3230
sg56
(lp3237
S'wsgi.run_once'
p3238
asbag49
(g70
g51
NtRp3239
(dp3240
g54
(dp3241
g81
g82
ssg63
g3230
sg56
(lp3242
S':'
asbag49
(g70
g51
NtRp3243
(dp3244
g54
(dp3245
sg63
g3230
sg56
(lp3246
g49
(g50
g51
NtRp3247
(dp3248
g54
(dp3249
g62
I3
ssg63
g3243
sg56
(lp3250
g92
asbasbasbag49
(g65
g51
NtRp3251
(dp3252
g54
(dp3253
sg63
g2719
sg56
(lp3254
g49
(g70
g51
NtRp3255
(dp3256
g54
(dp3257
g74
g75
ssg63
g3251
sg56
(lp3258
S'wsgi.url_scheme'
p3259
asbag49
(g70
g51
NtRp3260
(dp3261
g54
(dp3262
g81
g82
ssg63
g3251
sg56
(lp3263
S':'
asbag49
(g70
g51
NtRp3264
(dp3265
g54
(dp3266
sg63
g3251
sg56
(lp3267
g49
(g50
g51
NtRp3268
(dp3269
g54
(dp3270
g62
I3
ssg63
g3264
sg56
(lp3271
g1908
asbasbasbag49
(g65
g51
NtRp3272
(dp3273
g54
(dp3274
sg63
g2719
sg56
(lp3275
g49
(g70
g51
NtRp3276
(dp3277
g54
(dp3278
g74
g75
ssg63
g3272
sg56
(lp3279
S'wsgi.version'
p3280
asbag49
(g70
g51
NtRp3281
(dp3282
g54
(dp3283
g81
g82
ssg63
g3272
sg56
(lp3284
S':'
asbag49
(g70
g51
NtRp3285
(dp3286
g54
(dp3287
sg63
g3272
sg56
(lp3288
g49
(g50
g51
NtRp3289
(dp3290
g54
(dp3291
g62
I3
ssg63
g3285
sg56
(lp3292
S'1'
asbasbasbasbasbasbasbasbasbasbasbasbasbsS'frames'
p3293
(lp3294
(dp3295
S'file'
p3296
S'/Users/abaric/Downloads/web2py/web2py.app/Contents/Resources/gluon/restricted.py'
p3297
sS'dump'
p3298
(dp3299
sS'lnum'
p3300
I212
sS'lines'
p3301
(dp3302
sS'call'
p3303
S"(code='from gluon.tools import datetime\\nfrom gluon.tool...onse._vars=response._caller(show_image_comments)\\n', environment={'A': <class 'gluon.html.A'>, 'Auth': <class 'gluon.tools.Auth'>, 'B': <class 'gluon.html.B'>, 'BEAUTIFY': <class 'gluon.html.BEAUTIFY'>, 'BODY': <class 'gluon.html.BODY'>, 'BR': <class 'gluon.html.BR'>, 'BUTTON': <class 'gluon.html.BUTTON'>, 'CAT': <class 'gluon.html.CAT'>, 'CENTER': <class 'gluon.html.CENTER'>, 'CLEANUP': <class 'gluon.validators.CLEANUP'>, ...}, layer='/Users/abaric/Downloads/web2py/web2py.app/Conten...applications/Final_Impulse/controllers/default.py')"
p3304
sS'func'
p3305
S'restricted'
p3306
sa(dp3307
g3296
S'/Users/abaric/Downloads/web2py/web2py.app/Contents/Resources/applications/Final_Impulse/controllers/default.py'
p3308
sg3298
(dp3309
sg3300
I181
sg3301
(dp3310
I170
S'    for writing in wristing:'
p3311
sI171
S'        if writing.writing.approved:'
p3312
sI172
S'            writings_w_app.append(writing)'
p3313
sI173
S'        else:'
p3314
sI174
S'            writings_wo_app.append(writing)'
p3315
sI175
S''
sI176
S'    return locals()'
p3316
sI177
S''
sI178
S''
sI179
S'#def update_approve():'
p3317
ssg3303
S'()'
p3318
sg3305
S'<module>'
p3319
sa(dp3320
g3296
S'/Users/abaric/Downloads/web2py/web2py.app/Contents/Resources/gluon/globals.py'
p3321
sg3298
(dp3322
sg3300
I188
sg3301
(dp3323
sg3303
S'(f=<function show_image_comments at 0x903e670>)'
p3324
sg3305
S'<lambda>'
p3325
sa(dp3326
g3296
S'/Users/abaric/Downloads/web2py/web2py.app/Contents/Resources/applications/Final_Impulse/controllers/default.py'
p3327
sg3298
(dp3328
sg3300
I24
sg3301
(dp3329
I19
S'def download():'
p3330
sI20
S'    return response.download(request, db)'
p3331
sI21
S''
sI22
S'def show_image_comments():'
p3332
sI23
S"    image_form=SQLFORM(db.image,fields=['title','file'],labels={'file':'Your Image'})"
p3333
sI24
S'    image_form.vars.author_id=auth.user.id'
p3334
sI25
S"    image_form.add_button('Back', URL('index'))"
p3335
sI26
S'    if image_form.process().accepted:'
p3336
sI27
S"        response.flash='image post submitted!'"
p3337
sI28
S'    images=db(db.image).select(db.image.ALL, orderby=db.image.id)'
p3338
ssg3303
S'()'
p3339
sg3305
S'show_image_comments'
p3340
sasS'pyver'
p3341
S'Python 2.5.1: /Users/abaric/Downloads/web2py/web2py.app/Contents/MacOS/python'
p3342
sS'session'
p3343
g49
(g50
g51
NtRp3344
(dp3345
g54
(dp3346
sg56
(lp3347
g49
(g58
g51
NtRp3348
(dp3349
g54
(dp3350
g62
I5
ssg63
Nsg56
(lp3351
g49
(g65
g51
NtRp3352
(dp3353
g54
(dp3354
sg63
g3348
sg56
(lp3355
g49
(g70
g51
NtRp3356
(dp3357
g54
(dp3358
g74
g75
ssg63
g3352
sg56
(lp3359
S'flash'
p3360
asbag49
(g70
g51
NtRp3361
(dp3362
g54
(dp3363
g81
g82
ssg63
g3352
sg56
(lp3364
S':'
asbag49
(g70
g51
NtRp3365
(dp3366
g54
(dp3367
sg63
g3352
sg56
(lp3368
g49
(g50
g51
NtRp3369
(dp3370
g54
(dp3371
g62
I5
ssg63
g3365
sg56
(lp3372
S'None'
p3373
asbasbasbag49
(g65
g51
NtRp3374
(dp3375
g54
(dp3376
sg63
g3348
sg56
(lp3377
g49
(g70
g51
NtRp3378
(dp3379
g54
(dp3380
g74
g75
ssg63
g3374
sg56
(lp3381
S'last_orderby'
p3382
asbag49
(g70
g51
NtRp3383
(dp3384
g54
(dp3385
g81
g82
ssg63
g3374
sg56
(lp3386
S':'
asbag49
(g70
g51
NtRp3387
(dp3388
g54
(dp3389
sg63
g3374
sg56
(lp3390
g49
(g50
g51
NtRp3391
(dp3392
g54
(dp3393
g62
I5
ssg63
g3387
sg56
(lp3394
S'None'
p3395
asbasbasbag49
(g65
g51
NtRp3396
(dp3397
g54
(dp3398
sg63
g3348
sg56
(lp3399
g49
(g70
g51
NtRp3400
(dp3401
g54
(dp3402
g74
g75
ssg63
g3396
sg56
(lp3403
S'last_query'
p3404
asbag49
(g70
g51
NtRp3405
(dp3406
g54
(dp3407
g81
g82
ssg63
g3396
sg56
(lp3408
S':'
asbag49
(g70
g51
NtRp3409
(dp3410
g54
(dp3411
sg63
g3396
sg56
(lp3412
g49
(g50
g51
NtRp3413
(dp3414
g54
(dp3415
g62
I5
ssg63
g3409
sg56
(lp3416
S'db.image.id>0'
p3417
asbasbasbasbasbsS'etype'
p3418
S"<type 'exceptions.AttributeError'>"
p3419
sS'date'
p3420
S'Tue Jun 10 23:43:55 2014'
p3421
sS'response'
p3422
g49
(g50
g51
NtRp3423
(dp3424
g54
(dp3425
sg56
(lp3426
g49
(g58
g51
NtRp3427
(dp3428
g54
(dp3429
g62
I5
ssg63
Nsg56
(lp3430
g49
(g65
g51
NtRp3431
(dp3432
g54
(dp3433
sg63
g3427
sg56
(lp3434
g49
(g70
g51
NtRp3435
(dp3436
g54
(dp3437
g74
g75
ssg63
g3431
sg56
(lp3438
g147
asbag49
(g70
g51
NtRp3439
(dp3440
g54
(dp3441
g81
g82
ssg63
g3431
sg56
(lp3442
S':'
asbag49
(g70
g51
NtRp3443
(dp3444
g54
(dp3445
sg63
g3431
sg56
(lp3446
g49
(g50
g51
NtRp3447
(dp3448
g54
(dp3449
g62
I5
ssg63
g3443
sg56
(lp3450
S'<cStringIO.StringO object at 0x9c59b20>'
p3451
asbasbasbag49
(g65
g51
NtRp3452
(dp3453
g54
(dp3454
sg63
g3427
sg56
(lp3455
g49
(g70
g51
NtRp3456
(dp3457
g54
(dp3458
g74
g75
ssg63
g3452
sg56
(lp3459
g235
asbag49
(g70
g51
NtRp3460
(dp3461
g54
(dp3462
g81
g82
ssg63
g3452
sg56
(lp3463
S':'
asbag49
(g70
g51
NtRp3464
(dp3465
g54
(dp3466
sg63
g3452
sg56
(lp3467
g49
(g50
g51
NtRp3468
(dp3469
g54
(dp3470
g62
I5
ssg63
g3464
sg56
(lp3471
g49
(g58
g51
NtRp3472
(dp3473
g54
(dp3474
g62
I4
ssg63
Nsg56
(lp3475
g49
(g65
g51
NtRp3476
(dp3477
g54
(dp3478
sg63
g3472
sg56
(lp3479
g49
(g70
g51
NtRp3480
(dp3481
g54
(dp3482
g74
g75
ssg63
g3476
sg56
(lp3483
S'session_id_final_impulse'
p3484
asbag49
(g70
g51
NtRp3485
(dp3486
g54
(dp3487
g81
g82
ssg63
g3476
sg56
(lp3488
S':'
asbag49
(g70
g51
NtRp3489
(dp3490
g54
(dp3491
sg63
g3476
sg56
(lp3492
g49
(g50
g51
NtRp3493
(dp3494
g54
(dp3495
g62
I4
ssg63
g3489
sg56
(lp3496
g612
ag49
(g58
g51
NtRp3497
(dp3498
g54
(dp3499
g62
I3
ssg63
Nsg56
(lp3500
g49
(g65
g51
NtRp3501
(dp3502
g54
(dp3503
sg63
g3497
sg56
(lp3504
g49
(g70
g51
NtRp3505
(dp3506
g54
(dp3507
g74
g75
ssg63
g3501
sg56
(lp3508
g286
asbag49
(g70
g51
NtRp3509
(dp3510
g54
(dp3511
g81
g82
ssg63
g3501
sg56
(lp3512
S':'
asbag49
(g70
g51
NtRp3513
(dp3514
g54
(dp3515
sg63
g3501
sg56
(lp3516
g49
(g50
g51
NtRp3517
(dp3518
g54
(dp3519
g62
I3
ssg63
g3513
sg56
(lp3520
S''
asbasbasbag49
(g65
g51
NtRp3521
(dp3522
g54
(dp3523
sg63
g3497
sg56
(lp3524
g49
(g70
g51
NtRp3525
(dp3526
g54
(dp3527
g74
g75
ssg63
g3521
sg56
(lp3528
g307
asbag49
(g70
g51
NtRp3529
(dp3530
g54
(dp3531
g81
g82
ssg63
g3521
sg56
(lp3532
S':'
asbag49
(g70
g51
NtRp3533
(dp3534
g54
(dp3535
sg63
g3521
sg56
(lp3536
g49
(g50
g51
NtRp3537
(dp3538
g54
(dp3539
g62
I3
ssg63
g3533
sg56
(lp3540
S''
asbasbasbag49
(g65
g51
NtRp3541
(dp3542
g54
(dp3543
sg63
g3497
sg56
(lp3544
g49
(g70
g51
NtRp3545
(dp3546
g54
(dp3547
g74
g75
ssg63
g3541
sg56
(lp3548
g328
asbag49
(g70
g51
NtRp3549
(dp3550
g54
(dp3551
g81
g82
ssg63
g3541
sg56
(lp3552
S':'
asbag49
(g70
g51
NtRp3553
(dp3554
g54
(dp3555
sg63
g3541
sg56
(lp3556
g49
(g50
g51
NtRp3557
(dp3558
g54
(dp3559
g62
I3
ssg63
g3553
sg56
(lp3560
S''
asbasbasbag49
(g65
g51
NtRp3561
(dp3562
g54
(dp3563
sg63
g3497
sg56
(lp3564
g49
(g70
g51
NtRp3565
(dp3566
g54
(dp3567
g74
g75
ssg63
g3561
sg56
(lp3568
g349
asbag49
(g70
g51
NtRp3569
(dp3570
g54
(dp3571
g81
g82
ssg63
g3561
sg56
(lp3572
S':'
asbag49
(g70
g51
NtRp3573
(dp3574
g54
(dp3575
sg63
g3561
sg56
(lp3576
g49
(g50
g51
NtRp3577
(dp3578
g54
(dp3579
g62
I3
ssg63
g3573
sg56
(lp3580
S''
asbasbasbag49
(g65
g51
NtRp3581
(dp3582
g54
(dp3583
sg63
g3497
sg56
(lp3584
g49
(g70
g51
NtRp3585
(dp3586
g54
(dp3587
g74
g75
ssg63
g3581
sg56
(lp3588
g370
asbag49
(g70
g51
NtRp3589
(dp3590
g54
(dp3591
g81
g82
ssg63
g3581
sg56
(lp3592
S':'
asbag49
(g70
g51
NtRp3593
(dp3594
g54
(dp3595
sg63
g3581
sg56
(lp3596
g49
(g50
g51
NtRp3597
(dp3598
g54
(dp3599
g62
I3
ssg63
g3593
sg56
(lp3600
S'/'
asbasbasbag49
(g65
g51
NtRp3601
(dp3602
g54
(dp3603
sg63
g3497
sg56
(lp3604
g49
(g70
g51
NtRp3605
(dp3606
g54
(dp3607
g74
g75
ssg63
g3601
sg56
(lp3608
g391
asbag49
(g70
g51
NtRp3609
(dp3610
g54
(dp3611
g81
g82
ssg63
g3601
sg56
(lp3612
S':'
asbag49
(g70
g51
NtRp3613
(dp3614
g54
(dp3615
sg63
g3601
sg56
(lp3616
g49
(g50
g51
NtRp3617
(dp3618
g54
(dp3619
g62
I3
ssg63
g3613
sg56
(lp3620
S''
asbasbasbag49
(g65
g51
NtRp3621
(dp3622
g54
(dp3623
sg63
g3497
sg56
(lp3624
g49
(g70
g51
NtRp3625
(dp3626
g54
(dp3627
g74
g75
ssg63
g3621
sg56
(lp3628
g412
asbag49
(g70
g51
NtRp3629
(dp3630
g54
(dp3631
g81
g82
ssg63
g3621
sg56
(lp3632
S':'
asbag49
(g70
g51
NtRp3633
(dp3634
g54
(dp3635
sg63
g3621
sg56
(lp3636
g49
(g50
g51
NtRp3637
(dp3638
g54
(dp3639
g62
I3
ssg63
g3633
sg56
(lp3640
S''
asbasbasbasbasbasbasbasbasbasbasbag49
(g65
g51
NtRp3641
(dp3642
g54
(dp3643
sg63
g3427
sg56
(lp3644
g49
(g70
g51
NtRp3645
(dp3646
g54
(dp3647
g74
g75
ssg63
g3641
sg56
(lp3648
S'delimiters'
p3649
asbag49
(g70
g51
NtRp3650
(dp3651
g54
(dp3652
g81
g82
ssg63
g3641
sg56
(lp3653
S':'
asbag49
(g70
g51
NtRp3654
(dp3655
g54
(dp3656
sg63
g3641
sg56
(lp3657
g49
(g50
g51
NtRp3658
(dp3659
g54
(dp3660
g62
I5
ssg63
g3654
sg56
(lp3661
g49
(g58
g51
NtRp3662
(dp3663
g54
(dp3664
g62
I4
ssg63
Nsg56
(lp3665
g49
(g65
g51
NtRp3666
(dp3667
g54
(dp3668
sg63
g3662
sg56
(lp3669
g49
(g70
g51
NtRp3670
(dp3671
g54
(dp3672
sg63
g3666
sg56
(lp3673
g49
(g50
g51
NtRp3674
(dp3675
g54
(dp3676
g62
I4
ssg63
g3670
sg56
(lp3677
S'{{'
p3678
asbasbasbag49
(g65
g51
NtRp3679
(dp3680
g54
(dp3681
sg63
g3662
sg56
(lp3682
g49
(g70
g51
NtRp3683
(dp3684
g54
(dp3685
sg63
g3679
sg56
(lp3686
g49
(g50
g51
NtRp3687
(dp3688
g54
(dp3689
g62
I4
ssg63
g3683
sg56
(lp3690
S'}}'
p3691
asbasbasbasbasbasbasbag49
(g65
g51
NtRp3692
(dp3693
g54
(dp3694
sg63
g3427
sg56
(lp3695
g49
(g70
g51
NtRp3696
(dp3697
g54
(dp3698
g74
g75
ssg63
g3692
sg56
(lp3699
S'files'
p3700
asbag49
(g70
g51
NtRp3701
(dp3702
g54
(dp3703
g81
g82
ssg63
g3692
sg56
(lp3704
S':'
asbag49
(g70
g51
NtRp3705
(dp3706
g54
(dp3707
sg63
g3692
sg56
(lp3708
g49
(g50
g51
NtRp3709
(dp3710
g54
(dp3711
g62
I5
ssg63
g3705
sg56
(lp3712
g49
(g58
g51
NtRp3713
(dp3714
g54
(dp3715
g62
I4
ssg63
Nsg56
(lp3716
sbasbasbasbag49
(g65
g51
NtRp3717
(dp3718
g54
(dp3719
sg63
g3427
sg56
(lp3720
g49
(g70
g51
NtRp3721
(dp3722
g54
(dp3723
g74
g75
ssg63
g3717
sg56
(lp3724
S'flash'
p3725
asbag49
(g70
g51
NtRp3726
(dp3727
g54
(dp3728
g81
g82
ssg63
g3717
sg56
(lp3729
S':'
asbag49
(g70
g51
NtRp3730
(dp3731
g54
(dp3732
sg63
g3717
sg56
(lp3733
g49
(g50
g51
NtRp3734
(dp3735
g54
(dp3736
g62
I5
ssg63
g3730
sg56
(lp3737
S''
asbasbasbag49
(g65
g51
NtRp3738
(dp3739
g54
(dp3740
sg63
g3427
sg56
(lp3741
g49
(g70
g51
NtRp3742
(dp3743
g54
(dp3744
g74
g75
ssg63
g3738
sg56
(lp3745
S'generic_patterns'
p3746
asbag49
(g70
g51
NtRp3747
(dp3748
g54
(dp3749
g81
g82
ssg63
g3738
sg56
(lp3750
S':'
asbag49
(g70
g51
NtRp3751
(dp3752
g54
(dp3753
sg63
g3738
sg56
(lp3754
g49
(g50
g51
NtRp3755
(dp3756
g54
(dp3757
g62
I5
ssg63
g3751
sg56
(lp3758
g49
(g58
g51
NtRp3759
(dp3760
g54
(dp3761
g62
I4
ssg63
Nsg56
(lp3762
sbasbasbasbag49
(g65
g51
NtRp3763
(dp3764
g54
(dp3765
sg63
g3427
sg56
(lp3766
g49
(g70
g51
NtRp3767
(dp3768
g54
(dp3769
g74
g75
ssg63
g3763
sg56
(lp3770
S'google_analytics_id'
p3771
asbag49
(g70
g51
NtRp3772
(dp3773
g54
(dp3774
g81
g82
ssg63
g3763
sg56
(lp3775
S':'
asbag49
(g70
g51
NtRp3776
(dp3777
g54
(dp3778
sg63
g3763
sg56
(lp3779
g49
(g50
g51
NtRp3780
(dp3781
g54
(dp3782
g62
I5
ssg63
g3776
sg56
(lp3783
S'None'
p3784
asbasbasbag49
(g65
g51
NtRp3785
(dp3786
g54
(dp3787
sg63
g3427
sg56
(lp3788
g49
(g70
g51
NtRp3789
(dp3790
g54
(dp3791
g74
g75
ssg63
g3785
sg56
(lp3792
S'headers'
p3793
asbag49
(g70
g51
NtRp3794
(dp3795
g54
(dp3796
g81
g82
ssg63
g3785
sg56
(lp3797
S':'
asbag49
(g70
g51
NtRp3798
(dp3799
g54
(dp3800
sg63
g3785
sg56
(lp3801
g49
(g50
g51
NtRp3802
(dp3803
g54
(dp3804
g62
I5
ssg63
g3798
sg56
(lp3805
g49
(g58
g51
NtRp3806
(dp3807
g54
(dp3808
g62
I4
ssg63
Nsg56
(lp3809
g49
(g65
g51
NtRp3810
(dp3811
g54
(dp3812
sg63
g3806
sg56
(lp3813
g49
(g70
g51
NtRp3814
(dp3815
g54
(dp3816
g74
g75
ssg63
g3810
sg56
(lp3817
S'X-Powered-By'
p3818
asbag49
(g70
g51
NtRp3819
(dp3820
g54
(dp3821
g81
g82
ssg63
g3810
sg56
(lp3822
S':'
asbag49
(g70
g51
NtRp3823
(dp3824
g54
(dp3825
sg63
g3810
sg56
(lp3826
g49
(g50
g51
NtRp3827
(dp3828
g54
(dp3829
g62
I4
ssg63
g3823
sg56
(lp3830
S'web2py'
p3831
asbasbasbasbasbasbasbag49
(g65
g51
NtRp3832
(dp3833
g54
(dp3834
sg63
g3427
sg56
(lp3835
g49
(g70
g51
NtRp3836
(dp3837
g54
(dp3838
g74
g75
ssg63
g3832
sg56
(lp3839
S'menu'
p3840
asbag49
(g70
g51
NtRp3841
(dp3842
g54
(dp3843
g81
g82
ssg63
g3832
sg56
(lp3844
S':'
asbag49
(g70
g51
NtRp3845
(dp3846
g54
(dp3847
sg63
g3832
sg56
(lp3848
g49
(g50
g51
NtRp3849
(dp3850
g54
(dp3851
g62
I5
ssg63
g3845
sg56
(lp3852
g49
(g58
g51
NtRp3853
(dp3854
g54
(dp3855
g62
I4
ssg63
Nsg56
(lp3856
g49
(g65
g51
NtRp3857
(dp3858
g54
(dp3859
sg63
g3853
sg56
(lp3860
g49
(g70
g51
NtRp3861
(dp3862
g54
(dp3863
sg63
g3857
sg56
(lp3864
g49
(g50
g51
NtRp3865
(dp3866
g54
(dp3867
g62
I4
ssg63
g3861
sg56
(lp3868
g49
(g58
g51
NtRp3869
(dp3870
g54
(dp3871
g62
I3
ssg63
Nsg56
(lp3872
g49
(g65
g51
NtRp3873
(dp3874
g54
(dp3875
sg63
g3869
sg56
(lp3876
g49
(g70
g51
NtRp3877
(dp3878
g54
(dp3879
sg63
g3873
sg56
(lp3880
g49
(g50
g51
NtRp3881
(dp3882
g54
(dp3883
g62
I3
ssg63
g3877
sg56
(lp3884
cgluon.languages
lazyT_unpickle
p3885
(S't\x04\x00\x00\x00Home'
tRp3886
asbasbasbag49
(g65
g51
NtRp3887
(dp3888
g54
(dp3889
sg63
g3869
sg56
(lp3890
g49
(g70
g51
NtRp3891
(dp3892
g54
(dp3893
sg63
g3887
sg56
(lp3894
g49
(g50
g51
NtRp3895
(dp3896
g54
(dp3897
g62
I3
ssg63
g3891
sg56
(lp3898
g92
asbasbasbag49
(g65
g51
NtRp3899
(dp3900
g54
(dp3901
sg63
g3869
sg56
(lp3902
g49
(g70
g51
NtRp3903
(dp3904
g54
(dp3905
sg63
g3899
sg56
(lp3906
g49
(g50
g51
NtRp3907
(dp3908
g54
(dp3909
g62
I3
ssg63
g3903
sg56
(lp3910
S'/Final_Impulse/default/index'
p3911
asbasbasbag49
(g65
g51
NtRp3912
(dp3913
g54
(dp3914
sg63
g3869
sg56
(lp3915
g49
(g70
g51
NtRp3916
(dp3917
g54
(dp3918
sg63
g3912
sg56
(lp3919
g49
(g50
g51
NtRp3920
(dp3921
g54
(dp3922
g62
I3
ssg63
g3916
sg56
(lp3923
g49
(g58
g51
NtRp3924
(dp3925
g54
(dp3926
g62
I2
ssg63
Nsg56
(lp3927
sbasbasbasbasbasbasbasbag49
(g65
g51
NtRp3928
(dp3929
g54
(dp3930
sg63
g3853
sg56
(lp3931
g49
(g70
g51
NtRp3932
(dp3933
g54
(dp3934
sg63
g3928
sg56
(lp3935
g49
(g50
g51
NtRp3936
(dp3937
g54
(dp3938
g62
I4
ssg63
g3932
sg56
(lp3939
g49
(g58
g51
NtRp3940
(dp3941
g54
(dp3942
g62
I3
ssg63
Nsg56
(lp3943
g49
(g65
g51
NtRp3944
(dp3945
g54
(dp3946
sg63
g3940
sg56
(lp3947
g49
(g70
g51
NtRp3948
(dp3949
g54
(dp3950
sg63
g3944
sg56
(lp3951
g49
(g50
g51
NtRp3952
(dp3953
g54
(dp3954
g62
I3
ssg63
g3948
sg56
(lp3955
g49
(cgluon.html
SPAN
p3956
g51
NtRp3957
(dp3958
g54
(dp3959
S'_class'
p3960
S'highlighted'
p3961
ssg63
Nsg56
(lp3962
g3831
asbasbasbasbag49
(g65
g51
NtRp3963
(dp3964
g54
(dp3965
sg63
g3940
sg56
(lp3966
g49
(g70
g51
NtRp3967
(dp3968
g54
(dp3969
sg63
g3963
sg56
(lp3970
g49
(g50
g51
NtRp3971
(dp3972
g54
(dp3973
g62
I3
ssg63
g3967
sg56
(lp3974
g92
asbasbasbag49
(g65
g51
NtRp3975
(dp3976
g54
(dp3977
sg63
g3940
sg56
(lp3978
g49
(g70
g51
NtRp3979
(dp3980
g54
(dp3981
sg63
g3975
sg56
(lp3982
g49
(g50
g51
NtRp3983
(dp3984
g54
(dp3985
g62
I3
ssg63
g3979
sg56
(lp3986
S'http://web2py.com'
p3987
asbasbasbag49
(g65
g51
NtRp3988
(dp3989
g54
(dp3990
sg63
g3940
sg56
(lp3991
g49
(g70
g51
NtRp3992
(dp3993
g54
(dp3994
sg63
g3988
sg56
(lp3995
g49
(g50
g51
NtRp3996
(dp3997
g54
(dp3998
g62
I3
ssg63
g3992
sg56
(lp3999
g49
(g58
g51
NtRp4000
(dp4001
g54
(dp4002
g62
I2
ssg63
Nsg56
(lp4003
g49
(g65
g51
NtRp4004
(dp4005
g54
(dp4006
sg63
g4000
sg56
(lp4007
g49
(g70
g51
NtRp4008
(dp4009
g54
(dp4010
sg63
g4004
sg56
(lp4011
g49
(g50
g51
NtRp4012
(dp4013
g54
(dp4014
g62
I2
ssg63
g4008
sg56
(lp4015
g49
(g58
g51
NtRp4016
(dp4017
g54
(dp4018
g62
I1
ssg63
Nsg56
(lp4019
g49
(g65
g51
NtRp4020
(dp4021
g54
(dp4022
sg63
g4016
sg56
(lp4023
g49
(g70
g51
NtRp4024
(dp4025
g54
(dp4026
sg63
g4020
sg56
(lp4027
g49
(g50
g51
NtRp4028
(dp4029
g54
(dp4030
g62
I1
ssg63
g4024
sg56
(lp4031
g3885
(S's\x08\x00\x00\x00My Sites'
tRp4032
asbasbasbag49
(g65
g51
NtRp4033
(dp4034
g54
(dp4035
sg63
g4016
sg56
(lp4036
g49
(g70
g51
NtRp4037
(dp4038
g54
(dp4039
sg63
g4033
sg56
(lp4040
g49
(g50
g51
NtRp4041
(dp4042
g54
(dp4043
g62
I1
ssg63
g4037
sg56
(lp4044
I00
asbasbasbag49
(g65
g51
NtRp4045
(dp4046
g54
(dp4047
sg63
g4016
sg56
(lp4048
g49
(g70
g51
NtRp4049
(dp4050
g54
(dp4051
sg63
g4045
sg56
(lp4052
g49
(g50
g51
NtRp4053
(dp4054
g54
(dp4055
g62
I1
ssg63
g4049
sg56
(lp4056
S'/admin/default/site'
p4057
asbasbasbasbasbasbasbag49
(g65
g51
NtRp4058
(dp4059
g54
(dp4060
sg63
g4000
sg56
(lp4061
g49
(g70
g51
NtRp4062
(dp4063
g54
(dp4064
sg63
g4058
sg56
(lp4065
g49
(g50
g51
NtRp4066
(dp4067
g54
(dp4068
g62
I2
ssg63
g4062
sg56
(lp4069
g49
(g58
g51
NtRp4070
(dp4071
g54
(dp4072
g62
I1
ssg63
Nsg56
(lp4073
g49
(g65
g51
NtRp4074
(dp4075
g54
(dp4076
sg63
g4070
sg56
(lp4077
g49
(g70
g51
NtRp4078
(dp4079
g54
(dp4080
sg63
g4074
sg56
(lp4081
g49
(g50
g51
NtRp4082
(dp4083
g54
(dp4084
g62
I1
ssg63
g4078
sg56
(lp4085
g3885
(S's\x08\x00\x00\x00This App'
tRp4086
asbasbasbag49
(g65
g51
NtRp4087
(dp4088
g54
(dp4089
sg63
g4070
sg56
(lp4090
g49
(g70
g51
NtRp4091
(dp4092
g54
(dp4093
sg63
g4087
sg56
(lp4094
g49
(g50
g51
NtRp4095
(dp4096
g54
(dp4097
g62
I1
ssg63
g4091
sg56
(lp4098
I00
asbasbasbag49
(g65
g51
NtRp4099
(dp4100
g54
(dp4101
sg63
g4070
sg56
(lp4102
g49
(g70
g51
NtRp4103
(dp4104
g54
(dp4105
sg63
g4099
sg56
(lp4106
g49
(g50
g51
NtRp4107
(dp4108
g54
(dp4109
g62
I1
ssg63
g4103
sg56
(lp4110
S'/admin/default/design/Final_Impulse'
p4111
asbasbasbag49
(g65
g51
NtRp4112
(dp4113
g54
(dp4114
sg63
g4070
sg56
(lp4115
g49
(g70
g51
NtRp4116
(dp4117
g54
(dp4118
sg63
g4112
sg56
(lp4119
g49
(g50
g51
NtRp4120
(dp4121
g54
(dp4122
g62
I1
ssg63
g4116
sg56
(lp4123
(lp4124
(g3885
(S't\n\x00\x00\x00Controller'
tRp4125
I00
S'/admin/default/edit/Final_Impulse/controllers/default.py'
tp4126
a(g3885
(S't\x04\x00\x00\x00View'
tRp4127
I00
S'/admin/default/edit/Final_Impulse/views/default/show_image_comments.html'
tp4128
a(g3885
(S't\x06\x00\x00\x00Layout'
tRp4129
I00
S'/admin/default/edit/Final_Impulse/views/layout.html'
tp4130
a(g3885
(S't\n\x00\x00\x00Stylesheet'
tRp4131
I00
S'/admin/default/edit/Final_Impulse/static/css/web2py.css'
tp4132
a(g3885
(S's\x08\x00\x00\x00DB Model'
tRp4133
I00
S'/admin/default/edit/Final_Impulse/models/db.py'
tp4134
a(g3885
(S's\n\x00\x00\x00Menu Model'
tRp4135
I00
S'/admin/default/edit/Final_Impulse/models/menu.py'
tp4136
a(g3885
(S't\x08\x00\x00\x00Database'
tRp4137
I00
S'/Final_Impulse/appadmin/index'
tp4138
a(g3885
(S't\x06\x00\x00\x00Errors'
tRp4139
I00
S'/admin/default/errors/Final_Impulse'
tp4140
a(g3885
(S't\x05\x00\x00\x00About'
tRp4141
I00
S'/admin/default/about/Final_Impulse'
tp4142
aasbasbasbasbasbasbasbag49
(g65
g51
NtRp4143
(dp4144
g54
(dp4145
sg63
g4000
sg56
(lp4146
g49
(g70
g51
NtRp4147
(dp4148
g54
(dp4149
sg63
g4143
sg56
(lp4150
g49
(g50
g51
NtRp4151
(dp4152
g54
(dp4153
g62
I2
ssg63
g4147
sg56
(lp4154
g49
(g58
g51
NtRp4155
(dp4156
g54
(dp4157
g62
I1
ssg63
Nsg56
(lp4158
g49
(g65
g51
NtRp4159
(dp4160
g54
(dp4161
sg63
g4155
sg56
(lp4162
g49
(g70
g51
NtRp4163
(dp4164
g54
(dp4165
sg63
g4159
sg56
(lp4166
g49
(g50
g51
NtRp4167
(dp4168
g54
(dp4169
g62
I1
ssg63
g4163
sg56
(lp4170
S'web2py.com'
p4171
asbasbasbag49
(g65
g51
NtRp4172
(dp4173
g54
(dp4174
sg63
g4155
sg56
(lp4175
g49
(g70
g51
NtRp4176
(dp4177
g54
(dp4178
sg63
g4172
sg56
(lp4179
g49
(g50
g51
NtRp4180
(dp4181
g54
(dp4182
g62
I1
ssg63
g4176
sg56
(lp4183
I00
asbasbasbag49
(g65
g51
NtRp4184
(dp4185
g54
(dp4186
sg63
g4155
sg56
(lp4187
g49
(g70
g51
NtRp4188
(dp4189
g54
(dp4190
sg63
g4184
sg56
(lp4191
g49
(g50
g51
NtRp4192
(dp4193
g54
(dp4194
g62
I1
ssg63
g4188
sg56
(lp4195
S'http://www.web2py.com'
p4196
asbasbasbag49
(g65
g51
NtRp4197
(dp4198
g54
(dp4199
sg63
g4155
sg56
(lp4200
g49
(g70
g51
NtRp4201
(dp4202
g54
(dp4203
sg63
g4197
sg56
(lp4204
g49
(g50
g51
NtRp4205
(dp4206
g54
(dp4207
g62
I1
ssg63
g4201
sg56
(lp4208
(lp4209
(g3885
(S't\x08\x00\x00\x00Download'
tRp4210
I00
S'http://www.web2py.com/examples/default/download'
p4211
tp4212
a(g3885
(S't\x07\x00\x00\x00Support'
tRp4213
I00
S'http://www.web2py.com/examples/default/support'
p4214
tp4215
a(g3885
(S't\x04\x00\x00\x00Demo'
tRp4216
I00
S'http://web2py.com/demo_admin'
p4217
tp4218
a(g3885
(S's\x0e\x00\x00\x00Quick Examples'
tRp4219
I00
S'http://web2py.com/examples/default/examples'
p4220
tp4221
a(g3885
(S't\x03\x00\x00\x00FAQ'
tRp4222
I00
S'http://web2py.com/AlterEgo'
p4223
tp4224
a(g3885
(S't\x06\x00\x00\x00Videos'
tRp4225
I00
S'http://www.web2py.com/examples/default/videos/'
p4226
tp4227
a(g3885
(S's\x11\x00\x00\x00Free Applications'
tRp4228
I00
S'http://web2py.com/appliances'
p4229
tp4230
a(g3885
(S't\x07\x00\x00\x00Plugins'
tRp4231
I00
S'http://web2py.com/plugins'
p4232
tp4233
a(g3885
(S't\x07\x00\x00\x00Layouts'
tRp4234
I00
S'http://web2py.com/layouts'
p4235
tp4236
a(g3885
(S't\x07\x00\x00\x00Recipes'
tRp4237
I00
S'http://web2pyslices.com/'
p4238
tp4239
a(g3885
(S't\x08\x00\x00\x00Semantic'
tRp4240
I00
S'http://web2py.com/semantic'
p4241
tp4242
aasbasbasbasbasbasbasbag49
(g65
g51
NtRp4243
(dp4244
g54
(dp4245
sg63
g4000
sg56
(lp4246
g49
(g70
g51
NtRp4247
(dp4248
g54
(dp4249
sg63
g4243
sg56
(lp4250
g49
(g50
g51
NtRp4251
(dp4252
g54
(dp4253
g62
I2
ssg63
g4247
sg56
(lp4254
g49
(g58
g51
NtRp4255
(dp4256
g54
(dp4257
g62
I1
ssg63
Nsg56
(lp4258
g49
(g65
g51
NtRp4259
(dp4260
g54
(dp4261
sg63
g4255
sg56
(lp4262
g49
(g70
g51
NtRp4263
(dp4264
g54
(dp4265
sg63
g4259
sg56
(lp4266
g49
(g50
g51
NtRp4267
(dp4268
g54
(dp4269
g62
I1
ssg63
g4263
sg56
(lp4270
g3885
(S't\r\x00\x00\x00Documentation'
tRp4271
asbasbasbag49
(g65
g51
NtRp4272
(dp4273
g54
(dp4274
sg63
g4255
sg56
(lp4275
g49
(g70
g51
NtRp4276
(dp4277
g54
(dp4278
sg63
g4272
sg56
(lp4279
g49
(g50
g51
NtRp4280
(dp4281
g54
(dp4282
g62
I1
ssg63
g4276
sg56
(lp4283
I00
asbasbasbag49
(g65
g51
NtRp4284
(dp4285
g54
(dp4286
sg63
g4255
sg56
(lp4287
g49
(g70
g51
NtRp4288
(dp4289
g54
(dp4290
sg63
g4284
sg56
(lp4291
g49
(g50
g51
NtRp4292
(dp4293
g54
(dp4294
g62
I1
ssg63
g4288
sg56
(lp4295
S'http://www.web2py.com/book'
p4296
asbasbasbag49
(g65
g51
NtRp4297
(dp4298
g54
(dp4299
sg63
g4255
sg56
(lp4300
g49
(g70
g51
NtRp4301
(dp4302
g54
(dp4303
sg63
g4297
sg56
(lp4304
g49
(g50
g51
NtRp4305
(dp4306
g54
(dp4307
g62
I1
ssg63
g4301
sg56
(lp4308
(lp4309
(g3885
(S't\x07\x00\x00\x00Preface'
tRp4310
I00
S'http://www.web2py.com/book/default/chapter/00'
p4311
tp4312
a(g3885
(S't\x0c\x00\x00\x00Introduction'
tRp4313
I00
S'http://www.web2py.com/book/default/chapter/01'
p4314
tp4315
a(g3885
(S't\x06\x00\x00\x00Python'
tRp4316
I00
S'http://www.web2py.com/book/default/chapter/02'
p4317
tp4318
a(g3885
(S't\x08\x00\x00\x00Overview'
tRp4319
I00
S'http://www.web2py.com/book/default/chapter/03'
p4320
tp4321
a(g3885
(S's\x08\x00\x00\x00The Core'
tRp4322
I00
S'http://www.web2py.com/book/default/chapter/04'
p4323
tp4324
a(g3885
(S's\t\x00\x00\x00The Views'
tRp4325
I00
S'http://www.web2py.com/book/default/chapter/05'
p4326
tp4327
a(g3885
(S't\x08\x00\x00\x00Database'
tRp4328
I00
S'http://www.web2py.com/book/default/chapter/06'
p4329
tp4330
a(g3885
(S's\x14\x00\x00\x00Forms and Validators'
tRp4331
I00
S'http://www.web2py.com/book/default/chapter/07'
p4332
tp4333
a(g3885
(S's\r\x00\x00\x00Email and SMS'
tRp4334
I00
S'http://www.web2py.com/book/default/chapter/08'
p4335
tp4336
a(g3885
(S's\x0e\x00\x00\x00Access Control'
tRp4337
I00
S'http://www.web2py.com/book/default/chapter/09'
p4338
tp4339
a(g3885
(S't\x08\x00\x00\x00Services'
tRp4340
I00
S'http://www.web2py.com/book/default/chapter/10'
p4341
tp4342
a(g3885
(S's\x0c\x00\x00\x00Ajax Recipes'
tRp4343
I00
S'http://www.web2py.com/book/default/chapter/11'
p4344
tp4345
a(g3885
(S's\x16\x00\x00\x00Components and Plugins'
tRp4346
I00
S'http://www.web2py.com/book/default/chapter/12'
p4347
tp4348
a(g3885
(S's\x12\x00\x00\x00Deployment Recipes'
tRp4349
I00
S'http://www.web2py.com/book/default/chapter/13'
p4350
tp4351
a(g3885
(S's\r\x00\x00\x00Other Recipes'
tRp4352
I00
S'http://www.web2py.com/book/default/chapter/14'
p4353
tp4354
a(g3885
(S's\r\x00\x00\x00Buy this book'
tRp4355
I00
S'http://stores.lulu.com/web2py'
p4356
tp4357
aasbasbasbasbasbasbasbag49
(g65
g51
NtRp4358
(dp4359
g54
(dp4360
sg63
g4000
sg56
(lp4361
g49
(g70
g51
NtRp4362
(dp4363
g54
(dp4364
sg63
g4358
sg56
(lp4365
g49
(g50
g51
NtRp4366
(dp4367
g54
(dp4368
g62
I2
ssg63
g4362
sg56
(lp4369
g49
(g58
g51
NtRp4370
(dp4371
g54
(dp4372
g62
I1
ssg63
Nsg56
(lp4373
g49
(g65
g51
NtRp4374
(dp4375
g54
(dp4376
sg63
g4370
sg56
(lp4377
g49
(g70
g51
NtRp4378
(dp4379
g54
(dp4380
sg63
g4374
sg56
(lp4381
g49
(g50
g51
NtRp4382
(dp4383
g54
(dp4384
g62
I1
ssg63
g4378
sg56
(lp4385
g3885
(S't\t\x00\x00\x00Community'
tRp4386
asbasbasbag49
(g65
g51
NtRp4387
(dp4388
g54
(dp4389
sg63
g4370
sg56
(lp4390
g49
(g70
g51
NtRp4391
(dp4392
g54
(dp4393
sg63
g4387
sg56
(lp4394
g49
(g50
g51
NtRp4395
(dp4396
g54
(dp4397
g62
I1
ssg63
g4391
sg56
(lp4398
I00
asbasbasbag49
(g65
g51
NtRp4399
(dp4400
g54
(dp4401
sg63
g4370
sg56
(lp4402
g49
(g70
g51
NtRp4403
(dp4404
g54
(dp4405
sg63
g4399
sg56
(lp4406
g49
(g50
g51
NtRp4407
(dp4408
g54
(dp4409
g62
I1
ssg63
g4403
sg56
(lp4410
Nasbasbasbag49
(g65
g51
NtRp4411
(dp4412
g54
(dp4413
sg63
g4370
sg56
(lp4414
g49
(g70
g51
NtRp4415
(dp4416
g54
(dp4417
sg63
g4411
sg56
(lp4418
g49
(g50
g51
NtRp4419
(dp4420
g54
(dp4421
g62
I1
ssg63
g4415
sg56
(lp4422
(lp4423
(g3885
(S't\x06\x00\x00\x00Groups'
tRp4424
I00
S'http://www.web2py.com/examples/default/usergroups'
p4425
tp4426
a(g3885
(S't\x07\x00\x00\x00Twitter'
tRp4427
I00
S'http://twitter.com/web2py'
p4428
tp4429
a(g3885
(S's\t\x00\x00\x00Live Chat'
tRp4430
I00
S'http://webchat.freenode.net/?channels=web2py'
p4431
tp4432
aasbasbasbasbasbasbasbag49
(g65
g51
NtRp4433
(dp4434
g54
(dp4435
sg63
g4000
sg56
(lp4436
g49
(g70
g51
NtRp4437
(dp4438
g54
(dp4439
sg63
g4433
sg56
(lp4440
g49
(g50
g51
NtRp4441
(dp4442
g54
(dp4443
g62
I2
ssg63
g4437
sg56
(lp4444
g49
(g58
g51
NtRp4445
(dp4446
g54
(dp4447
g62
I1
ssg63
Nsg56
(lp4448
g49
(g65
g51
NtRp4449
(dp4450
g54
(dp4451
sg63
g4445
sg56
(lp4452
g49
(g70
g51
NtRp4453
(dp4454
g54
(dp4455
sg63
g4449
sg56
(lp4456
g49
(g50
g51
NtRp4457
(dp4458
g54
(dp4459
g62
I1
ssg63
g4453
sg56
(lp4460
g3885
(S't\x07\x00\x00\x00Plugins'
tRp4461
asbasbasbag49
(g65
g51
NtRp4462
(dp4463
g54
(dp4464
sg63
g4445
sg56
(lp4465
g49
(g70
g51
NtRp4466
(dp4467
g54
(dp4468
sg63
g4462
sg56
(lp4469
g49
(g50
g51
NtRp4470
(dp4471
g54
(dp4472
g62
I1
ssg63
g4466
sg56
(lp4473
I00
asbasbasbag49
(g65
g51
NtRp4474
(dp4475
g54
(dp4476
sg63
g4445
sg56
(lp4477
g49
(g70
g51
NtRp4478
(dp4479
g54
(dp4480
sg63
g4474
sg56
(lp4481
g49
(g50
g51
NtRp4482
(dp4483
g54
(dp4484
g62
I1
ssg63
g4478
sg56
(lp4485
Nasbasbasbag49
(g65
g51
NtRp4486
(dp4487
g54
(dp4488
sg63
g4445
sg56
(lp4489
g49
(g70
g51
NtRp4490
(dp4491
g54
(dp4492
sg63
g4486
sg56
(lp4493
g49
(g50
g51
NtRp4494
(dp4495
g54
(dp4496
g62
I1
ssg63
g4490
sg56
(lp4497
(lp4498
(S'plugin_wiki'
p4499
I00
S'http://web2py.com/examples/default/download'
p4500
tp4501
a(g3885
(S's\r\x00\x00\x00Other Plugins'
tRp4502
I00
g4232
tp4503
a(g3885
(S's\x0e\x00\x00\x00Layout Plugins'
tRp4504
I00
g4235
tp4505
aasbasbasbasbasbasbasbasbasbasbasbasbasbasbasbasbasbasbasbag49
(g65
g51
NtRp4506
(dp4507
g54
(dp4508
sg63
g3427
sg56
(lp4509
g49
(g70
g51
NtRp4510
(dp4511
g54
(dp4512
g74
g75
ssg63
g4506
sg56
(lp4513
S'meta'
p4514
asbag49
(g70
g51
NtRp4515
(dp4516
g54
(dp4517
g81
g82
ssg63
g4506
sg56
(lp4518
S':'
asbag49
(g70
g51
NtRp4519
(dp4520
g54
(dp4521
sg63
g4506
sg56
(lp4522
g49
(g50
g51
NtRp4523
(dp4524
g54
(dp4525
g62
I5
ssg63
g4519
sg56
(lp4526
g49
(g58
g51
NtRp4527
(dp4528
g54
(dp4529
g62
I4
ssg63
Nsg56
(lp4530
g49
(g65
g51
NtRp4531
(dp4532
g54
(dp4533
sg63
g4527
sg56
(lp4534
g49
(g70
g51
NtRp4535
(dp4536
g54
(dp4537
g74
g75
ssg63
g4531
sg56
(lp4538
S'author'
p4539
asbag49
(g70
g51
NtRp4540
(dp4541
g54
(dp4542
g81
g82
ssg63
g4531
sg56
(lp4543
S':'
asbag49
(g70
g51
NtRp4544
(dp4545
g54
(dp4546
sg63
g4531
sg56
(lp4547
g49
(g50
g51
NtRp4548
(dp4549
g54
(dp4550
g62
I4
ssg63
g4544
sg56
(lp4551
S'Your Name <you@example.com>'
p4552
asbasbasbag49
(g65
g51
NtRp4553
(dp4554
g54
(dp4555
sg63
g4527
sg56
(lp4556
g49
(g70
g51
NtRp4557
(dp4558
g54
(dp4559
g74
g75
ssg63
g4553
sg56
(lp4560
S'description'
p4561
asbag49
(g70
g51
NtRp4562
(dp4563
g54
(dp4564
g81
g82
ssg63
g4553
sg56
(lp4565
S':'
asbag49
(g70
g51
NtRp4566
(dp4567
g54
(dp4568
sg63
g4553
sg56
(lp4569
g49
(g50
g51
NtRp4570
(dp4571
g54
(dp4572
g62
I4
ssg63
g4566
sg56
(lp4573
S'a cool new app'
p4574
asbasbasbag49
(g65
g51
NtRp4575
(dp4576
g54
(dp4577
sg63
g4527
sg56
(lp4578
g49
(g70
g51
NtRp4579
(dp4580
g54
(dp4581
g74
g75
ssg63
g4575
sg56
(lp4582
S'generator'
p4583
asbag49
(g70
g51
NtRp4584
(dp4585
g54
(dp4586
g81
g82
ssg63
g4575
sg56
(lp4587
S':'
asbag49
(g70
g51
NtRp4588
(dp4589
g54
(dp4590
sg63
g4575
sg56
(lp4591
g49
(g50
g51
NtRp4592
(dp4593
g54
(dp4594
g62
I4
ssg63
g4588
sg56
(lp4595
S'Web2py Web Framework'
p4596
asbasbasbag49
(g65
g51
NtRp4597
(dp4598
g54
(dp4599
sg63
g4527
sg56
(lp4600
g49
(g70
g51
NtRp4601
(dp4602
g54
(dp4603
g74
g75
ssg63
g4597
sg56
(lp4604
S'keywords'
p4605
asbag49
(g70
g51
NtRp4606
(dp4607
g54
(dp4608
g81
g82
ssg63
g4597
sg56
(lp4609
S':'
asbag49
(g70
g51
NtRp4610
(dp4611
g54
(dp4612
sg63
g4597
sg56
(lp4613
g49
(g50
g51
NtRp4614
(dp4615
g54
(dp4616
g62
I4
ssg63
g4610
sg56
(lp4617
S'web2py, python, framework'
p4618
asbasbasbasbasbasbasbag49
(g65
g51
NtRp4619
(dp4620
g54
(dp4621
sg63
g3427
sg56
(lp4622
g49
(g70
g51
NtRp4623
(dp4624
g54
(dp4625
g74
g75
ssg63
g4619
sg56
(lp4626
S'models_to_run'
p4627
asbag49
(g70
g51
NtRp4628
(dp4629
g54
(dp4630
g81
g82
ssg63
g4619
sg56
(lp4631
S':'
asbag49
(g70
g51
NtRp4632
(dp4633
g54
(dp4634
sg63
g4619
sg56
(lp4635
g49
(g50
g51
NtRp4636
(dp4637
g54
(dp4638
g62
I5
ssg63
g4632
sg56
(lp4639
g49
(g58
g51
NtRp4640
(dp4641
g54
(dp4642
g62
I4
ssg63
Nsg56
(lp4643
g49
(g65
g51
NtRp4644
(dp4645
g54
(dp4646
sg63
g4640
sg56
(lp4647
g49
(g70
g51
NtRp4648
(dp4649
g54
(dp4650
sg63
g4644
sg56
(lp4651
g49
(g50
g51
NtRp4652
(dp4653
g54
(dp4654
g62
I4
ssg63
g4648
sg56
(lp4655
S'^\\w+\\.py$'
p4656
asbasbasbag49
(g65
g51
NtRp4657
(dp4658
g54
(dp4659
sg63
g4640
sg56
(lp4660
g49
(g70
g51
NtRp4661
(dp4662
g54
(dp4663
sg63
g4657
sg56
(lp4664
g49
(g50
g51
NtRp4665
(dp4666
g54
(dp4667
g62
I4
ssg63
g4661
sg56
(lp4668
S'^default/\\w+\\.py$'
p4669
asbasbasbag49
(g65
g51
NtRp4670
(dp4671
g54
(dp4672
sg63
g4640
sg56
(lp4673
g49
(g70
g51
NtRp4674
(dp4675
g54
(dp4676
sg63
g4670
sg56
(lp4677
g49
(g50
g51
NtRp4678
(dp4679
g54
(dp4680
g62
I4
ssg63
g4674
sg56
(lp4681
S'^default/show_image_comments/\\w+\\.py$'
p4682
asbasbasbasbasbasbasbag49
(g65
g51
NtRp4683
(dp4684
g54
(dp4685
sg63
g3427
sg56
(lp4686
g49
(g70
g51
NtRp4687
(dp4688
g54
(dp4689
g74
g75
ssg63
g4683
sg56
(lp4690
S'postprocessing'
p4691
asbag49
(g70
g51
NtRp4692
(dp4693
g54
(dp4694
g81
g82
ssg63
g4683
sg56
(lp4695
S':'
asbag49
(g70
g51
NtRp4696
(dp4697
g54
(dp4698
sg63
g4683
sg56
(lp4699
g49
(g50
g51
NtRp4700
(dp4701
g54
(dp4702
g62
I5
ssg63
g4696
sg56
(lp4703
g49
(g58
g51
NtRp4704
(dp4705
g54
(dp4706
g62
I4
ssg63
Nsg56
(lp4707
sbasbasbasbag49
(g65
g51
NtRp4708
(dp4709
g54
(dp4710
sg63
g3427
sg56
(lp4711
g49
(g70
g51
NtRp4712
(dp4713
g54
(dp4714
g74
g75
ssg63
g4708
sg56
(lp4715
S'session_cookie_expires'
p4716
asbag49
(g70
g51
NtRp4717
(dp4718
g54
(dp4719
g81
g82
ssg63
g4708
sg56
(lp4720
S':'
asbag49
(g70
g51
NtRp4721
(dp4722
g54
(dp4723
sg63
g4708
sg56
(lp4724
g49
(g50
g51
NtRp4725
(dp4726
g54
(dp4727
g62
I5
ssg63
g4721
sg56
(lp4728
S'None'
p4729
asbasbasbag49
(g65
g51
NtRp4730
(dp4731
g54
(dp4732
sg63
g3427
sg56
(lp4733
g49
(g70
g51
NtRp4734
(dp4735
g54
(dp4736
g74
g75
ssg63
g4730
sg56
(lp4737
S'session_data_name'
p4738
asbag49
(g70
g51
NtRp4739
(dp4740
g54
(dp4741
g81
g82
ssg63
g4730
sg56
(lp4742
S':'
asbag49
(g70
g51
NtRp4743
(dp4744
g54
(dp4745
sg63
g4730
sg56
(lp4746
g49
(g50
g51
NtRp4747
(dp4748
g54
(dp4749
g62
I5
ssg63
g4743
sg56
(lp4750
S'session_data_final_impulse'
p4751
asbasbasbag49
(g65
g51
NtRp4752
(dp4753
g54
(dp4754
sg63
g3427
sg56
(lp4755
g49
(g70
g51
NtRp4756
(dp4757
g54
(dp4758
g74
g75
ssg63
g4752
sg56
(lp4759
S'session_file'
p4760
asbag49
(g70
g51
NtRp4761
(dp4762
g54
(dp4763
g81
g82
ssg63
g4752
sg56
(lp4764
S':'
asbag49
(g70
g51
NtRp4765
(dp4766
g54
(dp4767
sg63
g4752
sg56
(lp4768
g49
(g50
g51
NtRp4769
(dp4770
g54
(dp4771
g62
I5
ssg63
g4765
sg56
(lp4772
S"<open file '/Users/abaric/Downloads/web2py/web2py.app/Contents/Resources/applications/Final_Impulse/sessions/127.0.0.1-196d16f0-df2a-4177-8038-20bcfac6a099', mode 'rb+' at 0x8dada40>"
p4773
asbasbasbag49
(g65
g51
NtRp4774
(dp4775
g54
(dp4776
sg63
g3427
sg56
(lp4777
g49
(g70
g51
NtRp4778
(dp4779
g54
(dp4780
g74
g75
ssg63
g4774
sg56
(lp4781
S'session_filename'
p4782
asbag49
(g70
g51
NtRp4783
(dp4784
g54
(dp4785
g81
g82
ssg63
g4774
sg56
(lp4786
S':'
asbag49
(g70
g51
NtRp4787
(dp4788
g54
(dp4789
sg63
g4774
sg56
(lp4790
g49
(g50
g51
NtRp4791
(dp4792
g54
(dp4793
g62
I5
ssg63
g4787
sg56
(lp4794
S'/Users/abaric/Downloads/web2py/web2py.app/Contents/Resources/applications/Final_Impulse/sessions/127.0.0.1-196d16f0-df2a-4177-8038-20bcfac6a099'
p4795
asbasbasbag49
(g65
g51
NtRp4796
(dp4797
g54
(dp4798
sg63
g3427
sg56
(lp4799
g49
(g70
g51
NtRp4800
(dp4801
g54
(dp4802
g74
g75
ssg63
g4796
sg56
(lp4803
S'session_id'
p4804
asbag49
(g70
g51
NtRp4805
(dp4806
g54
(dp4807
g81
g82
ssg63
g4796
sg56
(lp4808
S':'
asbag49
(g70
g51
NtRp4809
(dp4810
g54
(dp4811
sg63
g4796
sg56
(lp4812
g49
(g50
g51
NtRp4813
(dp4814
g54
(dp4815
g62
I5
ssg63
g4809
sg56
(lp4816
g612
asbasbasbag49
(g65
g51
NtRp4817
(dp4818
g54
(dp4819
sg63
g3427
sg56
(lp4820
g49
(g70
g51
NtRp4821
(dp4822
g54
(dp4823
g74
g75
ssg63
g4817
sg56
(lp4824
S'session_id_name'
p4825
asbag49
(g70
g51
NtRp4826
(dp4827
g54
(dp4828
g81
g82
ssg63
g4817
sg56
(lp4829
S':'
asbag49
(g70
g51
NtRp4830
(dp4831
g54
(dp4832
sg63
g4817
sg56
(lp4833
g49
(g50
g51
NtRp4834
(dp4835
g54
(dp4836
g62
I5
ssg63
g4830
sg56
(lp4837
g3484
asbasbasbag49
(g65
g51
NtRp4838
(dp4839
g54
(dp4840
sg63
g3427
sg56
(lp4841
g49
(g70
g51
NtRp4842
(dp4843
g54
(dp4844
g74
g75
ssg63
g4838
sg56
(lp4845
S'session_locked'
p4846
asbag49
(g70
g51
NtRp4847
(dp4848
g54
(dp4849
g81
g82
ssg63
g4838
sg56
(lp4850
S':'
asbag49
(g70
g51
NtRp4851
(dp4852
g54
(dp4853
sg63
g4838
sg56
(lp4854
g49
(g50
g51
NtRp4855
(dp4856
g54
(dp4857
g62
I5
ssg63
g4851
sg56
(lp4858
g1865
asbasbasbag49
(g65
g51
NtRp4859
(dp4860
g54
(dp4861
sg63
g3427
sg56
(lp4862
g49
(g70
g51
NtRp4863
(dp4864
g54
(dp4865
g74
g75
ssg63
g4859
sg56
(lp4866
S'session_new'
p4867
asbag49
(g70
g51
NtRp4868
(dp4869
g54
(dp4870
g81
g82
ssg63
g4859
sg56
(lp4871
S':'
asbag49
(g70
g51
NtRp4872
(dp4873
g54
(dp4874
sg63
g4859
sg56
(lp4875
g49
(g50
g51
NtRp4876
(dp4877
g54
(dp4878
g62
I5
ssg63
g4872
sg56
(lp4879
g92
asbasbasbag49
(g65
g51
NtRp4880
(dp4881
g54
(dp4882
sg63
g3427
sg56
(lp4883
g49
(g70
g51
NtRp4884
(dp4885
g54
(dp4886
g74
g75
ssg63
g4880
sg56
(lp4887
S'session_storage_type'
p4888
asbag49
(g70
g51
NtRp4889
(dp4890
g54
(dp4891
g81
g82
ssg63
g4880
sg56
(lp4892
S':'
asbag49
(g70
g51
NtRp4893
(dp4894
g54
(dp4895
sg63
g4880
sg56
(lp4896
g49
(g50
g51
NtRp4897
(dp4898
g54
(dp4899
g62
I5
ssg63
g4893
sg56
(lp4900
g3296
asbasbasbag49
(g65
g51
NtRp4901
(dp4902
g54
(dp4903
sg63
g3427
sg56
(lp4904
g49
(g70
g51
NtRp4905
(dp4906
g54
(dp4907
g74
g75
ssg63
g4901
sg56
(lp4908
S'status'
p4909
asbag49
(g70
g51
NtRp4910
(dp4911
g54
(dp4912
g81
g82
ssg63
g4901
sg56
(lp4913
S':'
asbag49
(g70
g51
NtRp4914
(dp4915
g54
(dp4916
sg63
g4901
sg56
(lp4917
g49
(g50
g51
NtRp4918
(dp4919
g54
(dp4920
g62
I5
ssg63
g4914
sg56
(lp4921
S'200'
p4922
asbasbasbag49
(g65
g51
NtRp4923
(dp4924
g54
(dp4925
sg63
g3427
sg56
(lp4926
g49
(g70
g51
NtRp4927
(dp4928
g54
(dp4929
g74
g75
ssg63
g4923
sg56
(lp4930
S'subtitle'
p4931
asbag49
(g70
g51
NtRp4932
(dp4933
g54
(dp4934
g81
g82
ssg63
g4923
sg56
(lp4935
S':'
asbag49
(g70
g51
NtRp4936
(dp4937
g54
(dp4938
sg63
g4923
sg56
(lp4939
g49
(g50
g51
NtRp4940
(dp4941
g54
(dp4942
g62
I5
ssg63
g4936
sg56
(lp4943
g3885
(S's\r\x00\x00\x00customize me!'
tRp4944
asbasbasbag49
(g65
g51
NtRp4945
(dp4946
g54
(dp4947
sg63
g3427
sg56
(lp4948
g49
(g70
g51
NtRp4949
(dp4950
g54
(dp4951
g74
g75
ssg63
g4945
sg56
(lp4952
S'title'
p4953
asbag49
(g70
g51
NtRp4954
(dp4955
g54
(dp4956
g81
g82
ssg63
g4945
sg56
(lp4957
S':'
asbag49
(g70
g51
NtRp4958
(dp4959
g54
(dp4960
sg63
g4945
sg56
(lp4961
g49
(g50
g51
NtRp4962
(dp4963
g54
(dp4964
g62
I5
ssg63
g4958
sg56
(lp4965
S'Final Impulse'
p4966
asbasbasbag49
(g65
g51
NtRp4967
(dp4968
g54
(dp4969
sg63
g3427
sg56
(lp4970
g49
(g70
g51
NtRp4971
(dp4972
g54
(dp4973
g74
g75
ssg63
g4967
sg56
(lp4974
S'view'
p4975
asbag49
(g70
g51
NtRp4976
(dp4977
g54
(dp4978
g81
g82
ssg63
g4967
sg56
(lp4979
S':'
asbag49
(g70
g51
NtRp4980
(dp4981
g54
(dp4982
sg63
g4967
sg56
(lp4983
g49
(g50
g51
NtRp4984
(dp4985
g54
(dp4986
g62
I5
ssg63
g4980
sg56
(lp4987
S'default/show_image_comments.html'
p4988
asbasbasbasbasbsS'locals'
p4989
(dp4990
S'image_form'
p4991
S'<gluon.sqlhtml.SQLFORM object at 0x93ab510>'
p4992
sssS'traceback'
p4993
S'Traceback (most recent call last):\n  File "gluon/restricted.py", line 212, in restricted\n  File "/Users/abaric/Downloads/web2py/web2py.app/Contents/Resources/applications/Final_Impulse/controllers/default.py", line 181, in <module>\n  File "gluon/globals.py", line 188, in <lambda>\n  File "/Users/abaric/Downloads/web2py/web2py.app/Contents/Resources/applications/Final_Impulse/controllers/default.py", line 24, in show_image_comments\nAttributeError: \'NoneType\' object has no attribute \'id\'\n'
p4994
s.