(dp1
S'output'
p2
S"<type 'exceptions.KeyError'> 2"
p3
sS'layer'
p4
S'/Users/abaric/Downloads/web2py/web2py.app/Contents/Resources/applications/Final_Impulse/views/default/show_video_comments.html'
p5
sS'code'
p6
S'response.write(\'<!DOCTYPE html>\\n<!-- paulirish.com/2008/conditional-stylesheets-vs-css-hacks-answer-neither/ -->\\n<!--[if lt IE 7]><html class="ie ie6 ie-lte9 ie-lte8 ie-lte7 no-js" lang="\', escape=False)\nresponse.write(T.accepted_language or \'en\')\nresponse.write(\'"> <![endif]-->\\n<!--[if IE 7]><html class="ie ie7 ie-lte9 ie-lte8 ie-lte7 no-js" lang="\', escape=False)\nresponse.write(T.accepted_language or \'en\')\nresponse.write(\'"> <![endif]-->\\n<!--[if IE 8]><html class="ie ie8 ie-lte9 ie-lte8 no-js" lang="\', escape=False)\nresponse.write(T.accepted_language or \'en\')\nresponse.write(\'"> <![endif]-->\\n<!--[if IE 9]><html class="ie9 ie-lte9 no-js" lang="\', escape=False)\nresponse.write(T.accepted_language or \'en\')\nresponse.write(\'"> <![endif]-->\\n<!--[if (gt IE 9)|!(IE)]><!--> <html class="no-js" lang="\', escape=False)\nresponse.write(T.accepted_language or \'en\')\nresponse.write(\'"> <!--<![endif]-->\\n<head>\\n  <meta charset="utf-8" />\\n  <!-- www.phpied.com/conditional-comments-block-downloads/ -->\\n  <!-- Always force latest IE rendering engine\\n       (even in intranet) & Chrome Frame\\n       Remove this if you use the .htaccess -->\\n  <!--[if IE]>\\n      <meta http-equiv="X-UA-Compatible" content="IE=edge\', escape=False)\nresponse.write(not request.is_local and \',chrome=1\' or \'\')\nresponse.write(\'">\\n      <![endif]-->\\n\\n  <title>\', escape=False)\nresponse.write(response.title or request.application)\nresponse.write(\'</title>\\n\\n  <!-- http://dev.w3.org/html5/markup/meta.name.html -->\\n  <meta name="application-name" content="\', escape=False)\nresponse.write(request.application)\nresponse.write(\'" />\\n\\n  <!-- Speaking of Google, don\\\'t forget to set your site up:\\n       http://google.com/webmasters -->\\n  <meta name="google-site-verification" content="" />\\n\\n  <!--  Mobile Viewport Fix\\n        j.mp/mobileviewport & davidbcalhoun.com/2010/viewport-metatag\\n        device-width: Occupy full width of the screen in its current orientation\\n        initial-scale = 1.0 retains dimensions instead of zooming out if page height > device height\\n        user-scalable = yes allows the user to zoom in -->\\n  <meta name="viewport" content="width=device-width, initial-scale=1.0">\\n\\n  <link rel="shortcut icon" href="\', escape=False)\nresponse.write(URL(\'static\',\'images/favicon.ico\'))\nresponse.write(\'" type="image/x-icon">\\n  <link rel="apple-touch-icon" href="\', escape=False)\nresponse.write(URL(\'static\',\'images/favicon.png\'))\nresponse.write(\'">\\n\\n  <!-- All JavaScript at the bottom, except for Modernizr which enables\\n       HTML5 elements & feature detects -->\\n  <script src="\', escape=False)\nresponse.write(URL(\'static\',\'js/modernizr.custom.js\'))\nresponse.write(\'"></script>\\n\\n  <!-- include stylesheets -->\\n  \', escape=False)\nresponse.files.append(URL(\'static\',\'css/web2py.css\'))\nresponse.files.append(URL(\'static\',\'css/bootstrap.min.css\'))\nresponse.files.append(URL(\'static\',\'css/bootstrap-responsive.min.css\'))\nresponse.files.append(URL(\'static\',\'css/web2py_bootstrap.css\'))\nresponse.write(\'\\n\\n  \', escape=False)\nresponse.write(\'<script type="text/javascript"><!--\\n    // These variables are used by the web2py_ajax_init function in web2py_ajax.js (which is loaded below).\\n    var w2p_ajax_confirm_message = "\', escape=False)\nresponse.write(T(\'Are you sure you want to delete this object?\'))\nresponse.write(\'";\\n    var w2p_ajax_date_format = "\', escape=False)\nresponse.write(T(\'%Y-%m-%d\'))\nresponse.write(\'";\\n    var w2p_ajax_datetime_format = "\', escape=False)\nresponse.write(T(\'%Y-%m-%d %H:%M:%S\'))\nresponse.write(\'";\\n    //--></script>\\n\', escape=False)\nresponse.files.insert(0,URL(\'static\',\'js/jquery.js\'))\nresponse.files.insert(1,URL(\'static\',\'css/calendar.css\'))\nresponse.files.insert(2,URL(\'static\',\'js/calendar.js\'))\nresponse.files.insert(3,URL(\'static\',\'js/web2py.js\'))\nresponse.include_meta()\nresponse.include_files()\nresponse.write(\'\\n\', escape=False)\nresponse.write(\'\\n\\n  \', escape=False)\n# using sidebars need to know what sidebar you want to use\nleft_sidebar_enabled = globals().get(\'left_sidebar_enabled\',False)\nright_sidebar_enabled = globals().get(\'right_sidebar_enabled\',False)\nmiddle_columns = {0:\'span12\',1:\'span9\',2:\'span6\'}[\n(left_sidebar_enabled and 1 or 0)+(right_sidebar_enabled and 1 or 0)]\nresponse.write(\'\\n\\n  <!-- uncomment here to load jquery-ui\\n       <link rel="stylesheet" href="http://ajax.googleapis.com/ajax/libs/jqueryui/1.8.16/themes/base/jquery-ui.css" type="text/css" media="all" />\\n       <script src="http://ajax.googleapis.com/ajax/libs/jqueryui/1.8.16/jquery-ui.min.js" type="text/javascript"></script>\\n       uncomment to load jquery-ui //-->\\n  <noscript><link href="\', escape=False)\nresponse.write(URL(\'static\', \'css/web2py_bootstrap_nojs.css\'))\nresponse.write(\'" rel="stylesheet" type="text/css" /></noscript>\\n  \', escape=False)\nresponse.write(\'\\n</head>\\n\\n<body>\\n  <!-- Navbar ================================================== -->\\n  <div class="navbar navbar-inverse navbar-fixed-top">\\n    <div class="flash">\', escape=False)\nresponse.write(response.flash or \'\')\nresponse.write(\'</div>\\n    <div class="navbar-inner">\\n      <div class="container">\\n        <!-- the next tag is necessary for bootstrap menus, do not remove -->\\n        <button type="button" class="btn btn-navbar" data-toggle="collapse" data-target=".nav-collapse">\\n          <span class="icon-bar"></span>\\n          <span class="icon-bar"></span>\\n          <span class="icon-bar"></span>\\n        </button>\\n        <a class="brand" href="http://www.web2py.com/"><b>web<span>2</span>py</b>&trade;&nbsp;</a>\\n        <ul id="navbar" class="nav pull-right">\', escape=False)\nresponse.write(\'auth\' in globals() and auth.navbar(mode="dropdown") or \'\')\nresponse.write(\'</ul>\\n        <div class="nav-collapse">\\n          \', escape=False)\nis_mobile=request.user_agent().is_mobile\nresponse.write(\'\\n          \', escape=False)\nif response.menu:\n    response.write(\'\\n          \', escape=False)\n    response.write(MENU(response.menu, _class=\'mobile-menu nav\' if is_mobile else \'nav\',mobile=is_mobile,li_class=\'dropdown\',ul_class=\'dropdown-menu\'))\n    response.write(\'\\n          \', escape=False)\n    pass\nresponse.write(\'\\n        </div><!--/.nav-collapse -->\\n      </div>\\n    </div>\\n  </div><!--/top navbar -->\\n\\n  <div class="container">\\n    <!-- Masthead ================================================== -->\\n    <header class="mastheader row" id="header">\\n        <div class="span12">\\n            <div class="page-header">\\n                <h1>\\n                    \', escape=False)\nresponse.write(response.title or request.application)\nresponse.write(\'\\n                    <small>\', escape=False)\nresponse.write(response.subtitle or \'\')\nresponse.write(\'</small>\\n                </h1>\\n            </div>\\n        </div>\\n    </header>\\n\\n    <section id="main" class="main row">\\n        \', escape=False)\nif left_sidebar_enabled:\n    response.write(\'\\n        <div class="span3 left-sidebar">\\n            \', escape=False)\n    response.write(\'\\n            <h3>Left Sidebar</h3>\\n            <p></p>\\n            \', escape=False)\n    response.write(\'\\n        </div>\\n        \', escape=False)\n    pass\nresponse.write(\'\\n\\n        <div class="\', escape=False)\nresponse.write(middle_columns)\nresponse.write(\'">\\n            \', escape=False)\nresponse.write(\'\\n            \', escape=False)\nresponse.write(\'\\n\\n<h1>Da Video Posts</h1>\\n\\n<table>\\n    \', escape=False)\nfor video in videos:\n    response.write(\'\\n    <tr>\\n        <center>\\n        <td><b><i>\', escape=False)\n    response.write(video.title)\n    response.write(\'</i></b></td>\\n        </center>\\n    </tr>\\n    \\n\\t<tr>     \\n        <center>  \\n        <td><iframe width="420" height="315" src="\', escape=False)\n    response.write(video.url_str)\n    response.write(\'" frameborder="0" allowfullscreen></iframe></td>\\n        </center>\\n    </tr>\\n  \\n    \', escape=False)\n    if len(d[video.id]):\n        response.write(\'\\n        <tr>\\n        <td>\\n            <table>\\n            \', escape=False)\n        for t in d[video.id]:\n            response.write(\'\\n                        <tr>\\n                            <center>\\n                            <td>\', escape=False)\n            response.write(("\'%s\' says \'%s\'")%(t[0],t[1]))\n            response.write(\'</td>\\n                            </center>\\n                        </tr>\\n                    \', escape=False)\n            pass\n        response.write(\'\\n        </table>\\n            </td>\\n    </tr>\\n         \', escape=False)\n        pass\n    response.write(\'\\n    \', escape=False)\n    pass\nresponse.write(\'\\n</table>\\n\', escape=False)\nresponse.write(\'\\n            \', escape=False)\nresponse.write(\'\\n        </div>\\n\\n        \', escape=False)\nif right_sidebar_enabled:\n    response.write(\'\\n        <div class="span3">\\n            \', escape=False)\n    response.write(\'\\n            <h3>Right Sidebar</h3>\\n            <p></p>\\n            \', escape=False)\n    response.write(\'\\n        </div>\\n        \', escape=False)\n    pass\nresponse.write(\'\\n    </section><!--/main-->\\n\\n    <!-- Footer ================================================== -->\\n    <div class="row">\\n        <footer class="footer span12" id="footer">\\n            <div class="footer-content">\\n                \', escape=False)\nresponse.write(\' <!-- this is default footer -->\\n                <div class="copyright pull-left">\', escape=False)\nresponse.write(T(\'Copyright\'))\nresponse.write(\' &#169; \', escape=False)\nresponse.write(request.now.year)\nresponse.write(\'</div>\\n                <div id="poweredBy" class="pull-right">\\n                    \', escape=False)\nresponse.write(T(\'Powered by\'))\nresponse.write(\'\\n                    <a href="http://www.web2py.com/">web2py</a>\\n                </div>\\n                \', escape=False)\nresponse.write(\'\\n            </div>\\n        </footer>\\n    </div>\\n\\n  </div> <!-- /container -->\\n\\n  <!-- The javascript =============================================\\n       (Placed at the end of the document so the pages load faster) -->\\n  <script src="\', escape=False)\nresponse.write(URL(\'static\',\'js/bootstrap.min.js\'))\nresponse.write(\'"></script>\\n  <script src="\', escape=False)\nresponse.write(URL(\'static\',\'js/web2py_bootstrap.js\'))\nresponse.write(\'"></script>\\n  <!--[if lt IE 7 ]>\\n      <script src="\', escape=False)\nresponse.write(URL(\'static\',\'js/dd_belatedpng.js\'))\nresponse.write(\'"></script>\\n      <script> DD_belatedPNG.fix(\\\'img, .png_bg\\\'); //fix any <img> or .png_bg background-images </script>\\n      <![endif]-->\\n  \', escape=False)\nif response.google_analytics_id:\n    response.write(\'<script type="text/javascript"> var _gaq = _gaq || []; _gaq.push([\\\'_setAccount\\\', \\\'\', escape=False)\n    response.write(response.google_analytics_id)\n    response.write("\']); _gaq.push([\'_trackPageview\']); (function() { var ga = document.createElement(\'script\'); ga.type = \'text/javascript\'; ga.async = true; ga.src = (\'https:\' == document.location.protocol ? \'https://ssl\' : \'http://www\') + \'.google-analytics.com/ga.js\'; var s = document.getElementsByTagName(\'script\')[0]; s.parentNode.insertBefore(ga, s); })(); </script> ", escape=False)\n    pass\nresponse.write(\'\\n  <script src="\', escape=False)\nresponse.write(URL(\'static\',\'js/share.js\',vars=dict(static=URL(\'static\',\'images\'))))\nresponse.write(\'"></script>\\n</body>\\n</html>\\n\\n\', escape=False)'
p7
sS'snapshot'
p8
(dp9
S'exception'
p10
(dp11
S'__hash__'
p12
S"<method-wrapper '__hash__' of exceptions.KeyError object at 0x9932670>"
p13
sS'__setattr__'
p14
S"<method-wrapper '__setattr__' of exceptions.KeyError object at 0x9932670>"
p15
sS'__reduce_ex__'
p16
S'<built-in method __reduce_ex__ of exceptions.KeyError object at 0x9932670>'
p17
sS'__getslice__'
p18
S"<method-wrapper '__getslice__' of exceptions.KeyError object at 0x9932670>"
p19
sS'__getitem__'
p20
S"<method-wrapper '__getitem__' of exceptions.KeyError object at 0x9932670>"
p21
sS'__setstate__'
p22
S'<built-in method __setstate__ of exceptions.KeyError object at 0x9932670>'
p23
sS'__reduce__'
p24
S'<built-in method __reduce__ of exceptions.KeyError object at 0x9932670>'
p25
sS'__str__'
p26
S"<method-wrapper '__str__' of exceptions.KeyError object at 0x9932670>"
p27
sS'args'
p28
S'(2,)'
p29
sS'__getattribute__'
p30
S"<method-wrapper '__getattribute__' of exceptions.KeyError object at 0x9932670>"
p31
sS'__class__'
p32
S"<type 'exceptions.KeyError'>"
p33
sS'__delattr__'
p34
S"<method-wrapper '__delattr__' of exceptions.KeyError object at 0x9932670>"
p35
sS'__repr__'
p36
S"<method-wrapper '__repr__' of exceptions.KeyError object at 0x9932670>"
p37
sS'__dict__'
p38
S'{}'
p39
sS'__doc__'
p40
S"'Mapping key not found.'"
p41
sS'__init__'
p42
S"<method-wrapper '__init__' of exceptions.KeyError object at 0x9932670>"
p43
sS'__new__'
p44
S'<built-in method __new__ of type object at 0x5f8f20>'
p45
ssS'evalue'
p46
S'2'
sS'request'
p47
ccopy_reg
_reconstructor
p48
(cgluon.html
BEAUTIFY
p49
c__builtin__
object
p50
NtRp51
(dp52
S'attributes'
p53
(dp54
sS'components'
p55
(lp56
g48
(cgluon.html
TABLE
p57
g50
NtRp58
(dp59
g53
(dp60
S'level'
p61
I5
ssS'parent'
p62
Nsg55
(lp63
g48
(cgluon.html
TR
p64
g50
NtRp65
(dp66
g53
(dp67
sg62
g58
sg55
(lp68
g48
(cgluon.html
TD
p69
g50
NtRp70
(dp71
g53
(dp72
S'_style'
p73
S'font-weight:bold;vertical-align:top'
p74
ssg62
g65
sg55
(lp75
S'ajax'
p76
asbag48
(g69
g50
NtRp77
(dp78
g53
(dp79
S'_valign'
p80
S'top'
p81
ssg62
g65
sg55
(lp82
S':'
asbag48
(g69
g50
NtRp83
(dp84
g53
(dp85
sg62
g65
sg55
(lp86
g48
(g49
g50
NtRp87
(dp88
g53
(dp89
g61
I5
ssg62
g83
sg55
(lp90
S'False'
p91
asbasbasbag48
(g64
g50
NtRp92
(dp93
g53
(dp94
sg62
g58
sg55
(lp95
g48
(g69
g50
NtRp96
(dp97
g53
(dp98
g73
g74
ssg62
g92
sg55
(lp99
S'application'
p100
asbag48
(g69
g50
NtRp101
(dp102
g53
(dp103
g80
g81
ssg62
g92
sg55
(lp104
S':'
asbag48
(g69
g50
NtRp105
(dp106
g53
(dp107
sg62
g92
sg55
(lp108
g48
(g49
g50
NtRp109
(dp110
g53
(dp111
g61
I5
ssg62
g105
sg55
(lp112
S'Final_Impulse'
p113
asbasbasbag48
(g64
g50
NtRp114
(dp115
g53
(dp116
sg62
g58
sg55
(lp117
g48
(g69
g50
NtRp118
(dp119
g53
(dp120
g73
g74
ssg62
g114
sg55
(lp121
g28
asbag48
(g69
g50
NtRp122
(dp123
g53
(dp124
g80
g81
ssg62
g114
sg55
(lp125
S':'
asbag48
(g69
g50
NtRp126
(dp127
g53
(dp128
sg62
g114
sg55
(lp129
g48
(g49
g50
NtRp130
(dp131
g53
(dp132
g61
I5
ssg62
g126
sg55
(lp133
g48
(g57
g50
NtRp134
(dp135
g53
(dp136
g61
I4
ssg62
Nsg55
(lp137
sbasbasbasbag48
(g64
g50
NtRp138
(dp139
g53
(dp140
sg62
g58
sg55
(lp141
g48
(g69
g50
NtRp142
(dp143
g53
(dp144
g73
g74
ssg62
g138
sg55
(lp145
S'body'
p146
asbag48
(g69
g50
NtRp147
(dp148
g53
(dp149
g80
g81
ssg62
g138
sg55
(lp150
S':'
asbag48
(g69
g50
NtRp151
(dp152
g53
(dp153
sg62
g138
sg55
(lp154
g48
(g49
g50
NtRp155
(dp156
g53
(dp157
g61
I5
ssg62
g151
sg55
(lp158
S'<cStringIO.StringO object at 0x9b62240>'
p159
asbasbasbag48
(g64
g50
NtRp160
(dp161
g53
(dp162
sg62
g58
sg55
(lp163
g48
(g69
g50
NtRp164
(dp165
g53
(dp166
g73
g74
ssg62
g160
sg55
(lp167
S'cid'
p168
asbag48
(g69
g50
NtRp169
(dp170
g53
(dp171
g80
g81
ssg62
g160
sg55
(lp172
S':'
asbag48
(g69
g50
NtRp173
(dp174
g53
(dp175
sg62
g160
sg55
(lp176
g48
(g49
g50
NtRp177
(dp178
g53
(dp179
g61
I5
ssg62
g173
sg55
(lp180
S'None'
p181
asbasbasbag48
(g64
g50
NtRp182
(dp183
g53
(dp184
sg62
g58
sg55
(lp185
g48
(g69
g50
NtRp186
(dp187
g53
(dp188
g73
g74
ssg62
g182
sg55
(lp189
S'client'
p190
asbag48
(g69
g50
NtRp191
(dp192
g53
(dp193
g80
g81
ssg62
g182
sg55
(lp194
S':'
asbag48
(g69
g50
NtRp195
(dp196
g53
(dp197
sg62
g182
sg55
(lp198
g48
(g49
g50
NtRp199
(dp200
g53
(dp201
g61
I5
ssg62
g195
sg55
(lp202
S'127.0.0.1'
p203
asbasbasbag48
(g64
g50
NtRp204
(dp205
g53
(dp206
sg62
g58
sg55
(lp207
g48
(g69
g50
NtRp208
(dp209
g53
(dp210
g73
g74
ssg62
g204
sg55
(lp211
S'controller'
p212
asbag48
(g69
g50
NtRp213
(dp214
g53
(dp215
g80
g81
ssg62
g204
sg55
(lp216
S':'
asbag48
(g69
g50
NtRp217
(dp218
g53
(dp219
sg62
g204
sg55
(lp220
g48
(g49
g50
NtRp221
(dp222
g53
(dp223
g61
I5
ssg62
g217
sg55
(lp224
S'default'
p225
asbasbasbag48
(g64
g50
NtRp226
(dp227
g53
(dp228
sg62
g58
sg55
(lp229
g48
(g69
g50
NtRp230
(dp231
g53
(dp232
g73
g74
ssg62
g226
sg55
(lp233
S'cookies'
p234
asbag48
(g69
g50
NtRp235
(dp236
g53
(dp237
g80
g81
ssg62
g226
sg55
(lp238
S':'
asbag48
(g69
g50
NtRp239
(dp240
g53
(dp241
sg62
g226
sg55
(lp242
g48
(g49
g50
NtRp243
(dp244
g53
(dp245
g61
I5
ssg62
g239
sg55
(lp246
g48
(g57
g50
NtRp247
(dp248
g53
(dp249
g61
I4
ssg62
Nsg55
(lp250
g48
(g64
g50
NtRp251
(dp252
g53
(dp253
sg62
g247
sg55
(lp254
g48
(g69
g50
NtRp255
(dp256
g53
(dp257
g73
g74
ssg62
g251
sg55
(lp258
S'session_id_admin'
p259
asbag48
(g69
g50
NtRp260
(dp261
g53
(dp262
g80
g81
ssg62
g251
sg55
(lp263
S':'
asbag48
(g69
g50
NtRp264
(dp265
g53
(dp266
sg62
g251
sg55
(lp267
g48
(g49
g50
NtRp268
(dp269
g53
(dp270
g61
I4
ssg62
g264
sg55
(lp271
S'127.0.0.1-67e1670c-9cb7-4c81-83d1-b44ab2b28c6e'
p272
ag48
(g57
g50
NtRp273
(dp274
g53
(dp275
g61
I3
ssg62
Nsg55
(lp276
g48
(g64
g50
NtRp277
(dp278
g53
(dp279
sg62
g273
sg55
(lp280
g48
(g69
g50
NtRp281
(dp282
g53
(dp283
g73
g74
ssg62
g277
sg55
(lp284
S'comment'
p285
asbag48
(g69
g50
NtRp286
(dp287
g53
(dp288
g80
g81
ssg62
g277
sg55
(lp289
S':'
asbag48
(g69
g50
NtRp290
(dp291
g53
(dp292
sg62
g277
sg55
(lp293
g48
(g49
g50
NtRp294
(dp295
g53
(dp296
g61
I3
ssg62
g290
sg55
(lp297
S''
asbasbasbag48
(g64
g50
NtRp298
(dp299
g53
(dp300
sg62
g273
sg55
(lp301
g48
(g69
g50
NtRp302
(dp303
g53
(dp304
g73
g74
ssg62
g298
sg55
(lp305
S'domain'
p306
asbag48
(g69
g50
NtRp307
(dp308
g53
(dp309
g80
g81
ssg62
g298
sg55
(lp310
S':'
asbag48
(g69
g50
NtRp311
(dp312
g53
(dp313
sg62
g298
sg55
(lp314
g48
(g49
g50
NtRp315
(dp316
g53
(dp317
g61
I3
ssg62
g311
sg55
(lp318
S''
asbasbasbag48
(g64
g50
NtRp319
(dp320
g53
(dp321
sg62
g273
sg55
(lp322
g48
(g69
g50
NtRp323
(dp324
g53
(dp325
g73
g74
ssg62
g319
sg55
(lp326
S'expires'
p327
asbag48
(g69
g50
NtRp328
(dp329
g53
(dp330
g80
g81
ssg62
g319
sg55
(lp331
S':'
asbag48
(g69
g50
NtRp332
(dp333
g53
(dp334
sg62
g319
sg55
(lp335
g48
(g49
g50
NtRp336
(dp337
g53
(dp338
g61
I3
ssg62
g332
sg55
(lp339
S''
asbasbasbag48
(g64
g50
NtRp340
(dp341
g53
(dp342
sg62
g273
sg55
(lp343
g48
(g69
g50
NtRp344
(dp345
g53
(dp346
g73
g74
ssg62
g340
sg55
(lp347
S'max-age'
p348
asbag48
(g69
g50
NtRp349
(dp350
g53
(dp351
g80
g81
ssg62
g340
sg55
(lp352
S':'
asbag48
(g69
g50
NtRp353
(dp354
g53
(dp355
sg62
g340
sg55
(lp356
g48
(g49
g50
NtRp357
(dp358
g53
(dp359
g61
I3
ssg62
g353
sg55
(lp360
S''
asbasbasbag48
(g64
g50
NtRp361
(dp362
g53
(dp363
sg62
g273
sg55
(lp364
g48
(g69
g50
NtRp365
(dp366
g53
(dp367
g73
g74
ssg62
g361
sg55
(lp368
S'path'
p369
asbag48
(g69
g50
NtRp370
(dp371
g53
(dp372
g80
g81
ssg62
g361
sg55
(lp373
S':'
asbag48
(g69
g50
NtRp374
(dp375
g53
(dp376
sg62
g361
sg55
(lp377
g48
(g49
g50
NtRp378
(dp379
g53
(dp380
g61
I3
ssg62
g374
sg55
(lp381
S''
asbasbasbag48
(g64
g50
NtRp382
(dp383
g53
(dp384
sg62
g273
sg55
(lp385
g48
(g69
g50
NtRp386
(dp387
g53
(dp388
g73
g74
ssg62
g382
sg55
(lp389
S'secure'
p390
asbag48
(g69
g50
NtRp391
(dp392
g53
(dp393
g80
g81
ssg62
g382
sg55
(lp394
S':'
asbag48
(g69
g50
NtRp395
(dp396
g53
(dp397
sg62
g382
sg55
(lp398
g48
(g49
g50
NtRp399
(dp400
g53
(dp401
g61
I3
ssg62
g395
sg55
(lp402
S''
asbasbasbag48
(g64
g50
NtRp403
(dp404
g53
(dp405
sg62
g273
sg55
(lp406
g48
(g69
g50
NtRp407
(dp408
g53
(dp409
g73
g74
ssg62
g403
sg55
(lp410
S'version'
p411
asbag48
(g69
g50
NtRp412
(dp413
g53
(dp414
g80
g81
ssg62
g403
sg55
(lp415
S':'
asbag48
(g69
g50
NtRp416
(dp417
g53
(dp418
sg62
g403
sg55
(lp419
g48
(g49
g50
NtRp420
(dp421
g53
(dp422
g61
I3
ssg62
g416
sg55
(lp423
S''
asbasbasbasbasbasbasbag48
(g64
g50
NtRp424
(dp425
g53
(dp426
sg62
g247
sg55
(lp427
g48
(g69
g50
NtRp428
(dp429
g53
(dp430
g73
g74
ssg62
g424
sg55
(lp431
S'session_id_final_impulse'
p432
asbag48
(g69
g50
NtRp433
(dp434
g53
(dp435
g80
g81
ssg62
g424
sg55
(lp436
S':'
asbag48
(g69
g50
NtRp437
(dp438
g53
(dp439
sg62
g424
sg55
(lp440
g48
(g49
g50
NtRp441
(dp442
g53
(dp443
g61
I4
ssg62
g437
sg55
(lp444
S'127.0.0.1-fe54df76-3eba-4359-ae6d-98727f24814f'
p445
ag48
(g57
g50
NtRp446
(dp447
g53
(dp448
g61
I3
ssg62
Nsg55
(lp449
g48
(g64
g50
NtRp450
(dp451
g53
(dp452
sg62
g446
sg55
(lp453
g48
(g69
g50
NtRp454
(dp455
g53
(dp456
g73
g74
ssg62
g450
sg55
(lp457
g285
asbag48
(g69
g50
NtRp458
(dp459
g53
(dp460
g80
g81
ssg62
g450
sg55
(lp461
S':'
asbag48
(g69
g50
NtRp462
(dp463
g53
(dp464
sg62
g450
sg55
(lp465
g48
(g49
g50
NtRp466
(dp467
g53
(dp468
g61
I3
ssg62
g462
sg55
(lp469
S''
asbasbasbag48
(g64
g50
NtRp470
(dp471
g53
(dp472
sg62
g446
sg55
(lp473
g48
(g69
g50
NtRp474
(dp475
g53
(dp476
g73
g74
ssg62
g470
sg55
(lp477
g306
asbag48
(g69
g50
NtRp478
(dp479
g53
(dp480
g80
g81
ssg62
g470
sg55
(lp481
S':'
asbag48
(g69
g50
NtRp482
(dp483
g53
(dp484
sg62
g470
sg55
(lp485
g48
(g49
g50
NtRp486
(dp487
g53
(dp488
g61
I3
ssg62
g482
sg55
(lp489
S''
asbasbasbag48
(g64
g50
NtRp490
(dp491
g53
(dp492
sg62
g446
sg55
(lp493
g48
(g69
g50
NtRp494
(dp495
g53
(dp496
g73
g74
ssg62
g490
sg55
(lp497
g327
asbag48
(g69
g50
NtRp498
(dp499
g53
(dp500
g80
g81
ssg62
g490
sg55
(lp501
S':'
asbag48
(g69
g50
NtRp502
(dp503
g53
(dp504
sg62
g490
sg55
(lp505
g48
(g49
g50
NtRp506
(dp507
g53
(dp508
g61
I3
ssg62
g502
sg55
(lp509
S''
asbasbasbag48
(g64
g50
NtRp510
(dp511
g53
(dp512
sg62
g446
sg55
(lp513
g48
(g69
g50
NtRp514
(dp515
g53
(dp516
g73
g74
ssg62
g510
sg55
(lp517
g348
asbag48
(g69
g50
NtRp518
(dp519
g53
(dp520
g80
g81
ssg62
g510
sg55
(lp521
S':'
asbag48
(g69
g50
NtRp522
(dp523
g53
(dp524
sg62
g510
sg55
(lp525
g48
(g49
g50
NtRp526
(dp527
g53
(dp528
g61
I3
ssg62
g522
sg55
(lp529
S''
asbasbasbag48
(g64
g50
NtRp530
(dp531
g53
(dp532
sg62
g446
sg55
(lp533
g48
(g69
g50
NtRp534
(dp535
g53
(dp536
g73
g74
ssg62
g530
sg55
(lp537
g369
asbag48
(g69
g50
NtRp538
(dp539
g53
(dp540
g80
g81
ssg62
g530
sg55
(lp541
S':'
asbag48
(g69
g50
NtRp542
(dp543
g53
(dp544
sg62
g530
sg55
(lp545
g48
(g49
g50
NtRp546
(dp547
g53
(dp548
g61
I3
ssg62
g542
sg55
(lp549
S''
asbasbasbag48
(g64
g50
NtRp550
(dp551
g53
(dp552
sg62
g446
sg55
(lp553
g48
(g69
g50
NtRp554
(dp555
g53
(dp556
g73
g74
ssg62
g550
sg55
(lp557
g390
asbag48
(g69
g50
NtRp558
(dp559
g53
(dp560
g80
g81
ssg62
g550
sg55
(lp561
S':'
asbag48
(g69
g50
NtRp562
(dp563
g53
(dp564
sg62
g550
sg55
(lp565
g48
(g49
g50
NtRp566
(dp567
g53
(dp568
g61
I3
ssg62
g562
sg55
(lp569
S''
asbasbasbag48
(g64
g50
NtRp570
(dp571
g53
(dp572
sg62
g446
sg55
(lp573
g48
(g69
g50
NtRp574
(dp575
g53
(dp576
g73
g74
ssg62
g570
sg55
(lp577
g411
asbag48
(g69
g50
NtRp578
(dp579
g53
(dp580
g80
g81
ssg62
g570
sg55
(lp581
S':'
asbag48
(g69
g50
NtRp582
(dp583
g53
(dp584
sg62
g570
sg55
(lp585
g48
(g49
g50
NtRp586
(dp587
g53
(dp588
g61
I3
ssg62
g582
sg55
(lp589
S''
asbasbasbasbasbasbasbag48
(g64
g50
NtRp590
(dp591
g53
(dp592
sg62
g247
sg55
(lp593
g48
(g69
g50
NtRp594
(dp595
g53
(dp596
g73
g74
ssg62
g590
sg55
(lp597
S'session_id_impulse_online2'
p598
asbag48
(g69
g50
NtRp599
(dp600
g53
(dp601
g80
g81
ssg62
g590
sg55
(lp602
S':'
asbag48
(g69
g50
NtRp603
(dp604
g53
(dp605
sg62
g590
sg55
(lp606
g48
(g49
g50
NtRp607
(dp608
g53
(dp609
g61
I4
ssg62
g603
sg55
(lp610
S'127.0.0.1-37fb8c7e-69a3-434e-9537-3c2b0516f29b'
p611
ag48
(g57
g50
NtRp612
(dp613
g53
(dp614
g61
I3
ssg62
Nsg55
(lp615
g48
(g64
g50
NtRp616
(dp617
g53
(dp618
sg62
g612
sg55
(lp619
g48
(g69
g50
NtRp620
(dp621
g53
(dp622
g73
g74
ssg62
g616
sg55
(lp623
g285
asbag48
(g69
g50
NtRp624
(dp625
g53
(dp626
g80
g81
ssg62
g616
sg55
(lp627
S':'
asbag48
(g69
g50
NtRp628
(dp629
g53
(dp630
sg62
g616
sg55
(lp631
g48
(g49
g50
NtRp632
(dp633
g53
(dp634
g61
I3
ssg62
g628
sg55
(lp635
S''
asbasbasbag48
(g64
g50
NtRp636
(dp637
g53
(dp638
sg62
g612
sg55
(lp639
g48
(g69
g50
NtRp640
(dp641
g53
(dp642
g73
g74
ssg62
g636
sg55
(lp643
g306
asbag48
(g69
g50
NtRp644
(dp645
g53
(dp646
g80
g81
ssg62
g636
sg55
(lp647
S':'
asbag48
(g69
g50
NtRp648
(dp649
g53
(dp650
sg62
g636
sg55
(lp651
g48
(g49
g50
NtRp652
(dp653
g53
(dp654
g61
I3
ssg62
g648
sg55
(lp655
S''
asbasbasbag48
(g64
g50
NtRp656
(dp657
g53
(dp658
sg62
g612
sg55
(lp659
g48
(g69
g50
NtRp660
(dp661
g53
(dp662
g73
g74
ssg62
g656
sg55
(lp663
g327
asbag48
(g69
g50
NtRp664
(dp665
g53
(dp666
g80
g81
ssg62
g656
sg55
(lp667
S':'
asbag48
(g69
g50
NtRp668
(dp669
g53
(dp670
sg62
g656
sg55
(lp671
g48
(g49
g50
NtRp672
(dp673
g53
(dp674
g61
I3
ssg62
g668
sg55
(lp675
S''
asbasbasbag48
(g64
g50
NtRp676
(dp677
g53
(dp678
sg62
g612
sg55
(lp679
g48
(g69
g50
NtRp680
(dp681
g53
(dp682
g73
g74
ssg62
g676
sg55
(lp683
g348
asbag48
(g69
g50
NtRp684
(dp685
g53
(dp686
g80
g81
ssg62
g676
sg55
(lp687
S':'
asbag48
(g69
g50
NtRp688
(dp689
g53
(dp690
sg62
g676
sg55
(lp691
g48
(g49
g50
NtRp692
(dp693
g53
(dp694
g61
I3
ssg62
g688
sg55
(lp695
S''
asbasbasbag48
(g64
g50
NtRp696
(dp697
g53
(dp698
sg62
g612
sg55
(lp699
g48
(g69
g50
NtRp700
(dp701
g53
(dp702
g73
g74
ssg62
g696
sg55
(lp703
g369
asbag48
(g69
g50
NtRp704
(dp705
g53
(dp706
g80
g81
ssg62
g696
sg55
(lp707
S':'
asbag48
(g69
g50
NtRp708
(dp709
g53
(dp710
sg62
g696
sg55
(lp711
g48
(g49
g50
NtRp712
(dp713
g53
(dp714
g61
I3
ssg62
g708
sg55
(lp715
S''
asbasbasbag48
(g64
g50
NtRp716
(dp717
g53
(dp718
sg62
g612
sg55
(lp719
g48
(g69
g50
NtRp720
(dp721
g53
(dp722
g73
g74
ssg62
g716
sg55
(lp723
g390
asbag48
(g69
g50
NtRp724
(dp725
g53
(dp726
g80
g81
ssg62
g716
sg55
(lp727
S':'
asbag48
(g69
g50
NtRp728
(dp729
g53
(dp730
sg62
g716
sg55
(lp731
g48
(g49
g50
NtRp732
(dp733
g53
(dp734
g61
I3
ssg62
g728
sg55
(lp735
S''
asbasbasbag48
(g64
g50
NtRp736
(dp737
g53
(dp738
sg62
g612
sg55
(lp739
g48
(g69
g50
NtRp740
(dp741
g53
(dp742
g73
g74
ssg62
g736
sg55
(lp743
g411
asbag48
(g69
g50
NtRp744
(dp745
g53
(dp746
g80
g81
ssg62
g736
sg55
(lp747
S':'
asbag48
(g69
g50
NtRp748
(dp749
g53
(dp750
sg62
g736
sg55
(lp751
g48
(g49
g50
NtRp752
(dp753
g53
(dp754
g61
I3
ssg62
g748
sg55
(lp755
S''
asbasbasbasbasbasbasbag48
(g64
g50
NtRp756
(dp757
g53
(dp758
sg62
g247
sg55
(lp759
g48
(g69
g50
NtRp760
(dp761
g53
(dp762
g73
g74
ssg62
g756
sg55
(lp763
S'session_id_welcome'
p764
asbag48
(g69
g50
NtRp765
(dp766
g53
(dp767
g80
g81
ssg62
g756
sg55
(lp768
S':'
asbag48
(g69
g50
NtRp769
(dp770
g53
(dp771
sg62
g756
sg55
(lp772
g48
(g49
g50
NtRp773
(dp774
g53
(dp775
g61
I4
ssg62
g769
sg55
(lp776
S'127.0.0.1-5868511e-f888-4dcb-9511-6b25cf572dee'
p777
ag48
(g57
g50
NtRp778
(dp779
g53
(dp780
g61
I3
ssg62
Nsg55
(lp781
g48
(g64
g50
NtRp782
(dp783
g53
(dp784
sg62
g778
sg55
(lp785
g48
(g69
g50
NtRp786
(dp787
g53
(dp788
g73
g74
ssg62
g782
sg55
(lp789
g285
asbag48
(g69
g50
NtRp790
(dp791
g53
(dp792
g80
g81
ssg62
g782
sg55
(lp793
S':'
asbag48
(g69
g50
NtRp794
(dp795
g53
(dp796
sg62
g782
sg55
(lp797
g48
(g49
g50
NtRp798
(dp799
g53
(dp800
g61
I3
ssg62
g794
sg55
(lp801
S''
asbasbasbag48
(g64
g50
NtRp802
(dp803
g53
(dp804
sg62
g778
sg55
(lp805
g48
(g69
g50
NtRp806
(dp807
g53
(dp808
g73
g74
ssg62
g802
sg55
(lp809
g306
asbag48
(g69
g50
NtRp810
(dp811
g53
(dp812
g80
g81
ssg62
g802
sg55
(lp813
S':'
asbag48
(g69
g50
NtRp814
(dp815
g53
(dp816
sg62
g802
sg55
(lp817
g48
(g49
g50
NtRp818
(dp819
g53
(dp820
g61
I3
ssg62
g814
sg55
(lp821
S''
asbasbasbag48
(g64
g50
NtRp822
(dp823
g53
(dp824
sg62
g778
sg55
(lp825
g48
(g69
g50
NtRp826
(dp827
g53
(dp828
g73
g74
ssg62
g822
sg55
(lp829
g327
asbag48
(g69
g50
NtRp830
(dp831
g53
(dp832
g80
g81
ssg62
g822
sg55
(lp833
S':'
asbag48
(g69
g50
NtRp834
(dp835
g53
(dp836
sg62
g822
sg55
(lp837
g48
(g49
g50
NtRp838
(dp839
g53
(dp840
g61
I3
ssg62
g834
sg55
(lp841
S''
asbasbasbag48
(g64
g50
NtRp842
(dp843
g53
(dp844
sg62
g778
sg55
(lp845
g48
(g69
g50
NtRp846
(dp847
g53
(dp848
g73
g74
ssg62
g842
sg55
(lp849
g348
asbag48
(g69
g50
NtRp850
(dp851
g53
(dp852
g80
g81
ssg62
g842
sg55
(lp853
S':'
asbag48
(g69
g50
NtRp854
(dp855
g53
(dp856
sg62
g842
sg55
(lp857
g48
(g49
g50
NtRp858
(dp859
g53
(dp860
g61
I3
ssg62
g854
sg55
(lp861
S''
asbasbasbag48
(g64
g50
NtRp862
(dp863
g53
(dp864
sg62
g778
sg55
(lp865
g48
(g69
g50
NtRp866
(dp867
g53
(dp868
g73
g74
ssg62
g862
sg55
(lp869
g369
asbag48
(g69
g50
NtRp870
(dp871
g53
(dp872
g80
g81
ssg62
g862
sg55
(lp873
S':'
asbag48
(g69
g50
NtRp874
(dp875
g53
(dp876
sg62
g862
sg55
(lp877
g48
(g49
g50
NtRp878
(dp879
g53
(dp880
g61
I3
ssg62
g874
sg55
(lp881
S''
asbasbasbag48
(g64
g50
NtRp882
(dp883
g53
(dp884
sg62
g778
sg55
(lp885
g48
(g69
g50
NtRp886
(dp887
g53
(dp888
g73
g74
ssg62
g882
sg55
(lp889
g390
asbag48
(g69
g50
NtRp890
(dp891
g53
(dp892
g80
g81
ssg62
g882
sg55
(lp893
S':'
asbag48
(g69
g50
NtRp894
(dp895
g53
(dp896
sg62
g882
sg55
(lp897
g48
(g49
g50
NtRp898
(dp899
g53
(dp900
g61
I3
ssg62
g894
sg55
(lp901
S''
asbasbasbag48
(g64
g50
NtRp902
(dp903
g53
(dp904
sg62
g778
sg55
(lp905
g48
(g69
g50
NtRp906
(dp907
g53
(dp908
g73
g74
ssg62
g902
sg55
(lp909
g411
asbag48
(g69
g50
NtRp910
(dp911
g53
(dp912
g80
g81
ssg62
g902
sg55
(lp913
S':'
asbag48
(g69
g50
NtRp914
(dp915
g53
(dp916
sg62
g902
sg55
(lp917
g48
(g49
g50
NtRp918
(dp919
g53
(dp920
g61
I3
ssg62
g914
sg55
(lp921
S''
asbasbasbasbasbasbasbasbasbasbasbag48
(g64
g50
NtRp922
(dp923
g53
(dp924
sg62
g58
sg55
(lp925
g48
(g69
g50
NtRp926
(dp927
g53
(dp928
g73
g74
ssg62
g922
sg55
(lp929
S'env'
p930
asbag48
(g69
g50
NtRp931
(dp932
g53
(dp933
g80
g81
ssg62
g922
sg55
(lp934
S':'
asbag48
(g69
g50
NtRp935
(dp936
g53
(dp937
sg62
g922
sg55
(lp938
g48
(g49
g50
NtRp939
(dp940
g53
(dp941
g61
I5
ssg62
g935
sg55
(lp942
g48
(g57
g50
NtRp943
(dp944
g53
(dp945
g61
I4
ssg62
Nsg55
(lp946
g48
(g64
g50
NtRp947
(dp948
g53
(dp949
sg62
g943
sg55
(lp950
g48
(g69
g50
NtRp951
(dp952
g53
(dp953
g73
g74
ssg62
g947
sg55
(lp954
S'app_folders'
p955
asbag48
(g69
g50
NtRp956
(dp957
g53
(dp958
g80
g81
ssg62
g947
sg55
(lp959
S':'
asbag48
(g69
g50
NtRp960
(dp961
g53
(dp962
sg62
g947
sg55
(lp963
g48
(g49
g50
NtRp964
(dp965
g53
(dp966
g61
I4
ssg62
g960
sg55
(lp967
S"set(['/Users/abaric/Downloads/web2py/web2py.app/Contents/Resources/applications/examples/', '/Users/abaric/Downloads/web2py/web2py.app/Contents/Resources/applications/Final_Impulse/', '/Users/abaric/Downloads/web2py/web2py.app/Contents/Resources/applications/Impulse_Online2/', '/Users/abaric/Downloads/web2py/web2py.app/Contents/Resources/applications/welcome/', '/Users/abaric/Downloads/web2py/web2py.app/Contents/Resources/applications/admin/'])"
p968
asbasbasbag48
(g64
g50
NtRp969
(dp970
g53
(dp971
sg62
g943
sg55
(lp972
g48
(g69
g50
NtRp973
(dp974
g53
(dp975
g73
g74
ssg62
g969
sg55
(lp976
S'applications_parent'
p977
asbag48
(g69
g50
NtRp978
(dp979
g53
(dp980
g80
g81
ssg62
g969
sg55
(lp981
S':'
asbag48
(g69
g50
NtRp982
(dp983
g53
(dp984
sg62
g969
sg55
(lp985
g48
(g49
g50
NtRp986
(dp987
g53
(dp988
g61
I4
ssg62
g982
sg55
(lp989
S'/Users/abaric/Downloads/web2py/web2py.app/Contents/Resources'
p990
asbasbasbag48
(g64
g50
NtRp991
(dp992
g53
(dp993
sg62
g943
sg55
(lp994
g48
(g69
g50
NtRp995
(dp996
g53
(dp997
g73
g74
ssg62
g991
sg55
(lp998
S'cmd_args'
p999
asbag48
(g69
g50
NtRp1000
(dp1001
g53
(dp1002
g80
g81
ssg62
g991
sg55
(lp1003
S':'
asbag48
(g69
g50
NtRp1004
(dp1005
g53
(dp1006
sg62
g991
sg55
(lp1007
g48
(g49
g50
NtRp1008
(dp1009
g53
(dp1010
g61
I4
ssg62
g1004
sg55
(lp1011
g48
(g57
g50
NtRp1012
(dp1013
g53
(dp1014
g61
I3
ssg62
Nsg55
(lp1015
sbasbasbasbag48
(g64
g50
NtRp1016
(dp1017
g53
(dp1018
sg62
g943
sg55
(lp1019
g48
(g69
g50
NtRp1020
(dp1021
g53
(dp1022
g73
g74
ssg62
g1016
sg55
(lp1023
S'cmd_options'
p1024
asbag48
(g69
g50
NtRp1025
(dp1026
g53
(dp1027
g80
g81
ssg62
g1016
sg55
(lp1028
S':'
asbag48
(g69
g50
NtRp1029
(dp1030
g53
(dp1031
sg62
g1016
sg55
(lp1032
g48
(g49
g50
NtRp1033
(dp1034
g53
(dp1035
g61
I4
ssg62
g1029
sg55
(lp1036
S"<Values at 0x442e238: {'verbose': False, 'ip': '127.0.0.1', 'with_scheduler': False, 'ips': ['192.168.1.5'], 'shutdown_timeout': 5, 'taskbar': False, 'port': 8000, 'maxthreads': None, 'softcron': False, 'server_name': 'new-host.home', 'bpython': False, 'nogui': False, 'pid_filename': 'httpserver.pid', 'extcron': False, 'runcron': False, 'run_system_tests': False, 'test': None, 'folder': '/Users/abaric/Downloads/web2py/web2py.app/Contents/Resources', 'config': '', 'import_models': False, 'winservice': '', 'shell': None, 'run': '', 'log_filename': 'httpserver.log', 'debuglevel': 30, 'args': [''], 'socket_timeout': 5, 'ssl_ca_certificate': None, 'scheduler': None, 'profiler_filename': None, 'ssl_private_key': '', 'scheduler_groups': None, 'password': '<ask>', 'request_queue_size': 5, 'ssl_certificate': '', 'cronjob': False, 'numthreads': None, 'quiet': False, 'interfaces': None, 'minthreads': None, 'timeout': 10, 'plain': False, 'nobanner': False}>"
p1037
asbasbasbag48
(g64
g50
NtRp1038
(dp1039
g53
(dp1040
sg62
g943
sg55
(lp1041
g48
(g69
g50
NtRp1042
(dp1043
g53
(dp1044
g73
g74
ssg62
g1038
sg55
(lp1045
S'db_sessions'
p1046
asbag48
(g69
g50
NtRp1047
(dp1048
g53
(dp1049
g80
g81
ssg62
g1038
sg55
(lp1050
S':'
asbag48
(g69
g50
NtRp1051
(dp1052
g53
(dp1053
sg62
g1038
sg55
(lp1054
g48
(g49
g50
NtRp1055
(dp1056
g53
(dp1057
g61
I4
ssg62
g1051
sg55
(lp1058
S'set([])'
p1059
asbasbasbag48
(g64
g50
NtRp1060
(dp1061
g53
(dp1062
sg62
g943
sg55
(lp1063
g48
(g69
g50
NtRp1064
(dp1065
g53
(dp1066
g73
g74
ssg62
g1060
sg55
(lp1067
S'debugging'
p1068
asbag48
(g69
g50
NtRp1069
(dp1070
g53
(dp1071
g80
g81
ssg62
g1060
sg55
(lp1072
S':'
asbag48
(g69
g50
NtRp1073
(dp1074
g53
(dp1075
sg62
g1060
sg55
(lp1076
g48
(g49
g50
NtRp1077
(dp1078
g53
(dp1079
g61
I4
ssg62
g1073
sg55
(lp1080
g91
asbasbasbag48
(g64
g50
NtRp1081
(dp1082
g53
(dp1083
sg62
g943
sg55
(lp1084
g48
(g69
g50
NtRp1085
(dp1086
g53
(dp1087
g73
g74
ssg62
g1081
sg55
(lp1088
S'gluon_parent'
p1089
asbag48
(g69
g50
NtRp1090
(dp1091
g53
(dp1092
g80
g81
ssg62
g1081
sg55
(lp1093
S':'
asbag48
(g69
g50
NtRp1094
(dp1095
g53
(dp1096
sg62
g1081
sg55
(lp1097
g48
(g49
g50
NtRp1098
(dp1099
g53
(dp1100
g61
I4
ssg62
g1094
sg55
(lp1101
S'/Users/abaric/Downloads/web2py/web2py.app/Contents/Resources'
p1102
asbasbasbag48
(g64
g50
NtRp1103
(dp1104
g53
(dp1105
sg62
g943
sg55
(lp1106
g48
(g69
g50
NtRp1107
(dp1108
g53
(dp1109
g73
g74
ssg62
g1103
sg55
(lp1110
S'http_accept'
p1111
asbag48
(g69
g50
NtRp1112
(dp1113
g53
(dp1114
g80
g81
ssg62
g1103
sg55
(lp1115
S':'
asbag48
(g69
g50
NtRp1116
(dp1117
g53
(dp1118
sg62
g1103
sg55
(lp1119
g48
(g49
g50
NtRp1120
(dp1121
g53
(dp1122
g61
I4
ssg62
g1116
sg55
(lp1123
S'text/html,application/xhtml+xml,application/xml;q=0.9,*/*;q=0.8'
p1124
asbasbasbag48
(g64
g50
NtRp1125
(dp1126
g53
(dp1127
sg62
g943
sg55
(lp1128
g48
(g69
g50
NtRp1129
(dp1130
g53
(dp1131
g73
g74
ssg62
g1125
sg55
(lp1132
S'http_accept_encoding'
p1133
asbag48
(g69
g50
NtRp1134
(dp1135
g53
(dp1136
g80
g81
ssg62
g1125
sg55
(lp1137
S':'
asbag48
(g69
g50
NtRp1138
(dp1139
g53
(dp1140
sg62
g1125
sg55
(lp1141
g48
(g49
g50
NtRp1142
(dp1143
g53
(dp1144
g61
I4
ssg62
g1138
sg55
(lp1145
S'gzip, deflate'
p1146
asbasbasbag48
(g64
g50
NtRp1147
(dp1148
g53
(dp1149
sg62
g943
sg55
(lp1150
g48
(g69
g50
NtRp1151
(dp1152
g53
(dp1153
g73
g74
ssg62
g1147
sg55
(lp1154
S'http_accept_language'
p1155
asbag48
(g69
g50
NtRp1156
(dp1157
g53
(dp1158
g80
g81
ssg62
g1147
sg55
(lp1159
S':'
asbag48
(g69
g50
NtRp1160
(dp1161
g53
(dp1162
sg62
g1147
sg55
(lp1163
g48
(g49
g50
NtRp1164
(dp1165
g53
(dp1166
g61
I4
ssg62
g1160
sg55
(lp1167
S'en-us'
p1168
asbasbasbag48
(g64
g50
NtRp1169
(dp1170
g53
(dp1171
sg62
g943
sg55
(lp1172
g48
(g69
g50
NtRp1173
(dp1174
g53
(dp1175
g73
g74
ssg62
g1169
sg55
(lp1176
S'http_connection'
p1177
asbag48
(g69
g50
NtRp1178
(dp1179
g53
(dp1180
g80
g81
ssg62
g1169
sg55
(lp1181
S':'
asbag48
(g69
g50
NtRp1182
(dp1183
g53
(dp1184
sg62
g1169
sg55
(lp1185
g48
(g49
g50
NtRp1186
(dp1187
g53
(dp1188
g61
I4
ssg62
g1182
sg55
(lp1189
S'keep-alive'
p1190
asbasbasbag48
(g64
g50
NtRp1191
(dp1192
g53
(dp1193
sg62
g943
sg55
(lp1194
g48
(g69
g50
NtRp1195
(dp1196
g53
(dp1197
g73
g74
ssg62
g1191
sg55
(lp1198
S'http_cookie'
p1199
asbag48
(g69
g50
NtRp1200
(dp1201
g53
(dp1202
g80
g81
ssg62
g1191
sg55
(lp1203
S':'
asbag48
(g69
g50
NtRp1204
(dp1205
g53
(dp1206
sg62
g1191
sg55
(lp1207
g48
(g49
g50
NtRp1208
(dp1209
g53
(dp1210
g61
I4
ssg62
g1204
sg55
(lp1211
S'session_id_final_impulse=127.0.0.1-fe54df76-3eba-4359-ae6d-98727f24814f; session_id_admin=127.0.0.1-67e1670c-9cb7-4c81-83d1-b44ab2b28c6e; session_id_impulse_online2=127.0.0.1-37fb8c7e-69a3-434e-9537-3c2b0516f29b; session_id_welcome=127.0.0.1-5868511e-f888-4dcb-9511-6b25cf572dee'
p1212
asbasbasbag48
(g64
g50
NtRp1213
(dp1214
g53
(dp1215
sg62
g943
sg55
(lp1216
g48
(g69
g50
NtRp1217
(dp1218
g53
(dp1219
g73
g74
ssg62
g1213
sg55
(lp1220
S'http_host'
p1221
asbag48
(g69
g50
NtRp1222
(dp1223
g53
(dp1224
g80
g81
ssg62
g1213
sg55
(lp1225
S':'
asbag48
(g69
g50
NtRp1226
(dp1227
g53
(dp1228
sg62
g1213
sg55
(lp1229
g48
(g49
g50
NtRp1230
(dp1231
g53
(dp1232
g61
I4
ssg62
g1226
sg55
(lp1233
S'127.0.0.1:8000'
p1234
asbasbasbag48
(g64
g50
NtRp1235
(dp1236
g53
(dp1237
sg62
g943
sg55
(lp1238
g48
(g69
g50
NtRp1239
(dp1240
g53
(dp1241
g73
g74
ssg62
g1235
sg55
(lp1242
S'http_referer'
p1243
asbag48
(g69
g50
NtRp1244
(dp1245
g53
(dp1246
g80
g81
ssg62
g1235
sg55
(lp1247
S':'
asbag48
(g69
g50
NtRp1248
(dp1249
g53
(dp1250
sg62
g1235
sg55
(lp1251
g48
(g49
g50
NtRp1252
(dp1253
g53
(dp1254
g61
I4
ssg62
g1248
sg55
(lp1255
S'http://127.0.0.1:8000/Final_Impulse/default/index'
p1256
asbasbasbag48
(g64
g50
NtRp1257
(dp1258
g53
(dp1259
sg62
g943
sg55
(lp1260
g48
(g69
g50
NtRp1261
(dp1262
g53
(dp1263
g73
g74
ssg62
g1257
sg55
(lp1264
S'http_user_agent'
p1265
asbag48
(g69
g50
NtRp1266
(dp1267
g53
(dp1268
g80
g81
ssg62
g1257
sg55
(lp1269
S':'
asbag48
(g69
g50
NtRp1270
(dp1271
g53
(dp1272
sg62
g1257
sg55
(lp1273
g48
(g49
g50
NtRp1274
(dp1275
g53
(dp1276
g61
I4
ssg62
g1270
sg55
(lp1277
S'Mozilla/5.0 (Macintosh; Intel Mac OS X 10_8_4) AppleWebKit/536.30.1 (KHTML, like Gecko) Version/6.0.5 Safari/536.30.1'
p1278
asbasbasbag48
(g64
g50
NtRp1279
(dp1280
g53
(dp1281
sg62
g943
sg55
(lp1282
g48
(g69
g50
NtRp1283
(dp1284
g53
(dp1285
g73
g74
ssg62
g1279
sg55
(lp1286
S'is_jython'
p1287
asbag48
(g69
g50
NtRp1288
(dp1289
g53
(dp1290
g80
g81
ssg62
g1279
sg55
(lp1291
S':'
asbag48
(g69
g50
NtRp1292
(dp1293
g53
(dp1294
sg62
g1279
sg55
(lp1295
g48
(g49
g50
NtRp1296
(dp1297
g53
(dp1298
g61
I4
ssg62
g1292
sg55
(lp1299
g91
asbasbasbag48
(g64
g50
NtRp1300
(dp1301
g53
(dp1302
sg62
g943
sg55
(lp1303
g48
(g69
g50
NtRp1304
(dp1305
g53
(dp1306
g73
g74
ssg62
g1300
sg55
(lp1307
S'is_pypy'
p1308
asbag48
(g69
g50
NtRp1309
(dp1310
g53
(dp1311
g80
g81
ssg62
g1300
sg55
(lp1312
S':'
asbag48
(g69
g50
NtRp1313
(dp1314
g53
(dp1315
sg62
g1300
sg55
(lp1316
g48
(g49
g50
NtRp1317
(dp1318
g53
(dp1319
g61
I4
ssg62
g1313
sg55
(lp1320
g91
asbasbasbag48
(g64
g50
NtRp1321
(dp1322
g53
(dp1323
sg62
g943
sg55
(lp1324
g48
(g69
g50
NtRp1325
(dp1326
g53
(dp1327
g73
g74
ssg62
g1321
sg55
(lp1328
S'local_hosts'
p1329
asbag48
(g69
g50
NtRp1330
(dp1331
g53
(dp1332
g80
g81
ssg62
g1321
sg55
(lp1333
S':'
asbag48
(g69
g50
NtRp1334
(dp1335
g53
(dp1336
sg62
g1321
sg55
(lp1337
g48
(g49
g50
NtRp1338
(dp1339
g53
(dp1340
g61
I4
ssg62
g1334
sg55
(lp1341
g48
(g57
g50
NtRp1342
(dp1343
g53
(dp1344
g61
I3
ssg62
Nsg55
(lp1345
g48
(g64
g50
NtRp1346
(dp1347
g53
(dp1348
sg62
g1342
sg55
(lp1349
g48
(g69
g50
NtRp1350
(dp1351
g53
(dp1352
sg62
g1346
sg55
(lp1353
g48
(g49
g50
NtRp1354
(dp1355
g53
(dp1356
g61
I3
ssg62
g1350
sg55
(lp1357
S'127.0.0.1'
p1358
asbasbasbag48
(g64
g50
NtRp1359
(dp1360
g53
(dp1361
sg62
g1342
sg55
(lp1362
g48
(g69
g50
NtRp1363
(dp1364
g53
(dp1365
sg62
g1359
sg55
(lp1366
g48
(g49
g50
NtRp1367
(dp1368
g53
(dp1369
g61
I3
ssg62
g1363
sg55
(lp1370
S'::ffff:127.0.0.1'
p1371
asbasbasbag48
(g64
g50
NtRp1372
(dp1373
g53
(dp1374
sg62
g1342
sg55
(lp1375
g48
(g69
g50
NtRp1376
(dp1377
g53
(dp1378
sg62
g1372
sg55
(lp1379
g48
(g49
g50
NtRp1380
(dp1381
g53
(dp1382
g61
I3
ssg62
g1376
sg55
(lp1383
S'new-host.home'
p1384
asbasbasbag48
(g64
g50
NtRp1385
(dp1386
g53
(dp1387
sg62
g1342
sg55
(lp1388
g48
(g69
g50
NtRp1389
(dp1390
g53
(dp1391
sg62
g1385
sg55
(lp1392
g48
(g49
g50
NtRp1393
(dp1394
g53
(dp1395
g61
I3
ssg62
g1389
sg55
(lp1396
S'new-host.home'
p1397
asbasbasbag48
(g64
g50
NtRp1398
(dp1399
g53
(dp1400
sg62
g1342
sg55
(lp1401
g48
(g69
g50
NtRp1402
(dp1403
g53
(dp1404
sg62
g1398
sg55
(lp1405
g48
(g49
g50
NtRp1406
(dp1407
g53
(dp1408
g61
I3
ssg62
g1402
sg55
(lp1409
S'192.168.1.5'
p1410
asbasbasbasbasbasbasbag48
(g64
g50
NtRp1411
(dp1412
g53
(dp1413
sg62
g943
sg55
(lp1414
g48
(g69
g50
NtRp1415
(dp1416
g53
(dp1417
g73
g74
ssg62
g1411
sg55
(lp1418
S'path_info'
p1419
asbag48
(g69
g50
NtRp1420
(dp1421
g53
(dp1422
g80
g81
ssg62
g1411
sg55
(lp1423
S':'
asbag48
(g69
g50
NtRp1424
(dp1425
g53
(dp1426
sg62
g1411
sg55
(lp1427
g48
(g49
g50
NtRp1428
(dp1429
g53
(dp1430
g61
I4
ssg62
g1424
sg55
(lp1431
S'/Final_Impulse/default/show_video_comments'
p1432
asbasbasbag48
(g64
g50
NtRp1433
(dp1434
g53
(dp1435
sg62
g943
sg55
(lp1436
g48
(g69
g50
NtRp1437
(dp1438
g53
(dp1439
g73
g74
ssg62
g1433
sg55
(lp1440
S'query_string'
p1441
asbag48
(g69
g50
NtRp1442
(dp1443
g53
(dp1444
g80
g81
ssg62
g1433
sg55
(lp1445
S':'
asbag48
(g69
g50
NtRp1446
(dp1447
g53
(dp1448
sg62
g1433
sg55
(lp1449
g48
(g49
g50
NtRp1450
(dp1451
g53
(dp1452
g61
I4
ssg62
g1446
sg55
(lp1453
S''
asbasbasbag48
(g64
g50
NtRp1454
(dp1455
g53
(dp1456
sg62
g943
sg55
(lp1457
g48
(g69
g50
NtRp1458
(dp1459
g53
(dp1460
g73
g74
ssg62
g1454
sg55
(lp1461
S'remote_addr'
p1462
asbag48
(g69
g50
NtRp1463
(dp1464
g53
(dp1465
g80
g81
ssg62
g1454
sg55
(lp1466
S':'
asbag48
(g69
g50
NtRp1467
(dp1468
g53
(dp1469
sg62
g1454
sg55
(lp1470
g48
(g49
g50
NtRp1471
(dp1472
g53
(dp1473
g61
I4
ssg62
g1467
sg55
(lp1474
g203
asbasbasbag48
(g64
g50
NtRp1475
(dp1476
g53
(dp1477
sg62
g943
sg55
(lp1478
g48
(g69
g50
NtRp1479
(dp1480
g53
(dp1481
g73
g74
ssg62
g1475
sg55
(lp1482
S'remote_port'
p1483
asbag48
(g69
g50
NtRp1484
(dp1485
g53
(dp1486
g80
g81
ssg62
g1475
sg55
(lp1487
S':'
asbag48
(g69
g50
NtRp1488
(dp1489
g53
(dp1490
sg62
g1475
sg55
(lp1491
g48
(g49
g50
NtRp1492
(dp1493
g53
(dp1494
g61
I4
ssg62
g1488
sg55
(lp1495
S'62915'
p1496
asbasbasbag48
(g64
g50
NtRp1497
(dp1498
g53
(dp1499
sg62
g943
sg55
(lp1500
g48
(g69
g50
NtRp1501
(dp1502
g53
(dp1503
g73
g74
ssg62
g1497
sg55
(lp1504
S'request_method'
p1505
asbag48
(g69
g50
NtRp1506
(dp1507
g53
(dp1508
g80
g81
ssg62
g1497
sg55
(lp1509
S':'
asbag48
(g69
g50
NtRp1510
(dp1511
g53
(dp1512
sg62
g1497
sg55
(lp1513
g48
(g49
g50
NtRp1514
(dp1515
g53
(dp1516
g61
I4
ssg62
g1510
sg55
(lp1517
S'GET'
p1518
asbasbasbag48
(g64
g50
NtRp1519
(dp1520
g53
(dp1521
sg62
g943
sg55
(lp1522
g48
(g69
g50
NtRp1523
(dp1524
g53
(dp1525
g73
g74
ssg62
g1519
sg55
(lp1526
S'request_uri'
p1527
asbag48
(g69
g50
NtRp1528
(dp1529
g53
(dp1530
g80
g81
ssg62
g1519
sg55
(lp1531
S':'
asbag48
(g69
g50
NtRp1532
(dp1533
g53
(dp1534
sg62
g1519
sg55
(lp1535
g48
(g49
g50
NtRp1536
(dp1537
g53
(dp1538
g61
I4
ssg62
g1532
sg55
(lp1539
g1432
asbasbasbag48
(g64
g50
NtRp1540
(dp1541
g53
(dp1542
sg62
g943
sg55
(lp1543
g48
(g69
g50
NtRp1544
(dp1545
g53
(dp1546
g73
g74
ssg62
g1540
sg55
(lp1547
S'script_name'
p1548
asbag48
(g69
g50
NtRp1549
(dp1550
g53
(dp1551
g80
g81
ssg62
g1540
sg55
(lp1552
S':'
asbag48
(g69
g50
NtRp1553
(dp1554
g53
(dp1555
sg62
g1540
sg55
(lp1556
g48
(g49
g50
NtRp1557
(dp1558
g53
(dp1559
g61
I4
ssg62
g1553
sg55
(lp1560
S''
asbasbasbag48
(g64
g50
NtRp1561
(dp1562
g53
(dp1563
sg62
g943
sg55
(lp1564
g48
(g69
g50
NtRp1565
(dp1566
g53
(dp1567
g73
g74
ssg62
g1561
sg55
(lp1568
S'server_name'
p1569
asbag48
(g69
g50
NtRp1570
(dp1571
g53
(dp1572
g80
g81
ssg62
g1561
sg55
(lp1573
S':'
asbag48
(g69
g50
NtRp1574
(dp1575
g53
(dp1576
sg62
g1561
sg55
(lp1577
g48
(g49
g50
NtRp1578
(dp1579
g53
(dp1580
g61
I4
ssg62
g1574
sg55
(lp1581
g1397
asbasbasbag48
(g64
g50
NtRp1582
(dp1583
g53
(dp1584
sg62
g943
sg55
(lp1585
g48
(g69
g50
NtRp1586
(dp1587
g53
(dp1588
g73
g74
ssg62
g1582
sg55
(lp1589
S'server_port'
p1590
asbag48
(g69
g50
NtRp1591
(dp1592
g53
(dp1593
g80
g81
ssg62
g1582
sg55
(lp1594
S':'
asbag48
(g69
g50
NtRp1595
(dp1596
g53
(dp1597
sg62
g1582
sg55
(lp1598
g48
(g49
g50
NtRp1599
(dp1600
g53
(dp1601
g61
I4
ssg62
g1595
sg55
(lp1602
S'8000'
p1603
asbasbasbag48
(g64
g50
NtRp1604
(dp1605
g53
(dp1606
sg62
g943
sg55
(lp1607
g48
(g69
g50
NtRp1608
(dp1609
g53
(dp1610
g73
g74
ssg62
g1604
sg55
(lp1611
S'server_protocol'
p1612
asbag48
(g69
g50
NtRp1613
(dp1614
g53
(dp1615
g80
g81
ssg62
g1604
sg55
(lp1616
S':'
asbag48
(g69
g50
NtRp1617
(dp1618
g53
(dp1619
sg62
g1604
sg55
(lp1620
g48
(g49
g50
NtRp1621
(dp1622
g53
(dp1623
g61
I4
ssg62
g1617
sg55
(lp1624
S'HTTP/1.1'
p1625
asbasbasbag48
(g64
g50
NtRp1626
(dp1627
g53
(dp1628
sg62
g943
sg55
(lp1629
g48
(g69
g50
NtRp1630
(dp1631
g53
(dp1632
g73
g74
ssg62
g1626
sg55
(lp1633
S'server_software'
p1634
asbag48
(g69
g50
NtRp1635
(dp1636
g53
(dp1637
g80
g81
ssg62
g1626
sg55
(lp1638
S':'
asbag48
(g69
g50
NtRp1639
(dp1640
g53
(dp1641
sg62
g1626
sg55
(lp1642
g48
(g49
g50
NtRp1643
(dp1644
g53
(dp1645
g61
I4
ssg62
g1639
sg55
(lp1646
S'Rocket 1.2.5'
p1647
asbasbasbag48
(g64
g50
NtRp1648
(dp1649
g53
(dp1650
sg62
g943
sg55
(lp1651
g48
(g69
g50
NtRp1652
(dp1653
g53
(dp1654
g73
g74
ssg62
g1648
sg55
(lp1655
S'web2py_path'
p1656
asbag48
(g69
g50
NtRp1657
(dp1658
g53
(dp1659
g80
g81
ssg62
g1648
sg55
(lp1660
S':'
asbag48
(g69
g50
NtRp1661
(dp1662
g53
(dp1663
sg62
g1648
sg55
(lp1664
g48
(g49
g50
NtRp1665
(dp1666
g53
(dp1667
g61
I4
ssg62
g1661
sg55
(lp1668
g990
asbasbasbag48
(g64
g50
NtRp1669
(dp1670
g53
(dp1671
sg62
g943
sg55
(lp1672
g48
(g69
g50
NtRp1673
(dp1674
g53
(dp1675
g73
g74
ssg62
g1669
sg55
(lp1676
S'web2py_version'
p1677
asbag48
(g69
g50
NtRp1678
(dp1679
g53
(dp1680
g80
g81
ssg62
g1669
sg55
(lp1681
S':'
asbag48
(g69
g50
NtRp1682
(dp1683
g53
(dp1684
sg62
g1669
sg55
(lp1685
g48
(g49
g50
NtRp1686
(dp1687
g53
(dp1688
g61
I4
ssg62
g1682
sg55
(lp1689
g48
(g57
g50
NtRp1690
(dp1691
g53
(dp1692
g61
I3
ssg62
Nsg55
(lp1693
g48
(g64
g50
NtRp1694
(dp1695
g53
(dp1696
sg62
g1690
sg55
(lp1697
g48
(g69
g50
NtRp1698
(dp1699
g53
(dp1700
sg62
g1694
sg55
(lp1701
g48
(g49
g50
NtRp1702
(dp1703
g53
(dp1704
g61
I3
ssg62
g1698
sg55
(lp1705
S'2'
asbasbasbag48
(g64
g50
NtRp1706
(dp1707
g53
(dp1708
sg62
g1690
sg55
(lp1709
g48
(g69
g50
NtRp1710
(dp1711
g53
(dp1712
sg62
g1706
sg55
(lp1713
g48
(g49
g50
NtRp1714
(dp1715
g53
(dp1716
g61
I3
ssg62
g1710
sg55
(lp1717
S'2'
asbasbasbag48
(g64
g50
NtRp1718
(dp1719
g53
(dp1720
sg62
g1690
sg55
(lp1721
g48
(g69
g50
NtRp1722
(dp1723
g53
(dp1724
sg62
g1718
sg55
(lp1725
g48
(g49
g50
NtRp1726
(dp1727
g53
(dp1728
g61
I3
ssg62
g1722
sg55
(lp1729
S'1'
asbasbasbag48
(g64
g50
NtRp1730
(dp1731
g53
(dp1732
sg62
g1690
sg55
(lp1733
g48
(g69
g50
NtRp1734
(dp1735
g53
(dp1736
sg62
g1730
sg55
(lp1737
g48
(g49
g50
NtRp1738
(dp1739
g53
(dp1740
g61
I3
ssg62
g1734
sg55
(lp1741
S'datetime.datetime(2012, 10, 21, 16, 57, 4)'
p1742
asbasbasbag48
(g64
g50
NtRp1743
(dp1744
g53
(dp1745
sg62
g1690
sg55
(lp1746
g48
(g69
g50
NtRp1747
(dp1748
g53
(dp1749
sg62
g1743
sg55
(lp1750
g48
(g49
g50
NtRp1751
(dp1752
g53
(dp1753
g61
I3
ssg62
g1747
sg55
(lp1754
S'stable'
p1755
asbasbasbasbasbasbasbag48
(g64
g50
NtRp1756
(dp1757
g53
(dp1758
sg62
g943
sg55
(lp1759
g48
(g69
g50
NtRp1760
(dp1761
g53
(dp1762
g73
g74
ssg62
g1756
sg55
(lp1763
S'wsgi_errors'
p1764
asbag48
(g69
g50
NtRp1765
(dp1766
g53
(dp1767
g80
g81
ssg62
g1756
sg55
(lp1768
S':'
asbag48
(g69
g50
NtRp1769
(dp1770
g53
(dp1771
sg62
g1756
sg55
(lp1772
g48
(g49
g50
NtRp1773
(dp1774
g53
(dp1775
g61
I4
ssg62
g1769
sg55
(lp1776
S"<open file '<stderr>', mode 'w' at 0x540b0>"
p1777
asbasbasbag48
(g64
g50
NtRp1778
(dp1779
g53
(dp1780
sg62
g943
sg55
(lp1781
g48
(g69
g50
NtRp1782
(dp1783
g53
(dp1784
g73
g74
ssg62
g1778
sg55
(lp1785
S'wsgi_file_wrapper'
p1786
asbag48
(g69
g50
NtRp1787
(dp1788
g53
(dp1789
g80
g81
ssg62
g1778
sg55
(lp1790
S':'
asbag48
(g69
g50
NtRp1791
(dp1792
g53
(dp1793
sg62
g1778
sg55
(lp1794
g48
(g49
g50
NtRp1795
(dp1796
g53
(dp1797
g61
I4
ssg62
g1791
sg55
(lp1798
S'<class wsgiref.util.FileWrapper at 0x44002d0>'
p1799
asbasbasbag48
(g64
g50
NtRp1800
(dp1801
g53
(dp1802
sg62
g943
sg55
(lp1803
g48
(g69
g50
NtRp1804
(dp1805
g53
(dp1806
g73
g74
ssg62
g1800
sg55
(lp1807
S'wsgi_input'
p1808
asbag48
(g69
g50
NtRp1809
(dp1810
g53
(dp1811
g80
g81
ssg62
g1800
sg55
(lp1812
S':'
asbag48
(g69
g50
NtRp1813
(dp1814
g53
(dp1815
sg62
g1800
sg55
(lp1816
g48
(g49
g50
NtRp1817
(dp1818
g53
(dp1819
g61
I4
ssg62
g1813
sg55
(lp1820
S'<socket._fileobject object at 0x91730b0>'
p1821
asbasbasbag48
(g64
g50
NtRp1822
(dp1823
g53
(dp1824
sg62
g943
sg55
(lp1825
g48
(g69
g50
NtRp1826
(dp1827
g53
(dp1828
g73
g74
ssg62
g1822
sg55
(lp1829
S'wsgi_multiprocess'
p1830
asbag48
(g69
g50
NtRp1831
(dp1832
g53
(dp1833
g80
g81
ssg62
g1822
sg55
(lp1834
S':'
asbag48
(g69
g50
NtRp1835
(dp1836
g53
(dp1837
sg62
g1822
sg55
(lp1838
g48
(g49
g50
NtRp1839
(dp1840
g53
(dp1841
g61
I4
ssg62
g1835
sg55
(lp1842
g91
asbasbasbag48
(g64
g50
NtRp1843
(dp1844
g53
(dp1845
sg62
g943
sg55
(lp1846
g48
(g69
g50
NtRp1847
(dp1848
g53
(dp1849
g73
g74
ssg62
g1843
sg55
(lp1850
S'wsgi_multithread'
p1851
asbag48
(g69
g50
NtRp1852
(dp1853
g53
(dp1854
g80
g81
ssg62
g1843
sg55
(lp1855
S':'
asbag48
(g69
g50
NtRp1856
(dp1857
g53
(dp1858
sg62
g1843
sg55
(lp1859
g48
(g49
g50
NtRp1860
(dp1861
g53
(dp1862
g61
I4
ssg62
g1856
sg55
(lp1863
S'True'
p1864
asbasbasbag48
(g64
g50
NtRp1865
(dp1866
g53
(dp1867
sg62
g943
sg55
(lp1868
g48
(g69
g50
NtRp1869
(dp1870
g53
(dp1871
g73
g74
ssg62
g1865
sg55
(lp1872
S'wsgi_run_once'
p1873
asbag48
(g69
g50
NtRp1874
(dp1875
g53
(dp1876
g80
g81
ssg62
g1865
sg55
(lp1877
S':'
asbag48
(g69
g50
NtRp1878
(dp1879
g53
(dp1880
sg62
g1865
sg55
(lp1881
g48
(g49
g50
NtRp1882
(dp1883
g53
(dp1884
g61
I4
ssg62
g1878
sg55
(lp1885
g91
asbasbasbag48
(g64
g50
NtRp1886
(dp1887
g53
(dp1888
sg62
g943
sg55
(lp1889
g48
(g69
g50
NtRp1890
(dp1891
g53
(dp1892
g73
g74
ssg62
g1886
sg55
(lp1893
S'wsgi_url_scheme'
p1894
asbag48
(g69
g50
NtRp1895
(dp1896
g53
(dp1897
g80
g81
ssg62
g1886
sg55
(lp1898
S':'
asbag48
(g69
g50
NtRp1899
(dp1900
g53
(dp1901
sg62
g1886
sg55
(lp1902
g48
(g49
g50
NtRp1903
(dp1904
g53
(dp1905
g61
I4
ssg62
g1899
sg55
(lp1906
S'http'
p1907
asbasbasbag48
(g64
g50
NtRp1908
(dp1909
g53
(dp1910
sg62
g943
sg55
(lp1911
g48
(g69
g50
NtRp1912
(dp1913
g53
(dp1914
g73
g74
ssg62
g1908
sg55
(lp1915
S'wsgi_version'
p1916
asbag48
(g69
g50
NtRp1917
(dp1918
g53
(dp1919
g80
g81
ssg62
g1908
sg55
(lp1920
S':'
asbag48
(g69
g50
NtRp1921
(dp1922
g53
(dp1923
sg62
g1908
sg55
(lp1924
g48
(g49
g50
NtRp1925
(dp1926
g53
(dp1927
g61
I4
ssg62
g1921
sg55
(lp1928
g48
(g57
g50
NtRp1929
(dp1930
g53
(dp1931
g61
I3
ssg62
Nsg55
(lp1932
g48
(g64
g50
NtRp1933
(dp1934
g53
(dp1935
sg62
g1929
sg55
(lp1936
g48
(g69
g50
NtRp1937
(dp1938
g53
(dp1939
sg62
g1933
sg55
(lp1940
g48
(g49
g50
NtRp1941
(dp1942
g53
(dp1943
g61
I3
ssg62
g1937
sg55
(lp1944
S'1'
asbasbasbag48
(g64
g50
NtRp1945
(dp1946
g53
(dp1947
sg62
g1929
sg55
(lp1948
g48
(g69
g50
NtRp1949
(dp1950
g53
(dp1951
sg62
g1945
sg55
(lp1952
g48
(g49
g50
NtRp1953
(dp1954
g53
(dp1955
g61
I3
ssg62
g1949
sg55
(lp1956
S'0'
asbasbasbasbasbasbasbasbasbasbasbag48
(g64
g50
NtRp1957
(dp1958
g53
(dp1959
sg62
g58
sg55
(lp1960
g48
(g69
g50
NtRp1961
(dp1962
g53
(dp1963
g73
g74
ssg62
g1957
sg55
(lp1964
S'extension'
p1965
asbag48
(g69
g50
NtRp1966
(dp1967
g53
(dp1968
g80
g81
ssg62
g1957
sg55
(lp1969
S':'
asbag48
(g69
g50
NtRp1970
(dp1971
g53
(dp1972
sg62
g1957
sg55
(lp1973
g48
(g49
g50
NtRp1974
(dp1975
g53
(dp1976
g61
I5
ssg62
g1970
sg55
(lp1977
S'html'
p1978
asbasbasbag48
(g64
g50
NtRp1979
(dp1980
g53
(dp1981
sg62
g58
sg55
(lp1982
g48
(g69
g50
NtRp1983
(dp1984
g53
(dp1985
g73
g74
ssg62
g1979
sg55
(lp1986
S'folder'
p1987
asbag48
(g69
g50
NtRp1988
(dp1989
g53
(dp1990
g80
g81
ssg62
g1979
sg55
(lp1991
S':'
asbag48
(g69
g50
NtRp1992
(dp1993
g53
(dp1994
sg62
g1979
sg55
(lp1995
g48
(g49
g50
NtRp1996
(dp1997
g53
(dp1998
g61
I5
ssg62
g1992
sg55
(lp1999
S'/Users/abaric/Downloads/web2py/web2py.app/Contents/Resources/applications/Final_Impulse/'
p2000
asbasbasbag48
(g64
g50
NtRp2001
(dp2002
g53
(dp2003
sg62
g58
sg55
(lp2004
g48
(g69
g50
NtRp2005
(dp2006
g53
(dp2007
g73
g74
ssg62
g2001
sg55
(lp2008
S'function'
p2009
asbag48
(g69
g50
NtRp2010
(dp2011
g53
(dp2012
g80
g81
ssg62
g2001
sg55
(lp2013
S':'
asbag48
(g69
g50
NtRp2014
(dp2015
g53
(dp2016
sg62
g2001
sg55
(lp2017
g48
(g49
g50
NtRp2018
(dp2019
g53
(dp2020
g61
I5
ssg62
g2014
sg55
(lp2021
S'show_video_comments'
p2022
asbasbasbag48
(g64
g50
NtRp2023
(dp2024
g53
(dp2025
sg62
g58
sg55
(lp2026
g48
(g69
g50
NtRp2027
(dp2028
g53
(dp2029
g73
g74
ssg62
g2023
sg55
(lp2030
S'get_vars'
p2031
asbag48
(g69
g50
NtRp2032
(dp2033
g53
(dp2034
g80
g81
ssg62
g2023
sg55
(lp2035
S':'
asbag48
(g69
g50
NtRp2036
(dp2037
g53
(dp2038
sg62
g2023
sg55
(lp2039
g48
(g49
g50
NtRp2040
(dp2041
g53
(dp2042
g61
I5
ssg62
g2036
sg55
(lp2043
g48
(g57
g50
NtRp2044
(dp2045
g53
(dp2046
g61
I4
ssg62
Nsg55
(lp2047
sbasbasbasbag48
(g64
g50
NtRp2048
(dp2049
g53
(dp2050
sg62
g58
sg55
(lp2051
g48
(g69
g50
NtRp2052
(dp2053
g53
(dp2054
g73
g74
ssg62
g2048
sg55
(lp2055
S'global_settings'
p2056
asbag48
(g69
g50
NtRp2057
(dp2058
g53
(dp2059
g80
g81
ssg62
g2048
sg55
(lp2060
S':'
asbag48
(g69
g50
NtRp2061
(dp2062
g53
(dp2063
sg62
g2048
sg55
(lp2064
g48
(g49
g50
NtRp2065
(dp2066
g53
(dp2067
g61
I5
ssg62
g2061
sg55
(lp2068
g48
(g57
g50
NtRp2069
(dp2070
g53
(dp2071
g61
I4
ssg62
Nsg55
(lp2072
g48
(g64
g50
NtRp2073
(dp2074
g53
(dp2075
sg62
g2069
sg55
(lp2076
g48
(g69
g50
NtRp2077
(dp2078
g53
(dp2079
g73
g74
ssg62
g2073
sg55
(lp2080
g955
asbag48
(g69
g50
NtRp2081
(dp2082
g53
(dp2083
g80
g81
ssg62
g2073
sg55
(lp2084
S':'
asbag48
(g69
g50
NtRp2085
(dp2086
g53
(dp2087
sg62
g2073
sg55
(lp2088
g48
(g49
g50
NtRp2089
(dp2090
g53
(dp2091
g61
I4
ssg62
g2085
sg55
(lp2092
S"set(['/Users/abaric/Downloads/web2py/web2py.app/Contents/Resources/applications/examples/', '/Users/abaric/Downloads/web2py/web2py.app/Contents/Resources/applications/Final_Impulse/', '/Users/abaric/Downloads/web2py/web2py.app/Contents/Resources/applications/Impulse_Online2/', '/Users/abaric/Downloads/web2py/web2py.app/Contents/Resources/applications/welcome/', '/Users/abaric/Downloads/web2py/web2py.app/Contents/Resources/applications/admin/'])"
p2093
asbasbasbag48
(g64
g50
NtRp2094
(dp2095
g53
(dp2096
sg62
g2069
sg55
(lp2097
g48
(g69
g50
NtRp2098
(dp2099
g53
(dp2100
g73
g74
ssg62
g2094
sg55
(lp2101
g977
asbag48
(g69
g50
NtRp2102
(dp2103
g53
(dp2104
g80
g81
ssg62
g2094
sg55
(lp2105
S':'
asbag48
(g69
g50
NtRp2106
(dp2107
g53
(dp2108
sg62
g2094
sg55
(lp2109
g48
(g49
g50
NtRp2110
(dp2111
g53
(dp2112
g61
I4
ssg62
g2106
sg55
(lp2113
g990
asbasbasbag48
(g64
g50
NtRp2114
(dp2115
g53
(dp2116
sg62
g2069
sg55
(lp2117
g48
(g69
g50
NtRp2118
(dp2119
g53
(dp2120
g73
g74
ssg62
g2114
sg55
(lp2121
g999
asbag48
(g69
g50
NtRp2122
(dp2123
g53
(dp2124
g80
g81
ssg62
g2114
sg55
(lp2125
S':'
asbag48
(g69
g50
NtRp2126
(dp2127
g53
(dp2128
sg62
g2114
sg55
(lp2129
g48
(g49
g50
NtRp2130
(dp2131
g53
(dp2132
g61
I4
ssg62
g2126
sg55
(lp2133
g48
(g57
g50
NtRp2134
(dp2135
g53
(dp2136
g61
I3
ssg62
Nsg55
(lp2137
sbasbasbasbag48
(g64
g50
NtRp2138
(dp2139
g53
(dp2140
sg62
g2069
sg55
(lp2141
g48
(g69
g50
NtRp2142
(dp2143
g53
(dp2144
g73
g74
ssg62
g2138
sg55
(lp2145
g1024
asbag48
(g69
g50
NtRp2146
(dp2147
g53
(dp2148
g80
g81
ssg62
g2138
sg55
(lp2149
S':'
asbag48
(g69
g50
NtRp2150
(dp2151
g53
(dp2152
sg62
g2138
sg55
(lp2153
g48
(g49
g50
NtRp2154
(dp2155
g53
(dp2156
g61
I4
ssg62
g2150
sg55
(lp2157
S"<Values at 0x442e238: {'verbose': False, 'ip': '127.0.0.1', 'with_scheduler': False, 'ips': ['192.168.1.5'], 'shutdown_timeout': 5, 'taskbar': False, 'port': 8000, 'maxthreads': None, 'softcron': False, 'server_name': 'new-host.home', 'bpython': False, 'nogui': False, 'pid_filename': 'httpserver.pid', 'extcron': False, 'runcron': False, 'run_system_tests': False, 'test': None, 'folder': '/Users/abaric/Downloads/web2py/web2py.app/Contents/Resources', 'config': '', 'import_models': False, 'winservice': '', 'shell': None, 'run': '', 'log_filename': 'httpserver.log', 'debuglevel': 30, 'args': [''], 'socket_timeout': 5, 'ssl_ca_certificate': None, 'scheduler': None, 'profiler_filename': None, 'ssl_private_key': '', 'scheduler_groups': None, 'password': '<ask>', 'request_queue_size': 5, 'ssl_certificate': '', 'cronjob': False, 'numthreads': None, 'quiet': False, 'interfaces': None, 'minthreads': None, 'timeout': 10, 'plain': False, 'nobanner': False}>"
p2158
asbasbasbag48
(g64
g50
NtRp2159
(dp2160
g53
(dp2161
sg62
g2069
sg55
(lp2162
g48
(g69
g50
NtRp2163
(dp2164
g53
(dp2165
g73
g74
ssg62
g2159
sg55
(lp2166
g1046
asbag48
(g69
g50
NtRp2167
(dp2168
g53
(dp2169
g80
g81
ssg62
g2159
sg55
(lp2170
S':'
asbag48
(g69
g50
NtRp2171
(dp2172
g53
(dp2173
sg62
g2159
sg55
(lp2174
g48
(g49
g50
NtRp2175
(dp2176
g53
(dp2177
g61
I4
ssg62
g2171
sg55
(lp2178
S'set([])'
p2179
asbasbasbag48
(g64
g50
NtRp2180
(dp2181
g53
(dp2182
sg62
g2069
sg55
(lp2183
g48
(g69
g50
NtRp2184
(dp2185
g53
(dp2186
g73
g74
ssg62
g2180
sg55
(lp2187
g1068
asbag48
(g69
g50
NtRp2188
(dp2189
g53
(dp2190
g80
g81
ssg62
g2180
sg55
(lp2191
S':'
asbag48
(g69
g50
NtRp2192
(dp2193
g53
(dp2194
sg62
g2180
sg55
(lp2195
g48
(g49
g50
NtRp2196
(dp2197
g53
(dp2198
g61
I4
ssg62
g2192
sg55
(lp2199
g91
asbasbasbag48
(g64
g50
NtRp2200
(dp2201
g53
(dp2202
sg62
g2069
sg55
(lp2203
g48
(g69
g50
NtRp2204
(dp2205
g53
(dp2206
g73
g74
ssg62
g2200
sg55
(lp2207
g1089
asbag48
(g69
g50
NtRp2208
(dp2209
g53
(dp2210
g80
g81
ssg62
g2200
sg55
(lp2211
S':'
asbag48
(g69
g50
NtRp2212
(dp2213
g53
(dp2214
sg62
g2200
sg55
(lp2215
g48
(g49
g50
NtRp2216
(dp2217
g53
(dp2218
g61
I4
ssg62
g2212
sg55
(lp2219
g1102
asbasbasbag48
(g64
g50
NtRp2220
(dp2221
g53
(dp2222
sg62
g2069
sg55
(lp2223
g48
(g69
g50
NtRp2224
(dp2225
g53
(dp2226
g73
g74
ssg62
g2220
sg55
(lp2227
g1287
asbag48
(g69
g50
NtRp2228
(dp2229
g53
(dp2230
g80
g81
ssg62
g2220
sg55
(lp2231
S':'
asbag48
(g69
g50
NtRp2232
(dp2233
g53
(dp2234
sg62
g2220
sg55
(lp2235
g48
(g49
g50
NtRp2236
(dp2237
g53
(dp2238
g61
I4
ssg62
g2232
sg55
(lp2239
g91
asbasbasbag48
(g64
g50
NtRp2240
(dp2241
g53
(dp2242
sg62
g2069
sg55
(lp2243
g48
(g69
g50
NtRp2244
(dp2245
g53
(dp2246
g73
g74
ssg62
g2240
sg55
(lp2247
g1308
asbag48
(g69
g50
NtRp2248
(dp2249
g53
(dp2250
g80
g81
ssg62
g2240
sg55
(lp2251
S':'
asbag48
(g69
g50
NtRp2252
(dp2253
g53
(dp2254
sg62
g2240
sg55
(lp2255
g48
(g49
g50
NtRp2256
(dp2257
g53
(dp2258
g61
I4
ssg62
g2252
sg55
(lp2259
g91
asbasbasbag48
(g64
g50
NtRp2260
(dp2261
g53
(dp2262
sg62
g2069
sg55
(lp2263
g48
(g69
g50
NtRp2264
(dp2265
g53
(dp2266
g73
g74
ssg62
g2260
sg55
(lp2267
g1329
asbag48
(g69
g50
NtRp2268
(dp2269
g53
(dp2270
g80
g81
ssg62
g2260
sg55
(lp2271
S':'
asbag48
(g69
g50
NtRp2272
(dp2273
g53
(dp2274
sg62
g2260
sg55
(lp2275
g48
(g49
g50
NtRp2276
(dp2277
g53
(dp2278
g61
I4
ssg62
g2272
sg55
(lp2279
g48
(g57
g50
NtRp2280
(dp2281
g53
(dp2282
g61
I3
ssg62
Nsg55
(lp2283
g48
(g64
g50
NtRp2284
(dp2285
g53
(dp2286
sg62
g2280
sg55
(lp2287
g48
(g69
g50
NtRp2288
(dp2289
g53
(dp2290
sg62
g2284
sg55
(lp2291
g48
(g49
g50
NtRp2292
(dp2293
g53
(dp2294
g61
I3
ssg62
g2288
sg55
(lp2295
g1358
asbasbasbag48
(g64
g50
NtRp2296
(dp2297
g53
(dp2298
sg62
g2280
sg55
(lp2299
g48
(g69
g50
NtRp2300
(dp2301
g53
(dp2302
sg62
g2296
sg55
(lp2303
g48
(g49
g50
NtRp2304
(dp2305
g53
(dp2306
g61
I3
ssg62
g2300
sg55
(lp2307
g1371
asbasbasbag48
(g64
g50
NtRp2308
(dp2309
g53
(dp2310
sg62
g2280
sg55
(lp2311
g48
(g69
g50
NtRp2312
(dp2313
g53
(dp2314
sg62
g2308
sg55
(lp2315
g48
(g49
g50
NtRp2316
(dp2317
g53
(dp2318
g61
I3
ssg62
g2312
sg55
(lp2319
g1384
asbasbasbag48
(g64
g50
NtRp2320
(dp2321
g53
(dp2322
sg62
g2280
sg55
(lp2323
g48
(g69
g50
NtRp2324
(dp2325
g53
(dp2326
sg62
g2320
sg55
(lp2327
g48
(g49
g50
NtRp2328
(dp2329
g53
(dp2330
g61
I3
ssg62
g2324
sg55
(lp2331
g1397
asbasbasbag48
(g64
g50
NtRp2332
(dp2333
g53
(dp2334
sg62
g2280
sg55
(lp2335
g48
(g69
g50
NtRp2336
(dp2337
g53
(dp2338
sg62
g2332
sg55
(lp2339
g48
(g49
g50
NtRp2340
(dp2341
g53
(dp2342
g61
I3
ssg62
g2336
sg55
(lp2343
g1410
asbasbasbasbasbasbasbag48
(g64
g50
NtRp2344
(dp2345
g53
(dp2346
sg62
g2069
sg55
(lp2347
g48
(g69
g50
NtRp2348
(dp2349
g53
(dp2350
g73
g74
ssg62
g2344
sg55
(lp2351
g1677
asbag48
(g69
g50
NtRp2352
(dp2353
g53
(dp2354
g80
g81
ssg62
g2344
sg55
(lp2355
S':'
asbag48
(g69
g50
NtRp2356
(dp2357
g53
(dp2358
sg62
g2344
sg55
(lp2359
g48
(g49
g50
NtRp2360
(dp2361
g53
(dp2362
g61
I4
ssg62
g2356
sg55
(lp2363
g48
(g57
g50
NtRp2364
(dp2365
g53
(dp2366
g61
I3
ssg62
Nsg55
(lp2367
g48
(g64
g50
NtRp2368
(dp2369
g53
(dp2370
sg62
g2364
sg55
(lp2371
g48
(g69
g50
NtRp2372
(dp2373
g53
(dp2374
sg62
g2368
sg55
(lp2375
g48
(g49
g50
NtRp2376
(dp2377
g53
(dp2378
g61
I3
ssg62
g2372
sg55
(lp2379
S'2'
asbasbasbag48
(g64
g50
NtRp2380
(dp2381
g53
(dp2382
sg62
g2364
sg55
(lp2383
g48
(g69
g50
NtRp2384
(dp2385
g53
(dp2386
sg62
g2380
sg55
(lp2387
g48
(g49
g50
NtRp2388
(dp2389
g53
(dp2390
g61
I3
ssg62
g2384
sg55
(lp2391
S'2'
asbasbasbag48
(g64
g50
NtRp2392
(dp2393
g53
(dp2394
sg62
g2364
sg55
(lp2395
g48
(g69
g50
NtRp2396
(dp2397
g53
(dp2398
sg62
g2392
sg55
(lp2399
g48
(g49
g50
NtRp2400
(dp2401
g53
(dp2402
g61
I3
ssg62
g2396
sg55
(lp2403
S'1'
asbasbasbag48
(g64
g50
NtRp2404
(dp2405
g53
(dp2406
sg62
g2364
sg55
(lp2407
g48
(g69
g50
NtRp2408
(dp2409
g53
(dp2410
sg62
g2404
sg55
(lp2411
g48
(g49
g50
NtRp2412
(dp2413
g53
(dp2414
g61
I3
ssg62
g2408
sg55
(lp2415
S'datetime.datetime(2012, 10, 21, 16, 57, 4)'
p2416
asbasbasbag48
(g64
g50
NtRp2417
(dp2418
g53
(dp2419
sg62
g2364
sg55
(lp2420
g48
(g69
g50
NtRp2421
(dp2422
g53
(dp2423
sg62
g2417
sg55
(lp2424
g48
(g49
g50
NtRp2425
(dp2426
g53
(dp2427
g61
I3
ssg62
g2421
sg55
(lp2428
g1755
asbasbasbasbasbasbasbasbasbasbasbag48
(g64
g50
NtRp2429
(dp2430
g53
(dp2431
sg62
g58
sg55
(lp2432
g48
(g69
g50
NtRp2433
(dp2434
g53
(dp2435
g73
g74
ssg62
g2429
sg55
(lp2436
S'is_https'
p2437
asbag48
(g69
g50
NtRp2438
(dp2439
g53
(dp2440
g80
g81
ssg62
g2429
sg55
(lp2441
S':'
asbag48
(g69
g50
NtRp2442
(dp2443
g53
(dp2444
sg62
g2429
sg55
(lp2445
g48
(g49
g50
NtRp2446
(dp2447
g53
(dp2448
g61
I5
ssg62
g2442
sg55
(lp2449
g91
asbasbasbag48
(g64
g50
NtRp2450
(dp2451
g53
(dp2452
sg62
g58
sg55
(lp2453
g48
(g69
g50
NtRp2454
(dp2455
g53
(dp2456
g73
g74
ssg62
g2450
sg55
(lp2457
S'is_local'
p2458
asbag48
(g69
g50
NtRp2459
(dp2460
g53
(dp2461
g80
g81
ssg62
g2450
sg55
(lp2462
S':'
asbag48
(g69
g50
NtRp2463
(dp2464
g53
(dp2465
sg62
g2450
sg55
(lp2466
g48
(g49
g50
NtRp2467
(dp2468
g53
(dp2469
g61
I5
ssg62
g2463
sg55
(lp2470
g1864
asbasbasbag48
(g64
g50
NtRp2471
(dp2472
g53
(dp2473
sg62
g58
sg55
(lp2474
g48
(g69
g50
NtRp2475
(dp2476
g53
(dp2477
g73
g74
ssg62
g2471
sg55
(lp2478
S'is_restful'
p2479
asbag48
(g69
g50
NtRp2480
(dp2481
g53
(dp2482
g80
g81
ssg62
g2471
sg55
(lp2483
S':'
asbag48
(g69
g50
NtRp2484
(dp2485
g53
(dp2486
sg62
g2471
sg55
(lp2487
g48
(g49
g50
NtRp2488
(dp2489
g53
(dp2490
g61
I5
ssg62
g2484
sg55
(lp2491
g91
asbasbasbag48
(g64
g50
NtRp2492
(dp2493
g53
(dp2494
sg62
g58
sg55
(lp2495
g48
(g69
g50
NtRp2496
(dp2497
g53
(dp2498
g73
g74
ssg62
g2492
sg55
(lp2499
S'now'
p2500
asbag48
(g69
g50
NtRp2501
(dp2502
g53
(dp2503
g80
g81
ssg62
g2492
sg55
(lp2504
S':'
asbag48
(g69
g50
NtRp2505
(dp2506
g53
(dp2507
sg62
g2492
sg55
(lp2508
g48
(g49
g50
NtRp2509
(dp2510
g53
(dp2511
g61
I5
ssg62
g2505
sg55
(lp2512
S'datetime.datetime(2014, 3, 30, 0, 18, 4, 350842)'
p2513
asbasbasbag48
(g64
g50
NtRp2514
(dp2515
g53
(dp2516
sg62
g58
sg55
(lp2517
g48
(g69
g50
NtRp2518
(dp2519
g53
(dp2520
g73
g74
ssg62
g2514
sg55
(lp2521
S'post_vars'
p2522
asbag48
(g69
g50
NtRp2523
(dp2524
g53
(dp2525
g80
g81
ssg62
g2514
sg55
(lp2526
S':'
asbag48
(g69
g50
NtRp2527
(dp2528
g53
(dp2529
sg62
g2514
sg55
(lp2530
g48
(g49
g50
NtRp2531
(dp2532
g53
(dp2533
g61
I5
ssg62
g2527
sg55
(lp2534
g48
(g57
g50
NtRp2535
(dp2536
g53
(dp2537
g61
I4
ssg62
Nsg55
(lp2538
sbasbasbasbag48
(g64
g50
NtRp2539
(dp2540
g53
(dp2541
sg62
g58
sg55
(lp2542
g48
(g69
g50
NtRp2543
(dp2544
g53
(dp2545
g73
g74
ssg62
g2539
sg55
(lp2546
S'raw_args'
p2547
asbag48
(g69
g50
NtRp2548
(dp2549
g53
(dp2550
g80
g81
ssg62
g2539
sg55
(lp2551
S':'
asbag48
(g69
g50
NtRp2552
(dp2553
g53
(dp2554
sg62
g2539
sg55
(lp2555
g48
(g49
g50
NtRp2556
(dp2557
g53
(dp2558
g61
I5
ssg62
g2552
sg55
(lp2559
S''
asbasbasbag48
(g64
g50
NtRp2560
(dp2561
g53
(dp2562
sg62
g58
sg55
(lp2563
g48
(g69
g50
NtRp2564
(dp2565
g53
(dp2566
g73
g74
ssg62
g2560
sg55
(lp2567
S'raw_extension'
p2568
asbag48
(g69
g50
NtRp2569
(dp2570
g53
(dp2571
g80
g81
ssg62
g2560
sg55
(lp2572
S':'
asbag48
(g69
g50
NtRp2573
(dp2574
g53
(dp2575
sg62
g2560
sg55
(lp2576
g48
(g49
g50
NtRp2577
(dp2578
g53
(dp2579
g61
I5
ssg62
g2573
sg55
(lp2580
S'None'
p2581
asbasbasbag48
(g64
g50
NtRp2582
(dp2583
g53
(dp2584
sg62
g58
sg55
(lp2585
g48
(g69
g50
NtRp2586
(dp2587
g53
(dp2588
g73
g74
ssg62
g2582
sg55
(lp2589
S'url'
p2590
asbag48
(g69
g50
NtRp2591
(dp2592
g53
(dp2593
g80
g81
ssg62
g2582
sg55
(lp2594
S':'
asbag48
(g69
g50
NtRp2595
(dp2596
g53
(dp2597
sg62
g2582
sg55
(lp2598
g48
(g49
g50
NtRp2599
(dp2600
g53
(dp2601
g61
I5
ssg62
g2595
sg55
(lp2602
g1432
asbasbasbag48
(g64
g50
NtRp2603
(dp2604
g53
(dp2605
sg62
g58
sg55
(lp2606
g48
(g69
g50
NtRp2607
(dp2608
g53
(dp2609
g73
g74
ssg62
g2603
sg55
(lp2610
S'utcnow'
p2611
asbag48
(g69
g50
NtRp2612
(dp2613
g53
(dp2614
g80
g81
ssg62
g2603
sg55
(lp2615
S':'
asbag48
(g69
g50
NtRp2616
(dp2617
g53
(dp2618
sg62
g2603
sg55
(lp2619
g48
(g49
g50
NtRp2620
(dp2621
g53
(dp2622
g61
I5
ssg62
g2616
sg55
(lp2623
S'datetime.datetime(2014, 3, 30, 4, 18, 4, 350853)'
p2624
asbasbasbag48
(g64
g50
NtRp2625
(dp2626
g53
(dp2627
sg62
g58
sg55
(lp2628
g48
(g69
g50
NtRp2629
(dp2630
g53
(dp2631
g73
g74
ssg62
g2625
sg55
(lp2632
S'uuid'
p2633
asbag48
(g69
g50
NtRp2634
(dp2635
g53
(dp2636
g80
g81
ssg62
g2625
sg55
(lp2637
S':'
asbag48
(g69
g50
NtRp2638
(dp2639
g53
(dp2640
sg62
g2625
sg55
(lp2641
g48
(g49
g50
NtRp2642
(dp2643
g53
(dp2644
g61
I5
ssg62
g2638
sg55
(lp2645
S'Final_Impulse/127.0.0.1.2014-03-30.00-18-04.467aa8ed-ba71-49bc-ba73-811e0d064a29'
p2646
asbasbasbag48
(g64
g50
NtRp2647
(dp2648
g53
(dp2649
sg62
g58
sg55
(lp2650
g48
(g69
g50
NtRp2651
(dp2652
g53
(dp2653
g73
g74
ssg62
g2647
sg55
(lp2654
S'vars'
p2655
asbag48
(g69
g50
NtRp2656
(dp2657
g53
(dp2658
g80
g81
ssg62
g2647
sg55
(lp2659
S':'
asbag48
(g69
g50
NtRp2660
(dp2661
g53
(dp2662
sg62
g2647
sg55
(lp2663
g48
(g49
g50
NtRp2664
(dp2665
g53
(dp2666
g61
I5
ssg62
g2660
sg55
(lp2667
g48
(g57
g50
NtRp2668
(dp2669
g53
(dp2670
g61
I4
ssg62
Nsg55
(lp2671
sbasbasbasbag48
(g64
g50
NtRp2672
(dp2673
g53
(dp2674
sg62
g58
sg55
(lp2675
g48
(g69
g50
NtRp2676
(dp2677
g53
(dp2678
g73
g74
ssg62
g2672
sg55
(lp2679
S'wsgi'
p2680
asbag48
(g69
g50
NtRp2681
(dp2682
g53
(dp2683
g80
g81
ssg62
g2672
sg55
(lp2684
S':'
asbag48
(g69
g50
NtRp2685
(dp2686
g53
(dp2687
sg62
g2672
sg55
(lp2688
g48
(g49
g50
NtRp2689
(dp2690
g53
(dp2691
g61
I5
ssg62
g2685
sg55
(lp2692
g48
(g57
g50
NtRp2693
(dp2694
g53
(dp2695
g61
I4
ssg62
Nsg55
(lp2696
g48
(g64
g50
NtRp2697
(dp2698
g53
(dp2699
sg62
g2693
sg55
(lp2700
g48
(g69
g50
NtRp2701
(dp2702
g53
(dp2703
g73
g74
ssg62
g2697
sg55
(lp2704
S'environ'
p2705
asbag48
(g69
g50
NtRp2706
(dp2707
g53
(dp2708
g80
g81
ssg62
g2697
sg55
(lp2709
S':'
asbag48
(g69
g50
NtRp2710
(dp2711
g53
(dp2712
sg62
g2697
sg55
(lp2713
g48
(g49
g50
NtRp2714
(dp2715
g53
(dp2716
g61
I4
ssg62
g2710
sg55
(lp2717
g48
(g57
g50
NtRp2718
(dp2719
g53
(dp2720
g61
I3
ssg62
Nsg55
(lp2721
g48
(g64
g50
NtRp2722
(dp2723
g53
(dp2724
sg62
g2718
sg55
(lp2725
g48
(g69
g50
NtRp2726
(dp2727
g53
(dp2728
g73
g74
ssg62
g2722
sg55
(lp2729
S'HTTP_ACCEPT'
p2730
asbag48
(g69
g50
NtRp2731
(dp2732
g53
(dp2733
g80
g81
ssg62
g2722
sg55
(lp2734
S':'
asbag48
(g69
g50
NtRp2735
(dp2736
g53
(dp2737
sg62
g2722
sg55
(lp2738
g48
(g49
g50
NtRp2739
(dp2740
g53
(dp2741
g61
I3
ssg62
g2735
sg55
(lp2742
g1124
asbasbasbag48
(g64
g50
NtRp2743
(dp2744
g53
(dp2745
sg62
g2718
sg55
(lp2746
g48
(g69
g50
NtRp2747
(dp2748
g53
(dp2749
g73
g74
ssg62
g2743
sg55
(lp2750
S'HTTP_ACCEPT_ENCODING'
p2751
asbag48
(g69
g50
NtRp2752
(dp2753
g53
(dp2754
g80
g81
ssg62
g2743
sg55
(lp2755
S':'
asbag48
(g69
g50
NtRp2756
(dp2757
g53
(dp2758
sg62
g2743
sg55
(lp2759
g48
(g49
g50
NtRp2760
(dp2761
g53
(dp2762
g61
I3
ssg62
g2756
sg55
(lp2763
g1146
asbasbasbag48
(g64
g50
NtRp2764
(dp2765
g53
(dp2766
sg62
g2718
sg55
(lp2767
g48
(g69
g50
NtRp2768
(dp2769
g53
(dp2770
g73
g74
ssg62
g2764
sg55
(lp2771
S'HTTP_ACCEPT_LANGUAGE'
p2772
asbag48
(g69
g50
NtRp2773
(dp2774
g53
(dp2775
g80
g81
ssg62
g2764
sg55
(lp2776
S':'
asbag48
(g69
g50
NtRp2777
(dp2778
g53
(dp2779
sg62
g2764
sg55
(lp2780
g48
(g49
g50
NtRp2781
(dp2782
g53
(dp2783
g61
I3
ssg62
g2777
sg55
(lp2784
g1168
asbasbasbag48
(g64
g50
NtRp2785
(dp2786
g53
(dp2787
sg62
g2718
sg55
(lp2788
g48
(g69
g50
NtRp2789
(dp2790
g53
(dp2791
g73
g74
ssg62
g2785
sg55
(lp2792
S'HTTP_CONNECTION'
p2793
asbag48
(g69
g50
NtRp2794
(dp2795
g53
(dp2796
g80
g81
ssg62
g2785
sg55
(lp2797
S':'
asbag48
(g69
g50
NtRp2798
(dp2799
g53
(dp2800
sg62
g2785
sg55
(lp2801
g48
(g49
g50
NtRp2802
(dp2803
g53
(dp2804
g61
I3
ssg62
g2798
sg55
(lp2805
g1190
asbasbasbag48
(g64
g50
NtRp2806
(dp2807
g53
(dp2808
sg62
g2718
sg55
(lp2809
g48
(g69
g50
NtRp2810
(dp2811
g53
(dp2812
g73
g74
ssg62
g2806
sg55
(lp2813
S'HTTP_COOKIE'
p2814
asbag48
(g69
g50
NtRp2815
(dp2816
g53
(dp2817
g80
g81
ssg62
g2806
sg55
(lp2818
S':'
asbag48
(g69
g50
NtRp2819
(dp2820
g53
(dp2821
sg62
g2806
sg55
(lp2822
g48
(g49
g50
NtRp2823
(dp2824
g53
(dp2825
g61
I3
ssg62
g2819
sg55
(lp2826
g1212
asbasbasbag48
(g64
g50
NtRp2827
(dp2828
g53
(dp2829
sg62
g2718
sg55
(lp2830
g48
(g69
g50
NtRp2831
(dp2832
g53
(dp2833
g73
g74
ssg62
g2827
sg55
(lp2834
S'HTTP_HOST'
p2835
asbag48
(g69
g50
NtRp2836
(dp2837
g53
(dp2838
g80
g81
ssg62
g2827
sg55
(lp2839
S':'
asbag48
(g69
g50
NtRp2840
(dp2841
g53
(dp2842
sg62
g2827
sg55
(lp2843
g48
(g49
g50
NtRp2844
(dp2845
g53
(dp2846
g61
I3
ssg62
g2840
sg55
(lp2847
g1234
asbasbasbag48
(g64
g50
NtRp2848
(dp2849
g53
(dp2850
sg62
g2718
sg55
(lp2851
g48
(g69
g50
NtRp2852
(dp2853
g53
(dp2854
g73
g74
ssg62
g2848
sg55
(lp2855
S'HTTP_REFERER'
p2856
asbag48
(g69
g50
NtRp2857
(dp2858
g53
(dp2859
g80
g81
ssg62
g2848
sg55
(lp2860
S':'
asbag48
(g69
g50
NtRp2861
(dp2862
g53
(dp2863
sg62
g2848
sg55
(lp2864
g48
(g49
g50
NtRp2865
(dp2866
g53
(dp2867
g61
I3
ssg62
g2861
sg55
(lp2868
g1256
asbasbasbag48
(g64
g50
NtRp2869
(dp2870
g53
(dp2871
sg62
g2718
sg55
(lp2872
g48
(g69
g50
NtRp2873
(dp2874
g53
(dp2875
g73
g74
ssg62
g2869
sg55
(lp2876
S'HTTP_USER_AGENT'
p2877
asbag48
(g69
g50
NtRp2878
(dp2879
g53
(dp2880
g80
g81
ssg62
g2869
sg55
(lp2881
S':'
asbag48
(g69
g50
NtRp2882
(dp2883
g53
(dp2884
sg62
g2869
sg55
(lp2885
g48
(g49
g50
NtRp2886
(dp2887
g53
(dp2888
g61
I3
ssg62
g2882
sg55
(lp2889
g1278
asbasbasbag48
(g64
g50
NtRp2890
(dp2891
g53
(dp2892
sg62
g2718
sg55
(lp2893
g48
(g69
g50
NtRp2894
(dp2895
g53
(dp2896
g73
g74
ssg62
g2890
sg55
(lp2897
S'PATH_INFO'
p2898
asbag48
(g69
g50
NtRp2899
(dp2900
g53
(dp2901
g80
g81
ssg62
g2890
sg55
(lp2902
S':'
asbag48
(g69
g50
NtRp2903
(dp2904
g53
(dp2905
sg62
g2890
sg55
(lp2906
g48
(g49
g50
NtRp2907
(dp2908
g53
(dp2909
g61
I3
ssg62
g2903
sg55
(lp2910
g1432
asbasbasbag48
(g64
g50
NtRp2911
(dp2912
g53
(dp2913
sg62
g2718
sg55
(lp2914
g48
(g69
g50
NtRp2915
(dp2916
g53
(dp2917
g73
g74
ssg62
g2911
sg55
(lp2918
S'QUERY_STRING'
p2919
asbag48
(g69
g50
NtRp2920
(dp2921
g53
(dp2922
g80
g81
ssg62
g2911
sg55
(lp2923
S':'
asbag48
(g69
g50
NtRp2924
(dp2925
g53
(dp2926
sg62
g2911
sg55
(lp2927
g48
(g49
g50
NtRp2928
(dp2929
g53
(dp2930
g61
I3
ssg62
g2924
sg55
(lp2931
S''
asbasbasbag48
(g64
g50
NtRp2932
(dp2933
g53
(dp2934
sg62
g2718
sg55
(lp2935
g48
(g69
g50
NtRp2936
(dp2937
g53
(dp2938
g73
g74
ssg62
g2932
sg55
(lp2939
S'REMOTE_ADDR'
p2940
asbag48
(g69
g50
NtRp2941
(dp2942
g53
(dp2943
g80
g81
ssg62
g2932
sg55
(lp2944
S':'
asbag48
(g69
g50
NtRp2945
(dp2946
g53
(dp2947
sg62
g2932
sg55
(lp2948
g48
(g49
g50
NtRp2949
(dp2950
g53
(dp2951
g61
I3
ssg62
g2945
sg55
(lp2952
g203
asbasbasbag48
(g64
g50
NtRp2953
(dp2954
g53
(dp2955
sg62
g2718
sg55
(lp2956
g48
(g69
g50
NtRp2957
(dp2958
g53
(dp2959
g73
g74
ssg62
g2953
sg55
(lp2960
S'REMOTE_PORT'
p2961
asbag48
(g69
g50
NtRp2962
(dp2963
g53
(dp2964
g80
g81
ssg62
g2953
sg55
(lp2965
S':'
asbag48
(g69
g50
NtRp2966
(dp2967
g53
(dp2968
sg62
g2953
sg55
(lp2969
g48
(g49
g50
NtRp2970
(dp2971
g53
(dp2972
g61
I3
ssg62
g2966
sg55
(lp2973
g1496
asbasbasbag48
(g64
g50
NtRp2974
(dp2975
g53
(dp2976
sg62
g2718
sg55
(lp2977
g48
(g69
g50
NtRp2978
(dp2979
g53
(dp2980
g73
g74
ssg62
g2974
sg55
(lp2981
S'REQUEST_METHOD'
p2982
asbag48
(g69
g50
NtRp2983
(dp2984
g53
(dp2985
g80
g81
ssg62
g2974
sg55
(lp2986
S':'
asbag48
(g69
g50
NtRp2987
(dp2988
g53
(dp2989
sg62
g2974
sg55
(lp2990
g48
(g49
g50
NtRp2991
(dp2992
g53
(dp2993
g61
I3
ssg62
g2987
sg55
(lp2994
g1518
asbasbasbag48
(g64
g50
NtRp2995
(dp2996
g53
(dp2997
sg62
g2718
sg55
(lp2998
g48
(g69
g50
NtRp2999
(dp3000
g53
(dp3001
g73
g74
ssg62
g2995
sg55
(lp3002
S'REQUEST_URI'
p3003
asbag48
(g69
g50
NtRp3004
(dp3005
g53
(dp3006
g80
g81
ssg62
g2995
sg55
(lp3007
S':'
asbag48
(g69
g50
NtRp3008
(dp3009
g53
(dp3010
sg62
g2995
sg55
(lp3011
g48
(g49
g50
NtRp3012
(dp3013
g53
(dp3014
g61
I3
ssg62
g3008
sg55
(lp3015
g1432
asbasbasbag48
(g64
g50
NtRp3016
(dp3017
g53
(dp3018
sg62
g2718
sg55
(lp3019
g48
(g69
g50
NtRp3020
(dp3021
g53
(dp3022
g73
g74
ssg62
g3016
sg55
(lp3023
S'SCRIPT_NAME'
p3024
asbag48
(g69
g50
NtRp3025
(dp3026
g53
(dp3027
g80
g81
ssg62
g3016
sg55
(lp3028
S':'
asbag48
(g69
g50
NtRp3029
(dp3030
g53
(dp3031
sg62
g3016
sg55
(lp3032
g48
(g49
g50
NtRp3033
(dp3034
g53
(dp3035
g61
I3
ssg62
g3029
sg55
(lp3036
S''
asbasbasbag48
(g64
g50
NtRp3037
(dp3038
g53
(dp3039
sg62
g2718
sg55
(lp3040
g48
(g69
g50
NtRp3041
(dp3042
g53
(dp3043
g73
g74
ssg62
g3037
sg55
(lp3044
S'SERVER_NAME'
p3045
asbag48
(g69
g50
NtRp3046
(dp3047
g53
(dp3048
g80
g81
ssg62
g3037
sg55
(lp3049
S':'
asbag48
(g69
g50
NtRp3050
(dp3051
g53
(dp3052
sg62
g3037
sg55
(lp3053
g48
(g49
g50
NtRp3054
(dp3055
g53
(dp3056
g61
I3
ssg62
g3050
sg55
(lp3057
g1397
asbasbasbag48
(g64
g50
NtRp3058
(dp3059
g53
(dp3060
sg62
g2718
sg55
(lp3061
g48
(g69
g50
NtRp3062
(dp3063
g53
(dp3064
g73
g74
ssg62
g3058
sg55
(lp3065
S'SERVER_PORT'
p3066
asbag48
(g69
g50
NtRp3067
(dp3068
g53
(dp3069
g80
g81
ssg62
g3058
sg55
(lp3070
S':'
asbag48
(g69
g50
NtRp3071
(dp3072
g53
(dp3073
sg62
g3058
sg55
(lp3074
g48
(g49
g50
NtRp3075
(dp3076
g53
(dp3077
g61
I3
ssg62
g3071
sg55
(lp3078
g1603
asbasbasbag48
(g64
g50
NtRp3079
(dp3080
g53
(dp3081
sg62
g2718
sg55
(lp3082
g48
(g69
g50
NtRp3083
(dp3084
g53
(dp3085
g73
g74
ssg62
g3079
sg55
(lp3086
S'SERVER_PROTOCOL'
p3087
asbag48
(g69
g50
NtRp3088
(dp3089
g53
(dp3090
g80
g81
ssg62
g3079
sg55
(lp3091
S':'
asbag48
(g69
g50
NtRp3092
(dp3093
g53
(dp3094
sg62
g3079
sg55
(lp3095
g48
(g49
g50
NtRp3096
(dp3097
g53
(dp3098
g61
I3
ssg62
g3092
sg55
(lp3099
g1625
asbasbasbag48
(g64
g50
NtRp3100
(dp3101
g53
(dp3102
sg62
g2718
sg55
(lp3103
g48
(g69
g50
NtRp3104
(dp3105
g53
(dp3106
g73
g74
ssg62
g3100
sg55
(lp3107
S'SERVER_SOFTWARE'
p3108
asbag48
(g69
g50
NtRp3109
(dp3110
g53
(dp3111
g80
g81
ssg62
g3100
sg55
(lp3112
S':'
asbag48
(g69
g50
NtRp3113
(dp3114
g53
(dp3115
sg62
g3100
sg55
(lp3116
g48
(g49
g50
NtRp3117
(dp3118
g53
(dp3119
g61
I3
ssg62
g3113
sg55
(lp3120
g1647
asbasbasbag48
(g64
g50
NtRp3121
(dp3122
g53
(dp3123
sg62
g2718
sg55
(lp3124
g48
(g69
g50
NtRp3125
(dp3126
g53
(dp3127
g73
g74
ssg62
g3121
sg55
(lp3128
S'wsgi.errors'
p3129
asbag48
(g69
g50
NtRp3130
(dp3131
g53
(dp3132
g80
g81
ssg62
g3121
sg55
(lp3133
S':'
asbag48
(g69
g50
NtRp3134
(dp3135
g53
(dp3136
sg62
g3121
sg55
(lp3137
g48
(g49
g50
NtRp3138
(dp3139
g53
(dp3140
g61
I3
ssg62
g3134
sg55
(lp3141
S"<open file '<stderr>', mode 'w' at 0x540b0>"
p3142
asbasbasbag48
(g64
g50
NtRp3143
(dp3144
g53
(dp3145
sg62
g2718
sg55
(lp3146
g48
(g69
g50
NtRp3147
(dp3148
g53
(dp3149
g73
g74
ssg62
g3143
sg55
(lp3150
S'wsgi.file_wrapper'
p3151
asbag48
(g69
g50
NtRp3152
(dp3153
g53
(dp3154
g80
g81
ssg62
g3143
sg55
(lp3155
S':'
asbag48
(g69
g50
NtRp3156
(dp3157
g53
(dp3158
sg62
g3143
sg55
(lp3159
g48
(g49
g50
NtRp3160
(dp3161
g53
(dp3162
g61
I3
ssg62
g3156
sg55
(lp3163
S'<class wsgiref.util.FileWrapper at 0x44002d0>'
p3164
asbasbasbag48
(g64
g50
NtRp3165
(dp3166
g53
(dp3167
sg62
g2718
sg55
(lp3168
g48
(g69
g50
NtRp3169
(dp3170
g53
(dp3171
g73
g74
ssg62
g3165
sg55
(lp3172
S'wsgi.input'
p3173
asbag48
(g69
g50
NtRp3174
(dp3175
g53
(dp3176
g80
g81
ssg62
g3165
sg55
(lp3177
S':'
asbag48
(g69
g50
NtRp3178
(dp3179
g53
(dp3180
sg62
g3165
sg55
(lp3181
g48
(g49
g50
NtRp3182
(dp3183
g53
(dp3184
g61
I3
ssg62
g3178
sg55
(lp3185
S'<cStringIO.StringO object at 0x9b62240>'
p3186
asbasbasbag48
(g64
g50
NtRp3187
(dp3188
g53
(dp3189
sg62
g2718
sg55
(lp3190
g48
(g69
g50
NtRp3191
(dp3192
g53
(dp3193
g73
g74
ssg62
g3187
sg55
(lp3194
S'wsgi.multiprocess'
p3195
asbag48
(g69
g50
NtRp3196
(dp3197
g53
(dp3198
g80
g81
ssg62
g3187
sg55
(lp3199
S':'
asbag48
(g69
g50
NtRp3200
(dp3201
g53
(dp3202
sg62
g3187
sg55
(lp3203
g48
(g49
g50
NtRp3204
(dp3205
g53
(dp3206
g61
I3
ssg62
g3200
sg55
(lp3207
g91
asbasbasbag48
(g64
g50
NtRp3208
(dp3209
g53
(dp3210
sg62
g2718
sg55
(lp3211
g48
(g69
g50
NtRp3212
(dp3213
g53
(dp3214
g73
g74
ssg62
g3208
sg55
(lp3215
S'wsgi.multithread'
p3216
asbag48
(g69
g50
NtRp3217
(dp3218
g53
(dp3219
g80
g81
ssg62
g3208
sg55
(lp3220
S':'
asbag48
(g69
g50
NtRp3221
(dp3222
g53
(dp3223
sg62
g3208
sg55
(lp3224
g48
(g49
g50
NtRp3225
(dp3226
g53
(dp3227
g61
I3
ssg62
g3221
sg55
(lp3228
g1864
asbasbasbag48
(g64
g50
NtRp3229
(dp3230
g53
(dp3231
sg62
g2718
sg55
(lp3232
g48
(g69
g50
NtRp3233
(dp3234
g53
(dp3235
g73
g74
ssg62
g3229
sg55
(lp3236
S'wsgi.run_once'
p3237
asbag48
(g69
g50
NtRp3238
(dp3239
g53
(dp3240
g80
g81
ssg62
g3229
sg55
(lp3241
S':'
asbag48
(g69
g50
NtRp3242
(dp3243
g53
(dp3244
sg62
g3229
sg55
(lp3245
g48
(g49
g50
NtRp3246
(dp3247
g53
(dp3248
g61
I3
ssg62
g3242
sg55
(lp3249
g91
asbasbasbag48
(g64
g50
NtRp3250
(dp3251
g53
(dp3252
sg62
g2718
sg55
(lp3253
g48
(g69
g50
NtRp3254
(dp3255
g53
(dp3256
g73
g74
ssg62
g3250
sg55
(lp3257
S'wsgi.url_scheme'
p3258
asbag48
(g69
g50
NtRp3259
(dp3260
g53
(dp3261
g80
g81
ssg62
g3250
sg55
(lp3262
S':'
asbag48
(g69
g50
NtRp3263
(dp3264
g53
(dp3265
sg62
g3250
sg55
(lp3266
g48
(g49
g50
NtRp3267
(dp3268
g53
(dp3269
g61
I3
ssg62
g3263
sg55
(lp3270
g1907
asbasbasbag48
(g64
g50
NtRp3271
(dp3272
g53
(dp3273
sg62
g2718
sg55
(lp3274
g48
(g69
g50
NtRp3275
(dp3276
g53
(dp3277
g73
g74
ssg62
g3271
sg55
(lp3278
S'wsgi.version'
p3279
asbag48
(g69
g50
NtRp3280
(dp3281
g53
(dp3282
g80
g81
ssg62
g3271
sg55
(lp3283
S':'
asbag48
(g69
g50
NtRp3284
(dp3285
g53
(dp3286
sg62
g3271
sg55
(lp3287
g48
(g49
g50
NtRp3288
(dp3289
g53
(dp3290
g61
I3
ssg62
g3284
sg55
(lp3291
S'1'
asbasbasbasbasbasbasbasbasbasbasbasbasbsS'frames'
p3292
(lp3293
(dp3294
S'file'
p3295
S'/Users/abaric/Downloads/web2py/web2py.app/Contents/Resources/gluon/restricted.py'
p3296
sS'dump'
p3297
(dp3298
sS'lnum'
p3299
I212
sS'lines'
p3300
(dp3301
sS'call'
p3302
S'(code=\'response.write(\\\'<!DOCTYPE html>\\\\n<!-- paulirish...."></script>\\\\n</body>\\\\n</html>\\\\n\\\\n\\\', escape=False)\', environment={\'A\': <class \'gluon.html.A\'>, \'Auth\': <class \'gluon.tools.Auth\'>, \'B\': <class \'gluon.html.B\'>, \'BEAUTIFY\': <class \'gluon.html.BEAUTIFY\'>, \'BODY\': <class \'gluon.html.BODY\'>, \'BR\': <class \'gluon.html.BR\'>, \'BUTTON\': <class \'gluon.html.BUTTON\'>, \'CAT\': <class \'gluon.html.CAT\'>, \'CENTER\': <class \'gluon.html.CENTER\'>, \'CLEANUP\': <class \'gluon.validators.CLEANUP\'>, ...}, layer=\'/Users/abaric/Downloads/web2py/web2py.app/Conten...al_Impulse/views/default/show_video_comments.html\')'
p3303
sS'func'
p3304
S'restricted'
p3305
sa(dp3306
g3295
S'/Users/abaric/Downloads/web2py/web2py.app/Contents/Resources/applications/Final_Impulse/views/default/show_video_comments.html'
p3307
sg3297
(dp3308
sg3299
I85
sg3300
(dp3309
I76
S'response.write(\'">\\n            \', escape=False)'
p3310
sI77
S"response.write('\\n            ', escape=False)"
p3311
sI78
S"response.write('\\n\\n<h1>Da Video Posts</h1>\\n\\n<table>\\n    ', escape=False)"
p3312
sI79
S'for video in videos:'
p3313
sI80
S"    response.write('\\n    <tr>\\n        <center>\\n        <td><b><i>', escape=False)"
p3314
sI81
S'    response.write(video.title)'
p3315
sI82
S'    response.write(\'</i></b></td>\\n        </center>\\n    </tr>\\n    \\n\\t<tr>     \\n        <center>  \\n        <td><iframe width="420" height="315" src="\', escape=False)'
p3316
sI83
S'    response.write(video.url_str)'
p3317
sI84
S'    response.write(\'" frameborder="0" allowfullscreen></iframe></td>\\n        </center>\\n    </tr>\\n  \\n    \', escape=False)'
p3318
sI85
S'    if len(d[video.id]):'
p3319
sI86
S"        response.write('\\n        <tr>\\n        <td>\\n            <table>\\n            ', escape=False)"
p3320
sI87
S'        for t in d[video.id]:'
p3321
sI88
S"            response.write('\\n                        <tr>\\n                            <center>\\n                            <td>', escape=False)"
p3322
sI89
S'            response.write(("\'%s\' says \'%s\'")%(t[0],t[1]))'
p3323
sI90
S"            response.write('</td>\\n                            </center>\\n                        </tr>\\n                    ', escape=False)"
p3324
sI91
S'            pass'
p3325
sI92
S"        response.write('\\n        </table>\\n            </td>\\n    </tr>\\n         ', escape=False)"
p3326
sI93
S'        pass'
p3327
sI94
S"    response.write('\\n    ', escape=False)"
p3328
sI95
S'    pass'
p3329
ssg3302
S'()'
p3330
sg3304
S'<module>'
p3331
sasS'pyver'
p3332
S'Python 2.5.1: /Users/abaric/Downloads/web2py/web2py.app/Contents/MacOS/python'
p3333
sS'session'
p3334
g48
(g49
g50
NtRp3335
(dp3336
g53
(dp3337
sg55
(lp3338
g48
(g57
g50
NtRp3339
(dp3340
g53
(dp3341
g61
I5
ssg62
Nsg55
(lp3342
g48
(g64
g50
NtRp3343
(dp3344
g53
(dp3345
sg62
g3339
sg55
(lp3346
g48
(g69
g50
NtRp3347
(dp3348
g53
(dp3349
g73
g74
ssg62
g3343
sg55
(lp3350
S'last_orderby'
p3351
asbag48
(g69
g50
NtRp3352
(dp3353
g53
(dp3354
g80
g81
ssg62
g3343
sg55
(lp3355
S':'
asbag48
(g69
g50
NtRp3356
(dp3357
g53
(dp3358
sg62
g3343
sg55
(lp3359
g48
(g49
g50
NtRp3360
(dp3361
g53
(dp3362
g61
I5
ssg62
g3356
sg55
(lp3363
S'None'
p3364
asbasbasbag48
(g64
g50
NtRp3365
(dp3366
g53
(dp3367
sg62
g3339
sg55
(lp3368
g48
(g69
g50
NtRp3369
(dp3370
g53
(dp3371
g73
g74
ssg62
g3365
sg55
(lp3372
S'last_query'
p3373
asbag48
(g69
g50
NtRp3374
(dp3375
g53
(dp3376
g80
g81
ssg62
g3365
sg55
(lp3377
S':'
asbag48
(g69
g50
NtRp3378
(dp3379
g53
(dp3380
sg62
g3365
sg55
(lp3381
g48
(g49
g50
NtRp3382
(dp3383
g53
(dp3384
g61
I5
ssg62
g3378
sg55
(lp3385
S'db.video.id>0'
p3386
asbasbasbasbasbsS'etype'
p3387
S"<type 'exceptions.KeyError'>"
p3388
sS'date'
p3389
S'Sun Mar 30 00:18:04 2014'
p3390
sS'response'
p3391
g48
(g49
g50
NtRp3392
(dp3393
g53
(dp3394
sg55
(lp3395
g48
(g57
g50
NtRp3396
(dp3397
g53
(dp3398
g61
I5
ssg62
Nsg55
(lp3399
g48
(g64
g50
NtRp3400
(dp3401
g53
(dp3402
sg62
g3396
sg55
(lp3403
g48
(g69
g50
NtRp3404
(dp3405
g53
(dp3406
g73
g74
ssg62
g3400
sg55
(lp3407
g146
asbag48
(g69
g50
NtRp3408
(dp3409
g53
(dp3410
g80
g81
ssg62
g3400
sg55
(lp3411
S':'
asbag48
(g69
g50
NtRp3412
(dp3413
g53
(dp3414
sg62
g3400
sg55
(lp3415
g48
(g49
g50
NtRp3416
(dp3417
g53
(dp3418
g61
I5
ssg62
g3412
sg55
(lp3419
S'<cStringIO.StringO object at 0x9b62da0>'
p3420
asbasbasbag48
(g64
g50
NtRp3421
(dp3422
g53
(dp3423
sg62
g3396
sg55
(lp3424
g48
(g69
g50
NtRp3425
(dp3426
g53
(dp3427
g73
g74
ssg62
g3421
sg55
(lp3428
g234
asbag48
(g69
g50
NtRp3429
(dp3430
g53
(dp3431
g80
g81
ssg62
g3421
sg55
(lp3432
S':'
asbag48
(g69
g50
NtRp3433
(dp3434
g53
(dp3435
sg62
g3421
sg55
(lp3436
g48
(g49
g50
NtRp3437
(dp3438
g53
(dp3439
g61
I5
ssg62
g3433
sg55
(lp3440
g48
(g57
g50
NtRp3441
(dp3442
g53
(dp3443
g61
I4
ssg62
Nsg55
(lp3444
g48
(g64
g50
NtRp3445
(dp3446
g53
(dp3447
sg62
g3441
sg55
(lp3448
g48
(g69
g50
NtRp3449
(dp3450
g53
(dp3451
g73
g74
ssg62
g3445
sg55
(lp3452
S'session_id_final_impulse'
p3453
asbag48
(g69
g50
NtRp3454
(dp3455
g53
(dp3456
g80
g81
ssg62
g3445
sg55
(lp3457
S':'
asbag48
(g69
g50
NtRp3458
(dp3459
g53
(dp3460
sg62
g3445
sg55
(lp3461
g48
(g49
g50
NtRp3462
(dp3463
g53
(dp3464
g61
I4
ssg62
g3458
sg55
(lp3465
g445
ag48
(g57
g50
NtRp3466
(dp3467
g53
(dp3468
g61
I3
ssg62
Nsg55
(lp3469
g48
(g64
g50
NtRp3470
(dp3471
g53
(dp3472
sg62
g3466
sg55
(lp3473
g48
(g69
g50
NtRp3474
(dp3475
g53
(dp3476
g73
g74
ssg62
g3470
sg55
(lp3477
g285
asbag48
(g69
g50
NtRp3478
(dp3479
g53
(dp3480
g80
g81
ssg62
g3470
sg55
(lp3481
S':'
asbag48
(g69
g50
NtRp3482
(dp3483
g53
(dp3484
sg62
g3470
sg55
(lp3485
g48
(g49
g50
NtRp3486
(dp3487
g53
(dp3488
g61
I3
ssg62
g3482
sg55
(lp3489
S''
asbasbasbag48
(g64
g50
NtRp3490
(dp3491
g53
(dp3492
sg62
g3466
sg55
(lp3493
g48
(g69
g50
NtRp3494
(dp3495
g53
(dp3496
g73
g74
ssg62
g3490
sg55
(lp3497
g306
asbag48
(g69
g50
NtRp3498
(dp3499
g53
(dp3500
g80
g81
ssg62
g3490
sg55
(lp3501
S':'
asbag48
(g69
g50
NtRp3502
(dp3503
g53
(dp3504
sg62
g3490
sg55
(lp3505
g48
(g49
g50
NtRp3506
(dp3507
g53
(dp3508
g61
I3
ssg62
g3502
sg55
(lp3509
S''
asbasbasbag48
(g64
g50
NtRp3510
(dp3511
g53
(dp3512
sg62
g3466
sg55
(lp3513
g48
(g69
g50
NtRp3514
(dp3515
g53
(dp3516
g73
g74
ssg62
g3510
sg55
(lp3517
g327
asbag48
(g69
g50
NtRp3518
(dp3519
g53
(dp3520
g80
g81
ssg62
g3510
sg55
(lp3521
S':'
asbag48
(g69
g50
NtRp3522
(dp3523
g53
(dp3524
sg62
g3510
sg55
(lp3525
g48
(g49
g50
NtRp3526
(dp3527
g53
(dp3528
g61
I3
ssg62
g3522
sg55
(lp3529
S''
asbasbasbag48
(g64
g50
NtRp3530
(dp3531
g53
(dp3532
sg62
g3466
sg55
(lp3533
g48
(g69
g50
NtRp3534
(dp3535
g53
(dp3536
g73
g74
ssg62
g3530
sg55
(lp3537
g348
asbag48
(g69
g50
NtRp3538
(dp3539
g53
(dp3540
g80
g81
ssg62
g3530
sg55
(lp3541
S':'
asbag48
(g69
g50
NtRp3542
(dp3543
g53
(dp3544
sg62
g3530
sg55
(lp3545
g48
(g49
g50
NtRp3546
(dp3547
g53
(dp3548
g61
I3
ssg62
g3542
sg55
(lp3549
S''
asbasbasbag48
(g64
g50
NtRp3550
(dp3551
g53
(dp3552
sg62
g3466
sg55
(lp3553
g48
(g69
g50
NtRp3554
(dp3555
g53
(dp3556
g73
g74
ssg62
g3550
sg55
(lp3557
g369
asbag48
(g69
g50
NtRp3558
(dp3559
g53
(dp3560
g80
g81
ssg62
g3550
sg55
(lp3561
S':'
asbag48
(g69
g50
NtRp3562
(dp3563
g53
(dp3564
sg62
g3550
sg55
(lp3565
g48
(g49
g50
NtRp3566
(dp3567
g53
(dp3568
g61
I3
ssg62
g3562
sg55
(lp3569
S'/'
asbasbasbag48
(g64
g50
NtRp3570
(dp3571
g53
(dp3572
sg62
g3466
sg55
(lp3573
g48
(g69
g50
NtRp3574
(dp3575
g53
(dp3576
g73
g74
ssg62
g3570
sg55
(lp3577
g390
asbag48
(g69
g50
NtRp3578
(dp3579
g53
(dp3580
g80
g81
ssg62
g3570
sg55
(lp3581
S':'
asbag48
(g69
g50
NtRp3582
(dp3583
g53
(dp3584
sg62
g3570
sg55
(lp3585
g48
(g49
g50
NtRp3586
(dp3587
g53
(dp3588
g61
I3
ssg62
g3582
sg55
(lp3589
S''
asbasbasbag48
(g64
g50
NtRp3590
(dp3591
g53
(dp3592
sg62
g3466
sg55
(lp3593
g48
(g69
g50
NtRp3594
(dp3595
g53
(dp3596
g73
g74
ssg62
g3590
sg55
(lp3597
g411
asbag48
(g69
g50
NtRp3598
(dp3599
g53
(dp3600
g80
g81
ssg62
g3590
sg55
(lp3601
S':'
asbag48
(g69
g50
NtRp3602
(dp3603
g53
(dp3604
sg62
g3590
sg55
(lp3605
g48
(g49
g50
NtRp3606
(dp3607
g53
(dp3608
g61
I3
ssg62
g3602
sg55
(lp3609
S''
asbasbasbasbasbasbasbasbasbasbasbag48
(g64
g50
NtRp3610
(dp3611
g53
(dp3612
sg62
g3396
sg55
(lp3613
g48
(g69
g50
NtRp3614
(dp3615
g53
(dp3616
g73
g74
ssg62
g3610
sg55
(lp3617
S'delimiters'
p3618
asbag48
(g69
g50
NtRp3619
(dp3620
g53
(dp3621
g80
g81
ssg62
g3610
sg55
(lp3622
S':'
asbag48
(g69
g50
NtRp3623
(dp3624
g53
(dp3625
sg62
g3610
sg55
(lp3626
g48
(g49
g50
NtRp3627
(dp3628
g53
(dp3629
g61
I5
ssg62
g3623
sg55
(lp3630
g48
(g57
g50
NtRp3631
(dp3632
g53
(dp3633
g61
I4
ssg62
Nsg55
(lp3634
g48
(g64
g50
NtRp3635
(dp3636
g53
(dp3637
sg62
g3631
sg55
(lp3638
g48
(g69
g50
NtRp3639
(dp3640
g53
(dp3641
sg62
g3635
sg55
(lp3642
g48
(g49
g50
NtRp3643
(dp3644
g53
(dp3645
g61
I4
ssg62
g3639
sg55
(lp3646
S'{{'
p3647
asbasbasbag48
(g64
g50
NtRp3648
(dp3649
g53
(dp3650
sg62
g3631
sg55
(lp3651
g48
(g69
g50
NtRp3652
(dp3653
g53
(dp3654
sg62
g3648
sg55
(lp3655
g48
(g49
g50
NtRp3656
(dp3657
g53
(dp3658
g61
I4
ssg62
g3652
sg55
(lp3659
S'}}'
p3660
asbasbasbasbasbasbasbag48
(g64
g50
NtRp3661
(dp3662
g53
(dp3663
sg62
g3396
sg55
(lp3664
g48
(g69
g50
NtRp3665
(dp3666
g53
(dp3667
g73
g74
ssg62
g3661
sg55
(lp3668
S'files'
p3669
asbag48
(g69
g50
NtRp3670
(dp3671
g53
(dp3672
g80
g81
ssg62
g3661
sg55
(lp3673
S':'
asbag48
(g69
g50
NtRp3674
(dp3675
g53
(dp3676
sg62
g3661
sg55
(lp3677
g48
(g49
g50
NtRp3678
(dp3679
g53
(dp3680
g61
I5
ssg62
g3674
sg55
(lp3681
g48
(g57
g50
NtRp3682
(dp3683
g53
(dp3684
g61
I4
ssg62
Nsg55
(lp3685
g48
(g64
g50
NtRp3686
(dp3687
g53
(dp3688
sg62
g3682
sg55
(lp3689
g48
(g69
g50
NtRp3690
(dp3691
g53
(dp3692
sg62
g3686
sg55
(lp3693
g48
(g49
g50
NtRp3694
(dp3695
g53
(dp3696
g61
I4
ssg62
g3690
sg55
(lp3697
S'/Final_Impulse/static/js/jquery.js'
p3698
asbasbasbag48
(g64
g50
NtRp3699
(dp3700
g53
(dp3701
sg62
g3682
sg55
(lp3702
g48
(g69
g50
NtRp3703
(dp3704
g53
(dp3705
sg62
g3699
sg55
(lp3706
g48
(g49
g50
NtRp3707
(dp3708
g53
(dp3709
g61
I4
ssg62
g3703
sg55
(lp3710
S'/Final_Impulse/static/css/calendar.css'
p3711
asbasbasbag48
(g64
g50
NtRp3712
(dp3713
g53
(dp3714
sg62
g3682
sg55
(lp3715
g48
(g69
g50
NtRp3716
(dp3717
g53
(dp3718
sg62
g3712
sg55
(lp3719
g48
(g49
g50
NtRp3720
(dp3721
g53
(dp3722
g61
I4
ssg62
g3716
sg55
(lp3723
S'/Final_Impulse/static/js/calendar.js'
p3724
asbasbasbag48
(g64
g50
NtRp3725
(dp3726
g53
(dp3727
sg62
g3682
sg55
(lp3728
g48
(g69
g50
NtRp3729
(dp3730
g53
(dp3731
sg62
g3725
sg55
(lp3732
g48
(g49
g50
NtRp3733
(dp3734
g53
(dp3735
g61
I4
ssg62
g3729
sg55
(lp3736
S'/Final_Impulse/static/js/web2py.js'
p3737
asbasbasbag48
(g64
g50
NtRp3738
(dp3739
g53
(dp3740
sg62
g3682
sg55
(lp3741
g48
(g69
g50
NtRp3742
(dp3743
g53
(dp3744
sg62
g3738
sg55
(lp3745
g48
(g49
g50
NtRp3746
(dp3747
g53
(dp3748
g61
I4
ssg62
g3742
sg55
(lp3749
S'/Final_Impulse/static/css/web2py.css'
p3750
asbasbasbag48
(g64
g50
NtRp3751
(dp3752
g53
(dp3753
sg62
g3682
sg55
(lp3754
g48
(g69
g50
NtRp3755
(dp3756
g53
(dp3757
sg62
g3751
sg55
(lp3758
g48
(g49
g50
NtRp3759
(dp3760
g53
(dp3761
g61
I4
ssg62
g3755
sg55
(lp3762
S'/Final_Impulse/static/css/bootstrap.min.css'
p3763
asbasbasbag48
(g64
g50
NtRp3764
(dp3765
g53
(dp3766
sg62
g3682
sg55
(lp3767
g48
(g69
g50
NtRp3768
(dp3769
g53
(dp3770
sg62
g3764
sg55
(lp3771
g48
(g49
g50
NtRp3772
(dp3773
g53
(dp3774
g61
I4
ssg62
g3768
sg55
(lp3775
S'/Final_Impulse/static/css/bootstrap-responsive.min.css'
p3776
asbasbasbag48
(g64
g50
NtRp3777
(dp3778
g53
(dp3779
sg62
g3682
sg55
(lp3780
g48
(g69
g50
NtRp3781
(dp3782
g53
(dp3783
sg62
g3777
sg55
(lp3784
g48
(g49
g50
NtRp3785
(dp3786
g53
(dp3787
g61
I4
ssg62
g3781
sg55
(lp3788
S'/Final_Impulse/static/css/web2py_bootstrap.css'
p3789
asbasbasbasbasbasbasbag48
(g64
g50
NtRp3790
(dp3791
g53
(dp3792
sg62
g3396
sg55
(lp3793
g48
(g69
g50
NtRp3794
(dp3795
g53
(dp3796
g73
g74
ssg62
g3790
sg55
(lp3797
S'flash'
p3798
asbag48
(g69
g50
NtRp3799
(dp3800
g53
(dp3801
g80
g81
ssg62
g3790
sg55
(lp3802
S':'
asbag48
(g69
g50
NtRp3803
(dp3804
g53
(dp3805
sg62
g3790
sg55
(lp3806
g48
(g49
g50
NtRp3807
(dp3808
g53
(dp3809
g61
I5
ssg62
g3803
sg55
(lp3810
S''
asbasbasbag48
(g64
g50
NtRp3811
(dp3812
g53
(dp3813
sg62
g3396
sg55
(lp3814
g48
(g69
g50
NtRp3815
(dp3816
g53
(dp3817
g73
g74
ssg62
g3811
sg55
(lp3818
S'generic_patterns'
p3819
asbag48
(g69
g50
NtRp3820
(dp3821
g53
(dp3822
g80
g81
ssg62
g3811
sg55
(lp3823
S':'
asbag48
(g69
g50
NtRp3824
(dp3825
g53
(dp3826
sg62
g3811
sg55
(lp3827
g48
(g49
g50
NtRp3828
(dp3829
g53
(dp3830
g61
I5
ssg62
g3824
sg55
(lp3831
g48
(g57
g50
NtRp3832
(dp3833
g53
(dp3834
g61
I4
ssg62
Nsg55
(lp3835
sbasbasbasbag48
(g64
g50
NtRp3836
(dp3837
g53
(dp3838
sg62
g3396
sg55
(lp3839
g48
(g69
g50
NtRp3840
(dp3841
g53
(dp3842
g73
g74
ssg62
g3836
sg55
(lp3843
S'google_analytics_id'
p3844
asbag48
(g69
g50
NtRp3845
(dp3846
g53
(dp3847
g80
g81
ssg62
g3836
sg55
(lp3848
S':'
asbag48
(g69
g50
NtRp3849
(dp3850
g53
(dp3851
sg62
g3836
sg55
(lp3852
g48
(g49
g50
NtRp3853
(dp3854
g53
(dp3855
g61
I5
ssg62
g3849
sg55
(lp3856
S'None'
p3857
asbasbasbag48
(g64
g50
NtRp3858
(dp3859
g53
(dp3860
sg62
g3396
sg55
(lp3861
g48
(g69
g50
NtRp3862
(dp3863
g53
(dp3864
g73
g74
ssg62
g3858
sg55
(lp3865
S'headers'
p3866
asbag48
(g69
g50
NtRp3867
(dp3868
g53
(dp3869
g80
g81
ssg62
g3858
sg55
(lp3870
S':'
asbag48
(g69
g50
NtRp3871
(dp3872
g53
(dp3873
sg62
g3858
sg55
(lp3874
g48
(g49
g50
NtRp3875
(dp3876
g53
(dp3877
g61
I5
ssg62
g3871
sg55
(lp3878
g48
(g57
g50
NtRp3879
(dp3880
g53
(dp3881
g61
I4
ssg62
Nsg55
(lp3882
g48
(g64
g50
NtRp3883
(dp3884
g53
(dp3885
sg62
g3879
sg55
(lp3886
g48
(g69
g50
NtRp3887
(dp3888
g53
(dp3889
g73
g74
ssg62
g3883
sg55
(lp3890
S'X-Powered-By'
p3891
asbag48
(g69
g50
NtRp3892
(dp3893
g53
(dp3894
g80
g81
ssg62
g3883
sg55
(lp3895
S':'
asbag48
(g69
g50
NtRp3896
(dp3897
g53
(dp3898
sg62
g3883
sg55
(lp3899
g48
(g49
g50
NtRp3900
(dp3901
g53
(dp3902
g61
I4
ssg62
g3896
sg55
(lp3903
S'web2py'
p3904
asbasbasbasbasbasbasbag48
(g64
g50
NtRp3905
(dp3906
g53
(dp3907
sg62
g3396
sg55
(lp3908
g48
(g69
g50
NtRp3909
(dp3910
g53
(dp3911
g73
g74
ssg62
g3905
sg55
(lp3912
S'menu'
p3913
asbag48
(g69
g50
NtRp3914
(dp3915
g53
(dp3916
g80
g81
ssg62
g3905
sg55
(lp3917
S':'
asbag48
(g69
g50
NtRp3918
(dp3919
g53
(dp3920
sg62
g3905
sg55
(lp3921
g48
(g49
g50
NtRp3922
(dp3923
g53
(dp3924
g61
I5
ssg62
g3918
sg55
(lp3925
g48
(g57
g50
NtRp3926
(dp3927
g53
(dp3928
g61
I4
ssg62
Nsg55
(lp3929
g48
(g64
g50
NtRp3930
(dp3931
g53
(dp3932
sg62
g3926
sg55
(lp3933
g48
(g69
g50
NtRp3934
(dp3935
g53
(dp3936
sg62
g3930
sg55
(lp3937
g48
(g49
g50
NtRp3938
(dp3939
g53
(dp3940
g61
I4
ssg62
g3934
sg55
(lp3941
g48
(g57
g50
NtRp3942
(dp3943
g53
(dp3944
g61
I3
ssg62
Nsg55
(lp3945
g48
(g64
g50
NtRp3946
(dp3947
g53
(dp3948
sg62
g3942
sg55
(lp3949
g48
(g69
g50
NtRp3950
(dp3951
g53
(dp3952
sg62
g3946
sg55
(lp3953
g48
(g49
g50
NtRp3954
(dp3955
g53
(dp3956
g61
I3
ssg62
g3950
sg55
(lp3957
cgluon.languages
lazyT_unpickle
p3958
(S't\x04\x00\x00\x00Home'
tRp3959
asbasbasbag48
(g64
g50
NtRp3960
(dp3961
g53
(dp3962
sg62
g3942
sg55
(lp3963
g48
(g69
g50
NtRp3964
(dp3965
g53
(dp3966
sg62
g3960
sg55
(lp3967
g48
(g49
g50
NtRp3968
(dp3969
g53
(dp3970
g61
I3
ssg62
g3964
sg55
(lp3971
g91
asbasbasbag48
(g64
g50
NtRp3972
(dp3973
g53
(dp3974
sg62
g3942
sg55
(lp3975
g48
(g69
g50
NtRp3976
(dp3977
g53
(dp3978
sg62
g3972
sg55
(lp3979
g48
(g49
g50
NtRp3980
(dp3981
g53
(dp3982
g61
I3
ssg62
g3976
sg55
(lp3983
S'/Final_Impulse/default/index'
p3984
asbasbasbag48
(g64
g50
NtRp3985
(dp3986
g53
(dp3987
sg62
g3942
sg55
(lp3988
g48
(g69
g50
NtRp3989
(dp3990
g53
(dp3991
sg62
g3985
sg55
(lp3992
g48
(g49
g50
NtRp3993
(dp3994
g53
(dp3995
g61
I3
ssg62
g3989
sg55
(lp3996
g48
(g57
g50
NtRp3997
(dp3998
g53
(dp3999
g61
I2
ssg62
Nsg55
(lp4000
sbasbasbasbasbasbasbasbag48
(g64
g50
NtRp4001
(dp4002
g53
(dp4003
sg62
g3926
sg55
(lp4004
g48
(g69
g50
NtRp4005
(dp4006
g53
(dp4007
sg62
g4001
sg55
(lp4008
g48
(g49
g50
NtRp4009
(dp4010
g53
(dp4011
g61
I4
ssg62
g4005
sg55
(lp4012
g48
(g57
g50
NtRp4013
(dp4014
g53
(dp4015
g61
I3
ssg62
Nsg55
(lp4016
g48
(g64
g50
NtRp4017
(dp4018
g53
(dp4019
sg62
g4013
sg55
(lp4020
g48
(g69
g50
NtRp4021
(dp4022
g53
(dp4023
sg62
g4017
sg55
(lp4024
g48
(g49
g50
NtRp4025
(dp4026
g53
(dp4027
g61
I3
ssg62
g4021
sg55
(lp4028
g48
(cgluon.html
SPAN
p4029
g50
NtRp4030
(dp4031
g53
(dp4032
S'_class'
p4033
S'highlighted'
p4034
ssg62
g48
(cgluon.html
A
p4035
g50
NtRp4036
(dp4037
g53
(dp4038
S'_href'
p4039
S'http://web2py.com'
p4040
ssg62
g48
(cgluon.html
LI
p4041
g50
NtRp4042
(dp4043
g53
(dp4044
g4033
S'dropdown'
p4045
ssg62
g48
(cgluon.html
UL
p4046
g50
NtRp4047
(dp4048
g53
(dp4049
S'li_class'
p4050
g4045
sS'mobile'
p4051
I00
sg4033
S'nav'
p4052
sS'ul_class'
p4053
S'dropdown-menu'
p4054
sS'li_active'
p4055
S'web2py-menu-active'
p4056
ssg62
Nsg55
(lp4057
g48
(g4041
g50
NtRp4058
(dp4059
g53
(dp4060
sg62
g4047
sg55
(lp4061
g48
(g4035
g50
NtRp4062
(dp4063
g53
(dp4064
g4039
g3984
ssg62
g4058
sg55
(lp4065
g3959
asbasbag4042
asbsg55
(lp4066
g4036
ag48
(g4046
g50
NtRp4067
(dp4068
g53
(dp4069
g4033
g4054
ssg62
g4042
sg55
(lp4070
g48
(g4041
g50
NtRp4071
(dp4072
g53
(dp4073
sg62
g4067
sg55
(lp4074
g48
(g4035
g50
NtRp4075
(dp4076
g53
(dp4077
g4039
S'/admin/default/site'
p4078
ssg62
g4071
sg55
(lp4079
g3958
(S's\x08\x00\x00\x00My Sites'
tRp4080
asbasbag48
(g4041
g50
NtRp4081
(dp4082
g53
(dp4083
g4033
g4045
ssg62
g4067
sg55
(lp4084
g48
(g4035
g50
NtRp4085
(dp4086
g53
(dp4087
g4039
S'/admin/default/design/Final_Impulse'
p4088
ssg62
g4081
sg55
(lp4089
g3958
(S's\x08\x00\x00\x00This App'
tRp4090
asbag48
(g4046
g50
NtRp4091
(dp4092
g53
(dp4093
g4033
g4054
ssg62
g4081
sg55
(lp4094
g48
(g4041
g50
NtRp4095
(dp4096
g53
(dp4097
sg62
g4091
sg55
(lp4098
g48
(g4035
g50
NtRp4099
(dp4100
g53
(dp4101
g4039
S'/admin/default/edit/Final_Impulse/controllers/default.py'
p4102
ssg62
g4095
sg55
(lp4103
g3958
(S't\n\x00\x00\x00Controller'
tRp4104
asbasbag48
(g4041
g50
NtRp4105
(dp4106
g53
(dp4107
sg62
g4091
sg55
(lp4108
g48
(g4035
g50
NtRp4109
(dp4110
g53
(dp4111
g4039
S'/admin/default/edit/Final_Impulse/views/default/show_video_comments.html'
p4112
ssg62
g4105
sg55
(lp4113
g3958
(S't\x04\x00\x00\x00View'
tRp4114
asbasbag48
(g4041
g50
NtRp4115
(dp4116
g53
(dp4117
sg62
g4091
sg55
(lp4118
g48
(g4035
g50
NtRp4119
(dp4120
g53
(dp4121
g4039
S'/admin/default/edit/Final_Impulse/views/layout.html'
p4122
ssg62
g4115
sg55
(lp4123
g3958
(S't\x06\x00\x00\x00Layout'
tRp4124
asbasbag48
(g4041
g50
NtRp4125
(dp4126
g53
(dp4127
sg62
g4091
sg55
(lp4128
g48
(g4035
g50
NtRp4129
(dp4130
g53
(dp4131
g4039
S'/admin/default/edit/Final_Impulse/static/css/web2py.css'
p4132
ssg62
g4125
sg55
(lp4133
g3958
(S't\n\x00\x00\x00Stylesheet'
tRp4134
asbasbag48
(g4041
g50
NtRp4135
(dp4136
g53
(dp4137
sg62
g4091
sg55
(lp4138
g48
(g4035
g50
NtRp4139
(dp4140
g53
(dp4141
g4039
S'/admin/default/edit/Final_Impulse/models/db.py'
p4142
ssg62
g4135
sg55
(lp4143
g3958
(S's\x08\x00\x00\x00DB Model'
tRp4144
asbasbag48
(g4041
g50
NtRp4145
(dp4146
g53
(dp4147
sg62
g4091
sg55
(lp4148
g48
(g4035
g50
NtRp4149
(dp4150
g53
(dp4151
g4039
S'/admin/default/edit/Final_Impulse/models/menu.py'
p4152
ssg62
g4145
sg55
(lp4153
g3958
(S's\n\x00\x00\x00Menu Model'
tRp4154
asbasbag48
(g4041
g50
NtRp4155
(dp4156
g53
(dp4157
sg62
g4091
sg55
(lp4158
g48
(g4035
g50
NtRp4159
(dp4160
g53
(dp4161
g4039
S'/Final_Impulse/appadmin/index'
p4162
ssg62
g4155
sg55
(lp4163
g3958
(S't\x08\x00\x00\x00Database'
tRp4164
asbasbag48
(g4041
g50
NtRp4165
(dp4166
g53
(dp4167
sg62
g4091
sg55
(lp4168
g48
(g4035
g50
NtRp4169
(dp4170
g53
(dp4171
g4039
S'/admin/default/errors/Final_Impulse'
p4172
ssg62
g4165
sg55
(lp4173
g3958
(S't\x06\x00\x00\x00Errors'
tRp4174
asbasbag48
(g4041
g50
NtRp4175
(dp4176
g53
(dp4177
sg62
g4091
sg55
(lp4178
g48
(g4035
g50
NtRp4179
(dp4180
g53
(dp4181
g4039
S'/admin/default/about/Final_Impulse'
p4182
ssg62
g4175
sg55
(lp4183
g3958
(S't\x05\x00\x00\x00About'
tRp4184
asbasbasbasbag48
(g4041
g50
NtRp4185
(dp4186
g53
(dp4187
g4033
g4045
ssg62
g4067
sg55
(lp4188
g48
(g4035
g50
NtRp4189
(dp4190
g53
(dp4191
g4039
S'http://www.web2py.com'
p4192
ssg62
g4185
sg55
(lp4193
S'web2py.com'
p4194
asbag48
(g4046
g50
NtRp4195
(dp4196
g53
(dp4197
g4033
g4054
ssg62
g4185
sg55
(lp4198
g48
(g4041
g50
NtRp4199
(dp4200
g53
(dp4201
sg62
g4195
sg55
(lp4202
g48
(g4035
g50
NtRp4203
(dp4204
g53
(dp4205
g4039
S'http://www.web2py.com/examples/default/download'
p4206
ssg62
g4199
sg55
(lp4207
g3958
(S't\x08\x00\x00\x00Download'
tRp4208
asbasbag48
(g4041
g50
NtRp4209
(dp4210
g53
(dp4211
sg62
g4195
sg55
(lp4212
g48
(g4035
g50
NtRp4213
(dp4214
g53
(dp4215
g4039
S'http://www.web2py.com/examples/default/support'
p4216
ssg62
g4209
sg55
(lp4217
g3958
(S't\x07\x00\x00\x00Support'
tRp4218
asbasbag48
(g4041
g50
NtRp4219
(dp4220
g53
(dp4221
sg62
g4195
sg55
(lp4222
g48
(g4035
g50
NtRp4223
(dp4224
g53
(dp4225
g4039
S'http://web2py.com/demo_admin'
p4226
ssg62
g4219
sg55
(lp4227
g3958
(S't\x04\x00\x00\x00Demo'
tRp4228
asbasbag48
(g4041
g50
NtRp4229
(dp4230
g53
(dp4231
sg62
g4195
sg55
(lp4232
g48
(g4035
g50
NtRp4233
(dp4234
g53
(dp4235
g4039
S'http://web2py.com/examples/default/examples'
p4236
ssg62
g4229
sg55
(lp4237
g3958
(S's\x0e\x00\x00\x00Quick Examples'
tRp4238
asbasbag48
(g4041
g50
NtRp4239
(dp4240
g53
(dp4241
sg62
g4195
sg55
(lp4242
g48
(g4035
g50
NtRp4243
(dp4244
g53
(dp4245
g4039
S'http://web2py.com/AlterEgo'
p4246
ssg62
g4239
sg55
(lp4247
g3958
(S't\x03\x00\x00\x00FAQ'
tRp4248
asbasbag48
(g4041
g50
NtRp4249
(dp4250
g53
(dp4251
sg62
g4195
sg55
(lp4252
g48
(g4035
g50
NtRp4253
(dp4254
g53
(dp4255
g4039
S'http://www.web2py.com/examples/default/videos/'
p4256
ssg62
g4249
sg55
(lp4257
g3958
(S't\x06\x00\x00\x00Videos'
tRp4258
asbasbag48
(g4041
g50
NtRp4259
(dp4260
g53
(dp4261
sg62
g4195
sg55
(lp4262
g48
(g4035
g50
NtRp4263
(dp4264
g53
(dp4265
g4039
S'http://web2py.com/appliances'
p4266
ssg62
g4259
sg55
(lp4267
g3958
(S's\x11\x00\x00\x00Free Applications'
tRp4268
asbasbag48
(g4041
g50
NtRp4269
(dp4270
g53
(dp4271
sg62
g4195
sg55
(lp4272
g48
(g4035
g50
NtRp4273
(dp4274
g53
(dp4275
g4039
S'http://web2py.com/plugins'
p4276
ssg62
g4269
sg55
(lp4277
g3958
(S't\x07\x00\x00\x00Plugins'
tRp4278
asbasbag48
(g4041
g50
NtRp4279
(dp4280
g53
(dp4281
sg62
g4195
sg55
(lp4282
g48
(g4035
g50
NtRp4283
(dp4284
g53
(dp4285
g4039
S'http://web2py.com/layouts'
p4286
ssg62
g4279
sg55
(lp4287
g3958
(S't\x07\x00\x00\x00Layouts'
tRp4288
asbasbag48
(g4041
g50
NtRp4289
(dp4290
g53
(dp4291
sg62
g4195
sg55
(lp4292
g48
(g4035
g50
NtRp4293
(dp4294
g53
(dp4295
g4039
S'http://web2pyslices.com/'
p4296
ssg62
g4289
sg55
(lp4297
g3958
(S't\x07\x00\x00\x00Recipes'
tRp4298
asbasbag48
(g4041
g50
NtRp4299
(dp4300
g53
(dp4301
sg62
g4195
sg55
(lp4302
g48
(g4035
g50
NtRp4303
(dp4304
g53
(dp4305
g4039
S'http://web2py.com/semantic'
p4306
ssg62
g4299
sg55
(lp4307
g3958
(S't\x08\x00\x00\x00Semantic'
tRp4308
asbasbasbasbag48
(g4041
g50
NtRp4309
(dp4310
g53
(dp4311
g4033
g4045
ssg62
g4067
sg55
(lp4312
g48
(g4035
g50
NtRp4313
(dp4314
g53
(dp4315
g4039
S'http://www.web2py.com/book'
p4316
ssg62
g4309
sg55
(lp4317
g3958
(S't\r\x00\x00\x00Documentation'
tRp4318
asbag48
(g4046
g50
NtRp4319
(dp4320
g53
(dp4321
g4033
g4054
ssg62
g4309
sg55
(lp4322
g48
(g4041
g50
NtRp4323
(dp4324
g53
(dp4325
sg62
g4319
sg55
(lp4326
g48
(g4035
g50
NtRp4327
(dp4328
g53
(dp4329
g4039
S'http://www.web2py.com/book/default/chapter/00'
p4330
ssg62
g4323
sg55
(lp4331
g3958
(S't\x07\x00\x00\x00Preface'
tRp4332
asbasbag48
(g4041
g50
NtRp4333
(dp4334
g53
(dp4335
sg62
g4319
sg55
(lp4336
g48
(g4035
g50
NtRp4337
(dp4338
g53
(dp4339
g4039
S'http://www.web2py.com/book/default/chapter/01'
p4340
ssg62
g4333
sg55
(lp4341
g3958
(S't\x0c\x00\x00\x00Introduction'
tRp4342
asbasbag48
(g4041
g50
NtRp4343
(dp4344
g53
(dp4345
sg62
g4319
sg55
(lp4346
g48
(g4035
g50
NtRp4347
(dp4348
g53
(dp4349
g4039
S'http://www.web2py.com/book/default/chapter/02'
p4350
ssg62
g4343
sg55
(lp4351
g3958
(S't\x06\x00\x00\x00Python'
tRp4352
asbasbag48
(g4041
g50
NtRp4353
(dp4354
g53
(dp4355
sg62
g4319
sg55
(lp4356
g48
(g4035
g50
NtRp4357
(dp4358
g53
(dp4359
g4039
S'http://www.web2py.com/book/default/chapter/03'
p4360
ssg62
g4353
sg55
(lp4361
g3958
(S't\x08\x00\x00\x00Overview'
tRp4362
asbasbag48
(g4041
g50
NtRp4363
(dp4364
g53
(dp4365
sg62
g4319
sg55
(lp4366
g48
(g4035
g50
NtRp4367
(dp4368
g53
(dp4369
g4039
S'http://www.web2py.com/book/default/chapter/04'
p4370
ssg62
g4363
sg55
(lp4371
g3958
(S's\x08\x00\x00\x00The Core'
tRp4372
asbasbag48
(g4041
g50
NtRp4373
(dp4374
g53
(dp4375
sg62
g4319
sg55
(lp4376
g48
(g4035
g50
NtRp4377
(dp4378
g53
(dp4379
g4039
S'http://www.web2py.com/book/default/chapter/05'
p4380
ssg62
g4373
sg55
(lp4381
g3958
(S's\t\x00\x00\x00The Views'
tRp4382
asbasbag48
(g4041
g50
NtRp4383
(dp4384
g53
(dp4385
sg62
g4319
sg55
(lp4386
g48
(g4035
g50
NtRp4387
(dp4388
g53
(dp4389
g4039
S'http://www.web2py.com/book/default/chapter/06'
p4390
ssg62
g4383
sg55
(lp4391
g3958
(S't\x08\x00\x00\x00Database'
tRp4392
asbasbag48
(g4041
g50
NtRp4393
(dp4394
g53
(dp4395
sg62
g4319
sg55
(lp4396
g48
(g4035
g50
NtRp4397
(dp4398
g53
(dp4399
g4039
S'http://www.web2py.com/book/default/chapter/07'
p4400
ssg62
g4393
sg55
(lp4401
g3958
(S's\x14\x00\x00\x00Forms and Validators'
tRp4402
asbasbag48
(g4041
g50
NtRp4403
(dp4404
g53
(dp4405
sg62
g4319
sg55
(lp4406
g48
(g4035
g50
NtRp4407
(dp4408
g53
(dp4409
g4039
S'http://www.web2py.com/book/default/chapter/08'
p4410
ssg62
g4403
sg55
(lp4411
g3958
(S's\r\x00\x00\x00Email and SMS'
tRp4412
asbasbag48
(g4041
g50
NtRp4413
(dp4414
g53
(dp4415
sg62
g4319
sg55
(lp4416
g48
(g4035
g50
NtRp4417
(dp4418
g53
(dp4419
g4039
S'http://www.web2py.com/book/default/chapter/09'
p4420
ssg62
g4413
sg55
(lp4421
g3958
(S's\x0e\x00\x00\x00Access Control'
tRp4422
asbasbag48
(g4041
g50
NtRp4423
(dp4424
g53
(dp4425
sg62
g4319
sg55
(lp4426
g48
(g4035
g50
NtRp4427
(dp4428
g53
(dp4429
g4039
S'http://www.web2py.com/book/default/chapter/10'
p4430
ssg62
g4423
sg55
(lp4431
g3958
(S't\x08\x00\x00\x00Services'
tRp4432
asbasbag48
(g4041
g50
NtRp4433
(dp4434
g53
(dp4435
sg62
g4319
sg55
(lp4436
g48
(g4035
g50
NtRp4437
(dp4438
g53
(dp4439
g4039
S'http://www.web2py.com/book/default/chapter/11'
p4440
ssg62
g4433
sg55
(lp4441
g3958
(S's\x0c\x00\x00\x00Ajax Recipes'
tRp4442
asbasbag48
(g4041
g50
NtRp4443
(dp4444
g53
(dp4445
sg62
g4319
sg55
(lp4446
g48
(g4035
g50
NtRp4447
(dp4448
g53
(dp4449
g4039
S'http://www.web2py.com/book/default/chapter/12'
p4450
ssg62
g4443
sg55
(lp4451
g3958
(S's\x16\x00\x00\x00Components and Plugins'
tRp4452
asbasbag48
(g4041
g50
NtRp4453
(dp4454
g53
(dp4455
sg62
g4319
sg55
(lp4456
g48
(g4035
g50
NtRp4457
(dp4458
g53
(dp4459
g4039
S'http://www.web2py.com/book/default/chapter/13'
p4460
ssg62
g4453
sg55
(lp4461
g3958
(S's\x12\x00\x00\x00Deployment Recipes'
tRp4462
asbasbag48
(g4041
g50
NtRp4463
(dp4464
g53
(dp4465
sg62
g4319
sg55
(lp4466
g48
(g4035
g50
NtRp4467
(dp4468
g53
(dp4469
g4039
S'http://www.web2py.com/book/default/chapter/14'
p4470
ssg62
g4463
sg55
(lp4471
g3958
(S's\r\x00\x00\x00Other Recipes'
tRp4472
asbasbag48
(g4041
g50
NtRp4473
(dp4474
g53
(dp4475
sg62
g4319
sg55
(lp4476
g48
(g4035
g50
NtRp4477
(dp4478
g53
(dp4479
g4039
S'http://stores.lulu.com/web2py'
p4480
ssg62
g4473
sg55
(lp4481
g3958
(S's\r\x00\x00\x00Buy this book'
tRp4482
asbasbasbasbag48
(g4041
g50
NtRp4483
(dp4484
g53
(dp4485
g4033
g4045
ssg62
g4067
sg55
(lp4486
g48
(g4035
g50
NtRp4487
(dp4488
g53
(dp4489
S'_onclick'
p4490
S'javascript:void(0);return false;'
p4491
sg4039
S'#'
ssg62
g4483
sg55
(lp4492
g3958
(S't\t\x00\x00\x00Community'
tRp4493
asbag48
(g4046
g50
NtRp4494
(dp4495
g53
(dp4496
g4033
g4054
ssg62
g4483
sg55
(lp4497
g48
(g4041
g50
NtRp4498
(dp4499
g53
(dp4500
sg62
g4494
sg55
(lp4501
g48
(g4035
g50
NtRp4502
(dp4503
g53
(dp4504
g4039
S'http://www.web2py.com/examples/default/usergroups'
p4505
ssg62
g4498
sg55
(lp4506
g3958
(S't\x06\x00\x00\x00Groups'
tRp4507
asbasbag48
(g4041
g50
NtRp4508
(dp4509
g53
(dp4510
sg62
g4494
sg55
(lp4511
g48
(g4035
g50
NtRp4512
(dp4513
g53
(dp4514
g4039
S'http://twitter.com/web2py'
p4515
ssg62
g4508
sg55
(lp4516
g3958
(S't\x07\x00\x00\x00Twitter'
tRp4517
asbasbag48
(g4041
g50
NtRp4518
(dp4519
g53
(dp4520
sg62
g4494
sg55
(lp4521
g48
(g4035
g50
NtRp4522
(dp4523
g53
(dp4524
g4039
S'http://webchat.freenode.net/?channels=web2py'
p4525
ssg62
g4518
sg55
(lp4526
g3958
(S's\t\x00\x00\x00Live Chat'
tRp4527
asbasbasbasbag48
(g4041
g50
NtRp4528
(dp4529
g53
(dp4530
g4033
g4045
ssg62
g4067
sg55
(lp4531
g48
(g4035
g50
NtRp4532
(dp4533
g53
(dp4534
g4490
g4491
sg4039
S'#'
ssg62
g4528
sg55
(lp4535
g3958
(S't\x07\x00\x00\x00Plugins'
tRp4536
asbag48
(g4046
g50
NtRp4537
(dp4538
g53
(dp4539
g4033
g4054
ssg62
g4528
sg55
(lp4540
g48
(g4041
g50
NtRp4541
(dp4542
g53
(dp4543
sg62
g4537
sg55
(lp4544
g48
(g4035
g50
NtRp4545
(dp4546
g53
(dp4547
g4039
S'http://web2py.com/examples/default/download'
p4548
ssg62
g4541
sg55
(lp4549
S'plugin_wiki'
p4550
asbasbag48
(g4041
g50
NtRp4551
(dp4552
g53
(dp4553
sg62
g4537
sg55
(lp4554
g48
(g4035
g50
NtRp4555
(dp4556
g53
(dp4557
g4039
g4276
ssg62
g4551
sg55
(lp4558
g3958
(S's\r\x00\x00\x00Other Plugins'
tRp4559
asbasbag48
(g4041
g50
NtRp4560
(dp4561
g53
(dp4562
sg62
g4537
sg55
(lp4563
g48
(g4035
g50
NtRp4564
(dp4565
g53
(dp4566
g4039
g4286
ssg62
g4560
sg55
(lp4567
g3958
(S's\x0e\x00\x00\x00Layout Plugins'
tRp4568
asbasbasbasbasbasbsg55
(lp4569
g4030
asbsg55
(lp4570
g3904
asbasbasbasbag48
(g64
g50
NtRp4571
(dp4572
g53
(dp4573
sg62
g4013
sg55
(lp4574
g48
(g69
g50
NtRp4575
(dp4576
g53
(dp4577
sg62
g4571
sg55
(lp4578
g48
(g49
g50
NtRp4579
(dp4580
g53
(dp4581
g61
I3
ssg62
g4575
sg55
(lp4582
g91
asbasbasbag48
(g64
g50
NtRp4583
(dp4584
g53
(dp4585
sg62
g4013
sg55
(lp4586
g48
(g69
g50
NtRp4587
(dp4588
g53
(dp4589
sg62
g4583
sg55
(lp4590
g48
(g49
g50
NtRp4591
(dp4592
g53
(dp4593
g61
I3
ssg62
g4587
sg55
(lp4594
g4040
asbasbasbag48
(g64
g50
NtRp4595
(dp4596
g53
(dp4597
sg62
g4013
sg55
(lp4598
g48
(g69
g50
NtRp4599
(dp4600
g53
(dp4601
sg62
g4595
sg55
(lp4602
g48
(g49
g50
NtRp4603
(dp4604
g53
(dp4605
g61
I3
ssg62
g4599
sg55
(lp4606
g48
(g57
g50
NtRp4607
(dp4608
g53
(dp4609
g61
I2
ssg62
Nsg55
(lp4610
g48
(g64
g50
NtRp4611
(dp4612
g53
(dp4613
sg62
g4607
sg55
(lp4614
g48
(g69
g50
NtRp4615
(dp4616
g53
(dp4617
sg62
g4611
sg55
(lp4618
g48
(g49
g50
NtRp4619
(dp4620
g53
(dp4621
g61
I2
ssg62
g4615
sg55
(lp4622
g48
(g57
g50
NtRp4623
(dp4624
g53
(dp4625
g61
I1
ssg62
Nsg55
(lp4626
g48
(g64
g50
NtRp4627
(dp4628
g53
(dp4629
sg62
g4623
sg55
(lp4630
g48
(g69
g50
NtRp4631
(dp4632
g53
(dp4633
sg62
g4627
sg55
(lp4634
g48
(g49
g50
NtRp4635
(dp4636
g53
(dp4637
g61
I1
ssg62
g4631
sg55
(lp4638
g4080
asbasbasbag48
(g64
g50
NtRp4639
(dp4640
g53
(dp4641
sg62
g4623
sg55
(lp4642
g48
(g69
g50
NtRp4643
(dp4644
g53
(dp4645
sg62
g4639
sg55
(lp4646
g48
(g49
g50
NtRp4647
(dp4648
g53
(dp4649
g61
I1
ssg62
g4643
sg55
(lp4650
I00
asbasbasbag48
(g64
g50
NtRp4651
(dp4652
g53
(dp4653
sg62
g4623
sg55
(lp4654
g48
(g69
g50
NtRp4655
(dp4656
g53
(dp4657
sg62
g4651
sg55
(lp4658
g48
(g49
g50
NtRp4659
(dp4660
g53
(dp4661
g61
I1
ssg62
g4655
sg55
(lp4662
g4078
asbasbasbasbasbasbasbag48
(g64
g50
NtRp4663
(dp4664
g53
(dp4665
sg62
g4607
sg55
(lp4666
g48
(g69
g50
NtRp4667
(dp4668
g53
(dp4669
sg62
g4663
sg55
(lp4670
g48
(g49
g50
NtRp4671
(dp4672
g53
(dp4673
g61
I2
ssg62
g4667
sg55
(lp4674
g48
(g57
g50
NtRp4675
(dp4676
g53
(dp4677
g61
I1
ssg62
Nsg55
(lp4678
g48
(g64
g50
NtRp4679
(dp4680
g53
(dp4681
sg62
g4675
sg55
(lp4682
g48
(g69
g50
NtRp4683
(dp4684
g53
(dp4685
sg62
g4679
sg55
(lp4686
g48
(g49
g50
NtRp4687
(dp4688
g53
(dp4689
g61
I1
ssg62
g4683
sg55
(lp4690
g4090
asbasbasbag48
(g64
g50
NtRp4691
(dp4692
g53
(dp4693
sg62
g4675
sg55
(lp4694
g48
(g69
g50
NtRp4695
(dp4696
g53
(dp4697
sg62
g4691
sg55
(lp4698
g48
(g49
g50
NtRp4699
(dp4700
g53
(dp4701
g61
I1
ssg62
g4695
sg55
(lp4702
I00
asbasbasbag48
(g64
g50
NtRp4703
(dp4704
g53
(dp4705
sg62
g4675
sg55
(lp4706
g48
(g69
g50
NtRp4707
(dp4708
g53
(dp4709
sg62
g4703
sg55
(lp4710
g48
(g49
g50
NtRp4711
(dp4712
g53
(dp4713
g61
I1
ssg62
g4707
sg55
(lp4714
g4088
asbasbasbag48
(g64
g50
NtRp4715
(dp4716
g53
(dp4717
sg62
g4675
sg55
(lp4718
g48
(g69
g50
NtRp4719
(dp4720
g53
(dp4721
sg62
g4715
sg55
(lp4722
g48
(g49
g50
NtRp4723
(dp4724
g53
(dp4725
g61
I1
ssg62
g4719
sg55
(lp4726
(lp4727
(g4104
I00
g4102
tp4728
a(g4114
I00
g4112
tp4729
a(g4124
I00
g4122
tp4730
a(g4134
I00
g4132
tp4731
a(g4144
I00
g4142
tp4732
a(g4154
I00
g4152
tp4733
a(g4164
I00
g4162
tp4734
a(g4174
I00
g4172
tp4735
a(g4184
I00
g4182
tp4736
aasbasbasbasbasbasbasbag48
(g64
g50
NtRp4737
(dp4738
g53
(dp4739
sg62
g4607
sg55
(lp4740
g48
(g69
g50
NtRp4741
(dp4742
g53
(dp4743
sg62
g4737
sg55
(lp4744
g48
(g49
g50
NtRp4745
(dp4746
g53
(dp4747
g61
I2
ssg62
g4741
sg55
(lp4748
g48
(g57
g50
NtRp4749
(dp4750
g53
(dp4751
g61
I1
ssg62
Nsg55
(lp4752
g48
(g64
g50
NtRp4753
(dp4754
g53
(dp4755
sg62
g4749
sg55
(lp4756
g48
(g69
g50
NtRp4757
(dp4758
g53
(dp4759
sg62
g4753
sg55
(lp4760
g48
(g49
g50
NtRp4761
(dp4762
g53
(dp4763
g61
I1
ssg62
g4757
sg55
(lp4764
g4194
asbasbasbag48
(g64
g50
NtRp4765
(dp4766
g53
(dp4767
sg62
g4749
sg55
(lp4768
g48
(g69
g50
NtRp4769
(dp4770
g53
(dp4771
sg62
g4765
sg55
(lp4772
g48
(g49
g50
NtRp4773
(dp4774
g53
(dp4775
g61
I1
ssg62
g4769
sg55
(lp4776
I00
asbasbasbag48
(g64
g50
NtRp4777
(dp4778
g53
(dp4779
sg62
g4749
sg55
(lp4780
g48
(g69
g50
NtRp4781
(dp4782
g53
(dp4783
sg62
g4777
sg55
(lp4784
g48
(g49
g50
NtRp4785
(dp4786
g53
(dp4787
g61
I1
ssg62
g4781
sg55
(lp4788
g4192
asbasbasbag48
(g64
g50
NtRp4789
(dp4790
g53
(dp4791
sg62
g4749
sg55
(lp4792
g48
(g69
g50
NtRp4793
(dp4794
g53
(dp4795
sg62
g4789
sg55
(lp4796
g48
(g49
g50
NtRp4797
(dp4798
g53
(dp4799
g61
I1
ssg62
g4793
sg55
(lp4800
(lp4801
(g4208
I00
g4206
tp4802
a(g4218
I00
g4216
tp4803
a(g4228
I00
g4226
tp4804
a(g4238
I00
g4236
tp4805
a(g4248
I00
g4246
tp4806
a(g4258
I00
g4256
tp4807
a(g4268
I00
g4266
tp4808
a(g4278
I00
g4276
tp4809
a(g4288
I00
g4286
tp4810
a(g4298
I00
g4296
tp4811
a(g4308
I00
g4306
tp4812
aasbasbasbasbasbasbasbag48
(g64
g50
NtRp4813
(dp4814
g53
(dp4815
sg62
g4607
sg55
(lp4816
g48
(g69
g50
NtRp4817
(dp4818
g53
(dp4819
sg62
g4813
sg55
(lp4820
g48
(g49
g50
NtRp4821
(dp4822
g53
(dp4823
g61
I2
ssg62
g4817
sg55
(lp4824
g48
(g57
g50
NtRp4825
(dp4826
g53
(dp4827
g61
I1
ssg62
Nsg55
(lp4828
g48
(g64
g50
NtRp4829
(dp4830
g53
(dp4831
sg62
g4825
sg55
(lp4832
g48
(g69
g50
NtRp4833
(dp4834
g53
(dp4835
sg62
g4829
sg55
(lp4836
g48
(g49
g50
NtRp4837
(dp4838
g53
(dp4839
g61
I1
ssg62
g4833
sg55
(lp4840
g4318
asbasbasbag48
(g64
g50
NtRp4841
(dp4842
g53
(dp4843
sg62
g4825
sg55
(lp4844
g48
(g69
g50
NtRp4845
(dp4846
g53
(dp4847
sg62
g4841
sg55
(lp4848
g48
(g49
g50
NtRp4849
(dp4850
g53
(dp4851
g61
I1
ssg62
g4845
sg55
(lp4852
I00
asbasbasbag48
(g64
g50
NtRp4853
(dp4854
g53
(dp4855
sg62
g4825
sg55
(lp4856
g48
(g69
g50
NtRp4857
(dp4858
g53
(dp4859
sg62
g4853
sg55
(lp4860
g48
(g49
g50
NtRp4861
(dp4862
g53
(dp4863
g61
I1
ssg62
g4857
sg55
(lp4864
g4316
asbasbasbag48
(g64
g50
NtRp4865
(dp4866
g53
(dp4867
sg62
g4825
sg55
(lp4868
g48
(g69
g50
NtRp4869
(dp4870
g53
(dp4871
sg62
g4865
sg55
(lp4872
g48
(g49
g50
NtRp4873
(dp4874
g53
(dp4875
g61
I1
ssg62
g4869
sg55
(lp4876
(lp4877
(g4332
I00
g4330
tp4878
a(g4342
I00
g4340
tp4879
a(g4352
I00
g4350
tp4880
a(g4362
I00
g4360
tp4881
a(g4372
I00
g4370
tp4882
a(g4382
I00
g4380
tp4883
a(g4392
I00
g4390
tp4884
a(g4402
I00
g4400
tp4885
a(g4412
I00
g4410
tp4886
a(g4422
I00
g4420
tp4887
a(g4432
I00
g4430
tp4888
a(g4442
I00
g4440
tp4889
a(g4452
I00
g4450
tp4890
a(g4462
I00
g4460
tp4891
a(g4472
I00
g4470
tp4892
a(g4482
I00
g4480
tp4893
aasbasbasbasbasbasbasbag48
(g64
g50
NtRp4894
(dp4895
g53
(dp4896
sg62
g4607
sg55
(lp4897
g48
(g69
g50
NtRp4898
(dp4899
g53
(dp4900
sg62
g4894
sg55
(lp4901
g48
(g49
g50
NtRp4902
(dp4903
g53
(dp4904
g61
I2
ssg62
g4898
sg55
(lp4905
g48
(g57
g50
NtRp4906
(dp4907
g53
(dp4908
g61
I1
ssg62
Nsg55
(lp4909
g48
(g64
g50
NtRp4910
(dp4911
g53
(dp4912
sg62
g4906
sg55
(lp4913
g48
(g69
g50
NtRp4914
(dp4915
g53
(dp4916
sg62
g4910
sg55
(lp4917
g48
(g49
g50
NtRp4918
(dp4919
g53
(dp4920
g61
I1
ssg62
g4914
sg55
(lp4921
g4493
asbasbasbag48
(g64
g50
NtRp4922
(dp4923
g53
(dp4924
sg62
g4906
sg55
(lp4925
g48
(g69
g50
NtRp4926
(dp4927
g53
(dp4928
sg62
g4922
sg55
(lp4929
g48
(g49
g50
NtRp4930
(dp4931
g53
(dp4932
g61
I1
ssg62
g4926
sg55
(lp4933
I00
asbasbasbag48
(g64
g50
NtRp4934
(dp4935
g53
(dp4936
sg62
g4906
sg55
(lp4937
g48
(g69
g50
NtRp4938
(dp4939
g53
(dp4940
sg62
g4934
sg55
(lp4941
g48
(g49
g50
NtRp4942
(dp4943
g53
(dp4944
g61
I1
ssg62
g4938
sg55
(lp4945
Nasbasbasbag48
(g64
g50
NtRp4946
(dp4947
g53
(dp4948
sg62
g4906
sg55
(lp4949
g48
(g69
g50
NtRp4950
(dp4951
g53
(dp4952
sg62
g4946
sg55
(lp4953
g48
(g49
g50
NtRp4954
(dp4955
g53
(dp4956
g61
I1
ssg62
g4950
sg55
(lp4957
(lp4958
(g4507
I00
g4505
tp4959
a(g4517
I00
g4515
tp4960
a(g4527
I00
g4525
tp4961
aasbasbasbasbasbasbasbag48
(g64
g50
NtRp4962
(dp4963
g53
(dp4964
sg62
g4607
sg55
(lp4965
g48
(g69
g50
NtRp4966
(dp4967
g53
(dp4968
sg62
g4962
sg55
(lp4969
g48
(g49
g50
NtRp4970
(dp4971
g53
(dp4972
g61
I2
ssg62
g4966
sg55
(lp4973
g48
(g57
g50
NtRp4974
(dp4975
g53
(dp4976
g61
I1
ssg62
Nsg55
(lp4977
g48
(g64
g50
NtRp4978
(dp4979
g53
(dp4980
sg62
g4974
sg55
(lp4981
g48
(g69
g50
NtRp4982
(dp4983
g53
(dp4984
sg62
g4978
sg55
(lp4985
g48
(g49
g50
NtRp4986
(dp4987
g53
(dp4988
g61
I1
ssg62
g4982
sg55
(lp4989
g4536
asbasbasbag48
(g64
g50
NtRp4990
(dp4991
g53
(dp4992
sg62
g4974
sg55
(lp4993
g48
(g69
g50
NtRp4994
(dp4995
g53
(dp4996
sg62
g4990
sg55
(lp4997
g48
(g49
g50
NtRp4998
(dp4999
g53
(dp5000
g61
I1
ssg62
g4994
sg55
(lp5001
I00
asbasbasbag48
(g64
g50
NtRp5002
(dp5003
g53
(dp5004
sg62
g4974
sg55
(lp5005
g48
(g69
g50
NtRp5006
(dp5007
g53
(dp5008
sg62
g5002
sg55
(lp5009
g48
(g49
g50
NtRp5010
(dp5011
g53
(dp5012
g61
I1
ssg62
g5006
sg55
(lp5013
Nasbasbasbag48
(g64
g50
NtRp5014
(dp5015
g53
(dp5016
sg62
g4974
sg55
(lp5017
g48
(g69
g50
NtRp5018
(dp5019
g53
(dp5020
sg62
g5014
sg55
(lp5021
g48
(g49
g50
NtRp5022
(dp5023
g53
(dp5024
g61
I1
ssg62
g5018
sg55
(lp5025
(lp5026
(g4550
I00
g4548
tp5027
a(g4559
I00
g4276
tp5028
a(g4568
I00
g4286
tp5029
aasbasbasbasbasbasbasbasbasbasbasbasbasbasbasbasbasbasbasbag48
(g64
g50
NtRp5030
(dp5031
g53
(dp5032
sg62
g3396
sg55
(lp5033
g48
(g69
g50
NtRp5034
(dp5035
g53
(dp5036
g73
g74
ssg62
g5030
sg55
(lp5037
S'meta'
p5038
asbag48
(g69
g50
NtRp5039
(dp5040
g53
(dp5041
g80
g81
ssg62
g5030
sg55
(lp5042
S':'
asbag48
(g69
g50
NtRp5043
(dp5044
g53
(dp5045
sg62
g5030
sg55
(lp5046
g48
(g49
g50
NtRp5047
(dp5048
g53
(dp5049
g61
I5
ssg62
g5043
sg55
(lp5050
g48
(g57
g50
NtRp5051
(dp5052
g53
(dp5053
g61
I4
ssg62
Nsg55
(lp5054
g48
(g64
g50
NtRp5055
(dp5056
g53
(dp5057
sg62
g5051
sg55
(lp5058
g48
(g69
g50
NtRp5059
(dp5060
g53
(dp5061
g73
g74
ssg62
g5055
sg55
(lp5062
S'author'
p5063
asbag48
(g69
g50
NtRp5064
(dp5065
g53
(dp5066
g80
g81
ssg62
g5055
sg55
(lp5067
S':'
asbag48
(g69
g50
NtRp5068
(dp5069
g53
(dp5070
sg62
g5055
sg55
(lp5071
g48
(g49
g50
NtRp5072
(dp5073
g53
(dp5074
g61
I4
ssg62
g5068
sg55
(lp5075
S'Your Name <you@example.com>'
p5076
asbasbasbag48
(g64
g50
NtRp5077
(dp5078
g53
(dp5079
sg62
g5051
sg55
(lp5080
g48
(g69
g50
NtRp5081
(dp5082
g53
(dp5083
g73
g74
ssg62
g5077
sg55
(lp5084
S'description'
p5085
asbag48
(g69
g50
NtRp5086
(dp5087
g53
(dp5088
g80
g81
ssg62
g5077
sg55
(lp5089
S':'
asbag48
(g69
g50
NtRp5090
(dp5091
g53
(dp5092
sg62
g5077
sg55
(lp5093
g48
(g49
g50
NtRp5094
(dp5095
g53
(dp5096
g61
I4
ssg62
g5090
sg55
(lp5097
S'a cool new app'
p5098
asbasbasbag48
(g64
g50
NtRp5099
(dp5100
g53
(dp5101
sg62
g5051
sg55
(lp5102
g48
(g69
g50
NtRp5103
(dp5104
g53
(dp5105
g73
g74
ssg62
g5099
sg55
(lp5106
S'generator'
p5107
asbag48
(g69
g50
NtRp5108
(dp5109
g53
(dp5110
g80
g81
ssg62
g5099
sg55
(lp5111
S':'
asbag48
(g69
g50
NtRp5112
(dp5113
g53
(dp5114
sg62
g5099
sg55
(lp5115
g48
(g49
g50
NtRp5116
(dp5117
g53
(dp5118
g61
I4
ssg62
g5112
sg55
(lp5119
S'Web2py Web Framework'
p5120
asbasbasbag48
(g64
g50
NtRp5121
(dp5122
g53
(dp5123
sg62
g5051
sg55
(lp5124
g48
(g69
g50
NtRp5125
(dp5126
g53
(dp5127
g73
g74
ssg62
g5121
sg55
(lp5128
S'keywords'
p5129
asbag48
(g69
g50
NtRp5130
(dp5131
g53
(dp5132
g80
g81
ssg62
g5121
sg55
(lp5133
S':'
asbag48
(g69
g50
NtRp5134
(dp5135
g53
(dp5136
sg62
g5121
sg55
(lp5137
g48
(g49
g50
NtRp5138
(dp5139
g53
(dp5140
g61
I4
ssg62
g5134
sg55
(lp5141
S'web2py, python, framework'
p5142
asbasbasbasbasbasbasbag48
(g64
g50
NtRp5143
(dp5144
g53
(dp5145
sg62
g3396
sg55
(lp5146
g48
(g69
g50
NtRp5147
(dp5148
g53
(dp5149
g73
g74
ssg62
g5143
sg55
(lp5150
S'models_to_run'
p5151
asbag48
(g69
g50
NtRp5152
(dp5153
g53
(dp5154
g80
g81
ssg62
g5143
sg55
(lp5155
S':'
asbag48
(g69
g50
NtRp5156
(dp5157
g53
(dp5158
sg62
g5143
sg55
(lp5159
g48
(g49
g50
NtRp5160
(dp5161
g53
(dp5162
g61
I5
ssg62
g5156
sg55
(lp5163
g48
(g57
g50
NtRp5164
(dp5165
g53
(dp5166
g61
I4
ssg62
Nsg55
(lp5167
g48
(g64
g50
NtRp5168
(dp5169
g53
(dp5170
sg62
g5164
sg55
(lp5171
g48
(g69
g50
NtRp5172
(dp5173
g53
(dp5174
sg62
g5168
sg55
(lp5175
g48
(g49
g50
NtRp5176
(dp5177
g53
(dp5178
g61
I4
ssg62
g5172
sg55
(lp5179
S'^\\w+\\.py$'
p5180
asbasbasbag48
(g64
g50
NtRp5181
(dp5182
g53
(dp5183
sg62
g5164
sg55
(lp5184
g48
(g69
g50
NtRp5185
(dp5186
g53
(dp5187
sg62
g5181
sg55
(lp5188
g48
(g49
g50
NtRp5189
(dp5190
g53
(dp5191
g61
I4
ssg62
g5185
sg55
(lp5192
S'^default/\\w+\\.py$'
p5193
asbasbasbag48
(g64
g50
NtRp5194
(dp5195
g53
(dp5196
sg62
g5164
sg55
(lp5197
g48
(g69
g50
NtRp5198
(dp5199
g53
(dp5200
sg62
g5194
sg55
(lp5201
g48
(g49
g50
NtRp5202
(dp5203
g53
(dp5204
g61
I4
ssg62
g5198
sg55
(lp5205
S'^default/show_video_comments/\\w+\\.py$'
p5206
asbasbasbasbasbasbasbag48
(g64
g50
NtRp5207
(dp5208
g53
(dp5209
sg62
g3396
sg55
(lp5210
g48
(g69
g50
NtRp5211
(dp5212
g53
(dp5213
g73
g74
ssg62
g5207
sg55
(lp5214
S'postprocessing'
p5215
asbag48
(g69
g50
NtRp5216
(dp5217
g53
(dp5218
g80
g81
ssg62
g5207
sg55
(lp5219
S':'
asbag48
(g69
g50
NtRp5220
(dp5221
g53
(dp5222
sg62
g5207
sg55
(lp5223
g48
(g49
g50
NtRp5224
(dp5225
g53
(dp5226
g61
I5
ssg62
g5220
sg55
(lp5227
g48
(g57
g50
NtRp5228
(dp5229
g53
(dp5230
g61
I4
ssg62
Nsg55
(lp5231
sbasbasbasbag48
(g64
g50
NtRp5232
(dp5233
g53
(dp5234
sg62
g3396
sg55
(lp5235
g48
(g69
g50
NtRp5236
(dp5237
g53
(dp5238
g73
g74
ssg62
g5232
sg55
(lp5239
S'session_cookie_expires'
p5240
asbag48
(g69
g50
NtRp5241
(dp5242
g53
(dp5243
g80
g81
ssg62
g5232
sg55
(lp5244
S':'
asbag48
(g69
g50
NtRp5245
(dp5246
g53
(dp5247
sg62
g5232
sg55
(lp5248
g48
(g49
g50
NtRp5249
(dp5250
g53
(dp5251
g61
I5
ssg62
g5245
sg55
(lp5252
S'None'
p5253
asbasbasbag48
(g64
g50
NtRp5254
(dp5255
g53
(dp5256
sg62
g3396
sg55
(lp5257
g48
(g69
g50
NtRp5258
(dp5259
g53
(dp5260
g73
g74
ssg62
g5254
sg55
(lp5261
S'session_data_name'
p5262
asbag48
(g69
g50
NtRp5263
(dp5264
g53
(dp5265
g80
g81
ssg62
g5254
sg55
(lp5266
S':'
asbag48
(g69
g50
NtRp5267
(dp5268
g53
(dp5269
sg62
g5254
sg55
(lp5270
g48
(g49
g50
NtRp5271
(dp5272
g53
(dp5273
g61
I5
ssg62
g5267
sg55
(lp5274
S'session_data_final_impulse'
p5275
asbasbasbag48
(g64
g50
NtRp5276
(dp5277
g53
(dp5278
sg62
g3396
sg55
(lp5279
g48
(g69
g50
NtRp5280
(dp5281
g53
(dp5282
g73
g74
ssg62
g5276
sg55
(lp5283
S'session_file'
p5284
asbag48
(g69
g50
NtRp5285
(dp5286
g53
(dp5287
g80
g81
ssg62
g5276
sg55
(lp5288
S':'
asbag48
(g69
g50
NtRp5289
(dp5290
g53
(dp5291
sg62
g5276
sg55
(lp5292
g48
(g49
g50
NtRp5293
(dp5294
g53
(dp5295
g61
I5
ssg62
g5289
sg55
(lp5296
S"<open file '/Users/abaric/Downloads/web2py/web2py.app/Contents/Resources/applications/Final_Impulse/sessions/127.0.0.1-fe54df76-3eba-4359-ae6d-98727f24814f', mode 'rb+' at 0x91fe7b8>"
p5297
asbasbasbag48
(g64
g50
NtRp5298
(dp5299
g53
(dp5300
sg62
g3396
sg55
(lp5301
g48
(g69
g50
NtRp5302
(dp5303
g53
(dp5304
g73
g74
ssg62
g5298
sg55
(lp5305
S'session_filename'
p5306
asbag48
(g69
g50
NtRp5307
(dp5308
g53
(dp5309
g80
g81
ssg62
g5298
sg55
(lp5310
S':'
asbag48
(g69
g50
NtRp5311
(dp5312
g53
(dp5313
sg62
g5298
sg55
(lp5314
g48
(g49
g50
NtRp5315
(dp5316
g53
(dp5317
g61
I5
ssg62
g5311
sg55
(lp5318
S'/Users/abaric/Downloads/web2py/web2py.app/Contents/Resources/applications/Final_Impulse/sessions/127.0.0.1-fe54df76-3eba-4359-ae6d-98727f24814f'
p5319
asbasbasbag48
(g64
g50
NtRp5320
(dp5321
g53
(dp5322
sg62
g3396
sg55
(lp5323
g48
(g69
g50
NtRp5324
(dp5325
g53
(dp5326
g73
g74
ssg62
g5320
sg55
(lp5327
S'session_id'
p5328
asbag48
(g69
g50
NtRp5329
(dp5330
g53
(dp5331
g80
g81
ssg62
g5320
sg55
(lp5332
S':'
asbag48
(g69
g50
NtRp5333
(dp5334
g53
(dp5335
sg62
g5320
sg55
(lp5336
g48
(g49
g50
NtRp5337
(dp5338
g53
(dp5339
g61
I5
ssg62
g5333
sg55
(lp5340
g445
asbasbasbag48
(g64
g50
NtRp5341
(dp5342
g53
(dp5343
sg62
g3396
sg55
(lp5344
g48
(g69
g50
NtRp5345
(dp5346
g53
(dp5347
g73
g74
ssg62
g5341
sg55
(lp5348
S'session_id_name'
p5349
asbag48
(g69
g50
NtRp5350
(dp5351
g53
(dp5352
g80
g81
ssg62
g5341
sg55
(lp5353
S':'
asbag48
(g69
g50
NtRp5354
(dp5355
g53
(dp5356
sg62
g5341
sg55
(lp5357
g48
(g49
g50
NtRp5358
(dp5359
g53
(dp5360
g61
I5
ssg62
g5354
sg55
(lp5361
g3453
asbasbasbag48
(g64
g50
NtRp5362
(dp5363
g53
(dp5364
sg62
g3396
sg55
(lp5365
g48
(g69
g50
NtRp5366
(dp5367
g53
(dp5368
g73
g74
ssg62
g5362
sg55
(lp5369
S'session_locked'
p5370
asbag48
(g69
g50
NtRp5371
(dp5372
g53
(dp5373
g80
g81
ssg62
g5362
sg55
(lp5374
S':'
asbag48
(g69
g50
NtRp5375
(dp5376
g53
(dp5377
sg62
g5362
sg55
(lp5378
g48
(g49
g50
NtRp5379
(dp5380
g53
(dp5381
g61
I5
ssg62
g5375
sg55
(lp5382
g1864
asbasbasbag48
(g64
g50
NtRp5383
(dp5384
g53
(dp5385
sg62
g3396
sg55
(lp5386
g48
(g69
g50
NtRp5387
(dp5388
g53
(dp5389
g73
g74
ssg62
g5383
sg55
(lp5390
S'session_new'
p5391
asbag48
(g69
g50
NtRp5392
(dp5393
g53
(dp5394
g80
g81
ssg62
g5383
sg55
(lp5395
S':'
asbag48
(g69
g50
NtRp5396
(dp5397
g53
(dp5398
sg62
g5383
sg55
(lp5399
g48
(g49
g50
NtRp5400
(dp5401
g53
(dp5402
g61
I5
ssg62
g5396
sg55
(lp5403
g91
asbasbasbag48
(g64
g50
NtRp5404
(dp5405
g53
(dp5406
sg62
g3396
sg55
(lp5407
g48
(g69
g50
NtRp5408
(dp5409
g53
(dp5410
g73
g74
ssg62
g5404
sg55
(lp5411
S'session_storage_type'
p5412
asbag48
(g69
g50
NtRp5413
(dp5414
g53
(dp5415
g80
g81
ssg62
g5404
sg55
(lp5416
S':'
asbag48
(g69
g50
NtRp5417
(dp5418
g53
(dp5419
sg62
g5404
sg55
(lp5420
g48
(g49
g50
NtRp5421
(dp5422
g53
(dp5423
g61
I5
ssg62
g5417
sg55
(lp5424
g3295
asbasbasbag48
(g64
g50
NtRp5425
(dp5426
g53
(dp5427
sg62
g3396
sg55
(lp5428
g48
(g69
g50
NtRp5429
(dp5430
g53
(dp5431
g73
g74
ssg62
g5425
sg55
(lp5432
S'status'
p5433
asbag48
(g69
g50
NtRp5434
(dp5435
g53
(dp5436
g80
g81
ssg62
g5425
sg55
(lp5437
S':'
asbag48
(g69
g50
NtRp5438
(dp5439
g53
(dp5440
sg62
g5425
sg55
(lp5441
g48
(g49
g50
NtRp5442
(dp5443
g53
(dp5444
g61
I5
ssg62
g5438
sg55
(lp5445
S'200'
p5446
asbasbasbag48
(g64
g50
NtRp5447
(dp5448
g53
(dp5449
sg62
g3396
sg55
(lp5450
g48
(g69
g50
NtRp5451
(dp5452
g53
(dp5453
g73
g74
ssg62
g5447
sg55
(lp5454
S'subtitle'
p5455
asbag48
(g69
g50
NtRp5456
(dp5457
g53
(dp5458
g80
g81
ssg62
g5447
sg55
(lp5459
S':'
asbag48
(g69
g50
NtRp5460
(dp5461
g53
(dp5462
sg62
g5447
sg55
(lp5463
g48
(g49
g50
NtRp5464
(dp5465
g53
(dp5466
g61
I5
ssg62
g5460
sg55
(lp5467
g3958
(S's\r\x00\x00\x00customize me!'
tRp5468
asbasbasbag48
(g64
g50
NtRp5469
(dp5470
g53
(dp5471
sg62
g3396
sg55
(lp5472
g48
(g69
g50
NtRp5473
(dp5474
g53
(dp5475
g73
g74
ssg62
g5469
sg55
(lp5476
S'title'
p5477
asbag48
(g69
g50
NtRp5478
(dp5479
g53
(dp5480
g80
g81
ssg62
g5469
sg55
(lp5481
S':'
asbag48
(g69
g50
NtRp5482
(dp5483
g53
(dp5484
sg62
g5469
sg55
(lp5485
g48
(g49
g50
NtRp5486
(dp5487
g53
(dp5488
g61
I5
ssg62
g5482
sg55
(lp5489
S'Final Impulse'
p5490
asbasbasbag48
(g64
g50
NtRp5491
(dp5492
g53
(dp5493
sg62
g3396
sg55
(lp5494
g48
(g69
g50
NtRp5495
(dp5496
g53
(dp5497
g73
g74
ssg62
g5491
sg55
(lp5498
S'view'
p5499
asbag48
(g69
g50
NtRp5500
(dp5501
g53
(dp5502
g80
g81
ssg62
g5491
sg55
(lp5503
S':'
asbag48
(g69
g50
NtRp5504
(dp5505
g53
(dp5506
sg62
g5491
sg55
(lp5507
g48
(g49
g50
NtRp5508
(dp5509
g53
(dp5510
g61
I5
ssg62
g5504
sg55
(lp5511
S'default/show_video_comments.html'
p5512
asbasbasbasbasbsS'locals'
p5513
(dp5514
S'OBJECT'
p5515
S"<class 'gluon.html.OBJECT'>"
p5516
sS'SQLDB'
p5517
S"<class 'gluon.dal.DAL'>"
p5518
sg3334
S"<Storage {'_formkey[image/create]': '2ed81f10-db...reate]': '98ae7414-2573-40ae-a310-e99e487b4bcb'}>"
p5519
sS'LINK'
p5520
S"<class 'gluon.html.LINK'>"
p5521
sS'Auth'
p5522
S"<class 'gluon.tools.Auth'>"
p5523
sS'BR'
p5524
S"<class 'gluon.html.BR'>"
p5525
sS'local_import'
p5526
S'<function <lambda> at 0x91d3a30>'
p5527
sS'OPTGROUP'
p5528
S"<class 'gluon.html.OPTGROUP'>"
p5529
sS'PRE'
p5530
S"<class 'gluon.html.PRE'>"
p5531
sS'IS_INT_IN_RANGE'
p5532
S"<class 'gluon.validators.IS_INT_IN_RANGE'>"
p5533
sS'left_sidebar_enabled'
p5534
g91
sS'IS_LOWER'
p5535
S"<class 'gluon.validators.IS_LOWER'>"
p5536
sS'IS_STRONG'
p5537
S"<class 'gluon.validators.IS_STRONG'>"
p5538
sS'cache'
p5539
S'<gluon.cache.Cache object at 0x9b62110>'
p5540
sS'IS_IN_DB'
p5541
S"<class 'gluon.validators.IS_IN_DB'>"
p5542
sS'TAG'
p5543
S'<gluon.html.__TAG__ object at 0x404e9f0>'
p5544
sS'SQLField'
p5545
S"<class 'gluon.dal.Field'>"
p5546
sS'BODY'
p5547
S"<class 'gluon.html.BODY'>"
p5548
sS'IS_DATE_IN_RANGE'
p5549
S"<class 'gluon.validators.IS_DATE_IN_RANGE'>"
p5550
sS'IFRAME'
p5551
S"<class 'gluon.html.IFRAME'>"
p5552
sS'video_comment'
p5553
S'None'
p5554
sS'URL'
p5555
S'<function URL at 0x403abf0>'
p5556
sS'__file__'
p5557
S"'/Users/abaric/Downloads/web2py/web2py.app/Conten...al_Impulse/views/default/show_video_comments.html'"
p5558
sS'db'
p5559
S'<DAL uri="sqlite://storage.sqlite">'
p5560
sS'auth'
p5561
S'<gluon.tools.Auth object at 0x9bdb190>'
p5562
sS'P'
S"<class 'gluon.html.P'>"
p5563
sS'TFOOT'
p5564
S"<class 'gluon.html.TFOOT'>"
p5565
sS'XHTML'
p5566
S"<class 'gluon.html.XHTML'>"
p5567
sS'ON'
p5568
g1864
sS'OL'
p5569
S"<class 'gluon.html.OL'>"
p5570
sS'd'
S"{1: [('Andrea Baric', '1st video, 1st comment'), ('Suzie Smith', '1st video, 2nd comment')], 3: [('Suzie Smith', '3rd video, 1st comment')]}"
p5571
sS'TEXTAREA'
p5572
S"<class 'gluon.html.TEXTAREA'>"
p5573
sS'MENU'
p5574
S"<class 'gluon.html.MENU'>"
p5575
sS't'
S"('Suzie Smith', '1st video, 2nd comment')"
p5576
sS'EM'
p5577
S"<class 'gluon.html.EM'>"
p5578
sS'CODE'
p5579
S"<class 'gluon.html.CODE'>"
p5580
sS'HTTP'
p5581
S"<class 'gluon.http.HTTP'>"
p5582
sS'HR'
p5583
S"<class 'gluon.html.HR'>"
p5584
sS'IS_DATETIME'
p5585
S"<class 'gluon.validators.IS_DATETIME'>"
p5586
sS'HEAD'
p5587
S"<class 'gluon.html.HEAD'>"
p5588
sS'LABEL'
p5589
S"<class 'gluon.html.LABEL'>"
p5590
sS'CLEANUP'
p5591
S"<class 'gluon.validators.CLEANUP'>"
p5592
sS'video'
p5593
S"<Row {'title': '2nd video title', 'url_str': '//www.youtube.com/embed/ruJeDKDbr9k', 'id': 2}>"
p5594
sS'SELECT'
p5595
S"<class 'gluon.html.SELECT'>"
p5596
sS'CENTER'
p5597
S"<class 'gluon.html.CENTER'>"
p5598
sS'Crud'
p5599
S"<class 'gluon.tools.Crud'>"
p5600
sS'comments'
p5601
S'<Rows (1)>'
p5602
sS'__builtins__'
p5603
S"{'ArithmeticError': <type 'exceptions.ArithmeticError'>, 'AssertionError': <type 'exceptions.AssertionError'>, 'AttributeError': <type 'exceptions.AttributeError'>, 'BaseException': <type 'exceptions.BaseException'>, 'DeprecationWarning': <type 'exceptions.DeprecationWarning'>, 'EOFError': <type 'exceptions.EOFError'>, 'Ellipsis': Ellipsis, 'EnvironmentError': <type 'exceptions.EnvironmentError'>, 'Exception': <type 'exceptions.Exception'>, 'False': False, ...}"
p5604
sS'HTML'
p5605
S"<class 'gluon.html.HTML'>"
p5606
sS'SQLFORM'
p5607
S"<class 'gluon.sqlhtml.SQLFORM'>"
p5608
sS'LOAD'
p5609
S'<function LOAD at 0x42de970>'
p5610
sS'redirect'
p5611
S'<function redirect at 0x3bd0530>'
p5612
sS'FIELDSET'
p5613
S"<class 'gluon.html.FIELDSET'>"
p5614
sS'IS_EQUAL_TO'
p5615
S"<class 'gluon.validators.IS_EQUAL_TO'>"
p5616
sS'embed64'
p5617
S'<function embed64 at 0x4050830>'
p5618
sS'IS_LIST_OF'
p5619
S"<class 'gluon.validators.IS_LIST_OF'>"
p5620
sS'__name__'
p5621
S"'__restricted__'"
p5622
sS'EMBED'
p5623
S"<class 'gluon.html.EMBED'>"
p5624
sS'_'
S'<function _ at 0x91d8e70>'
p5625
sS'FORM'
p5626
S"<class 'gluon.html.FORM'>"
p5627
sS'H2'
p5628
S"<class 'gluon.html.H2'>"
p5629
sS'H3'
p5630
S"<class 'gluon.html.H3'>"
p5631
sS'BUTTON'
p5632
S"<class 'gluon.html.BUTTON'>"
p5633
sS'H1'
p5634
S"<class 'gluon.html.H1'>"
p5635
sS'H6'
p5636
S"<class 'gluon.html.H6'>"
p5637
sS'H4'
p5638
S"<class 'gluon.html.H4'>"
p5639
sS'H5'
p5640
S"<class 'gluon.html.H5'>"
p5641
sS'UL'
p5642
S"<class 'gluon.html.UL'>"
p5643
sS'IS_UPPER'
p5644
S"<class 'gluon.validators.IS_UPPER'>"
p5645
sS'xmlescape'
p5646
S'<function xmlescape at 0x403a7b0>'
p5647
sS'IS_TIME'
p5648
S"<class 'gluon.validators.IS_TIME'>"
p5649
sg285
S"<Row {'auth_user': {'first_name': 'Suzie', 'last...uthor_id': 2, 'email': 'ssmith@agnesirwin.org'}}>"
p5650
sS'OPTION'
p5651
S"<class 'gluon.html.OPTION'>"
p5652
sS'TITLE'
p5653
S"<class 'gluon.html.TITLE'>"
p5654
sS'CRYPT'
p5655
S"<class 'gluon.validators.CRYPT'>"
p5656
sS'IS_EMPTY_OR'
p5657
S"<class 'gluon.validators.IS_EMPTY_OR'>"
p5658
sS'MARKMIN'
p5659
S"<class 'gluon.html.MARKMIN'>"
p5660
sS'INPUT'
p5661
S"<class 'gluon.html.INPUT'>"
p5662
sS'STRONG'
p5663
S"<class 'gluon.html.STRONG'>"
p5664
sS'COL'
p5665
S"<class 'gluon.html.COL'>"
p5666
sS'SCRIPT'
p5667
S"<class 'gluon.html.SCRIPT'>"
p5668
sS'is_mobile'
p5669
g91
sS'TABLE'
p5670
S"<class 'gluon.html.TABLE'>"
p5671
sS'IS_IPV4'
p5672
S"<class 'gluon.validators.IS_IPV4'>"
p5673
sS'IS_LENGTH'
p5674
S"<class 'gluon.validators.IS_LENGTH'>"
p5675
sS'XML'
p5676
S"<class 'gluon.html.XML'>"
p5677
sS'B'
S"<class 'gluon.html.B'>"
p5678
sS'IMG'
p5679
S"<class 'gluon.html.IMG'>"
p5680
sS'SQLTABLE'
p5681
S"<class 'gluon.sqlhtml.SQLTABLE'>"
p5682
sS'IS_MATCH'
p5683
S"<class 'gluon.validators.IS_MATCH'>"
p5684
sS'tuple_list'
p5685
S"[('Suzie Smith', '3rd video, 1st comment')]"
p5686
sg146
S"'3rd video, 1st comment'"
p5687
sS'IS_ALPHANUMERIC'
p5688
S"<class 'gluon.validators.IS_ALPHANUMERIC'>"
p5689
sS'SPAN'
p5690
S"<class 'gluon.html.SPAN'>"
p5691
sS'IS_SLUG'
p5692
S"<class 'gluon.validators.IS_SLUG'>"
p5693
sS'BEAUTIFY'
p5694
S"<class 'gluon.html.BEAUTIFY'>"
p5695
sS'META'
p5696
S"<class 'gluon.html.META'>"
p5697
sS'IS_DATE'
p5698
S"<class 'gluon.validators.IS_DATE'>"
p5699
sS'IS_EMAIL'
p5700
S"<class 'gluon.validators.IS_EMAIL'>"
p5701
sS'videos'
p5702
S'<Rows (3)>'
p5703
sS'IS_NOT_EMPTY'
p5704
S"<class 'gluon.validators.IS_NOT_EMPTY'>"
p5705
sS'IS_FLOAT_IN_RANGE'
p5706
S"<class 'gluon.validators.IS_FLOAT_IN_RANGE'>"
p5707
sS'TBODY'
p5708
S"<class 'gluon.html.TBODY'>"
p5709
sS'CAT'
p5710
S"<class 'gluon.html.CAT'>"
p5711
sS'Field'
p5712
S"<class 'gluon.dal.Field'>"
p5713
sS'middle_columns'
p5714
S"'span12'"
p5715
sS'DIV'
p5716
S"<class 'gluon.html.DIV'>"
p5717
sS'LEGEND'
p5718
S"<class 'gluon.html.LEGEND'>"
p5719
sS'form'
p5720
S'<gluon.sqlhtml.SQLFORM object at 0x9bbaad0>'
p5721
sS'COLGROUP'
p5722
S"<class 'gluon.html.COLGROUP'>"
p5723
sS'DAL'
p5724
S"<class 'gluon.dal.DAL'>"
p5725
sS'TT'
p5726
S"<class 'gluon.html.TT'>"
p5727
sS'TR'
p5728
S"<class 'gluon.html.TR'>"
p5729
sS'LI'
p5730
S"<class 'gluon.html.LI'>"
p5731
sS'right_sidebar_enabled'
p5732
g91
sS'TH'
p5733
S"<class 'gluon.html.TH'>"
p5734
sS'TD'
p5735
S"<class 'gluon.html.TD'>"
p5736
sS'IS_URL'
p5737
S"<class 'gluon.validators.IS_URL'>"
p5738
sS'A'
S"<class 'gluon.html.A'>"
p5739
sS'STYLE'
p5740
S"<class 'gluon.html.STYLE'>"
p5741
sS'IS_DATETIME_IN_RANGE'
p5742
S"<class 'gluon.validators.IS_DATETIME_IN_RANGE'>"
p5743
sS'IS_IMAGE'
p5744
S"<class 'gluon.validators.IS_IMAGE'>"
p5745
sS'I'
S"<class 'gluon.html.I'>"
p5746
sS'crud'
p5747
S'<gluon.tools.Crud object at 0x9bdb350>'
p5748
sS'IS_NOT_IN_DB'
p5749
S"<class 'gluon.validators.IS_NOT_IN_DB'>"
p5750
sg3391
S"<Storage {'body': <cStringIO.StringO object at 0...b0>, 'view': 'default/show_video_comments.html'}>"
p5751
sS'THEAD'
p5752
S"<class 'gluon.html.THEAD'>"
p5753
sS'IS_NULL_OR'
p5754
S"<class 'gluon.validators.IS_EMPTY_OR'>"
p5755
sg5063
S"'Suzie Smith'"
p5756
sg47
S"<Storage {'function': 'show_video_comments', 'bo...ions/Final_Impulse/', 'post_vars': <Storage {}>}>"
p5757
sS'IS_EXPR'
p5758
S"<class 'gluon.validators.IS_EXPR'>"
p5759
sS'T'
S'<gluon.languages.translator object at 0x9b62210>'
p5760
sS'IS_IN_SET'
p5761
S"<class 'gluon.validators.IS_IN_SET'>"
p5762
sS'IS_UPLOAD_FILENAME'
p5763
S"<class 'gluon.validators.IS_UPLOAD_FILENAME'>"
p5764
sS'IS_DECIMAL_IN_RANGE'
p5765
S"<class 'gluon.validators.IS_DECIMAL_IN_RANGE'>"
p5766
sssS'traceback'
p5767
S'Traceback (most recent call last):\n  File "gluon/restricted.py", line 212, in restricted\n  File "/Users/abaric/Downloads/web2py/web2py.app/Contents/Resources/applications/Final_Impulse/views/default/show_video_comments.html", line 85, in <module>\nKeyError: 2\n'
p5768
s.