(dp1
S'output'
p2
S''
sS'layer'
p3
S'Framework'
p4
sS'code'
p5
S''
sS'snapshot'
p6
(dp7
S'exception'
p8
(dp9
S'__hash__'
p10
S"<method-wrapper '__hash__' of exceptions.NameError object at 0x96d6f80>"
p11
sS'__setattr__'
p12
S"<method-wrapper '__setattr__' of exceptions.NameError object at 0x96d6f80>"
p13
sS'__reduce_ex__'
p14
S'<built-in method __reduce_ex__ of exceptions.NameError object at 0x96d6f80>'
p15
sS'__getslice__'
p16
S"<method-wrapper '__getslice__' of exceptions.NameError object at 0x96d6f80>"
p17
sS'__getitem__'
p18
S"<method-wrapper '__getitem__' of exceptions.NameError object at 0x96d6f80>"
p19
sS'__setstate__'
p20
S'<built-in method __setstate__ of exceptions.NameError object at 0x96d6f80>'
p21
sS'__reduce__'
p22
S'<built-in method __reduce__ of exceptions.NameError object at 0x96d6f80>'
p23
sS'__str__'
p24
S"<method-wrapper '__str__' of exceptions.NameError object at 0x96d6f80>"
p25
sS'args'
p26
S'("name \'layout\' is not defined",)'
p27
sS'__getattribute__'
p28
S"<method-wrapper '__getattribute__' of exceptions.NameError object at 0x96d6f80>"
p29
sS'__class__'
p30
S"<type 'exceptions.NameError'>"
p31
sS'__delattr__'
p32
S"<method-wrapper '__delattr__' of exceptions.NameError object at 0x96d6f80>"
p33
sS'__repr__'
p34
S"<method-wrapper '__repr__' of exceptions.NameError object at 0x96d6f80>"
p35
sS'__dict__'
p36
S'{}'
p37
sS'__doc__'
p38
S"'Name not found globally.'"
p39
sS'__init__'
p40
S"<method-wrapper '__init__' of exceptions.NameError object at 0x96d6f80>"
p41
sS'__new__'
p42
S'<built-in method __new__ of type object at 0x5f9640>'
p43
ssS'evalue'
p44
S"name 'layout' is not defined"
p45
sS'request'
p46
ccopy_reg
_reconstructor
p47
(cgluon.html
BEAUTIFY
p48
c__builtin__
object
p49
NtRp50
(dp51
S'attributes'
p52
(dp53
sS'components'
p54
(lp55
g47
(cgluon.html
TABLE
p56
g49
NtRp57
(dp58
g52
(dp59
S'level'
p60
I5
ssS'parent'
p61
Nsg54
(lp62
g47
(cgluon.html
TR
p63
g49
NtRp64
(dp65
g52
(dp66
sg61
g57
sg54
(lp67
g47
(cgluon.html
TD
p68
g49
NtRp69
(dp70
g52
(dp71
S'_style'
p72
S'font-weight:bold;vertical-align:top'
p73
ssg61
g64
sg54
(lp74
S'ajax'
p75
asbag47
(g68
g49
NtRp76
(dp77
g52
(dp78
S'_valign'
p79
S'top'
p80
ssg61
g64
sg54
(lp81
S':'
asbag47
(g68
g49
NtRp82
(dp83
g52
(dp84
sg61
g64
sg54
(lp85
g47
(g48
g49
NtRp86
(dp87
g52
(dp88
g60
I5
ssg61
g82
sg54
(lp89
S'False'
p90
asbasbasbag47
(g63
g49
NtRp91
(dp92
g52
(dp93
sg61
g57
sg54
(lp94
g47
(g68
g49
NtRp95
(dp96
g52
(dp97
g72
g73
ssg61
g91
sg54
(lp98
S'application'
p99
asbag47
(g68
g49
NtRp100
(dp101
g52
(dp102
g79
g80
ssg61
g91
sg54
(lp103
S':'
asbag47
(g68
g49
NtRp104
(dp105
g52
(dp106
sg61
g91
sg54
(lp107
g47
(g48
g49
NtRp108
(dp109
g52
(dp110
g60
I5
ssg61
g104
sg54
(lp111
S'Final_Impulse'
p112
asbasbasbag47
(g63
g49
NtRp113
(dp114
g52
(dp115
sg61
g57
sg54
(lp116
g47
(g68
g49
NtRp117
(dp118
g52
(dp119
g72
g73
ssg61
g113
sg54
(lp120
g26
asbag47
(g68
g49
NtRp121
(dp122
g52
(dp123
g79
g80
ssg61
g113
sg54
(lp124
S':'
asbag47
(g68
g49
NtRp125
(dp126
g52
(dp127
sg61
g113
sg54
(lp128
g47
(g48
g49
NtRp129
(dp130
g52
(dp131
g60
I5
ssg61
g125
sg54
(lp132
g47
(g56
g49
NtRp133
(dp134
g52
(dp135
g60
I4
ssg61
Nsg54
(lp136
sbasbasbasbag47
(g63
g49
NtRp137
(dp138
g52
(dp139
sg61
g57
sg54
(lp140
g47
(g68
g49
NtRp141
(dp142
g52
(dp143
g72
g73
ssg61
g137
sg54
(lp144
S'body'
p145
asbag47
(g68
g49
NtRp146
(dp147
g52
(dp148
g79
g80
ssg61
g137
sg54
(lp149
S':'
asbag47
(g68
g49
NtRp150
(dp151
g52
(dp152
sg61
g137
sg54
(lp153
g47
(g48
g49
NtRp154
(dp155
g52
(dp156
g60
I5
ssg61
g150
sg54
(lp157
S'<cStringIO.StringO object at 0x92ad5e0>'
p158
asbasbasbag47
(g63
g49
NtRp159
(dp160
g52
(dp161
sg61
g57
sg54
(lp162
g47
(g68
g49
NtRp163
(dp164
g52
(dp165
g72
g73
ssg61
g159
sg54
(lp166
S'cid'
p167
asbag47
(g68
g49
NtRp168
(dp169
g52
(dp170
g79
g80
ssg61
g159
sg54
(lp171
S':'
asbag47
(g68
g49
NtRp172
(dp173
g52
(dp174
sg61
g159
sg54
(lp175
g47
(g48
g49
NtRp176
(dp177
g52
(dp178
g60
I5
ssg61
g172
sg54
(lp179
S'None'
p180
asbasbasbag47
(g63
g49
NtRp181
(dp182
g52
(dp183
sg61
g57
sg54
(lp184
g47
(g68
g49
NtRp185
(dp186
g52
(dp187
g72
g73
ssg61
g181
sg54
(lp188
S'client'
p189
asbag47
(g68
g49
NtRp190
(dp191
g52
(dp192
g79
g80
ssg61
g181
sg54
(lp193
S':'
asbag47
(g68
g49
NtRp194
(dp195
g52
(dp196
sg61
g181
sg54
(lp197
g47
(g48
g49
NtRp198
(dp199
g52
(dp200
g60
I5
ssg61
g194
sg54
(lp201
S'127.0.0.1'
p202
asbasbasbag47
(g63
g49
NtRp203
(dp204
g52
(dp205
sg61
g57
sg54
(lp206
g47
(g68
g49
NtRp207
(dp208
g52
(dp209
g72
g73
ssg61
g203
sg54
(lp210
S'controller'
p211
asbag47
(g68
g49
NtRp212
(dp213
g52
(dp214
g79
g80
ssg61
g203
sg54
(lp215
S':'
asbag47
(g68
g49
NtRp216
(dp217
g52
(dp218
sg61
g203
sg54
(lp219
g47
(g48
g49
NtRp220
(dp221
g52
(dp222
g60
I5
ssg61
g216
sg54
(lp223
S'default'
p224
asbasbasbag47
(g63
g49
NtRp225
(dp226
g52
(dp227
sg61
g57
sg54
(lp228
g47
(g68
g49
NtRp229
(dp230
g52
(dp231
g72
g73
ssg61
g225
sg54
(lp232
S'cookies'
p233
asbag47
(g68
g49
NtRp234
(dp235
g52
(dp236
g79
g80
ssg61
g225
sg54
(lp237
S':'
asbag47
(g68
g49
NtRp238
(dp239
g52
(dp240
sg61
g225
sg54
(lp241
g47
(g48
g49
NtRp242
(dp243
g52
(dp244
g60
I5
ssg61
g238
sg54
(lp245
g47
(g56
g49
NtRp246
(dp247
g52
(dp248
g60
I4
ssg61
Nsg54
(lp249
g47
(g63
g49
NtRp250
(dp251
g52
(dp252
sg61
g246
sg54
(lp253
g47
(g68
g49
NtRp254
(dp255
g52
(dp256
g72
g73
ssg61
g250
sg54
(lp257
S'session_id_admin'
p258
asbag47
(g68
g49
NtRp259
(dp260
g52
(dp261
g79
g80
ssg61
g250
sg54
(lp262
S':'
asbag47
(g68
g49
NtRp263
(dp264
g52
(dp265
sg61
g250
sg54
(lp266
g47
(g48
g49
NtRp267
(dp268
g52
(dp269
g60
I4
ssg61
g263
sg54
(lp270
S'127.0.0.1-78422ea9-f684-495a-9e76-2db5117c417f'
p271
ag47
(g56
g49
NtRp272
(dp273
g52
(dp274
g60
I3
ssg61
Nsg54
(lp275
g47
(g63
g49
NtRp276
(dp277
g52
(dp278
sg61
g272
sg54
(lp279
g47
(g68
g49
NtRp280
(dp281
g52
(dp282
g72
g73
ssg61
g276
sg54
(lp283
S'comment'
p284
asbag47
(g68
g49
NtRp285
(dp286
g52
(dp287
g79
g80
ssg61
g276
sg54
(lp288
S':'
asbag47
(g68
g49
NtRp289
(dp290
g52
(dp291
sg61
g276
sg54
(lp292
g47
(g48
g49
NtRp293
(dp294
g52
(dp295
g60
I3
ssg61
g289
sg54
(lp296
S''
asbasbasbag47
(g63
g49
NtRp297
(dp298
g52
(dp299
sg61
g272
sg54
(lp300
g47
(g68
g49
NtRp301
(dp302
g52
(dp303
g72
g73
ssg61
g297
sg54
(lp304
S'domain'
p305
asbag47
(g68
g49
NtRp306
(dp307
g52
(dp308
g79
g80
ssg61
g297
sg54
(lp309
S':'
asbag47
(g68
g49
NtRp310
(dp311
g52
(dp312
sg61
g297
sg54
(lp313
g47
(g48
g49
NtRp314
(dp315
g52
(dp316
g60
I3
ssg61
g310
sg54
(lp317
S''
asbasbasbag47
(g63
g49
NtRp318
(dp319
g52
(dp320
sg61
g272
sg54
(lp321
g47
(g68
g49
NtRp322
(dp323
g52
(dp324
g72
g73
ssg61
g318
sg54
(lp325
S'expires'
p326
asbag47
(g68
g49
NtRp327
(dp328
g52
(dp329
g79
g80
ssg61
g318
sg54
(lp330
S':'
asbag47
(g68
g49
NtRp331
(dp332
g52
(dp333
sg61
g318
sg54
(lp334
g47
(g48
g49
NtRp335
(dp336
g52
(dp337
g60
I3
ssg61
g331
sg54
(lp338
S''
asbasbasbag47
(g63
g49
NtRp339
(dp340
g52
(dp341
sg61
g272
sg54
(lp342
g47
(g68
g49
NtRp343
(dp344
g52
(dp345
g72
g73
ssg61
g339
sg54
(lp346
S'max-age'
p347
asbag47
(g68
g49
NtRp348
(dp349
g52
(dp350
g79
g80
ssg61
g339
sg54
(lp351
S':'
asbag47
(g68
g49
NtRp352
(dp353
g52
(dp354
sg61
g339
sg54
(lp355
g47
(g48
g49
NtRp356
(dp357
g52
(dp358
g60
I3
ssg61
g352
sg54
(lp359
S''
asbasbasbag47
(g63
g49
NtRp360
(dp361
g52
(dp362
sg61
g272
sg54
(lp363
g47
(g68
g49
NtRp364
(dp365
g52
(dp366
g72
g73
ssg61
g360
sg54
(lp367
S'path'
p368
asbag47
(g68
g49
NtRp369
(dp370
g52
(dp371
g79
g80
ssg61
g360
sg54
(lp372
S':'
asbag47
(g68
g49
NtRp373
(dp374
g52
(dp375
sg61
g360
sg54
(lp376
g47
(g48
g49
NtRp377
(dp378
g52
(dp379
g60
I3
ssg61
g373
sg54
(lp380
S''
asbasbasbag47
(g63
g49
NtRp381
(dp382
g52
(dp383
sg61
g272
sg54
(lp384
g47
(g68
g49
NtRp385
(dp386
g52
(dp387
g72
g73
ssg61
g381
sg54
(lp388
S'secure'
p389
asbag47
(g68
g49
NtRp390
(dp391
g52
(dp392
g79
g80
ssg61
g381
sg54
(lp393
S':'
asbag47
(g68
g49
NtRp394
(dp395
g52
(dp396
sg61
g381
sg54
(lp397
g47
(g48
g49
NtRp398
(dp399
g52
(dp400
g60
I3
ssg61
g394
sg54
(lp401
S''
asbasbasbag47
(g63
g49
NtRp402
(dp403
g52
(dp404
sg61
g272
sg54
(lp405
g47
(g68
g49
NtRp406
(dp407
g52
(dp408
g72
g73
ssg61
g402
sg54
(lp409
S'version'
p410
asbag47
(g68
g49
NtRp411
(dp412
g52
(dp413
g79
g80
ssg61
g402
sg54
(lp414
S':'
asbag47
(g68
g49
NtRp415
(dp416
g52
(dp417
sg61
g402
sg54
(lp418
g47
(g48
g49
NtRp419
(dp420
g52
(dp421
g60
I3
ssg61
g415
sg54
(lp422
S''
asbasbasbasbasbasbasbag47
(g63
g49
NtRp423
(dp424
g52
(dp425
sg61
g246
sg54
(lp426
g47
(g68
g49
NtRp427
(dp428
g52
(dp429
g72
g73
ssg61
g423
sg54
(lp430
S'session_id_course_recommendations'
p431
asbag47
(g68
g49
NtRp432
(dp433
g52
(dp434
g79
g80
ssg61
g423
sg54
(lp435
S':'
asbag47
(g68
g49
NtRp436
(dp437
g52
(dp438
sg61
g423
sg54
(lp439
g47
(g48
g49
NtRp440
(dp441
g52
(dp442
g60
I4
ssg61
g436
sg54
(lp443
S'127.0.0.1-cb8f05e9-0587-4e87-8439-3e1e68871c8f'
p444
ag47
(g56
g49
NtRp445
(dp446
g52
(dp447
g60
I3
ssg61
Nsg54
(lp448
g47
(g63
g49
NtRp449
(dp450
g52
(dp451
sg61
g445
sg54
(lp452
g47
(g68
g49
NtRp453
(dp454
g52
(dp455
g72
g73
ssg61
g449
sg54
(lp456
g284
asbag47
(g68
g49
NtRp457
(dp458
g52
(dp459
g79
g80
ssg61
g449
sg54
(lp460
S':'
asbag47
(g68
g49
NtRp461
(dp462
g52
(dp463
sg61
g449
sg54
(lp464
g47
(g48
g49
NtRp465
(dp466
g52
(dp467
g60
I3
ssg61
g461
sg54
(lp468
S''
asbasbasbag47
(g63
g49
NtRp469
(dp470
g52
(dp471
sg61
g445
sg54
(lp472
g47
(g68
g49
NtRp473
(dp474
g52
(dp475
g72
g73
ssg61
g469
sg54
(lp476
g305
asbag47
(g68
g49
NtRp477
(dp478
g52
(dp479
g79
g80
ssg61
g469
sg54
(lp480
S':'
asbag47
(g68
g49
NtRp481
(dp482
g52
(dp483
sg61
g469
sg54
(lp484
g47
(g48
g49
NtRp485
(dp486
g52
(dp487
g60
I3
ssg61
g481
sg54
(lp488
S''
asbasbasbag47
(g63
g49
NtRp489
(dp490
g52
(dp491
sg61
g445
sg54
(lp492
g47
(g68
g49
NtRp493
(dp494
g52
(dp495
g72
g73
ssg61
g489
sg54
(lp496
g326
asbag47
(g68
g49
NtRp497
(dp498
g52
(dp499
g79
g80
ssg61
g489
sg54
(lp500
S':'
asbag47
(g68
g49
NtRp501
(dp502
g52
(dp503
sg61
g489
sg54
(lp504
g47
(g48
g49
NtRp505
(dp506
g52
(dp507
g60
I3
ssg61
g501
sg54
(lp508
S''
asbasbasbag47
(g63
g49
NtRp509
(dp510
g52
(dp511
sg61
g445
sg54
(lp512
g47
(g68
g49
NtRp513
(dp514
g52
(dp515
g72
g73
ssg61
g509
sg54
(lp516
g347
asbag47
(g68
g49
NtRp517
(dp518
g52
(dp519
g79
g80
ssg61
g509
sg54
(lp520
S':'
asbag47
(g68
g49
NtRp521
(dp522
g52
(dp523
sg61
g509
sg54
(lp524
g47
(g48
g49
NtRp525
(dp526
g52
(dp527
g60
I3
ssg61
g521
sg54
(lp528
S''
asbasbasbag47
(g63
g49
NtRp529
(dp530
g52
(dp531
sg61
g445
sg54
(lp532
g47
(g68
g49
NtRp533
(dp534
g52
(dp535
g72
g73
ssg61
g529
sg54
(lp536
g368
asbag47
(g68
g49
NtRp537
(dp538
g52
(dp539
g79
g80
ssg61
g529
sg54
(lp540
S':'
asbag47
(g68
g49
NtRp541
(dp542
g52
(dp543
sg61
g529
sg54
(lp544
g47
(g48
g49
NtRp545
(dp546
g52
(dp547
g60
I3
ssg61
g541
sg54
(lp548
S''
asbasbasbag47
(g63
g49
NtRp549
(dp550
g52
(dp551
sg61
g445
sg54
(lp552
g47
(g68
g49
NtRp553
(dp554
g52
(dp555
g72
g73
ssg61
g549
sg54
(lp556
g389
asbag47
(g68
g49
NtRp557
(dp558
g52
(dp559
g79
g80
ssg61
g549
sg54
(lp560
S':'
asbag47
(g68
g49
NtRp561
(dp562
g52
(dp563
sg61
g549
sg54
(lp564
g47
(g48
g49
NtRp565
(dp566
g52
(dp567
g60
I3
ssg61
g561
sg54
(lp568
S''
asbasbasbag47
(g63
g49
NtRp569
(dp570
g52
(dp571
sg61
g445
sg54
(lp572
g47
(g68
g49
NtRp573
(dp574
g52
(dp575
g72
g73
ssg61
g569
sg54
(lp576
g410
asbag47
(g68
g49
NtRp577
(dp578
g52
(dp579
g79
g80
ssg61
g569
sg54
(lp580
S':'
asbag47
(g68
g49
NtRp581
(dp582
g52
(dp583
sg61
g569
sg54
(lp584
g47
(g48
g49
NtRp585
(dp586
g52
(dp587
g60
I3
ssg61
g581
sg54
(lp588
S''
asbasbasbasbasbasbasbag47
(g63
g49
NtRp589
(dp590
g52
(dp591
sg61
g246
sg54
(lp592
g47
(g68
g49
NtRp593
(dp594
g52
(dp595
g72
g73
ssg61
g589
sg54
(lp596
S'session_id_final_impulse'
p597
asbag47
(g68
g49
NtRp598
(dp599
g52
(dp600
g79
g80
ssg61
g589
sg54
(lp601
S':'
asbag47
(g68
g49
NtRp602
(dp603
g52
(dp604
sg61
g589
sg54
(lp605
g47
(g48
g49
NtRp606
(dp607
g52
(dp608
g60
I4
ssg61
g602
sg54
(lp609
S'127.0.0.1-196d16f0-df2a-4177-8038-20bcfac6a099'
p610
ag47
(g56
g49
NtRp611
(dp612
g52
(dp613
g60
I3
ssg61
Nsg54
(lp614
g47
(g63
g49
NtRp615
(dp616
g52
(dp617
sg61
g611
sg54
(lp618
g47
(g68
g49
NtRp619
(dp620
g52
(dp621
g72
g73
ssg61
g615
sg54
(lp622
g284
asbag47
(g68
g49
NtRp623
(dp624
g52
(dp625
g79
g80
ssg61
g615
sg54
(lp626
S':'
asbag47
(g68
g49
NtRp627
(dp628
g52
(dp629
sg61
g615
sg54
(lp630
g47
(g48
g49
NtRp631
(dp632
g52
(dp633
g60
I3
ssg61
g627
sg54
(lp634
S''
asbasbasbag47
(g63
g49
NtRp635
(dp636
g52
(dp637
sg61
g611
sg54
(lp638
g47
(g68
g49
NtRp639
(dp640
g52
(dp641
g72
g73
ssg61
g635
sg54
(lp642
g305
asbag47
(g68
g49
NtRp643
(dp644
g52
(dp645
g79
g80
ssg61
g635
sg54
(lp646
S':'
asbag47
(g68
g49
NtRp647
(dp648
g52
(dp649
sg61
g635
sg54
(lp650
g47
(g48
g49
NtRp651
(dp652
g52
(dp653
g60
I3
ssg61
g647
sg54
(lp654
S''
asbasbasbag47
(g63
g49
NtRp655
(dp656
g52
(dp657
sg61
g611
sg54
(lp658
g47
(g68
g49
NtRp659
(dp660
g52
(dp661
g72
g73
ssg61
g655
sg54
(lp662
g326
asbag47
(g68
g49
NtRp663
(dp664
g52
(dp665
g79
g80
ssg61
g655
sg54
(lp666
S':'
asbag47
(g68
g49
NtRp667
(dp668
g52
(dp669
sg61
g655
sg54
(lp670
g47
(g48
g49
NtRp671
(dp672
g52
(dp673
g60
I3
ssg61
g667
sg54
(lp674
S''
asbasbasbag47
(g63
g49
NtRp675
(dp676
g52
(dp677
sg61
g611
sg54
(lp678
g47
(g68
g49
NtRp679
(dp680
g52
(dp681
g72
g73
ssg61
g675
sg54
(lp682
g347
asbag47
(g68
g49
NtRp683
(dp684
g52
(dp685
g79
g80
ssg61
g675
sg54
(lp686
S':'
asbag47
(g68
g49
NtRp687
(dp688
g52
(dp689
sg61
g675
sg54
(lp690
g47
(g48
g49
NtRp691
(dp692
g52
(dp693
g60
I3
ssg61
g687
sg54
(lp694
S''
asbasbasbag47
(g63
g49
NtRp695
(dp696
g52
(dp697
sg61
g611
sg54
(lp698
g47
(g68
g49
NtRp699
(dp700
g52
(dp701
g72
g73
ssg61
g695
sg54
(lp702
g368
asbag47
(g68
g49
NtRp703
(dp704
g52
(dp705
g79
g80
ssg61
g695
sg54
(lp706
S':'
asbag47
(g68
g49
NtRp707
(dp708
g52
(dp709
sg61
g695
sg54
(lp710
g47
(g48
g49
NtRp711
(dp712
g52
(dp713
g60
I3
ssg61
g707
sg54
(lp714
S''
asbasbasbag47
(g63
g49
NtRp715
(dp716
g52
(dp717
sg61
g611
sg54
(lp718
g47
(g68
g49
NtRp719
(dp720
g52
(dp721
g72
g73
ssg61
g715
sg54
(lp722
g389
asbag47
(g68
g49
NtRp723
(dp724
g52
(dp725
g79
g80
ssg61
g715
sg54
(lp726
S':'
asbag47
(g68
g49
NtRp727
(dp728
g52
(dp729
sg61
g715
sg54
(lp730
g47
(g48
g49
NtRp731
(dp732
g52
(dp733
g60
I3
ssg61
g727
sg54
(lp734
S''
asbasbasbag47
(g63
g49
NtRp735
(dp736
g52
(dp737
sg61
g611
sg54
(lp738
g47
(g68
g49
NtRp739
(dp740
g52
(dp741
g72
g73
ssg61
g735
sg54
(lp742
g410
asbag47
(g68
g49
NtRp743
(dp744
g52
(dp745
g79
g80
ssg61
g735
sg54
(lp746
S':'
asbag47
(g68
g49
NtRp747
(dp748
g52
(dp749
sg61
g735
sg54
(lp750
g47
(g48
g49
NtRp751
(dp752
g52
(dp753
g60
I3
ssg61
g747
sg54
(lp754
S''
asbasbasbasbasbasbasbag47
(g63
g49
NtRp755
(dp756
g52
(dp757
sg61
g246
sg54
(lp758
g47
(g68
g49
NtRp759
(dp760
g52
(dp761
g72
g73
ssg61
g755
sg54
(lp762
S'session_id_welcome'
p763
asbag47
(g68
g49
NtRp764
(dp765
g52
(dp766
g79
g80
ssg61
g755
sg54
(lp767
S':'
asbag47
(g68
g49
NtRp768
(dp769
g52
(dp770
sg61
g755
sg54
(lp771
g47
(g48
g49
NtRp772
(dp773
g52
(dp774
g60
I4
ssg61
g768
sg54
(lp775
S'127.0.0.1-2aa03a6c-1012-4eea-98a7-98c4cb6a077c'
p776
ag47
(g56
g49
NtRp777
(dp778
g52
(dp779
g60
I3
ssg61
Nsg54
(lp780
g47
(g63
g49
NtRp781
(dp782
g52
(dp783
sg61
g777
sg54
(lp784
g47
(g68
g49
NtRp785
(dp786
g52
(dp787
g72
g73
ssg61
g781
sg54
(lp788
g284
asbag47
(g68
g49
NtRp789
(dp790
g52
(dp791
g79
g80
ssg61
g781
sg54
(lp792
S':'
asbag47
(g68
g49
NtRp793
(dp794
g52
(dp795
sg61
g781
sg54
(lp796
g47
(g48
g49
NtRp797
(dp798
g52
(dp799
g60
I3
ssg61
g793
sg54
(lp800
S''
asbasbasbag47
(g63
g49
NtRp801
(dp802
g52
(dp803
sg61
g777
sg54
(lp804
g47
(g68
g49
NtRp805
(dp806
g52
(dp807
g72
g73
ssg61
g801
sg54
(lp808
g305
asbag47
(g68
g49
NtRp809
(dp810
g52
(dp811
g79
g80
ssg61
g801
sg54
(lp812
S':'
asbag47
(g68
g49
NtRp813
(dp814
g52
(dp815
sg61
g801
sg54
(lp816
g47
(g48
g49
NtRp817
(dp818
g52
(dp819
g60
I3
ssg61
g813
sg54
(lp820
S''
asbasbasbag47
(g63
g49
NtRp821
(dp822
g52
(dp823
sg61
g777
sg54
(lp824
g47
(g68
g49
NtRp825
(dp826
g52
(dp827
g72
g73
ssg61
g821
sg54
(lp828
g326
asbag47
(g68
g49
NtRp829
(dp830
g52
(dp831
g79
g80
ssg61
g821
sg54
(lp832
S':'
asbag47
(g68
g49
NtRp833
(dp834
g52
(dp835
sg61
g821
sg54
(lp836
g47
(g48
g49
NtRp837
(dp838
g52
(dp839
g60
I3
ssg61
g833
sg54
(lp840
S''
asbasbasbag47
(g63
g49
NtRp841
(dp842
g52
(dp843
sg61
g777
sg54
(lp844
g47
(g68
g49
NtRp845
(dp846
g52
(dp847
g72
g73
ssg61
g841
sg54
(lp848
g347
asbag47
(g68
g49
NtRp849
(dp850
g52
(dp851
g79
g80
ssg61
g841
sg54
(lp852
S':'
asbag47
(g68
g49
NtRp853
(dp854
g52
(dp855
sg61
g841
sg54
(lp856
g47
(g48
g49
NtRp857
(dp858
g52
(dp859
g60
I3
ssg61
g853
sg54
(lp860
S''
asbasbasbag47
(g63
g49
NtRp861
(dp862
g52
(dp863
sg61
g777
sg54
(lp864
g47
(g68
g49
NtRp865
(dp866
g52
(dp867
g72
g73
ssg61
g861
sg54
(lp868
g368
asbag47
(g68
g49
NtRp869
(dp870
g52
(dp871
g79
g80
ssg61
g861
sg54
(lp872
S':'
asbag47
(g68
g49
NtRp873
(dp874
g52
(dp875
sg61
g861
sg54
(lp876
g47
(g48
g49
NtRp877
(dp878
g52
(dp879
g60
I3
ssg61
g873
sg54
(lp880
S''
asbasbasbag47
(g63
g49
NtRp881
(dp882
g52
(dp883
sg61
g777
sg54
(lp884
g47
(g68
g49
NtRp885
(dp886
g52
(dp887
g72
g73
ssg61
g881
sg54
(lp888
g389
asbag47
(g68
g49
NtRp889
(dp890
g52
(dp891
g79
g80
ssg61
g881
sg54
(lp892
S':'
asbag47
(g68
g49
NtRp893
(dp894
g52
(dp895
sg61
g881
sg54
(lp896
g47
(g48
g49
NtRp897
(dp898
g52
(dp899
g60
I3
ssg61
g893
sg54
(lp900
S''
asbasbasbag47
(g63
g49
NtRp901
(dp902
g52
(dp903
sg61
g777
sg54
(lp904
g47
(g68
g49
NtRp905
(dp906
g52
(dp907
g72
g73
ssg61
g901
sg54
(lp908
g410
asbag47
(g68
g49
NtRp909
(dp910
g52
(dp911
g79
g80
ssg61
g901
sg54
(lp912
S':'
asbag47
(g68
g49
NtRp913
(dp914
g52
(dp915
sg61
g901
sg54
(lp916
g47
(g48
g49
NtRp917
(dp918
g52
(dp919
g60
I3
ssg61
g913
sg54
(lp920
S''
asbasbasbasbasbasbasbasbasbasbasbag47
(g63
g49
NtRp921
(dp922
g52
(dp923
sg61
g57
sg54
(lp924
g47
(g68
g49
NtRp925
(dp926
g52
(dp927
g72
g73
ssg61
g921
sg54
(lp928
S'env'
p929
asbag47
(g68
g49
NtRp930
(dp931
g52
(dp932
g79
g80
ssg61
g921
sg54
(lp933
S':'
asbag47
(g68
g49
NtRp934
(dp935
g52
(dp936
sg61
g921
sg54
(lp937
g47
(g48
g49
NtRp938
(dp939
g52
(dp940
g60
I5
ssg61
g934
sg54
(lp941
g47
(g56
g49
NtRp942
(dp943
g52
(dp944
g60
I4
ssg61
Nsg54
(lp945
g47
(g63
g49
NtRp946
(dp947
g52
(dp948
sg61
g942
sg54
(lp949
g47
(g68
g49
NtRp950
(dp951
g52
(dp952
g72
g73
ssg61
g946
sg54
(lp953
S'app_folders'
p954
asbag47
(g68
g49
NtRp955
(dp956
g52
(dp957
g79
g80
ssg61
g946
sg54
(lp958
S':'
asbag47
(g68
g49
NtRp959
(dp960
g52
(dp961
sg61
g946
sg54
(lp962
g47
(g48
g49
NtRp963
(dp964
g52
(dp965
g60
I4
ssg61
g959
sg54
(lp966
S"set(['/Users/abaric/Downloads/web2py/web2py.app/Contents/Resources/applications/examples/', '/Users/abaric/Downloads/web2py/web2py.app/Contents/Resources/applications/Final_Impulse/', '/Users/abaric/Downloads/web2py/web2py.app/Contents/Resources/applications/Course_Recommendations/', '/Users/abaric/Downloads/web2py/web2py.app/Contents/Resources/applications/welcome/', '/Users/abaric/Downloads/web2py/web2py.app/Contents/Resources/applications/admin/'])"
p967
asbasbasbag47
(g63
g49
NtRp968
(dp969
g52
(dp970
sg61
g942
sg54
(lp971
g47
(g68
g49
NtRp972
(dp973
g52
(dp974
g72
g73
ssg61
g968
sg54
(lp975
S'applications_parent'
p976
asbag47
(g68
g49
NtRp977
(dp978
g52
(dp979
g79
g80
ssg61
g968
sg54
(lp980
S':'
asbag47
(g68
g49
NtRp981
(dp982
g52
(dp983
sg61
g968
sg54
(lp984
g47
(g48
g49
NtRp985
(dp986
g52
(dp987
g60
I4
ssg61
g981
sg54
(lp988
S'/Users/abaric/Downloads/web2py/web2py.app/Contents/Resources'
p989
asbasbasbag47
(g63
g49
NtRp990
(dp991
g52
(dp992
sg61
g942
sg54
(lp993
g47
(g68
g49
NtRp994
(dp995
g52
(dp996
g72
g73
ssg61
g990
sg54
(lp997
S'cmd_args'
p998
asbag47
(g68
g49
NtRp999
(dp1000
g52
(dp1001
g79
g80
ssg61
g990
sg54
(lp1002
S':'
asbag47
(g68
g49
NtRp1003
(dp1004
g52
(dp1005
sg61
g990
sg54
(lp1006
g47
(g48
g49
NtRp1007
(dp1008
g52
(dp1009
g60
I4
ssg61
g1003
sg54
(lp1010
g47
(g56
g49
NtRp1011
(dp1012
g52
(dp1013
g60
I3
ssg61
Nsg54
(lp1014
sbasbasbasbag47
(g63
g49
NtRp1015
(dp1016
g52
(dp1017
sg61
g942
sg54
(lp1018
g47
(g68
g49
NtRp1019
(dp1020
g52
(dp1021
g72
g73
ssg61
g1015
sg54
(lp1022
S'cmd_options'
p1023
asbag47
(g68
g49
NtRp1024
(dp1025
g52
(dp1026
g79
g80
ssg61
g1015
sg54
(lp1027
S':'
asbag47
(g68
g49
NtRp1028
(dp1029
g52
(dp1030
sg61
g1015
sg54
(lp1031
g47
(g48
g49
NtRp1032
(dp1033
g52
(dp1034
g60
I4
ssg61
g1028
sg54
(lp1035
S"<Values at 0x43bc1c0: {'verbose': False, 'ip': '127.0.0.1', 'with_scheduler': False, 'ips': [], 'shutdown_timeout': 5, 'taskbar': False, 'port': 8000, 'maxthreads': None, 'softcron': False, 'server_name': 'Andrea-Barics-MacBook-Pro.local', 'bpython': False, 'nogui': False, 'pid_filename': 'httpserver.pid', 'extcron': False, 'runcron': False, 'run_system_tests': False, 'test': None, 'folder': '/Users/abaric/Downloads/web2py/web2py.app/Contents/Resources', 'config': '', 'import_models': False, 'winservice': '', 'shell': None, 'run': '', 'log_filename': 'httpserver.log', 'debuglevel': 30, 'args': [''], 'socket_timeout': 5, 'ssl_ca_certificate': None, 'scheduler': None, 'profiler_filename': None, 'ssl_private_key': '', 'scheduler_groups': None, 'password': '<ask>', 'request_queue_size': 5, 'ssl_certificate': '', 'cronjob': False, 'numthreads': None, 'quiet': False, 'interfaces': None, 'minthreads': None, 'timeout': 10, 'plain': False, 'nobanner': False}>"
p1036
asbasbasbag47
(g63
g49
NtRp1037
(dp1038
g52
(dp1039
sg61
g942
sg54
(lp1040
g47
(g68
g49
NtRp1041
(dp1042
g52
(dp1043
g72
g73
ssg61
g1037
sg54
(lp1044
S'db_sessions'
p1045
asbag47
(g68
g49
NtRp1046
(dp1047
g52
(dp1048
g79
g80
ssg61
g1037
sg54
(lp1049
S':'
asbag47
(g68
g49
NtRp1050
(dp1051
g52
(dp1052
sg61
g1037
sg54
(lp1053
g47
(g48
g49
NtRp1054
(dp1055
g52
(dp1056
g60
I4
ssg61
g1050
sg54
(lp1057
S'set([])'
p1058
asbasbasbag47
(g63
g49
NtRp1059
(dp1060
g52
(dp1061
sg61
g942
sg54
(lp1062
g47
(g68
g49
NtRp1063
(dp1064
g52
(dp1065
g72
g73
ssg61
g1059
sg54
(lp1066
S'debugging'
p1067
asbag47
(g68
g49
NtRp1068
(dp1069
g52
(dp1070
g79
g80
ssg61
g1059
sg54
(lp1071
S':'
asbag47
(g68
g49
NtRp1072
(dp1073
g52
(dp1074
sg61
g1059
sg54
(lp1075
g47
(g48
g49
NtRp1076
(dp1077
g52
(dp1078
g60
I4
ssg61
g1072
sg54
(lp1079
g90
asbasbasbag47
(g63
g49
NtRp1080
(dp1081
g52
(dp1082
sg61
g942
sg54
(lp1083
g47
(g68
g49
NtRp1084
(dp1085
g52
(dp1086
g72
g73
ssg61
g1080
sg54
(lp1087
S'gluon_parent'
p1088
asbag47
(g68
g49
NtRp1089
(dp1090
g52
(dp1091
g79
g80
ssg61
g1080
sg54
(lp1092
S':'
asbag47
(g68
g49
NtRp1093
(dp1094
g52
(dp1095
sg61
g1080
sg54
(lp1096
g47
(g48
g49
NtRp1097
(dp1098
g52
(dp1099
g60
I4
ssg61
g1093
sg54
(lp1100
S'/Users/abaric/Downloads/web2py/web2py.app/Contents/Resources'
p1101
asbasbasbag47
(g63
g49
NtRp1102
(dp1103
g52
(dp1104
sg61
g942
sg54
(lp1105
g47
(g68
g49
NtRp1106
(dp1107
g52
(dp1108
g72
g73
ssg61
g1102
sg54
(lp1109
S'http_accept'
p1110
asbag47
(g68
g49
NtRp1111
(dp1112
g52
(dp1113
g79
g80
ssg61
g1102
sg54
(lp1114
S':'
asbag47
(g68
g49
NtRp1115
(dp1116
g52
(dp1117
sg61
g1102
sg54
(lp1118
g47
(g48
g49
NtRp1119
(dp1120
g52
(dp1121
g60
I4
ssg61
g1115
sg54
(lp1122
S'text/html,application/xhtml+xml,application/xml;q=0.9,*/*;q=0.8'
p1123
asbasbasbag47
(g63
g49
NtRp1124
(dp1125
g52
(dp1126
sg61
g942
sg54
(lp1127
g47
(g68
g49
NtRp1128
(dp1129
g52
(dp1130
g72
g73
ssg61
g1124
sg54
(lp1131
S'http_accept_encoding'
p1132
asbag47
(g68
g49
NtRp1133
(dp1134
g52
(dp1135
g79
g80
ssg61
g1124
sg54
(lp1136
S':'
asbag47
(g68
g49
NtRp1137
(dp1138
g52
(dp1139
sg61
g1124
sg54
(lp1140
g47
(g48
g49
NtRp1141
(dp1142
g52
(dp1143
g60
I4
ssg61
g1137
sg54
(lp1144
S'gzip, deflate'
p1145
asbasbasbag47
(g63
g49
NtRp1146
(dp1147
g52
(dp1148
sg61
g942
sg54
(lp1149
g47
(g68
g49
NtRp1150
(dp1151
g52
(dp1152
g72
g73
ssg61
g1146
sg54
(lp1153
S'http_accept_language'
p1154
asbag47
(g68
g49
NtRp1155
(dp1156
g52
(dp1157
g79
g80
ssg61
g1146
sg54
(lp1158
S':'
asbag47
(g68
g49
NtRp1159
(dp1160
g52
(dp1161
sg61
g1146
sg54
(lp1162
g47
(g48
g49
NtRp1163
(dp1164
g52
(dp1165
g60
I4
ssg61
g1159
sg54
(lp1166
S'en-us'
p1167
asbasbasbag47
(g63
g49
NtRp1168
(dp1169
g52
(dp1170
sg61
g942
sg54
(lp1171
g47
(g68
g49
NtRp1172
(dp1173
g52
(dp1174
g72
g73
ssg61
g1168
sg54
(lp1175
S'http_connection'
p1176
asbag47
(g68
g49
NtRp1177
(dp1178
g52
(dp1179
g79
g80
ssg61
g1168
sg54
(lp1180
S':'
asbag47
(g68
g49
NtRp1181
(dp1182
g52
(dp1183
sg61
g1168
sg54
(lp1184
g47
(g48
g49
NtRp1185
(dp1186
g52
(dp1187
g60
I4
ssg61
g1181
sg54
(lp1188
S'keep-alive'
p1189
asbasbasbag47
(g63
g49
NtRp1190
(dp1191
g52
(dp1192
sg61
g942
sg54
(lp1193
g47
(g68
g49
NtRp1194
(dp1195
g52
(dp1196
g72
g73
ssg61
g1190
sg54
(lp1197
S'http_cookie'
p1198
asbag47
(g68
g49
NtRp1199
(dp1200
g52
(dp1201
g79
g80
ssg61
g1190
sg54
(lp1202
S':'
asbag47
(g68
g49
NtRp1203
(dp1204
g52
(dp1205
sg61
g1190
sg54
(lp1206
g47
(g48
g49
NtRp1207
(dp1208
g52
(dp1209
g60
I4
ssg61
g1203
sg54
(lp1210
S'session_id_admin=127.0.0.1-78422ea9-f684-495a-9e76-2db5117c417f; session_id_final_impulse=127.0.0.1-196d16f0-df2a-4177-8038-20bcfac6a099; session_id_course_recommendations=127.0.0.1-cb8f05e9-0587-4e87-8439-3e1e68871c8f; session_id_welcome=127.0.0.1-2aa03a6c-1012-4eea-98a7-98c4cb6a077c'
p1211
asbasbasbag47
(g63
g49
NtRp1212
(dp1213
g52
(dp1214
sg61
g942
sg54
(lp1215
g47
(g68
g49
NtRp1216
(dp1217
g52
(dp1218
g72
g73
ssg61
g1212
sg54
(lp1219
S'http_host'
p1220
asbag47
(g68
g49
NtRp1221
(dp1222
g52
(dp1223
g79
g80
ssg61
g1212
sg54
(lp1224
S':'
asbag47
(g68
g49
NtRp1225
(dp1226
g52
(dp1227
sg61
g1212
sg54
(lp1228
g47
(g48
g49
NtRp1229
(dp1230
g52
(dp1231
g60
I4
ssg61
g1225
sg54
(lp1232
S'127.0.0.1:8000'
p1233
asbasbasbag47
(g63
g49
NtRp1234
(dp1235
g52
(dp1236
sg61
g942
sg54
(lp1237
g47
(g68
g49
NtRp1238
(dp1239
g52
(dp1240
g72
g73
ssg61
g1234
sg54
(lp1241
S'http_referer'
p1242
asbag47
(g68
g49
NtRp1243
(dp1244
g52
(dp1245
g79
g80
ssg61
g1234
sg54
(lp1246
S':'
asbag47
(g68
g49
NtRp1247
(dp1248
g52
(dp1249
sg61
g1234
sg54
(lp1250
g47
(g48
g49
NtRp1251
(dp1252
g52
(dp1253
g60
I4
ssg61
g1247
sg54
(lp1254
S'http://127.0.0.1:8000/admin/default/design/Final_Impulse'
p1255
asbasbasbag47
(g63
g49
NtRp1256
(dp1257
g52
(dp1258
sg61
g942
sg54
(lp1259
g47
(g68
g49
NtRp1260
(dp1261
g52
(dp1262
g72
g73
ssg61
g1256
sg54
(lp1263
S'http_user_agent'
p1264
asbag47
(g68
g49
NtRp1265
(dp1266
g52
(dp1267
g79
g80
ssg61
g1256
sg54
(lp1268
S':'
asbag47
(g68
g49
NtRp1269
(dp1270
g52
(dp1271
sg61
g1256
sg54
(lp1272
g47
(g48
g49
NtRp1273
(dp1274
g52
(dp1275
g60
I4
ssg61
g1269
sg54
(lp1276
S'Mozilla/5.0 (Macintosh; Intel Mac OS X 10_8_4) AppleWebKit/536.30.1 (KHTML, like Gecko) Version/6.0.5 Safari/536.30.1'
p1277
asbasbasbag47
(g63
g49
NtRp1278
(dp1279
g52
(dp1280
sg61
g942
sg54
(lp1281
g47
(g68
g49
NtRp1282
(dp1283
g52
(dp1284
g72
g73
ssg61
g1278
sg54
(lp1285
S'is_jython'
p1286
asbag47
(g68
g49
NtRp1287
(dp1288
g52
(dp1289
g79
g80
ssg61
g1278
sg54
(lp1290
S':'
asbag47
(g68
g49
NtRp1291
(dp1292
g52
(dp1293
sg61
g1278
sg54
(lp1294
g47
(g48
g49
NtRp1295
(dp1296
g52
(dp1297
g60
I4
ssg61
g1291
sg54
(lp1298
g90
asbasbasbag47
(g63
g49
NtRp1299
(dp1300
g52
(dp1301
sg61
g942
sg54
(lp1302
g47
(g68
g49
NtRp1303
(dp1304
g52
(dp1305
g72
g73
ssg61
g1299
sg54
(lp1306
S'is_pypy'
p1307
asbag47
(g68
g49
NtRp1308
(dp1309
g52
(dp1310
g79
g80
ssg61
g1299
sg54
(lp1311
S':'
asbag47
(g68
g49
NtRp1312
(dp1313
g52
(dp1314
sg61
g1299
sg54
(lp1315
g47
(g48
g49
NtRp1316
(dp1317
g52
(dp1318
g60
I4
ssg61
g1312
sg54
(lp1319
g90
asbasbasbag47
(g63
g49
NtRp1320
(dp1321
g52
(dp1322
sg61
g942
sg54
(lp1323
g47
(g68
g49
NtRp1324
(dp1325
g52
(dp1326
g72
g73
ssg61
g1320
sg54
(lp1327
S'local_hosts'
p1328
asbag47
(g68
g49
NtRp1329
(dp1330
g52
(dp1331
g79
g80
ssg61
g1320
sg54
(lp1332
S':'
asbag47
(g68
g49
NtRp1333
(dp1334
g52
(dp1335
sg61
g1320
sg54
(lp1336
g47
(g48
g49
NtRp1337
(dp1338
g52
(dp1339
g60
I4
ssg61
g1333
sg54
(lp1340
g47
(g56
g49
NtRp1341
(dp1342
g52
(dp1343
g60
I3
ssg61
Nsg54
(lp1344
g47
(g63
g49
NtRp1345
(dp1346
g52
(dp1347
sg61
g1341
sg54
(lp1348
g47
(g68
g49
NtRp1349
(dp1350
g52
(dp1351
sg61
g1345
sg54
(lp1352
g47
(g48
g49
NtRp1353
(dp1354
g52
(dp1355
g60
I3
ssg61
g1349
sg54
(lp1356
S'127.0.0.1'
p1357
asbasbasbag47
(g63
g49
NtRp1358
(dp1359
g52
(dp1360
sg61
g1341
sg54
(lp1361
g47
(g68
g49
NtRp1362
(dp1363
g52
(dp1364
sg61
g1358
sg54
(lp1365
g47
(g48
g49
NtRp1366
(dp1367
g52
(dp1368
g60
I3
ssg61
g1362
sg54
(lp1369
S'::ffff:127.0.0.1'
p1370
asbasbasbag47
(g63
g49
NtRp1371
(dp1372
g52
(dp1373
sg61
g1341
sg54
(lp1374
g47
(g68
g49
NtRp1375
(dp1376
g52
(dp1377
sg61
g1371
sg54
(lp1378
g47
(g48
g49
NtRp1379
(dp1380
g52
(dp1381
g60
I3
ssg61
g1375
sg54
(lp1382
S'Andrea-Barics-MacBook-Pro.local'
p1383
asbasbasbag47
(g63
g49
NtRp1384
(dp1385
g52
(dp1386
sg61
g1341
sg54
(lp1387
g47
(g68
g49
NtRp1388
(dp1389
g52
(dp1390
sg61
g1384
sg54
(lp1391
g47
(g48
g49
NtRp1392
(dp1393
g52
(dp1394
g60
I3
ssg61
g1388
sg54
(lp1395
S'Andrea-Barics-MacBook-Pro.local'
p1396
asbasbasbag47
(g63
g49
NtRp1397
(dp1398
g52
(dp1399
sg61
g1341
sg54
(lp1400
g47
(g68
g49
NtRp1401
(dp1402
g52
(dp1403
sg61
g1397
sg54
(lp1404
g47
(g48
g49
NtRp1405
(dp1406
g52
(dp1407
g60
I3
ssg61
g1401
sg54
(lp1408
S'127.0.0.1'
p1409
asbasbasbasbasbasbasbag47
(g63
g49
NtRp1410
(dp1411
g52
(dp1412
sg61
g942
sg54
(lp1413
g47
(g68
g49
NtRp1414
(dp1415
g52
(dp1416
g72
g73
ssg61
g1410
sg54
(lp1417
S'path_info'
p1418
asbag47
(g68
g49
NtRp1419
(dp1420
g52
(dp1421
g79
g80
ssg61
g1410
sg54
(lp1422
S':'
asbag47
(g68
g49
NtRp1423
(dp1424
g52
(dp1425
sg61
g1410
sg54
(lp1426
g47
(g48
g49
NtRp1427
(dp1428
g52
(dp1429
g60
I4
ssg61
g1423
sg54
(lp1430
S'/Final_Impulse/default/index'
p1431
asbasbasbag47
(g63
g49
NtRp1432
(dp1433
g52
(dp1434
sg61
g942
sg54
(lp1435
g47
(g68
g49
NtRp1436
(dp1437
g52
(dp1438
g72
g73
ssg61
g1432
sg54
(lp1439
S'query_string'
p1440
asbag47
(g68
g49
NtRp1441
(dp1442
g52
(dp1443
g79
g80
ssg61
g1432
sg54
(lp1444
S':'
asbag47
(g68
g49
NtRp1445
(dp1446
g52
(dp1447
sg61
g1432
sg54
(lp1448
g47
(g48
g49
NtRp1449
(dp1450
g52
(dp1451
g60
I4
ssg61
g1445
sg54
(lp1452
S''
asbasbasbag47
(g63
g49
NtRp1453
(dp1454
g52
(dp1455
sg61
g942
sg54
(lp1456
g47
(g68
g49
NtRp1457
(dp1458
g52
(dp1459
g72
g73
ssg61
g1453
sg54
(lp1460
S'remote_addr'
p1461
asbag47
(g68
g49
NtRp1462
(dp1463
g52
(dp1464
g79
g80
ssg61
g1453
sg54
(lp1465
S':'
asbag47
(g68
g49
NtRp1466
(dp1467
g52
(dp1468
sg61
g1453
sg54
(lp1469
g47
(g48
g49
NtRp1470
(dp1471
g52
(dp1472
g60
I4
ssg61
g1466
sg54
(lp1473
g202
asbasbasbag47
(g63
g49
NtRp1474
(dp1475
g52
(dp1476
sg61
g942
sg54
(lp1477
g47
(g68
g49
NtRp1478
(dp1479
g52
(dp1480
g72
g73
ssg61
g1474
sg54
(lp1481
S'remote_port'
p1482
asbag47
(g68
g49
NtRp1483
(dp1484
g52
(dp1485
g79
g80
ssg61
g1474
sg54
(lp1486
S':'
asbag47
(g68
g49
NtRp1487
(dp1488
g52
(dp1489
sg61
g1474
sg54
(lp1490
g47
(g48
g49
NtRp1491
(dp1492
g52
(dp1493
g60
I4
ssg61
g1487
sg54
(lp1494
S'56583'
p1495
asbasbasbag47
(g63
g49
NtRp1496
(dp1497
g52
(dp1498
sg61
g942
sg54
(lp1499
g47
(g68
g49
NtRp1500
(dp1501
g52
(dp1502
g72
g73
ssg61
g1496
sg54
(lp1503
S'request_method'
p1504
asbag47
(g68
g49
NtRp1505
(dp1506
g52
(dp1507
g79
g80
ssg61
g1496
sg54
(lp1508
S':'
asbag47
(g68
g49
NtRp1509
(dp1510
g52
(dp1511
sg61
g1496
sg54
(lp1512
g47
(g48
g49
NtRp1513
(dp1514
g52
(dp1515
g60
I4
ssg61
g1509
sg54
(lp1516
S'GET'
p1517
asbasbasbag47
(g63
g49
NtRp1518
(dp1519
g52
(dp1520
sg61
g942
sg54
(lp1521
g47
(g68
g49
NtRp1522
(dp1523
g52
(dp1524
g72
g73
ssg61
g1518
sg54
(lp1525
S'request_uri'
p1526
asbag47
(g68
g49
NtRp1527
(dp1528
g52
(dp1529
g79
g80
ssg61
g1518
sg54
(lp1530
S':'
asbag47
(g68
g49
NtRp1531
(dp1532
g52
(dp1533
sg61
g1518
sg54
(lp1534
g47
(g48
g49
NtRp1535
(dp1536
g52
(dp1537
g60
I4
ssg61
g1531
sg54
(lp1538
g1431
asbasbasbag47
(g63
g49
NtRp1539
(dp1540
g52
(dp1541
sg61
g942
sg54
(lp1542
g47
(g68
g49
NtRp1543
(dp1544
g52
(dp1545
g72
g73
ssg61
g1539
sg54
(lp1546
S'script_name'
p1547
asbag47
(g68
g49
NtRp1548
(dp1549
g52
(dp1550
g79
g80
ssg61
g1539
sg54
(lp1551
S':'
asbag47
(g68
g49
NtRp1552
(dp1553
g52
(dp1554
sg61
g1539
sg54
(lp1555
g47
(g48
g49
NtRp1556
(dp1557
g52
(dp1558
g60
I4
ssg61
g1552
sg54
(lp1559
S''
asbasbasbag47
(g63
g49
NtRp1560
(dp1561
g52
(dp1562
sg61
g942
sg54
(lp1563
g47
(g68
g49
NtRp1564
(dp1565
g52
(dp1566
g72
g73
ssg61
g1560
sg54
(lp1567
S'server_name'
p1568
asbag47
(g68
g49
NtRp1569
(dp1570
g52
(dp1571
g79
g80
ssg61
g1560
sg54
(lp1572
S':'
asbag47
(g68
g49
NtRp1573
(dp1574
g52
(dp1575
sg61
g1560
sg54
(lp1576
g47
(g48
g49
NtRp1577
(dp1578
g52
(dp1579
g60
I4
ssg61
g1573
sg54
(lp1580
g1396
asbasbasbag47
(g63
g49
NtRp1581
(dp1582
g52
(dp1583
sg61
g942
sg54
(lp1584
g47
(g68
g49
NtRp1585
(dp1586
g52
(dp1587
g72
g73
ssg61
g1581
sg54
(lp1588
S'server_port'
p1589
asbag47
(g68
g49
NtRp1590
(dp1591
g52
(dp1592
g79
g80
ssg61
g1581
sg54
(lp1593
S':'
asbag47
(g68
g49
NtRp1594
(dp1595
g52
(dp1596
sg61
g1581
sg54
(lp1597
g47
(g48
g49
NtRp1598
(dp1599
g52
(dp1600
g60
I4
ssg61
g1594
sg54
(lp1601
S'8000'
p1602
asbasbasbag47
(g63
g49
NtRp1603
(dp1604
g52
(dp1605
sg61
g942
sg54
(lp1606
g47
(g68
g49
NtRp1607
(dp1608
g52
(dp1609
g72
g73
ssg61
g1603
sg54
(lp1610
S'server_protocol'
p1611
asbag47
(g68
g49
NtRp1612
(dp1613
g52
(dp1614
g79
g80
ssg61
g1603
sg54
(lp1615
S':'
asbag47
(g68
g49
NtRp1616
(dp1617
g52
(dp1618
sg61
g1603
sg54
(lp1619
g47
(g48
g49
NtRp1620
(dp1621
g52
(dp1622
g60
I4
ssg61
g1616
sg54
(lp1623
S'HTTP/1.1'
p1624
asbasbasbag47
(g63
g49
NtRp1625
(dp1626
g52
(dp1627
sg61
g942
sg54
(lp1628
g47
(g68
g49
NtRp1629
(dp1630
g52
(dp1631
g72
g73
ssg61
g1625
sg54
(lp1632
S'server_software'
p1633
asbag47
(g68
g49
NtRp1634
(dp1635
g52
(dp1636
g79
g80
ssg61
g1625
sg54
(lp1637
S':'
asbag47
(g68
g49
NtRp1638
(dp1639
g52
(dp1640
sg61
g1625
sg54
(lp1641
g47
(g48
g49
NtRp1642
(dp1643
g52
(dp1644
g60
I4
ssg61
g1638
sg54
(lp1645
S'Rocket 1.2.5'
p1646
asbasbasbag47
(g63
g49
NtRp1647
(dp1648
g52
(dp1649
sg61
g942
sg54
(lp1650
g47
(g68
g49
NtRp1651
(dp1652
g52
(dp1653
g72
g73
ssg61
g1647
sg54
(lp1654
S'web2py_path'
p1655
asbag47
(g68
g49
NtRp1656
(dp1657
g52
(dp1658
g79
g80
ssg61
g1647
sg54
(lp1659
S':'
asbag47
(g68
g49
NtRp1660
(dp1661
g52
(dp1662
sg61
g1647
sg54
(lp1663
g47
(g48
g49
NtRp1664
(dp1665
g52
(dp1666
g60
I4
ssg61
g1660
sg54
(lp1667
g989
asbasbasbag47
(g63
g49
NtRp1668
(dp1669
g52
(dp1670
sg61
g942
sg54
(lp1671
g47
(g68
g49
NtRp1672
(dp1673
g52
(dp1674
g72
g73
ssg61
g1668
sg54
(lp1675
S'web2py_version'
p1676
asbag47
(g68
g49
NtRp1677
(dp1678
g52
(dp1679
g79
g80
ssg61
g1668
sg54
(lp1680
S':'
asbag47
(g68
g49
NtRp1681
(dp1682
g52
(dp1683
sg61
g1668
sg54
(lp1684
g47
(g48
g49
NtRp1685
(dp1686
g52
(dp1687
g60
I4
ssg61
g1681
sg54
(lp1688
g47
(g56
g49
NtRp1689
(dp1690
g52
(dp1691
g60
I3
ssg61
Nsg54
(lp1692
g47
(g63
g49
NtRp1693
(dp1694
g52
(dp1695
sg61
g1689
sg54
(lp1696
g47
(g68
g49
NtRp1697
(dp1698
g52
(dp1699
sg61
g1693
sg54
(lp1700
g47
(g48
g49
NtRp1701
(dp1702
g52
(dp1703
g60
I3
ssg61
g1697
sg54
(lp1704
S'2'
asbasbasbag47
(g63
g49
NtRp1705
(dp1706
g52
(dp1707
sg61
g1689
sg54
(lp1708
g47
(g68
g49
NtRp1709
(dp1710
g52
(dp1711
sg61
g1705
sg54
(lp1712
g47
(g48
g49
NtRp1713
(dp1714
g52
(dp1715
g60
I3
ssg61
g1709
sg54
(lp1716
S'2'
asbasbasbag47
(g63
g49
NtRp1717
(dp1718
g52
(dp1719
sg61
g1689
sg54
(lp1720
g47
(g68
g49
NtRp1721
(dp1722
g52
(dp1723
sg61
g1717
sg54
(lp1724
g47
(g48
g49
NtRp1725
(dp1726
g52
(dp1727
g60
I3
ssg61
g1721
sg54
(lp1728
S'1'
asbasbasbag47
(g63
g49
NtRp1729
(dp1730
g52
(dp1731
sg61
g1689
sg54
(lp1732
g47
(g68
g49
NtRp1733
(dp1734
g52
(dp1735
sg61
g1729
sg54
(lp1736
g47
(g48
g49
NtRp1737
(dp1738
g52
(dp1739
g60
I3
ssg61
g1733
sg54
(lp1740
S'datetime.datetime(2012, 10, 21, 16, 57, 4)'
p1741
asbasbasbag47
(g63
g49
NtRp1742
(dp1743
g52
(dp1744
sg61
g1689
sg54
(lp1745
g47
(g68
g49
NtRp1746
(dp1747
g52
(dp1748
sg61
g1742
sg54
(lp1749
g47
(g48
g49
NtRp1750
(dp1751
g52
(dp1752
g60
I3
ssg61
g1746
sg54
(lp1753
S'stable'
p1754
asbasbasbasbasbasbasbag47
(g63
g49
NtRp1755
(dp1756
g52
(dp1757
sg61
g942
sg54
(lp1758
g47
(g68
g49
NtRp1759
(dp1760
g52
(dp1761
g72
g73
ssg61
g1755
sg54
(lp1762
S'wsgi_errors'
p1763
asbag47
(g68
g49
NtRp1764
(dp1765
g52
(dp1766
g79
g80
ssg61
g1755
sg54
(lp1767
S':'
asbag47
(g68
g49
NtRp1768
(dp1769
g52
(dp1770
sg61
g1755
sg54
(lp1771
g47
(g48
g49
NtRp1772
(dp1773
g52
(dp1774
g60
I4
ssg61
g1768
sg54
(lp1775
S"<open file '<stderr>', mode 'w' at 0x540b0>"
p1776
asbasbasbag47
(g63
g49
NtRp1777
(dp1778
g52
(dp1779
sg61
g942
sg54
(lp1780
g47
(g68
g49
NtRp1781
(dp1782
g52
(dp1783
g72
g73
ssg61
g1777
sg54
(lp1784
S'wsgi_file_wrapper'
p1785
asbag47
(g68
g49
NtRp1786
(dp1787
g52
(dp1788
g79
g80
ssg61
g1777
sg54
(lp1789
S':'
asbag47
(g68
g49
NtRp1790
(dp1791
g52
(dp1792
sg61
g1777
sg54
(lp1793
g47
(g48
g49
NtRp1794
(dp1795
g52
(dp1796
g60
I4
ssg61
g1790
sg54
(lp1797
S'<class wsgiref.util.FileWrapper at 0x45782d0>'
p1798
asbasbasbag47
(g63
g49
NtRp1799
(dp1800
g52
(dp1801
sg61
g942
sg54
(lp1802
g47
(g68
g49
NtRp1803
(dp1804
g52
(dp1805
g72
g73
ssg61
g1799
sg54
(lp1806
S'wsgi_input'
p1807
asbag47
(g68
g49
NtRp1808
(dp1809
g52
(dp1810
g79
g80
ssg61
g1799
sg54
(lp1811
S':'
asbag47
(g68
g49
NtRp1812
(dp1813
g52
(dp1814
sg61
g1799
sg54
(lp1815
g47
(g48
g49
NtRp1816
(dp1817
g52
(dp1818
g60
I4
ssg61
g1812
sg54
(lp1819
S'<socket._fileobject object at 0x767f170>'
p1820
asbasbasbag47
(g63
g49
NtRp1821
(dp1822
g52
(dp1823
sg61
g942
sg54
(lp1824
g47
(g68
g49
NtRp1825
(dp1826
g52
(dp1827
g72
g73
ssg61
g1821
sg54
(lp1828
S'wsgi_multiprocess'
p1829
asbag47
(g68
g49
NtRp1830
(dp1831
g52
(dp1832
g79
g80
ssg61
g1821
sg54
(lp1833
S':'
asbag47
(g68
g49
NtRp1834
(dp1835
g52
(dp1836
sg61
g1821
sg54
(lp1837
g47
(g48
g49
NtRp1838
(dp1839
g52
(dp1840
g60
I4
ssg61
g1834
sg54
(lp1841
g90
asbasbasbag47
(g63
g49
NtRp1842
(dp1843
g52
(dp1844
sg61
g942
sg54
(lp1845
g47
(g68
g49
NtRp1846
(dp1847
g52
(dp1848
g72
g73
ssg61
g1842
sg54
(lp1849
S'wsgi_multithread'
p1850
asbag47
(g68
g49
NtRp1851
(dp1852
g52
(dp1853
g79
g80
ssg61
g1842
sg54
(lp1854
S':'
asbag47
(g68
g49
NtRp1855
(dp1856
g52
(dp1857
sg61
g1842
sg54
(lp1858
g47
(g48
g49
NtRp1859
(dp1860
g52
(dp1861
g60
I4
ssg61
g1855
sg54
(lp1862
S'True'
p1863
asbasbasbag47
(g63
g49
NtRp1864
(dp1865
g52
(dp1866
sg61
g942
sg54
(lp1867
g47
(g68
g49
NtRp1868
(dp1869
g52
(dp1870
g72
g73
ssg61
g1864
sg54
(lp1871
S'wsgi_run_once'
p1872
asbag47
(g68
g49
NtRp1873
(dp1874
g52
(dp1875
g79
g80
ssg61
g1864
sg54
(lp1876
S':'
asbag47
(g68
g49
NtRp1877
(dp1878
g52
(dp1879
sg61
g1864
sg54
(lp1880
g47
(g48
g49
NtRp1881
(dp1882
g52
(dp1883
g60
I4
ssg61
g1877
sg54
(lp1884
g90
asbasbasbag47
(g63
g49
NtRp1885
(dp1886
g52
(dp1887
sg61
g942
sg54
(lp1888
g47
(g68
g49
NtRp1889
(dp1890
g52
(dp1891
g72
g73
ssg61
g1885
sg54
(lp1892
S'wsgi_url_scheme'
p1893
asbag47
(g68
g49
NtRp1894
(dp1895
g52
(dp1896
g79
g80
ssg61
g1885
sg54
(lp1897
S':'
asbag47
(g68
g49
NtRp1898
(dp1899
g52
(dp1900
sg61
g1885
sg54
(lp1901
g47
(g48
g49
NtRp1902
(dp1903
g52
(dp1904
g60
I4
ssg61
g1898
sg54
(lp1905
S'http'
p1906
asbasbasbag47
(g63
g49
NtRp1907
(dp1908
g52
(dp1909
sg61
g942
sg54
(lp1910
g47
(g68
g49
NtRp1911
(dp1912
g52
(dp1913
g72
g73
ssg61
g1907
sg54
(lp1914
S'wsgi_version'
p1915
asbag47
(g68
g49
NtRp1916
(dp1917
g52
(dp1918
g79
g80
ssg61
g1907
sg54
(lp1919
S':'
asbag47
(g68
g49
NtRp1920
(dp1921
g52
(dp1922
sg61
g1907
sg54
(lp1923
g47
(g48
g49
NtRp1924
(dp1925
g52
(dp1926
g60
I4
ssg61
g1920
sg54
(lp1927
g47
(g56
g49
NtRp1928
(dp1929
g52
(dp1930
g60
I3
ssg61
Nsg54
(lp1931
g47
(g63
g49
NtRp1932
(dp1933
g52
(dp1934
sg61
g1928
sg54
(lp1935
g47
(g68
g49
NtRp1936
(dp1937
g52
(dp1938
sg61
g1932
sg54
(lp1939
g47
(g48
g49
NtRp1940
(dp1941
g52
(dp1942
g60
I3
ssg61
g1936
sg54
(lp1943
S'1'
asbasbasbag47
(g63
g49
NtRp1944
(dp1945
g52
(dp1946
sg61
g1928
sg54
(lp1947
g47
(g68
g49
NtRp1948
(dp1949
g52
(dp1950
sg61
g1944
sg54
(lp1951
g47
(g48
g49
NtRp1952
(dp1953
g52
(dp1954
g60
I3
ssg61
g1948
sg54
(lp1955
S'0'
asbasbasbasbasbasbasbasbasbasbasbag47
(g63
g49
NtRp1956
(dp1957
g52
(dp1958
sg61
g57
sg54
(lp1959
g47
(g68
g49
NtRp1960
(dp1961
g52
(dp1962
g72
g73
ssg61
g1956
sg54
(lp1963
S'extension'
p1964
asbag47
(g68
g49
NtRp1965
(dp1966
g52
(dp1967
g79
g80
ssg61
g1956
sg54
(lp1968
S':'
asbag47
(g68
g49
NtRp1969
(dp1970
g52
(dp1971
sg61
g1956
sg54
(lp1972
g47
(g48
g49
NtRp1973
(dp1974
g52
(dp1975
g60
I5
ssg61
g1969
sg54
(lp1976
S'html'
p1977
asbasbasbag47
(g63
g49
NtRp1978
(dp1979
g52
(dp1980
sg61
g57
sg54
(lp1981
g47
(g68
g49
NtRp1982
(dp1983
g52
(dp1984
g72
g73
ssg61
g1978
sg54
(lp1985
S'folder'
p1986
asbag47
(g68
g49
NtRp1987
(dp1988
g52
(dp1989
g79
g80
ssg61
g1978
sg54
(lp1990
S':'
asbag47
(g68
g49
NtRp1991
(dp1992
g52
(dp1993
sg61
g1978
sg54
(lp1994
g47
(g48
g49
NtRp1995
(dp1996
g52
(dp1997
g60
I5
ssg61
g1991
sg54
(lp1998
S'/Users/abaric/Downloads/web2py/web2py.app/Contents/Resources/applications/Final_Impulse/'
p1999
asbasbasbag47
(g63
g49
NtRp2000
(dp2001
g52
(dp2002
sg61
g57
sg54
(lp2003
g47
(g68
g49
NtRp2004
(dp2005
g52
(dp2006
g72
g73
ssg61
g2000
sg54
(lp2007
S'function'
p2008
asbag47
(g68
g49
NtRp2009
(dp2010
g52
(dp2011
g79
g80
ssg61
g2000
sg54
(lp2012
S':'
asbag47
(g68
g49
NtRp2013
(dp2014
g52
(dp2015
sg61
g2000
sg54
(lp2016
g47
(g48
g49
NtRp2017
(dp2018
g52
(dp2019
g60
I5
ssg61
g2013
sg54
(lp2020
S'index'
p2021
asbasbasbag47
(g63
g49
NtRp2022
(dp2023
g52
(dp2024
sg61
g57
sg54
(lp2025
g47
(g68
g49
NtRp2026
(dp2027
g52
(dp2028
g72
g73
ssg61
g2022
sg54
(lp2029
S'get_vars'
p2030
asbag47
(g68
g49
NtRp2031
(dp2032
g52
(dp2033
g79
g80
ssg61
g2022
sg54
(lp2034
S':'
asbag47
(g68
g49
NtRp2035
(dp2036
g52
(dp2037
sg61
g2022
sg54
(lp2038
g47
(g48
g49
NtRp2039
(dp2040
g52
(dp2041
g60
I5
ssg61
g2035
sg54
(lp2042
g47
(g56
g49
NtRp2043
(dp2044
g52
(dp2045
g60
I4
ssg61
Nsg54
(lp2046
sbasbasbasbag47
(g63
g49
NtRp2047
(dp2048
g52
(dp2049
sg61
g57
sg54
(lp2050
g47
(g68
g49
NtRp2051
(dp2052
g52
(dp2053
g72
g73
ssg61
g2047
sg54
(lp2054
S'global_settings'
p2055
asbag47
(g68
g49
NtRp2056
(dp2057
g52
(dp2058
g79
g80
ssg61
g2047
sg54
(lp2059
S':'
asbag47
(g68
g49
NtRp2060
(dp2061
g52
(dp2062
sg61
g2047
sg54
(lp2063
g47
(g48
g49
NtRp2064
(dp2065
g52
(dp2066
g60
I5
ssg61
g2060
sg54
(lp2067
g47
(g56
g49
NtRp2068
(dp2069
g52
(dp2070
g60
I4
ssg61
Nsg54
(lp2071
g47
(g63
g49
NtRp2072
(dp2073
g52
(dp2074
sg61
g2068
sg54
(lp2075
g47
(g68
g49
NtRp2076
(dp2077
g52
(dp2078
g72
g73
ssg61
g2072
sg54
(lp2079
g954
asbag47
(g68
g49
NtRp2080
(dp2081
g52
(dp2082
g79
g80
ssg61
g2072
sg54
(lp2083
S':'
asbag47
(g68
g49
NtRp2084
(dp2085
g52
(dp2086
sg61
g2072
sg54
(lp2087
g47
(g48
g49
NtRp2088
(dp2089
g52
(dp2090
g60
I4
ssg61
g2084
sg54
(lp2091
S"set(['/Users/abaric/Downloads/web2py/web2py.app/Contents/Resources/applications/examples/', '/Users/abaric/Downloads/web2py/web2py.app/Contents/Resources/applications/Final_Impulse/', '/Users/abaric/Downloads/web2py/web2py.app/Contents/Resources/applications/Course_Recommendations/', '/Users/abaric/Downloads/web2py/web2py.app/Contents/Resources/applications/welcome/', '/Users/abaric/Downloads/web2py/web2py.app/Contents/Resources/applications/admin/'])"
p2092
asbasbasbag47
(g63
g49
NtRp2093
(dp2094
g52
(dp2095
sg61
g2068
sg54
(lp2096
g47
(g68
g49
NtRp2097
(dp2098
g52
(dp2099
g72
g73
ssg61
g2093
sg54
(lp2100
g976
asbag47
(g68
g49
NtRp2101
(dp2102
g52
(dp2103
g79
g80
ssg61
g2093
sg54
(lp2104
S':'
asbag47
(g68
g49
NtRp2105
(dp2106
g52
(dp2107
sg61
g2093
sg54
(lp2108
g47
(g48
g49
NtRp2109
(dp2110
g52
(dp2111
g60
I4
ssg61
g2105
sg54
(lp2112
g989
asbasbasbag47
(g63
g49
NtRp2113
(dp2114
g52
(dp2115
sg61
g2068
sg54
(lp2116
g47
(g68
g49
NtRp2117
(dp2118
g52
(dp2119
g72
g73
ssg61
g2113
sg54
(lp2120
g998
asbag47
(g68
g49
NtRp2121
(dp2122
g52
(dp2123
g79
g80
ssg61
g2113
sg54
(lp2124
S':'
asbag47
(g68
g49
NtRp2125
(dp2126
g52
(dp2127
sg61
g2113
sg54
(lp2128
g47
(g48
g49
NtRp2129
(dp2130
g52
(dp2131
g60
I4
ssg61
g2125
sg54
(lp2132
g47
(g56
g49
NtRp2133
(dp2134
g52
(dp2135
g60
I3
ssg61
Nsg54
(lp2136
sbasbasbasbag47
(g63
g49
NtRp2137
(dp2138
g52
(dp2139
sg61
g2068
sg54
(lp2140
g47
(g68
g49
NtRp2141
(dp2142
g52
(dp2143
g72
g73
ssg61
g2137
sg54
(lp2144
g1023
asbag47
(g68
g49
NtRp2145
(dp2146
g52
(dp2147
g79
g80
ssg61
g2137
sg54
(lp2148
S':'
asbag47
(g68
g49
NtRp2149
(dp2150
g52
(dp2151
sg61
g2137
sg54
(lp2152
g47
(g48
g49
NtRp2153
(dp2154
g52
(dp2155
g60
I4
ssg61
g2149
sg54
(lp2156
S"<Values at 0x43bc1c0: {'verbose': False, 'ip': '127.0.0.1', 'with_scheduler': False, 'ips': [], 'shutdown_timeout': 5, 'taskbar': False, 'port': 8000, 'maxthreads': None, 'softcron': False, 'server_name': 'Andrea-Barics-MacBook-Pro.local', 'bpython': False, 'nogui': False, 'pid_filename': 'httpserver.pid', 'extcron': False, 'runcron': False, 'run_system_tests': False, 'test': None, 'folder': '/Users/abaric/Downloads/web2py/web2py.app/Contents/Resources', 'config': '', 'import_models': False, 'winservice': '', 'shell': None, 'run': '', 'log_filename': 'httpserver.log', 'debuglevel': 30, 'args': [''], 'socket_timeout': 5, 'ssl_ca_certificate': None, 'scheduler': None, 'profiler_filename': None, 'ssl_private_key': '', 'scheduler_groups': None, 'password': '<ask>', 'request_queue_size': 5, 'ssl_certificate': '', 'cronjob': False, 'numthreads': None, 'quiet': False, 'interfaces': None, 'minthreads': None, 'timeout': 10, 'plain': False, 'nobanner': False}>"
p2157
asbasbasbag47
(g63
g49
NtRp2158
(dp2159
g52
(dp2160
sg61
g2068
sg54
(lp2161
g47
(g68
g49
NtRp2162
(dp2163
g52
(dp2164
g72
g73
ssg61
g2158
sg54
(lp2165
g1045
asbag47
(g68
g49
NtRp2166
(dp2167
g52
(dp2168
g79
g80
ssg61
g2158
sg54
(lp2169
S':'
asbag47
(g68
g49
NtRp2170
(dp2171
g52
(dp2172
sg61
g2158
sg54
(lp2173
g47
(g48
g49
NtRp2174
(dp2175
g52
(dp2176
g60
I4
ssg61
g2170
sg54
(lp2177
S'set([])'
p2178
asbasbasbag47
(g63
g49
NtRp2179
(dp2180
g52
(dp2181
sg61
g2068
sg54
(lp2182
g47
(g68
g49
NtRp2183
(dp2184
g52
(dp2185
g72
g73
ssg61
g2179
sg54
(lp2186
g1067
asbag47
(g68
g49
NtRp2187
(dp2188
g52
(dp2189
g79
g80
ssg61
g2179
sg54
(lp2190
S':'
asbag47
(g68
g49
NtRp2191
(dp2192
g52
(dp2193
sg61
g2179
sg54
(lp2194
g47
(g48
g49
NtRp2195
(dp2196
g52
(dp2197
g60
I4
ssg61
g2191
sg54
(lp2198
g90
asbasbasbag47
(g63
g49
NtRp2199
(dp2200
g52
(dp2201
sg61
g2068
sg54
(lp2202
g47
(g68
g49
NtRp2203
(dp2204
g52
(dp2205
g72
g73
ssg61
g2199
sg54
(lp2206
g1088
asbag47
(g68
g49
NtRp2207
(dp2208
g52
(dp2209
g79
g80
ssg61
g2199
sg54
(lp2210
S':'
asbag47
(g68
g49
NtRp2211
(dp2212
g52
(dp2213
sg61
g2199
sg54
(lp2214
g47
(g48
g49
NtRp2215
(dp2216
g52
(dp2217
g60
I4
ssg61
g2211
sg54
(lp2218
g1101
asbasbasbag47
(g63
g49
NtRp2219
(dp2220
g52
(dp2221
sg61
g2068
sg54
(lp2222
g47
(g68
g49
NtRp2223
(dp2224
g52
(dp2225
g72
g73
ssg61
g2219
sg54
(lp2226
g1286
asbag47
(g68
g49
NtRp2227
(dp2228
g52
(dp2229
g79
g80
ssg61
g2219
sg54
(lp2230
S':'
asbag47
(g68
g49
NtRp2231
(dp2232
g52
(dp2233
sg61
g2219
sg54
(lp2234
g47
(g48
g49
NtRp2235
(dp2236
g52
(dp2237
g60
I4
ssg61
g2231
sg54
(lp2238
g90
asbasbasbag47
(g63
g49
NtRp2239
(dp2240
g52
(dp2241
sg61
g2068
sg54
(lp2242
g47
(g68
g49
NtRp2243
(dp2244
g52
(dp2245
g72
g73
ssg61
g2239
sg54
(lp2246
g1307
asbag47
(g68
g49
NtRp2247
(dp2248
g52
(dp2249
g79
g80
ssg61
g2239
sg54
(lp2250
S':'
asbag47
(g68
g49
NtRp2251
(dp2252
g52
(dp2253
sg61
g2239
sg54
(lp2254
g47
(g48
g49
NtRp2255
(dp2256
g52
(dp2257
g60
I4
ssg61
g2251
sg54
(lp2258
g90
asbasbasbag47
(g63
g49
NtRp2259
(dp2260
g52
(dp2261
sg61
g2068
sg54
(lp2262
g47
(g68
g49
NtRp2263
(dp2264
g52
(dp2265
g72
g73
ssg61
g2259
sg54
(lp2266
g1328
asbag47
(g68
g49
NtRp2267
(dp2268
g52
(dp2269
g79
g80
ssg61
g2259
sg54
(lp2270
S':'
asbag47
(g68
g49
NtRp2271
(dp2272
g52
(dp2273
sg61
g2259
sg54
(lp2274
g47
(g48
g49
NtRp2275
(dp2276
g52
(dp2277
g60
I4
ssg61
g2271
sg54
(lp2278
g47
(g56
g49
NtRp2279
(dp2280
g52
(dp2281
g60
I3
ssg61
Nsg54
(lp2282
g47
(g63
g49
NtRp2283
(dp2284
g52
(dp2285
sg61
g2279
sg54
(lp2286
g47
(g68
g49
NtRp2287
(dp2288
g52
(dp2289
sg61
g2283
sg54
(lp2290
g47
(g48
g49
NtRp2291
(dp2292
g52
(dp2293
g60
I3
ssg61
g2287
sg54
(lp2294
g1357
asbasbasbag47
(g63
g49
NtRp2295
(dp2296
g52
(dp2297
sg61
g2279
sg54
(lp2298
g47
(g68
g49
NtRp2299
(dp2300
g52
(dp2301
sg61
g2295
sg54
(lp2302
g47
(g48
g49
NtRp2303
(dp2304
g52
(dp2305
g60
I3
ssg61
g2299
sg54
(lp2306
g1370
asbasbasbag47
(g63
g49
NtRp2307
(dp2308
g52
(dp2309
sg61
g2279
sg54
(lp2310
g47
(g68
g49
NtRp2311
(dp2312
g52
(dp2313
sg61
g2307
sg54
(lp2314
g47
(g48
g49
NtRp2315
(dp2316
g52
(dp2317
g60
I3
ssg61
g2311
sg54
(lp2318
g1383
asbasbasbag47
(g63
g49
NtRp2319
(dp2320
g52
(dp2321
sg61
g2279
sg54
(lp2322
g47
(g68
g49
NtRp2323
(dp2324
g52
(dp2325
sg61
g2319
sg54
(lp2326
g47
(g48
g49
NtRp2327
(dp2328
g52
(dp2329
g60
I3
ssg61
g2323
sg54
(lp2330
g1396
asbasbasbag47
(g63
g49
NtRp2331
(dp2332
g52
(dp2333
sg61
g2279
sg54
(lp2334
g47
(g68
g49
NtRp2335
(dp2336
g52
(dp2337
sg61
g2331
sg54
(lp2338
g47
(g48
g49
NtRp2339
(dp2340
g52
(dp2341
g60
I3
ssg61
g2335
sg54
(lp2342
g1409
asbasbasbasbasbasbasbag47
(g63
g49
NtRp2343
(dp2344
g52
(dp2345
sg61
g2068
sg54
(lp2346
g47
(g68
g49
NtRp2347
(dp2348
g52
(dp2349
g72
g73
ssg61
g2343
sg54
(lp2350
g1676
asbag47
(g68
g49
NtRp2351
(dp2352
g52
(dp2353
g79
g80
ssg61
g2343
sg54
(lp2354
S':'
asbag47
(g68
g49
NtRp2355
(dp2356
g52
(dp2357
sg61
g2343
sg54
(lp2358
g47
(g48
g49
NtRp2359
(dp2360
g52
(dp2361
g60
I4
ssg61
g2355
sg54
(lp2362
g47
(g56
g49
NtRp2363
(dp2364
g52
(dp2365
g60
I3
ssg61
Nsg54
(lp2366
g47
(g63
g49
NtRp2367
(dp2368
g52
(dp2369
sg61
g2363
sg54
(lp2370
g47
(g68
g49
NtRp2371
(dp2372
g52
(dp2373
sg61
g2367
sg54
(lp2374
g47
(g48
g49
NtRp2375
(dp2376
g52
(dp2377
g60
I3
ssg61
g2371
sg54
(lp2378
S'2'
asbasbasbag47
(g63
g49
NtRp2379
(dp2380
g52
(dp2381
sg61
g2363
sg54
(lp2382
g47
(g68
g49
NtRp2383
(dp2384
g52
(dp2385
sg61
g2379
sg54
(lp2386
g47
(g48
g49
NtRp2387
(dp2388
g52
(dp2389
g60
I3
ssg61
g2383
sg54
(lp2390
S'2'
asbasbasbag47
(g63
g49
NtRp2391
(dp2392
g52
(dp2393
sg61
g2363
sg54
(lp2394
g47
(g68
g49
NtRp2395
(dp2396
g52
(dp2397
sg61
g2391
sg54
(lp2398
g47
(g48
g49
NtRp2399
(dp2400
g52
(dp2401
g60
I3
ssg61
g2395
sg54
(lp2402
S'1'
asbasbasbag47
(g63
g49
NtRp2403
(dp2404
g52
(dp2405
sg61
g2363
sg54
(lp2406
g47
(g68
g49
NtRp2407
(dp2408
g52
(dp2409
sg61
g2403
sg54
(lp2410
g47
(g48
g49
NtRp2411
(dp2412
g52
(dp2413
g60
I3
ssg61
g2407
sg54
(lp2414
S'datetime.datetime(2012, 10, 21, 16, 57, 4)'
p2415
asbasbasbag47
(g63
g49
NtRp2416
(dp2417
g52
(dp2418
sg61
g2363
sg54
(lp2419
g47
(g68
g49
NtRp2420
(dp2421
g52
(dp2422
sg61
g2416
sg54
(lp2423
g47
(g48
g49
NtRp2424
(dp2425
g52
(dp2426
g60
I3
ssg61
g2420
sg54
(lp2427
g1754
asbasbasbasbasbasbasbasbasbasbasbag47
(g63
g49
NtRp2428
(dp2429
g52
(dp2430
sg61
g57
sg54
(lp2431
g47
(g68
g49
NtRp2432
(dp2433
g52
(dp2434
g72
g73
ssg61
g2428
sg54
(lp2435
S'is_https'
p2436
asbag47
(g68
g49
NtRp2437
(dp2438
g52
(dp2439
g79
g80
ssg61
g2428
sg54
(lp2440
S':'
asbag47
(g68
g49
NtRp2441
(dp2442
g52
(dp2443
sg61
g2428
sg54
(lp2444
g47
(g48
g49
NtRp2445
(dp2446
g52
(dp2447
g60
I5
ssg61
g2441
sg54
(lp2448
g90
asbasbasbag47
(g63
g49
NtRp2449
(dp2450
g52
(dp2451
sg61
g57
sg54
(lp2452
g47
(g68
g49
NtRp2453
(dp2454
g52
(dp2455
g72
g73
ssg61
g2449
sg54
(lp2456
S'is_local'
p2457
asbag47
(g68
g49
NtRp2458
(dp2459
g52
(dp2460
g79
g80
ssg61
g2449
sg54
(lp2461
S':'
asbag47
(g68
g49
NtRp2462
(dp2463
g52
(dp2464
sg61
g2449
sg54
(lp2465
g47
(g48
g49
NtRp2466
(dp2467
g52
(dp2468
g60
I5
ssg61
g2462
sg54
(lp2469
g1863
asbasbasbag47
(g63
g49
NtRp2470
(dp2471
g52
(dp2472
sg61
g57
sg54
(lp2473
g47
(g68
g49
NtRp2474
(dp2475
g52
(dp2476
g72
g73
ssg61
g2470
sg54
(lp2477
S'is_restful'
p2478
asbag47
(g68
g49
NtRp2479
(dp2480
g52
(dp2481
g79
g80
ssg61
g2470
sg54
(lp2482
S':'
asbag47
(g68
g49
NtRp2483
(dp2484
g52
(dp2485
sg61
g2470
sg54
(lp2486
g47
(g48
g49
NtRp2487
(dp2488
g52
(dp2489
g60
I5
ssg61
g2483
sg54
(lp2490
g90
asbasbasbag47
(g63
g49
NtRp2491
(dp2492
g52
(dp2493
sg61
g57
sg54
(lp2494
g47
(g68
g49
NtRp2495
(dp2496
g52
(dp2497
g72
g73
ssg61
g2491
sg54
(lp2498
S'now'
p2499
asbag47
(g68
g49
NtRp2500
(dp2501
g52
(dp2502
g79
g80
ssg61
g2491
sg54
(lp2503
S':'
asbag47
(g68
g49
NtRp2504
(dp2505
g52
(dp2506
sg61
g2491
sg54
(lp2507
g47
(g48
g49
NtRp2508
(dp2509
g52
(dp2510
g60
I5
ssg61
g2504
sg54
(lp2511
S'datetime.datetime(2014, 6, 9, 9, 38, 30, 641250)'
p2512
asbasbasbag47
(g63
g49
NtRp2513
(dp2514
g52
(dp2515
sg61
g57
sg54
(lp2516
g47
(g68
g49
NtRp2517
(dp2518
g52
(dp2519
g72
g73
ssg61
g2513
sg54
(lp2520
S'post_vars'
p2521
asbag47
(g68
g49
NtRp2522
(dp2523
g52
(dp2524
g79
g80
ssg61
g2513
sg54
(lp2525
S':'
asbag47
(g68
g49
NtRp2526
(dp2527
g52
(dp2528
sg61
g2513
sg54
(lp2529
g47
(g48
g49
NtRp2530
(dp2531
g52
(dp2532
g60
I5
ssg61
g2526
sg54
(lp2533
g47
(g56
g49
NtRp2534
(dp2535
g52
(dp2536
g60
I4
ssg61
Nsg54
(lp2537
sbasbasbasbag47
(g63
g49
NtRp2538
(dp2539
g52
(dp2540
sg61
g57
sg54
(lp2541
g47
(g68
g49
NtRp2542
(dp2543
g52
(dp2544
g72
g73
ssg61
g2538
sg54
(lp2545
S'raw_args'
p2546
asbag47
(g68
g49
NtRp2547
(dp2548
g52
(dp2549
g79
g80
ssg61
g2538
sg54
(lp2550
S':'
asbag47
(g68
g49
NtRp2551
(dp2552
g52
(dp2553
sg61
g2538
sg54
(lp2554
g47
(g48
g49
NtRp2555
(dp2556
g52
(dp2557
g60
I5
ssg61
g2551
sg54
(lp2558
S''
asbasbasbag47
(g63
g49
NtRp2559
(dp2560
g52
(dp2561
sg61
g57
sg54
(lp2562
g47
(g68
g49
NtRp2563
(dp2564
g52
(dp2565
g72
g73
ssg61
g2559
sg54
(lp2566
S'raw_extension'
p2567
asbag47
(g68
g49
NtRp2568
(dp2569
g52
(dp2570
g79
g80
ssg61
g2559
sg54
(lp2571
S':'
asbag47
(g68
g49
NtRp2572
(dp2573
g52
(dp2574
sg61
g2559
sg54
(lp2575
g47
(g48
g49
NtRp2576
(dp2577
g52
(dp2578
g60
I5
ssg61
g2572
sg54
(lp2579
S'None'
p2580
asbasbasbag47
(g63
g49
NtRp2581
(dp2582
g52
(dp2583
sg61
g57
sg54
(lp2584
g47
(g68
g49
NtRp2585
(dp2586
g52
(dp2587
g72
g73
ssg61
g2581
sg54
(lp2588
S'url'
p2589
asbag47
(g68
g49
NtRp2590
(dp2591
g52
(dp2592
g79
g80
ssg61
g2581
sg54
(lp2593
S':'
asbag47
(g68
g49
NtRp2594
(dp2595
g52
(dp2596
sg61
g2581
sg54
(lp2597
g47
(g48
g49
NtRp2598
(dp2599
g52
(dp2600
g60
I5
ssg61
g2594
sg54
(lp2601
g1431
asbasbasbag47
(g63
g49
NtRp2602
(dp2603
g52
(dp2604
sg61
g57
sg54
(lp2605
g47
(g68
g49
NtRp2606
(dp2607
g52
(dp2608
g72
g73
ssg61
g2602
sg54
(lp2609
S'utcnow'
p2610
asbag47
(g68
g49
NtRp2611
(dp2612
g52
(dp2613
g79
g80
ssg61
g2602
sg54
(lp2614
S':'
asbag47
(g68
g49
NtRp2615
(dp2616
g52
(dp2617
sg61
g2602
sg54
(lp2618
g47
(g48
g49
NtRp2619
(dp2620
g52
(dp2621
g60
I5
ssg61
g2615
sg54
(lp2622
S'datetime.datetime(2014, 6, 9, 13, 38, 30, 641260)'
p2623
asbasbasbag47
(g63
g49
NtRp2624
(dp2625
g52
(dp2626
sg61
g57
sg54
(lp2627
g47
(g68
g49
NtRp2628
(dp2629
g52
(dp2630
g72
g73
ssg61
g2624
sg54
(lp2631
S'uuid'
p2632
asbag47
(g68
g49
NtRp2633
(dp2634
g52
(dp2635
g79
g80
ssg61
g2624
sg54
(lp2636
S':'
asbag47
(g68
g49
NtRp2637
(dp2638
g52
(dp2639
sg61
g2624
sg54
(lp2640
g47
(g48
g49
NtRp2641
(dp2642
g52
(dp2643
g60
I5
ssg61
g2637
sg54
(lp2644
S'Final_Impulse/127.0.0.1.2014-06-09.09-38-30.7b6da77d-7792-43a8-bf75-3c11aeabcf32'
p2645
asbasbasbag47
(g63
g49
NtRp2646
(dp2647
g52
(dp2648
sg61
g57
sg54
(lp2649
g47
(g68
g49
NtRp2650
(dp2651
g52
(dp2652
g72
g73
ssg61
g2646
sg54
(lp2653
S'vars'
p2654
asbag47
(g68
g49
NtRp2655
(dp2656
g52
(dp2657
g79
g80
ssg61
g2646
sg54
(lp2658
S':'
asbag47
(g68
g49
NtRp2659
(dp2660
g52
(dp2661
sg61
g2646
sg54
(lp2662
g47
(g48
g49
NtRp2663
(dp2664
g52
(dp2665
g60
I5
ssg61
g2659
sg54
(lp2666
g47
(g56
g49
NtRp2667
(dp2668
g52
(dp2669
g60
I4
ssg61
Nsg54
(lp2670
sbasbasbasbag47
(g63
g49
NtRp2671
(dp2672
g52
(dp2673
sg61
g57
sg54
(lp2674
g47
(g68
g49
NtRp2675
(dp2676
g52
(dp2677
g72
g73
ssg61
g2671
sg54
(lp2678
S'wsgi'
p2679
asbag47
(g68
g49
NtRp2680
(dp2681
g52
(dp2682
g79
g80
ssg61
g2671
sg54
(lp2683
S':'
asbag47
(g68
g49
NtRp2684
(dp2685
g52
(dp2686
sg61
g2671
sg54
(lp2687
g47
(g48
g49
NtRp2688
(dp2689
g52
(dp2690
g60
I5
ssg61
g2684
sg54
(lp2691
g47
(g56
g49
NtRp2692
(dp2693
g52
(dp2694
g60
I4
ssg61
Nsg54
(lp2695
g47
(g63
g49
NtRp2696
(dp2697
g52
(dp2698
sg61
g2692
sg54
(lp2699
g47
(g68
g49
NtRp2700
(dp2701
g52
(dp2702
g72
g73
ssg61
g2696
sg54
(lp2703
S'environ'
p2704
asbag47
(g68
g49
NtRp2705
(dp2706
g52
(dp2707
g79
g80
ssg61
g2696
sg54
(lp2708
S':'
asbag47
(g68
g49
NtRp2709
(dp2710
g52
(dp2711
sg61
g2696
sg54
(lp2712
g47
(g48
g49
NtRp2713
(dp2714
g52
(dp2715
g60
I4
ssg61
g2709
sg54
(lp2716
g47
(g56
g49
NtRp2717
(dp2718
g52
(dp2719
g60
I3
ssg61
Nsg54
(lp2720
g47
(g63
g49
NtRp2721
(dp2722
g52
(dp2723
sg61
g2717
sg54
(lp2724
g47
(g68
g49
NtRp2725
(dp2726
g52
(dp2727
g72
g73
ssg61
g2721
sg54
(lp2728
S'HTTP_ACCEPT'
p2729
asbag47
(g68
g49
NtRp2730
(dp2731
g52
(dp2732
g79
g80
ssg61
g2721
sg54
(lp2733
S':'
asbag47
(g68
g49
NtRp2734
(dp2735
g52
(dp2736
sg61
g2721
sg54
(lp2737
g47
(g48
g49
NtRp2738
(dp2739
g52
(dp2740
g60
I3
ssg61
g2734
sg54
(lp2741
g1123
asbasbasbag47
(g63
g49
NtRp2742
(dp2743
g52
(dp2744
sg61
g2717
sg54
(lp2745
g47
(g68
g49
NtRp2746
(dp2747
g52
(dp2748
g72
g73
ssg61
g2742
sg54
(lp2749
S'HTTP_ACCEPT_ENCODING'
p2750
asbag47
(g68
g49
NtRp2751
(dp2752
g52
(dp2753
g79
g80
ssg61
g2742
sg54
(lp2754
S':'
asbag47
(g68
g49
NtRp2755
(dp2756
g52
(dp2757
sg61
g2742
sg54
(lp2758
g47
(g48
g49
NtRp2759
(dp2760
g52
(dp2761
g60
I3
ssg61
g2755
sg54
(lp2762
g1145
asbasbasbag47
(g63
g49
NtRp2763
(dp2764
g52
(dp2765
sg61
g2717
sg54
(lp2766
g47
(g68
g49
NtRp2767
(dp2768
g52
(dp2769
g72
g73
ssg61
g2763
sg54
(lp2770
S'HTTP_ACCEPT_LANGUAGE'
p2771
asbag47
(g68
g49
NtRp2772
(dp2773
g52
(dp2774
g79
g80
ssg61
g2763
sg54
(lp2775
S':'
asbag47
(g68
g49
NtRp2776
(dp2777
g52
(dp2778
sg61
g2763
sg54
(lp2779
g47
(g48
g49
NtRp2780
(dp2781
g52
(dp2782
g60
I3
ssg61
g2776
sg54
(lp2783
g1167
asbasbasbag47
(g63
g49
NtRp2784
(dp2785
g52
(dp2786
sg61
g2717
sg54
(lp2787
g47
(g68
g49
NtRp2788
(dp2789
g52
(dp2790
g72
g73
ssg61
g2784
sg54
(lp2791
S'HTTP_CONNECTION'
p2792
asbag47
(g68
g49
NtRp2793
(dp2794
g52
(dp2795
g79
g80
ssg61
g2784
sg54
(lp2796
S':'
asbag47
(g68
g49
NtRp2797
(dp2798
g52
(dp2799
sg61
g2784
sg54
(lp2800
g47
(g48
g49
NtRp2801
(dp2802
g52
(dp2803
g60
I3
ssg61
g2797
sg54
(lp2804
g1189
asbasbasbag47
(g63
g49
NtRp2805
(dp2806
g52
(dp2807
sg61
g2717
sg54
(lp2808
g47
(g68
g49
NtRp2809
(dp2810
g52
(dp2811
g72
g73
ssg61
g2805
sg54
(lp2812
S'HTTP_COOKIE'
p2813
asbag47
(g68
g49
NtRp2814
(dp2815
g52
(dp2816
g79
g80
ssg61
g2805
sg54
(lp2817
S':'
asbag47
(g68
g49
NtRp2818
(dp2819
g52
(dp2820
sg61
g2805
sg54
(lp2821
g47
(g48
g49
NtRp2822
(dp2823
g52
(dp2824
g60
I3
ssg61
g2818
sg54
(lp2825
g1211
asbasbasbag47
(g63
g49
NtRp2826
(dp2827
g52
(dp2828
sg61
g2717
sg54
(lp2829
g47
(g68
g49
NtRp2830
(dp2831
g52
(dp2832
g72
g73
ssg61
g2826
sg54
(lp2833
S'HTTP_HOST'
p2834
asbag47
(g68
g49
NtRp2835
(dp2836
g52
(dp2837
g79
g80
ssg61
g2826
sg54
(lp2838
S':'
asbag47
(g68
g49
NtRp2839
(dp2840
g52
(dp2841
sg61
g2826
sg54
(lp2842
g47
(g48
g49
NtRp2843
(dp2844
g52
(dp2845
g60
I3
ssg61
g2839
sg54
(lp2846
g1233
asbasbasbag47
(g63
g49
NtRp2847
(dp2848
g52
(dp2849
sg61
g2717
sg54
(lp2850
g47
(g68
g49
NtRp2851
(dp2852
g52
(dp2853
g72
g73
ssg61
g2847
sg54
(lp2854
S'HTTP_REFERER'
p2855
asbag47
(g68
g49
NtRp2856
(dp2857
g52
(dp2858
g79
g80
ssg61
g2847
sg54
(lp2859
S':'
asbag47
(g68
g49
NtRp2860
(dp2861
g52
(dp2862
sg61
g2847
sg54
(lp2863
g47
(g48
g49
NtRp2864
(dp2865
g52
(dp2866
g60
I3
ssg61
g2860
sg54
(lp2867
g1255
asbasbasbag47
(g63
g49
NtRp2868
(dp2869
g52
(dp2870
sg61
g2717
sg54
(lp2871
g47
(g68
g49
NtRp2872
(dp2873
g52
(dp2874
g72
g73
ssg61
g2868
sg54
(lp2875
S'HTTP_USER_AGENT'
p2876
asbag47
(g68
g49
NtRp2877
(dp2878
g52
(dp2879
g79
g80
ssg61
g2868
sg54
(lp2880
S':'
asbag47
(g68
g49
NtRp2881
(dp2882
g52
(dp2883
sg61
g2868
sg54
(lp2884
g47
(g48
g49
NtRp2885
(dp2886
g52
(dp2887
g60
I3
ssg61
g2881
sg54
(lp2888
g1277
asbasbasbag47
(g63
g49
NtRp2889
(dp2890
g52
(dp2891
sg61
g2717
sg54
(lp2892
g47
(g68
g49
NtRp2893
(dp2894
g52
(dp2895
g72
g73
ssg61
g2889
sg54
(lp2896
S'PATH_INFO'
p2897
asbag47
(g68
g49
NtRp2898
(dp2899
g52
(dp2900
g79
g80
ssg61
g2889
sg54
(lp2901
S':'
asbag47
(g68
g49
NtRp2902
(dp2903
g52
(dp2904
sg61
g2889
sg54
(lp2905
g47
(g48
g49
NtRp2906
(dp2907
g52
(dp2908
g60
I3
ssg61
g2902
sg54
(lp2909
g1431
asbasbasbag47
(g63
g49
NtRp2910
(dp2911
g52
(dp2912
sg61
g2717
sg54
(lp2913
g47
(g68
g49
NtRp2914
(dp2915
g52
(dp2916
g72
g73
ssg61
g2910
sg54
(lp2917
S'QUERY_STRING'
p2918
asbag47
(g68
g49
NtRp2919
(dp2920
g52
(dp2921
g79
g80
ssg61
g2910
sg54
(lp2922
S':'
asbag47
(g68
g49
NtRp2923
(dp2924
g52
(dp2925
sg61
g2910
sg54
(lp2926
g47
(g48
g49
NtRp2927
(dp2928
g52
(dp2929
g60
I3
ssg61
g2923
sg54
(lp2930
S''
asbasbasbag47
(g63
g49
NtRp2931
(dp2932
g52
(dp2933
sg61
g2717
sg54
(lp2934
g47
(g68
g49
NtRp2935
(dp2936
g52
(dp2937
g72
g73
ssg61
g2931
sg54
(lp2938
S'REMOTE_ADDR'
p2939
asbag47
(g68
g49
NtRp2940
(dp2941
g52
(dp2942
g79
g80
ssg61
g2931
sg54
(lp2943
S':'
asbag47
(g68
g49
NtRp2944
(dp2945
g52
(dp2946
sg61
g2931
sg54
(lp2947
g47
(g48
g49
NtRp2948
(dp2949
g52
(dp2950
g60
I3
ssg61
g2944
sg54
(lp2951
g202
asbasbasbag47
(g63
g49
NtRp2952
(dp2953
g52
(dp2954
sg61
g2717
sg54
(lp2955
g47
(g68
g49
NtRp2956
(dp2957
g52
(dp2958
g72
g73
ssg61
g2952
sg54
(lp2959
S'REMOTE_PORT'
p2960
asbag47
(g68
g49
NtRp2961
(dp2962
g52
(dp2963
g79
g80
ssg61
g2952
sg54
(lp2964
S':'
asbag47
(g68
g49
NtRp2965
(dp2966
g52
(dp2967
sg61
g2952
sg54
(lp2968
g47
(g48
g49
NtRp2969
(dp2970
g52
(dp2971
g60
I3
ssg61
g2965
sg54
(lp2972
g1495
asbasbasbag47
(g63
g49
NtRp2973
(dp2974
g52
(dp2975
sg61
g2717
sg54
(lp2976
g47
(g68
g49
NtRp2977
(dp2978
g52
(dp2979
g72
g73
ssg61
g2973
sg54
(lp2980
S'REQUEST_METHOD'
p2981
asbag47
(g68
g49
NtRp2982
(dp2983
g52
(dp2984
g79
g80
ssg61
g2973
sg54
(lp2985
S':'
asbag47
(g68
g49
NtRp2986
(dp2987
g52
(dp2988
sg61
g2973
sg54
(lp2989
g47
(g48
g49
NtRp2990
(dp2991
g52
(dp2992
g60
I3
ssg61
g2986
sg54
(lp2993
g1517
asbasbasbag47
(g63
g49
NtRp2994
(dp2995
g52
(dp2996
sg61
g2717
sg54
(lp2997
g47
(g68
g49
NtRp2998
(dp2999
g52
(dp3000
g72
g73
ssg61
g2994
sg54
(lp3001
S'REQUEST_URI'
p3002
asbag47
(g68
g49
NtRp3003
(dp3004
g52
(dp3005
g79
g80
ssg61
g2994
sg54
(lp3006
S':'
asbag47
(g68
g49
NtRp3007
(dp3008
g52
(dp3009
sg61
g2994
sg54
(lp3010
g47
(g48
g49
NtRp3011
(dp3012
g52
(dp3013
g60
I3
ssg61
g3007
sg54
(lp3014
g1431
asbasbasbag47
(g63
g49
NtRp3015
(dp3016
g52
(dp3017
sg61
g2717
sg54
(lp3018
g47
(g68
g49
NtRp3019
(dp3020
g52
(dp3021
g72
g73
ssg61
g3015
sg54
(lp3022
S'SCRIPT_NAME'
p3023
asbag47
(g68
g49
NtRp3024
(dp3025
g52
(dp3026
g79
g80
ssg61
g3015
sg54
(lp3027
S':'
asbag47
(g68
g49
NtRp3028
(dp3029
g52
(dp3030
sg61
g3015
sg54
(lp3031
g47
(g48
g49
NtRp3032
(dp3033
g52
(dp3034
g60
I3
ssg61
g3028
sg54
(lp3035
S''
asbasbasbag47
(g63
g49
NtRp3036
(dp3037
g52
(dp3038
sg61
g2717
sg54
(lp3039
g47
(g68
g49
NtRp3040
(dp3041
g52
(dp3042
g72
g73
ssg61
g3036
sg54
(lp3043
S'SERVER_NAME'
p3044
asbag47
(g68
g49
NtRp3045
(dp3046
g52
(dp3047
g79
g80
ssg61
g3036
sg54
(lp3048
S':'
asbag47
(g68
g49
NtRp3049
(dp3050
g52
(dp3051
sg61
g3036
sg54
(lp3052
g47
(g48
g49
NtRp3053
(dp3054
g52
(dp3055
g60
I3
ssg61
g3049
sg54
(lp3056
g1396
asbasbasbag47
(g63
g49
NtRp3057
(dp3058
g52
(dp3059
sg61
g2717
sg54
(lp3060
g47
(g68
g49
NtRp3061
(dp3062
g52
(dp3063
g72
g73
ssg61
g3057
sg54
(lp3064
S'SERVER_PORT'
p3065
asbag47
(g68
g49
NtRp3066
(dp3067
g52
(dp3068
g79
g80
ssg61
g3057
sg54
(lp3069
S':'
asbag47
(g68
g49
NtRp3070
(dp3071
g52
(dp3072
sg61
g3057
sg54
(lp3073
g47
(g48
g49
NtRp3074
(dp3075
g52
(dp3076
g60
I3
ssg61
g3070
sg54
(lp3077
g1602
asbasbasbag47
(g63
g49
NtRp3078
(dp3079
g52
(dp3080
sg61
g2717
sg54
(lp3081
g47
(g68
g49
NtRp3082
(dp3083
g52
(dp3084
g72
g73
ssg61
g3078
sg54
(lp3085
S'SERVER_PROTOCOL'
p3086
asbag47
(g68
g49
NtRp3087
(dp3088
g52
(dp3089
g79
g80
ssg61
g3078
sg54
(lp3090
S':'
asbag47
(g68
g49
NtRp3091
(dp3092
g52
(dp3093
sg61
g3078
sg54
(lp3094
g47
(g48
g49
NtRp3095
(dp3096
g52
(dp3097
g60
I3
ssg61
g3091
sg54
(lp3098
g1624
asbasbasbag47
(g63
g49
NtRp3099
(dp3100
g52
(dp3101
sg61
g2717
sg54
(lp3102
g47
(g68
g49
NtRp3103
(dp3104
g52
(dp3105
g72
g73
ssg61
g3099
sg54
(lp3106
S'SERVER_SOFTWARE'
p3107
asbag47
(g68
g49
NtRp3108
(dp3109
g52
(dp3110
g79
g80
ssg61
g3099
sg54
(lp3111
S':'
asbag47
(g68
g49
NtRp3112
(dp3113
g52
(dp3114
sg61
g3099
sg54
(lp3115
g47
(g48
g49
NtRp3116
(dp3117
g52
(dp3118
g60
I3
ssg61
g3112
sg54
(lp3119
g1646
asbasbasbag47
(g63
g49
NtRp3120
(dp3121
g52
(dp3122
sg61
g2717
sg54
(lp3123
g47
(g68
g49
NtRp3124
(dp3125
g52
(dp3126
g72
g73
ssg61
g3120
sg54
(lp3127
S'wsgi.errors'
p3128
asbag47
(g68
g49
NtRp3129
(dp3130
g52
(dp3131
g79
g80
ssg61
g3120
sg54
(lp3132
S':'
asbag47
(g68
g49
NtRp3133
(dp3134
g52
(dp3135
sg61
g3120
sg54
(lp3136
g47
(g48
g49
NtRp3137
(dp3138
g52
(dp3139
g60
I3
ssg61
g3133
sg54
(lp3140
S"<open file '<stderr>', mode 'w' at 0x540b0>"
p3141
asbasbasbag47
(g63
g49
NtRp3142
(dp3143
g52
(dp3144
sg61
g2717
sg54
(lp3145
g47
(g68
g49
NtRp3146
(dp3147
g52
(dp3148
g72
g73
ssg61
g3142
sg54
(lp3149
S'wsgi.file_wrapper'
p3150
asbag47
(g68
g49
NtRp3151
(dp3152
g52
(dp3153
g79
g80
ssg61
g3142
sg54
(lp3154
S':'
asbag47
(g68
g49
NtRp3155
(dp3156
g52
(dp3157
sg61
g3142
sg54
(lp3158
g47
(g48
g49
NtRp3159
(dp3160
g52
(dp3161
g60
I3
ssg61
g3155
sg54
(lp3162
S'<class wsgiref.util.FileWrapper at 0x45782d0>'
p3163
asbasbasbag47
(g63
g49
NtRp3164
(dp3165
g52
(dp3166
sg61
g2717
sg54
(lp3167
g47
(g68
g49
NtRp3168
(dp3169
g52
(dp3170
g72
g73
ssg61
g3164
sg54
(lp3171
S'wsgi.input'
p3172
asbag47
(g68
g49
NtRp3173
(dp3174
g52
(dp3175
g79
g80
ssg61
g3164
sg54
(lp3176
S':'
asbag47
(g68
g49
NtRp3177
(dp3178
g52
(dp3179
sg61
g3164
sg54
(lp3180
g47
(g48
g49
NtRp3181
(dp3182
g52
(dp3183
g60
I3
ssg61
g3177
sg54
(lp3184
S'<cStringIO.StringO object at 0x92ad5e0>'
p3185
asbasbasbag47
(g63
g49
NtRp3186
(dp3187
g52
(dp3188
sg61
g2717
sg54
(lp3189
g47
(g68
g49
NtRp3190
(dp3191
g52
(dp3192
g72
g73
ssg61
g3186
sg54
(lp3193
S'wsgi.multiprocess'
p3194
asbag47
(g68
g49
NtRp3195
(dp3196
g52
(dp3197
g79
g80
ssg61
g3186
sg54
(lp3198
S':'
asbag47
(g68
g49
NtRp3199
(dp3200
g52
(dp3201
sg61
g3186
sg54
(lp3202
g47
(g48
g49
NtRp3203
(dp3204
g52
(dp3205
g60
I3
ssg61
g3199
sg54
(lp3206
g90
asbasbasbag47
(g63
g49
NtRp3207
(dp3208
g52
(dp3209
sg61
g2717
sg54
(lp3210
g47
(g68
g49
NtRp3211
(dp3212
g52
(dp3213
g72
g73
ssg61
g3207
sg54
(lp3214
S'wsgi.multithread'
p3215
asbag47
(g68
g49
NtRp3216
(dp3217
g52
(dp3218
g79
g80
ssg61
g3207
sg54
(lp3219
S':'
asbag47
(g68
g49
NtRp3220
(dp3221
g52
(dp3222
sg61
g3207
sg54
(lp3223
g47
(g48
g49
NtRp3224
(dp3225
g52
(dp3226
g60
I3
ssg61
g3220
sg54
(lp3227
g1863
asbasbasbag47
(g63
g49
NtRp3228
(dp3229
g52
(dp3230
sg61
g2717
sg54
(lp3231
g47
(g68
g49
NtRp3232
(dp3233
g52
(dp3234
g72
g73
ssg61
g3228
sg54
(lp3235
S'wsgi.run_once'
p3236
asbag47
(g68
g49
NtRp3237
(dp3238
g52
(dp3239
g79
g80
ssg61
g3228
sg54
(lp3240
S':'
asbag47
(g68
g49
NtRp3241
(dp3242
g52
(dp3243
sg61
g3228
sg54
(lp3244
g47
(g48
g49
NtRp3245
(dp3246
g52
(dp3247
g60
I3
ssg61
g3241
sg54
(lp3248
g90
asbasbasbag47
(g63
g49
NtRp3249
(dp3250
g52
(dp3251
sg61
g2717
sg54
(lp3252
g47
(g68
g49
NtRp3253
(dp3254
g52
(dp3255
g72
g73
ssg61
g3249
sg54
(lp3256
S'wsgi.url_scheme'
p3257
asbag47
(g68
g49
NtRp3258
(dp3259
g52
(dp3260
g79
g80
ssg61
g3249
sg54
(lp3261
S':'
asbag47
(g68
g49
NtRp3262
(dp3263
g52
(dp3264
sg61
g3249
sg54
(lp3265
g47
(g48
g49
NtRp3266
(dp3267
g52
(dp3268
g60
I3
ssg61
g3262
sg54
(lp3269
g1906
asbasbasbag47
(g63
g49
NtRp3270
(dp3271
g52
(dp3272
sg61
g2717
sg54
(lp3273
g47
(g68
g49
NtRp3274
(dp3275
g52
(dp3276
g72
g73
ssg61
g3270
sg54
(lp3277
S'wsgi.version'
p3278
asbag47
(g68
g49
NtRp3279
(dp3280
g52
(dp3281
g79
g80
ssg61
g3270
sg54
(lp3282
S':'
asbag47
(g68
g49
NtRp3283
(dp3284
g52
(dp3285
sg61
g3270
sg54
(lp3286
g47
(g48
g49
NtRp3287
(dp3288
g52
(dp3289
g60
I3
ssg61
g3283
sg54
(lp3290
S'1'
asbasbasbasbasbasbasbasbasbasbasbasbasbsS'frames'
p3291
(lp3292
(dp3293
S'file'
p3294
S'/Users/abaric/Downloads/web2py/web2py.app/Contents/Resources/gluon/main.py'
p3295
sS'dump'
p3296
(dp3297
sS'lnum'
p3298
I538
sS'lines'
p3299
(dp3300
sS'call'
p3301
S"(environ={'HTTP_ACCEPT': 'text/html,application/xhtml+xml,application/xml;q=0.9,*/*;q=0.8', 'HTTP_ACCEPT_ENCODING': 'gzip, deflate', 'HTTP_ACCEPT_LANGUAGE': 'en-us', 'HTTP_CONNECTION': 'keep-alive', 'HTTP_COOKIE': 'session_id_admin=127.0.0.1-78422ea9-f684-495a-9e...me=127.0.0.1-2aa03a6c-1012-4eea-98a7-98c4cb6a077c', 'HTTP_HOST': '127.0.0.1:8000', 'HTTP_REFERER': 'http://127.0.0.1:8000/admin/default/design/Final_Impulse', 'HTTP_USER_AGENT': 'Mozilla/5.0 (Macintosh; Intel Mac OS X 10_8_4) A...(KHTML, like Gecko) Version/6.0.5 Safari/536.30.1', 'PATH_INFO': '/Final_Impulse/default/index', 'QUERY_STRING': '', ...}, responder=<function responder2 at 0x767f1b0>)"
p3302
sS'func'
p3303
S'wsgibase'
p3304
sa(dp3305
g3294
S'/Users/abaric/Downloads/web2py/web2py.app/Contents/Resources/gluon/main.py'
p3306
sg3296
(dp3307
sg3298
I225
sg3299
(dp3308
sg3301
S"(request=<Storage {'function': 'index', 'body': <cStringI...ions/Final_Impulse/', 'post_vars': <Storage {}>}>, response=<Storage {'body': <cStringIO.StringO object at 0...da> at 0x767fbf0>, 'view': 'default/index.html'}>, session=<Storage {'_user_agent': {'is_mobile': False, 'i...ssion_hash': '83f1018c15418e8e5dcc38701b14dd79'}>)"
p3309
sg3303
S'serve_controller'
p3310
sa(dp3311
g3294
S'/Users/abaric/Downloads/web2py/web2py.app/Contents/Resources/gluon/compileapp.py'
p3312
sg3296
(dp3313
sg3298
I671
sg3299
(dp3314
sg3301
S"(environment={'A': <class 'gluon.html.A'>, 'Auth': <class 'gluon.tools.Auth'>, 'B': <class 'gluon.html.B'>, 'BEAUTIFY': <class 'gluon.html.BEAUTIFY'>, 'BODY': <class 'gluon.html.BODY'>, 'BR': <class 'gluon.html.BR'>, 'BUTTON': <class 'gluon.html.BUTTON'>, 'CAT': <class 'gluon.html.CAT'>, 'CENTER': <class 'gluon.html.CENTER'>, 'CLEANUP': <class 'gluon.validators.CLEANUP'>, ...})"
p3315
sg3303
S'run_view_in'
p3316
sa(dp3317
g3294
S'/Users/abaric/Downloads/web2py/web2py.app/Contents/Resources/gluon/template.py'
p3318
sg3296
(dp3319
sg3298
I781
sg3299
(dp3320
sg3301
S"(filename='default/index.html', path='/Users/abaric/Downloads/web2py/web2py.app/Contents/Resources/applications/Final_Impulse/views', context={'A': <class 'gluon.html.A'>, 'Auth': <class 'gluon.tools.Auth'>, 'B': <class 'gluon.html.B'>, 'BEAUTIFY': <class 'gluon.html.BEAUTIFY'>, 'BODY': <class 'gluon.html.BODY'>, 'BR': <class 'gluon.html.BR'>, 'BUTTON': <class 'gluon.html.BUTTON'>, 'CAT': <class 'gluon.html.CAT'>, 'CENTER': <class 'gluon.html.CENTER'>, 'CLEANUP': <class 'gluon.validators.CLEANUP'>, ...}, lexers={}, delimiters=('{{', '}}'))"
p3321
sg3303
S'parse_template'
p3322
sa(dp3323
g3294
S'/Users/abaric/Downloads/web2py/web2py.app/Contents/Resources/gluon/template.py'
p3324
sg3296
(dp3325
sg3298
I312
sg3299
(dp3326
sg3301
S'(self=<gluon.template.TemplateParser object at 0x774ebf0>, text="{{extend layout.html}}\\n\\n<body>\\n\\n<h1><b><center>W...\'show_video_comments\'))}}</center></h3>\\n\\n</body>\\n", name=\'ParserContainer\', context={\'A\': <class \'gluon.html.A\'>, \'Auth\': <class \'gluon.tools.Auth\'>, \'B\': <class \'gluon.html.B\'>, \'BEAUTIFY\': <class \'gluon.html.BEAUTIFY\'>, \'BODY\': <class \'gluon.html.BODY\'>, \'BR\': <class \'gluon.html.BR\'>, \'BUTTON\': <class \'gluon.html.BUTTON\'>, \'CAT\': <class \'gluon.html.CAT\'>, \'CENTER\': <class \'gluon.html.CENTER\'>, \'CLEANUP\': <class \'gluon.validators.CLEANUP\'>, ...}, path=\'/Users/abaric/Downloads/web2py/web2py.app/Contents/Resources/applications/Final_Impulse/views\', writer=\'response.write\', lexers={}, delimiters=(\'{{\', \'}}\'), _super_nodes=[])'
p3327
sg3303
g40
sa(dp3328
g3294
S'/Users/abaric/Downloads/web2py/web2py.app/Contents/Resources/gluon/template.py'
p3329
sg3296
(dp3330
sg3298
I752
sg3299
(dp3331
sg3301
S'(self=<gluon.template.TemplateParser object at 0x774ebf0>, text="{{extend layout.html}}\\n\\n<body>\\n\\n<h1><b><center>W...\'show_video_comments\'))}}</center></h3>\\n\\n</body>\\n")'
p3332
sg3303
S'parse'
p3333
sa(dp3334
g3294
S'/Users/abaric/Downloads/web2py/web2py.app/Contents/Resources/gluon/template.py'
p3335
sg3296
(dp3336
sg3298
I467
sg3299
(dp3337
sg3301
S"(self=<gluon.template.TemplateParser object at 0x774ebf0>, filename='layout.html')"
p3338
sg3303
S'extend'
p3339
sa(dp3340
g3294
S'/Users/abaric/Downloads/web2py/web2py.app/Contents/Resources/gluon/template.py'
p3341
sg3296
(dp3342
sg3298
I432
sg3299
(dp3343
sg3301
S"(self=<gluon.template.TemplateParser object at 0x774ebf0>, filename='layout.html')"
p3344
sg3303
S'_get_file_text'
p3345
sa(dp3346
g3294
S'/Users/abaric/Downloads/web2py/web2py.app/Contents/Resources/<string>'
p3347
sg3296
(dp3348
sg3298
I1
sg3299
(dp3349
sg3301
S'()'
p3350
sg3303
S'<module>'
p3351
sasS'pyver'
p3352
S'Python 2.5.1: /Users/abaric/Downloads/web2py/web2py.app/Contents/MacOS/python'
p3353
sS'session'
p3354
g47
(g48
g49
NtRp3355
(dp3356
g52
(dp3357
sg54
(lp3358
g47
(g56
g49
NtRp3359
(dp3360
g52
(dp3361
g60
I5
ssg61
Nsg54
(lp3362
g47
(g63
g49
NtRp3363
(dp3364
g52
(dp3365
sg61
g3359
sg54
(lp3366
g47
(g68
g49
NtRp3367
(dp3368
g52
(dp3369
g72
g73
ssg61
g3363
sg54
(lp3370
S'auth'
p3371
asbag47
(g68
g49
NtRp3372
(dp3373
g52
(dp3374
g79
g80
ssg61
g3363
sg54
(lp3375
S':'
asbag47
(g68
g49
NtRp3376
(dp3377
g52
(dp3378
sg61
g3363
sg54
(lp3379
g47
(g48
g49
NtRp3380
(dp3381
g52
(dp3382
g60
I5
ssg61
g3376
sg54
(lp3383
g47
(g56
g49
NtRp3384
(dp3385
g52
(dp3386
g60
I4
ssg61
Nsg54
(lp3387
g47
(g63
g49
NtRp3388
(dp3389
g52
(dp3390
sg61
g3384
sg54
(lp3391
g47
(g68
g49
NtRp3392
(dp3393
g52
(dp3394
g72
g73
ssg61
g3388
sg54
(lp3395
S'expiration'
p3396
asbag47
(g68
g49
NtRp3397
(dp3398
g52
(dp3399
g79
g80
ssg61
g3388
sg54
(lp3400
S':'
asbag47
(g68
g49
NtRp3401
(dp3402
g52
(dp3403
sg61
g3388
sg54
(lp3404
g47
(g48
g49
NtRp3405
(dp3406
g52
(dp3407
g60
I4
ssg61
g3401
sg54
(lp3408
S'3600'
p3409
asbasbasbag47
(g63
g49
NtRp3410
(dp3411
g52
(dp3412
sg61
g3384
sg54
(lp3413
g47
(g68
g49
NtRp3414
(dp3415
g52
(dp3416
g72
g73
ssg61
g3410
sg54
(lp3417
S'hmac_key'
p3418
asbag47
(g68
g49
NtRp3419
(dp3420
g52
(dp3421
g79
g80
ssg61
g3410
sg54
(lp3422
S':'
asbag47
(g68
g49
NtRp3423
(dp3424
g52
(dp3425
sg61
g3410
sg54
(lp3426
g47
(g48
g49
NtRp3427
(dp3428
g52
(dp3429
g60
I4
ssg61
g3423
sg54
(lp3430
S'709ba8ac-5fd5-4dfc-beac-bcb92aab83e0'
p3431
asbasbasbag47
(g63
g49
NtRp3432
(dp3433
g52
(dp3434
sg61
g3384
sg54
(lp3435
g47
(g68
g49
NtRp3436
(dp3437
g52
(dp3438
g72
g73
ssg61
g3432
sg54
(lp3439
S'last_visit'
p3440
asbag47
(g68
g49
NtRp3441
(dp3442
g52
(dp3443
g79
g80
ssg61
g3432
sg54
(lp3444
S':'
asbag47
(g68
g49
NtRp3445
(dp3446
g52
(dp3447
sg61
g3432
sg54
(lp3448
g47
(g48
g49
NtRp3449
(dp3450
g52
(dp3451
g60
I4
ssg61
g3445
sg54
(lp3452
S'datetime.datetime(2014, 6, 9, 9, 33, 9, 824276)'
p3453
asbasbasbag47
(g63
g49
NtRp3454
(dp3455
g52
(dp3456
sg61
g3384
sg54
(lp3457
g47
(g68
g49
NtRp3458
(dp3459
g52
(dp3460
g72
g73
ssg61
g3454
sg54
(lp3461
S'remember'
p3462
asbag47
(g68
g49
NtRp3463
(dp3464
g52
(dp3465
g79
g80
ssg61
g3454
sg54
(lp3466
S':'
asbag47
(g68
g49
NtRp3467
(dp3468
g52
(dp3469
sg61
g3454
sg54
(lp3470
g47
(g48
g49
NtRp3471
(dp3472
g52
(dp3473
g60
I4
ssg61
g3467
sg54
(lp3474
g90
asbasbasbag47
(g63
g49
NtRp3475
(dp3476
g52
(dp3477
sg61
g3384
sg54
(lp3478
g47
(g68
g49
NtRp3479
(dp3480
g52
(dp3481
g72
g73
ssg61
g3475
sg54
(lp3482
S'user'
p3483
asbag47
(g68
g49
NtRp3484
(dp3485
g52
(dp3486
g79
g80
ssg61
g3475
sg54
(lp3487
S':'
asbag47
(g68
g49
NtRp3488
(dp3489
g52
(dp3490
sg61
g3475
sg54
(lp3491
g47
(g48
g49
NtRp3492
(dp3493
g52
(dp3494
g60
I4
ssg61
g3488
sg54
(lp3495
g47
(g56
g49
NtRp3496
(dp3497
g52
(dp3498
g60
I3
ssg61
Nsg54
(lp3499
g47
(g63
g49
NtRp3500
(dp3501
g52
(dp3502
sg61
g3496
sg54
(lp3503
g47
(g68
g49
NtRp3504
(dp3505
g52
(dp3506
g72
g73
ssg61
g3500
sg54
(lp3507
S'email'
p3508
asbag47
(g68
g49
NtRp3509
(dp3510
g52
(dp3511
g79
g80
ssg61
g3500
sg54
(lp3512
S':'
asbag47
(g68
g49
NtRp3513
(dp3514
g52
(dp3515
sg61
g3500
sg54
(lp3516
g47
(g48
g49
NtRp3517
(dp3518
g52
(dp3519
g60
I3
ssg61
g3513
sg54
(lp3520
S'abaric@agnesirwin.org'
p3521
asbasbasbag47
(g63
g49
NtRp3522
(dp3523
g52
(dp3524
sg61
g3496
sg54
(lp3525
g47
(g68
g49
NtRp3526
(dp3527
g52
(dp3528
g72
g73
ssg61
g3522
sg54
(lp3529
S'first_name'
p3530
asbag47
(g68
g49
NtRp3531
(dp3532
g52
(dp3533
g79
g80
ssg61
g3522
sg54
(lp3534
S':'
asbag47
(g68
g49
NtRp3535
(dp3536
g52
(dp3537
sg61
g3522
sg54
(lp3538
g47
(g48
g49
NtRp3539
(dp3540
g52
(dp3541
g60
I3
ssg61
g3535
sg54
(lp3542
S'Andrea'
p3543
asbasbasbag47
(g63
g49
NtRp3544
(dp3545
g52
(dp3546
sg61
g3496
sg54
(lp3547
g47
(g68
g49
NtRp3548
(dp3549
g52
(dp3550
g72
g73
ssg61
g3544
sg54
(lp3551
S'id'
p3552
asbag47
(g68
g49
NtRp3553
(dp3554
g52
(dp3555
g79
g80
ssg61
g3544
sg54
(lp3556
S':'
asbag47
(g68
g49
NtRp3557
(dp3558
g52
(dp3559
sg61
g3544
sg54
(lp3560
g47
(g48
g49
NtRp3561
(dp3562
g52
(dp3563
g60
I3
ssg61
g3557
sg54
(lp3564
S'1'
asbasbasbag47
(g63
g49
NtRp3565
(dp3566
g52
(dp3567
sg61
g3496
sg54
(lp3568
g47
(g68
g49
NtRp3569
(dp3570
g52
(dp3571
g72
g73
ssg61
g3565
sg54
(lp3572
S'last_name'
p3573
asbag47
(g68
g49
NtRp3574
(dp3575
g52
(dp3576
g79
g80
ssg61
g3565
sg54
(lp3577
S':'
asbag47
(g68
g49
NtRp3578
(dp3579
g52
(dp3580
sg61
g3565
sg54
(lp3581
g47
(g48
g49
NtRp3582
(dp3583
g52
(dp3584
g60
I3
ssg61
g3578
sg54
(lp3585
S'Baric'
p3586
asbasbasbag47
(g63
g49
NtRp3587
(dp3588
g52
(dp3589
sg61
g3496
sg54
(lp3590
g47
(g68
g49
NtRp3591
(dp3592
g52
(dp3593
g72
g73
ssg61
g3587
sg54
(lp3594
S'registration_id'
p3595
asbag47
(g68
g49
NtRp3596
(dp3597
g52
(dp3598
g79
g80
ssg61
g3587
sg54
(lp3599
S':'
asbag47
(g68
g49
NtRp3600
(dp3601
g52
(dp3602
sg61
g3587
sg54
(lp3603
g47
(g48
g49
NtRp3604
(dp3605
g52
(dp3606
g60
I3
ssg61
g3600
sg54
(lp3607
S''
asbasbasbag47
(g63
g49
NtRp3608
(dp3609
g52
(dp3610
sg61
g3496
sg54
(lp3611
g47
(g68
g49
NtRp3612
(dp3613
g52
(dp3614
g72
g73
ssg61
g3608
sg54
(lp3615
S'registration_key'
p3616
asbag47
(g68
g49
NtRp3617
(dp3618
g52
(dp3619
g79
g80
ssg61
g3608
sg54
(lp3620
S':'
asbag47
(g68
g49
NtRp3621
(dp3622
g52
(dp3623
sg61
g3608
sg54
(lp3624
g47
(g48
g49
NtRp3625
(dp3626
g52
(dp3627
g60
I3
ssg61
g3621
sg54
(lp3628
S''
asbasbasbag47
(g63
g49
NtRp3629
(dp3630
g52
(dp3631
sg61
g3496
sg54
(lp3632
g47
(g68
g49
NtRp3633
(dp3634
g52
(dp3635
g72
g73
ssg61
g3629
sg54
(lp3636
S'reset_password_key'
p3637
asbag47
(g68
g49
NtRp3638
(dp3639
g52
(dp3640
g79
g80
ssg61
g3629
sg54
(lp3641
S':'
asbag47
(g68
g49
NtRp3642
(dp3643
g52
(dp3644
sg61
g3629
sg54
(lp3645
g47
(g48
g49
NtRp3646
(dp3647
g52
(dp3648
g60
I3
ssg61
g3642
sg54
(lp3649
S''
asbasbasbasbasbasbasbag47
(g63
g49
NtRp3650
(dp3651
g52
(dp3652
sg61
g3384
sg54
(lp3653
g47
(g68
g49
NtRp3654
(dp3655
g52
(dp3656
g72
g73
ssg61
g3650
sg54
(lp3657
S'user_groups'
p3658
asbag47
(g68
g49
NtRp3659
(dp3660
g52
(dp3661
g79
g80
ssg61
g3650
sg54
(lp3662
S':'
asbag47
(g68
g49
NtRp3663
(dp3664
g52
(dp3665
sg61
g3650
sg54
(lp3666
g47
(g48
g49
NtRp3667
(dp3668
g52
(dp3669
g60
I4
ssg61
g3663
sg54
(lp3670
g47
(g56
g49
NtRp3671
(dp3672
g52
(dp3673
g60
I3
ssg61
Nsg54
(lp3674
sbasbasbasbasbasbasbasbag47
(g63
g49
NtRp3675
(dp3676
g52
(dp3677
sg61
g3359
sg54
(lp3678
g47
(g68
g49
NtRp3679
(dp3680
g52
(dp3681
g72
g73
ssg61
g3675
sg54
(lp3682
S'flash'
p3683
asbag47
(g68
g49
NtRp3684
(dp3685
g52
(dp3686
g79
g80
ssg61
g3675
sg54
(lp3687
S':'
asbag47
(g68
g49
NtRp3688
(dp3689
g52
(dp3690
sg61
g3675
sg54
(lp3691
g47
(g48
g49
NtRp3692
(dp3693
g52
(dp3694
g60
I5
ssg61
g3688
sg54
(lp3695
S'None'
p3696
asbasbasbag47
(g63
g49
NtRp3697
(dp3698
g52
(dp3699
sg61
g3359
sg54
(lp3700
g47
(g68
g49
NtRp3701
(dp3702
g52
(dp3703
g72
g73
ssg61
g3697
sg54
(lp3704
S'last_orderby'
p3705
asbag47
(g68
g49
NtRp3706
(dp3707
g52
(dp3708
g79
g80
ssg61
g3697
sg54
(lp3709
S':'
asbag47
(g68
g49
NtRp3710
(dp3711
g52
(dp3712
sg61
g3697
sg54
(lp3713
g47
(g48
g49
NtRp3714
(dp3715
g52
(dp3716
g60
I5
ssg61
g3710
sg54
(lp3717
S'None'
p3718
asbasbasbag47
(g63
g49
NtRp3719
(dp3720
g52
(dp3721
sg61
g3359
sg54
(lp3722
g47
(g68
g49
NtRp3723
(dp3724
g52
(dp3725
g72
g73
ssg61
g3719
sg54
(lp3726
S'last_query'
p3727
asbag47
(g68
g49
NtRp3728
(dp3729
g52
(dp3730
g79
g80
ssg61
g3719
sg54
(lp3731
S':'
asbag47
(g68
g49
NtRp3732
(dp3733
g52
(dp3734
sg61
g3719
sg54
(lp3735
g47
(g48
g49
NtRp3736
(dp3737
g52
(dp3738
g60
I5
ssg61
g3732
sg54
(lp3739
S'db.video.id>0'
p3740
asbasbasbasbasbsS'etype'
p3741
S"<type 'exceptions.NameError'>"
p3742
sS'date'
p3743
S'Mon Jun  9 09:38:30 2014'
p3744
sS'response'
p3745
g47
(g48
g49
NtRp3746
(dp3747
g52
(dp3748
sg54
(lp3749
g47
(g56
g49
NtRp3750
(dp3751
g52
(dp3752
g60
I5
ssg61
Nsg54
(lp3753
g47
(g63
g49
NtRp3754
(dp3755
g52
(dp3756
sg61
g3750
sg54
(lp3757
g47
(g68
g49
NtRp3758
(dp3759
g52
(dp3760
g72
g73
ssg61
g3754
sg54
(lp3761
g145
asbag47
(g68
g49
NtRp3762
(dp3763
g52
(dp3764
g79
g80
ssg61
g3754
sg54
(lp3765
S':'
asbag47
(g68
g49
NtRp3766
(dp3767
g52
(dp3768
sg61
g3754
sg54
(lp3769
g47
(g48
g49
NtRp3770
(dp3771
g52
(dp3772
g60
I5
ssg61
g3766
sg54
(lp3773
S'<cStringIO.StringO object at 0x92ad300>'
p3774
asbasbasbag47
(g63
g49
NtRp3775
(dp3776
g52
(dp3777
sg61
g3750
sg54
(lp3778
g47
(g68
g49
NtRp3779
(dp3780
g52
(dp3781
g72
g73
ssg61
g3775
sg54
(lp3782
g233
asbag47
(g68
g49
NtRp3783
(dp3784
g52
(dp3785
g79
g80
ssg61
g3775
sg54
(lp3786
S':'
asbag47
(g68
g49
NtRp3787
(dp3788
g52
(dp3789
sg61
g3775
sg54
(lp3790
g47
(g48
g49
NtRp3791
(dp3792
g52
(dp3793
g60
I5
ssg61
g3787
sg54
(lp3794
g47
(g56
g49
NtRp3795
(dp3796
g52
(dp3797
g60
I4
ssg61
Nsg54
(lp3798
g47
(g63
g49
NtRp3799
(dp3800
g52
(dp3801
sg61
g3795
sg54
(lp3802
g47
(g68
g49
NtRp3803
(dp3804
g52
(dp3805
g72
g73
ssg61
g3799
sg54
(lp3806
S'session_id_final_impulse'
p3807
asbag47
(g68
g49
NtRp3808
(dp3809
g52
(dp3810
g79
g80
ssg61
g3799
sg54
(lp3811
S':'
asbag47
(g68
g49
NtRp3812
(dp3813
g52
(dp3814
sg61
g3799
sg54
(lp3815
g47
(g48
g49
NtRp3816
(dp3817
g52
(dp3818
g60
I4
ssg61
g3812
sg54
(lp3819
g610
ag47
(g56
g49
NtRp3820
(dp3821
g52
(dp3822
g60
I3
ssg61
Nsg54
(lp3823
g47
(g63
g49
NtRp3824
(dp3825
g52
(dp3826
sg61
g3820
sg54
(lp3827
g47
(g68
g49
NtRp3828
(dp3829
g52
(dp3830
g72
g73
ssg61
g3824
sg54
(lp3831
g284
asbag47
(g68
g49
NtRp3832
(dp3833
g52
(dp3834
g79
g80
ssg61
g3824
sg54
(lp3835
S':'
asbag47
(g68
g49
NtRp3836
(dp3837
g52
(dp3838
sg61
g3824
sg54
(lp3839
g47
(g48
g49
NtRp3840
(dp3841
g52
(dp3842
g60
I3
ssg61
g3836
sg54
(lp3843
S''
asbasbasbag47
(g63
g49
NtRp3844
(dp3845
g52
(dp3846
sg61
g3820
sg54
(lp3847
g47
(g68
g49
NtRp3848
(dp3849
g52
(dp3850
g72
g73
ssg61
g3844
sg54
(lp3851
g305
asbag47
(g68
g49
NtRp3852
(dp3853
g52
(dp3854
g79
g80
ssg61
g3844
sg54
(lp3855
S':'
asbag47
(g68
g49
NtRp3856
(dp3857
g52
(dp3858
sg61
g3844
sg54
(lp3859
g47
(g48
g49
NtRp3860
(dp3861
g52
(dp3862
g60
I3
ssg61
g3856
sg54
(lp3863
S''
asbasbasbag47
(g63
g49
NtRp3864
(dp3865
g52
(dp3866
sg61
g3820
sg54
(lp3867
g47
(g68
g49
NtRp3868
(dp3869
g52
(dp3870
g72
g73
ssg61
g3864
sg54
(lp3871
g326
asbag47
(g68
g49
NtRp3872
(dp3873
g52
(dp3874
g79
g80
ssg61
g3864
sg54
(lp3875
S':'
asbag47
(g68
g49
NtRp3876
(dp3877
g52
(dp3878
sg61
g3864
sg54
(lp3879
g47
(g48
g49
NtRp3880
(dp3881
g52
(dp3882
g60
I3
ssg61
g3876
sg54
(lp3883
S''
asbasbasbag47
(g63
g49
NtRp3884
(dp3885
g52
(dp3886
sg61
g3820
sg54
(lp3887
g47
(g68
g49
NtRp3888
(dp3889
g52
(dp3890
g72
g73
ssg61
g3884
sg54
(lp3891
g347
asbag47
(g68
g49
NtRp3892
(dp3893
g52
(dp3894
g79
g80
ssg61
g3884
sg54
(lp3895
S':'
asbag47
(g68
g49
NtRp3896
(dp3897
g52
(dp3898
sg61
g3884
sg54
(lp3899
g47
(g48
g49
NtRp3900
(dp3901
g52
(dp3902
g60
I3
ssg61
g3896
sg54
(lp3903
S''
asbasbasbag47
(g63
g49
NtRp3904
(dp3905
g52
(dp3906
sg61
g3820
sg54
(lp3907
g47
(g68
g49
NtRp3908
(dp3909
g52
(dp3910
g72
g73
ssg61
g3904
sg54
(lp3911
g368
asbag47
(g68
g49
NtRp3912
(dp3913
g52
(dp3914
g79
g80
ssg61
g3904
sg54
(lp3915
S':'
asbag47
(g68
g49
NtRp3916
(dp3917
g52
(dp3918
sg61
g3904
sg54
(lp3919
g47
(g48
g49
NtRp3920
(dp3921
g52
(dp3922
g60
I3
ssg61
g3916
sg54
(lp3923
S'/'
asbasbasbag47
(g63
g49
NtRp3924
(dp3925
g52
(dp3926
sg61
g3820
sg54
(lp3927
g47
(g68
g49
NtRp3928
(dp3929
g52
(dp3930
g72
g73
ssg61
g3924
sg54
(lp3931
g389
asbag47
(g68
g49
NtRp3932
(dp3933
g52
(dp3934
g79
g80
ssg61
g3924
sg54
(lp3935
S':'
asbag47
(g68
g49
NtRp3936
(dp3937
g52
(dp3938
sg61
g3924
sg54
(lp3939
g47
(g48
g49
NtRp3940
(dp3941
g52
(dp3942
g60
I3
ssg61
g3936
sg54
(lp3943
S''
asbasbasbag47
(g63
g49
NtRp3944
(dp3945
g52
(dp3946
sg61
g3820
sg54
(lp3947
g47
(g68
g49
NtRp3948
(dp3949
g52
(dp3950
g72
g73
ssg61
g3944
sg54
(lp3951
g410
asbag47
(g68
g49
NtRp3952
(dp3953
g52
(dp3954
g79
g80
ssg61
g3944
sg54
(lp3955
S':'
asbag47
(g68
g49
NtRp3956
(dp3957
g52
(dp3958
sg61
g3944
sg54
(lp3959
g47
(g48
g49
NtRp3960
(dp3961
g52
(dp3962
g60
I3
ssg61
g3956
sg54
(lp3963
S''
asbasbasbasbasbasbasbasbasbasbasbag47
(g63
g49
NtRp3964
(dp3965
g52
(dp3966
sg61
g3750
sg54
(lp3967
g47
(g68
g49
NtRp3968
(dp3969
g52
(dp3970
g72
g73
ssg61
g3964
sg54
(lp3971
S'delimiters'
p3972
asbag47
(g68
g49
NtRp3973
(dp3974
g52
(dp3975
g79
g80
ssg61
g3964
sg54
(lp3976
S':'
asbag47
(g68
g49
NtRp3977
(dp3978
g52
(dp3979
sg61
g3964
sg54
(lp3980
g47
(g48
g49
NtRp3981
(dp3982
g52
(dp3983
g60
I5
ssg61
g3977
sg54
(lp3984
g47
(g56
g49
NtRp3985
(dp3986
g52
(dp3987
g60
I4
ssg61
Nsg54
(lp3988
g47
(g63
g49
NtRp3989
(dp3990
g52
(dp3991
sg61
g3985
sg54
(lp3992
g47
(g68
g49
NtRp3993
(dp3994
g52
(dp3995
sg61
g3989
sg54
(lp3996
g47
(g48
g49
NtRp3997
(dp3998
g52
(dp3999
g60
I4
ssg61
g3993
sg54
(lp4000
S'{{'
p4001
asbasbasbag47
(g63
g49
NtRp4002
(dp4003
g52
(dp4004
sg61
g3985
sg54
(lp4005
g47
(g68
g49
NtRp4006
(dp4007
g52
(dp4008
sg61
g4002
sg54
(lp4009
g47
(g48
g49
NtRp4010
(dp4011
g52
(dp4012
g60
I4
ssg61
g4006
sg54
(lp4013
S'}}'
p4014
asbasbasbasbasbasbasbag47
(g63
g49
NtRp4015
(dp4016
g52
(dp4017
sg61
g3750
sg54
(lp4018
g47
(g68
g49
NtRp4019
(dp4020
g52
(dp4021
g72
g73
ssg61
g4015
sg54
(lp4022
S'files'
p4023
asbag47
(g68
g49
NtRp4024
(dp4025
g52
(dp4026
g79
g80
ssg61
g4015
sg54
(lp4027
S':'
asbag47
(g68
g49
NtRp4028
(dp4029
g52
(dp4030
sg61
g4015
sg54
(lp4031
g47
(g48
g49
NtRp4032
(dp4033
g52
(dp4034
g60
I5
ssg61
g4028
sg54
(lp4035
g47
(g56
g49
NtRp4036
(dp4037
g52
(dp4038
g60
I4
ssg61
Nsg54
(lp4039
sbasbasbasbag47
(g63
g49
NtRp4040
(dp4041
g52
(dp4042
sg61
g3750
sg54
(lp4043
g47
(g68
g49
NtRp4044
(dp4045
g52
(dp4046
g72
g73
ssg61
g4040
sg54
(lp4047
S'flash'
p4048
asbag47
(g68
g49
NtRp4049
(dp4050
g52
(dp4051
g79
g80
ssg61
g4040
sg54
(lp4052
S':'
asbag47
(g68
g49
NtRp4053
(dp4054
g52
(dp4055
sg61
g4040
sg54
(lp4056
g47
(g48
g49
NtRp4057
(dp4058
g52
(dp4059
g60
I5
ssg61
g4053
sg54
(lp4060
S''
asbasbasbag47
(g63
g49
NtRp4061
(dp4062
g52
(dp4063
sg61
g3750
sg54
(lp4064
g47
(g68
g49
NtRp4065
(dp4066
g52
(dp4067
g72
g73
ssg61
g4061
sg54
(lp4068
S'generic_patterns'
p4069
asbag47
(g68
g49
NtRp4070
(dp4071
g52
(dp4072
g79
g80
ssg61
g4061
sg54
(lp4073
S':'
asbag47
(g68
g49
NtRp4074
(dp4075
g52
(dp4076
sg61
g4061
sg54
(lp4077
g47
(g48
g49
NtRp4078
(dp4079
g52
(dp4080
g60
I5
ssg61
g4074
sg54
(lp4081
g47
(g56
g49
NtRp4082
(dp4083
g52
(dp4084
g60
I4
ssg61
Nsg54
(lp4085
sbasbasbasbag47
(g63
g49
NtRp4086
(dp4087
g52
(dp4088
sg61
g3750
sg54
(lp4089
g47
(g68
g49
NtRp4090
(dp4091
g52
(dp4092
g72
g73
ssg61
g4086
sg54
(lp4093
S'google_analytics_id'
p4094
asbag47
(g68
g49
NtRp4095
(dp4096
g52
(dp4097
g79
g80
ssg61
g4086
sg54
(lp4098
S':'
asbag47
(g68
g49
NtRp4099
(dp4100
g52
(dp4101
sg61
g4086
sg54
(lp4102
g47
(g48
g49
NtRp4103
(dp4104
g52
(dp4105
g60
I5
ssg61
g4099
sg54
(lp4106
S'None'
p4107
asbasbasbag47
(g63
g49
NtRp4108
(dp4109
g52
(dp4110
sg61
g3750
sg54
(lp4111
g47
(g68
g49
NtRp4112
(dp4113
g52
(dp4114
g72
g73
ssg61
g4108
sg54
(lp4115
S'headers'
p4116
asbag47
(g68
g49
NtRp4117
(dp4118
g52
(dp4119
g79
g80
ssg61
g4108
sg54
(lp4120
S':'
asbag47
(g68
g49
NtRp4121
(dp4122
g52
(dp4123
sg61
g4108
sg54
(lp4124
g47
(g48
g49
NtRp4125
(dp4126
g52
(dp4127
g60
I5
ssg61
g4121
sg54
(lp4128
g47
(g56
g49
NtRp4129
(dp4130
g52
(dp4131
g60
I4
ssg61
Nsg54
(lp4132
g47
(g63
g49
NtRp4133
(dp4134
g52
(dp4135
sg61
g4129
sg54
(lp4136
g47
(g68
g49
NtRp4137
(dp4138
g52
(dp4139
g72
g73
ssg61
g4133
sg54
(lp4140
S'X-Powered-By'
p4141
asbag47
(g68
g49
NtRp4142
(dp4143
g52
(dp4144
g79
g80
ssg61
g4133
sg54
(lp4145
S':'
asbag47
(g68
g49
NtRp4146
(dp4147
g52
(dp4148
sg61
g4133
sg54
(lp4149
g47
(g48
g49
NtRp4150
(dp4151
g52
(dp4152
g60
I4
ssg61
g4146
sg54
(lp4153
S'web2py'
p4154
asbasbasbasbasbasbasbag47
(g63
g49
NtRp4155
(dp4156
g52
(dp4157
sg61
g3750
sg54
(lp4158
g47
(g68
g49
NtRp4159
(dp4160
g52
(dp4161
g72
g73
ssg61
g4155
sg54
(lp4162
S'menu'
p4163
asbag47
(g68
g49
NtRp4164
(dp4165
g52
(dp4166
g79
g80
ssg61
g4155
sg54
(lp4167
S':'
asbag47
(g68
g49
NtRp4168
(dp4169
g52
(dp4170
sg61
g4155
sg54
(lp4171
g47
(g48
g49
NtRp4172
(dp4173
g52
(dp4174
g60
I5
ssg61
g4168
sg54
(lp4175
g47
(g56
g49
NtRp4176
(dp4177
g52
(dp4178
g60
I4
ssg61
Nsg54
(lp4179
g47
(g63
g49
NtRp4180
(dp4181
g52
(dp4182
sg61
g4176
sg54
(lp4183
g47
(g68
g49
NtRp4184
(dp4185
g52
(dp4186
sg61
g4180
sg54
(lp4187
g47
(g48
g49
NtRp4188
(dp4189
g52
(dp4190
g60
I4
ssg61
g4184
sg54
(lp4191
g47
(g56
g49
NtRp4192
(dp4193
g52
(dp4194
g60
I3
ssg61
Nsg54
(lp4195
g47
(g63
g49
NtRp4196
(dp4197
g52
(dp4198
sg61
g4192
sg54
(lp4199
g47
(g68
g49
NtRp4200
(dp4201
g52
(dp4202
sg61
g4196
sg54
(lp4203
g47
(g48
g49
NtRp4204
(dp4205
g52
(dp4206
g60
I3
ssg61
g4200
sg54
(lp4207
cgluon.languages
lazyT_unpickle
p4208
(S't\x04\x00\x00\x00Home'
tRp4209
asbasbasbag47
(g63
g49
NtRp4210
(dp4211
g52
(dp4212
sg61
g4192
sg54
(lp4213
g47
(g68
g49
NtRp4214
(dp4215
g52
(dp4216
sg61
g4210
sg54
(lp4217
g47
(g48
g49
NtRp4218
(dp4219
g52
(dp4220
g60
I3
ssg61
g4214
sg54
(lp4221
g90
asbasbasbag47
(g63
g49
NtRp4222
(dp4223
g52
(dp4224
sg61
g4192
sg54
(lp4225
g47
(g68
g49
NtRp4226
(dp4227
g52
(dp4228
sg61
g4222
sg54
(lp4229
g47
(g48
g49
NtRp4230
(dp4231
g52
(dp4232
g60
I3
ssg61
g4226
sg54
(lp4233
S'/Final_Impulse/default/index'
p4234
asbasbasbag47
(g63
g49
NtRp4235
(dp4236
g52
(dp4237
sg61
g4192
sg54
(lp4238
g47
(g68
g49
NtRp4239
(dp4240
g52
(dp4241
sg61
g4235
sg54
(lp4242
g47
(g48
g49
NtRp4243
(dp4244
g52
(dp4245
g60
I3
ssg61
g4239
sg54
(lp4246
g47
(g56
g49
NtRp4247
(dp4248
g52
(dp4249
g60
I2
ssg61
Nsg54
(lp4250
sbasbasbasbasbasbasbasbag47
(g63
g49
NtRp4251
(dp4252
g52
(dp4253
sg61
g4176
sg54
(lp4254
g47
(g68
g49
NtRp4255
(dp4256
g52
(dp4257
sg61
g4251
sg54
(lp4258
g47
(g48
g49
NtRp4259
(dp4260
g52
(dp4261
g60
I4
ssg61
g4255
sg54
(lp4262
g47
(g56
g49
NtRp4263
(dp4264
g52
(dp4265
g60
I3
ssg61
Nsg54
(lp4266
g47
(g63
g49
NtRp4267
(dp4268
g52
(dp4269
sg61
g4263
sg54
(lp4270
g47
(g68
g49
NtRp4271
(dp4272
g52
(dp4273
sg61
g4267
sg54
(lp4274
g47
(g48
g49
NtRp4275
(dp4276
g52
(dp4277
g60
I3
ssg61
g4271
sg54
(lp4278
g47
(cgluon.html
SPAN
p4279
g49
NtRp4280
(dp4281
g52
(dp4282
S'_class'
p4283
S'highlighted'
p4284
ssg61
Nsg54
(lp4285
g4154
asbasbasbasbag47
(g63
g49
NtRp4286
(dp4287
g52
(dp4288
sg61
g4263
sg54
(lp4289
g47
(g68
g49
NtRp4290
(dp4291
g52
(dp4292
sg61
g4286
sg54
(lp4293
g47
(g48
g49
NtRp4294
(dp4295
g52
(dp4296
g60
I3
ssg61
g4290
sg54
(lp4297
g90
asbasbasbag47
(g63
g49
NtRp4298
(dp4299
g52
(dp4300
sg61
g4263
sg54
(lp4301
g47
(g68
g49
NtRp4302
(dp4303
g52
(dp4304
sg61
g4298
sg54
(lp4305
g47
(g48
g49
NtRp4306
(dp4307
g52
(dp4308
g60
I3
ssg61
g4302
sg54
(lp4309
S'http://web2py.com'
p4310
asbasbasbag47
(g63
g49
NtRp4311
(dp4312
g52
(dp4313
sg61
g4263
sg54
(lp4314
g47
(g68
g49
NtRp4315
(dp4316
g52
(dp4317
sg61
g4311
sg54
(lp4318
g47
(g48
g49
NtRp4319
(dp4320
g52
(dp4321
g60
I3
ssg61
g4315
sg54
(lp4322
g47
(g56
g49
NtRp4323
(dp4324
g52
(dp4325
g60
I2
ssg61
Nsg54
(lp4326
g47
(g63
g49
NtRp4327
(dp4328
g52
(dp4329
sg61
g4323
sg54
(lp4330
g47
(g68
g49
NtRp4331
(dp4332
g52
(dp4333
sg61
g4327
sg54
(lp4334
g47
(g48
g49
NtRp4335
(dp4336
g52
(dp4337
g60
I2
ssg61
g4331
sg54
(lp4338
g47
(g56
g49
NtRp4339
(dp4340
g52
(dp4341
g60
I1
ssg61
Nsg54
(lp4342
g47
(g63
g49
NtRp4343
(dp4344
g52
(dp4345
sg61
g4339
sg54
(lp4346
g47
(g68
g49
NtRp4347
(dp4348
g52
(dp4349
sg61
g4343
sg54
(lp4350
g47
(g48
g49
NtRp4351
(dp4352
g52
(dp4353
g60
I1
ssg61
g4347
sg54
(lp4354
g4208
(S's\x08\x00\x00\x00My Sites'
tRp4355
asbasbasbag47
(g63
g49
NtRp4356
(dp4357
g52
(dp4358
sg61
g4339
sg54
(lp4359
g47
(g68
g49
NtRp4360
(dp4361
g52
(dp4362
sg61
g4356
sg54
(lp4363
g47
(g48
g49
NtRp4364
(dp4365
g52
(dp4366
g60
I1
ssg61
g4360
sg54
(lp4367
I00
asbasbasbag47
(g63
g49
NtRp4368
(dp4369
g52
(dp4370
sg61
g4339
sg54
(lp4371
g47
(g68
g49
NtRp4372
(dp4373
g52
(dp4374
sg61
g4368
sg54
(lp4375
g47
(g48
g49
NtRp4376
(dp4377
g52
(dp4378
g60
I1
ssg61
g4372
sg54
(lp4379
S'/admin/default/site'
p4380
asbasbasbasbasbasbasbag47
(g63
g49
NtRp4381
(dp4382
g52
(dp4383
sg61
g4323
sg54
(lp4384
g47
(g68
g49
NtRp4385
(dp4386
g52
(dp4387
sg61
g4381
sg54
(lp4388
g47
(g48
g49
NtRp4389
(dp4390
g52
(dp4391
g60
I2
ssg61
g4385
sg54
(lp4392
g47
(g56
g49
NtRp4393
(dp4394
g52
(dp4395
g60
I1
ssg61
Nsg54
(lp4396
g47
(g63
g49
NtRp4397
(dp4398
g52
(dp4399
sg61
g4393
sg54
(lp4400
g47
(g68
g49
NtRp4401
(dp4402
g52
(dp4403
sg61
g4397
sg54
(lp4404
g47
(g48
g49
NtRp4405
(dp4406
g52
(dp4407
g60
I1
ssg61
g4401
sg54
(lp4408
g4208
(S's\x08\x00\x00\x00This App'
tRp4409
asbasbasbag47
(g63
g49
NtRp4410
(dp4411
g52
(dp4412
sg61
g4393
sg54
(lp4413
g47
(g68
g49
NtRp4414
(dp4415
g52
(dp4416
sg61
g4410
sg54
(lp4417
g47
(g48
g49
NtRp4418
(dp4419
g52
(dp4420
g60
I1
ssg61
g4414
sg54
(lp4421
I00
asbasbasbag47
(g63
g49
NtRp4422
(dp4423
g52
(dp4424
sg61
g4393
sg54
(lp4425
g47
(g68
g49
NtRp4426
(dp4427
g52
(dp4428
sg61
g4422
sg54
(lp4429
g47
(g48
g49
NtRp4430
(dp4431
g52
(dp4432
g60
I1
ssg61
g4426
sg54
(lp4433
S'/admin/default/design/Final_Impulse'
p4434
asbasbasbag47
(g63
g49
NtRp4435
(dp4436
g52
(dp4437
sg61
g4393
sg54
(lp4438
g47
(g68
g49
NtRp4439
(dp4440
g52
(dp4441
sg61
g4435
sg54
(lp4442
g47
(g48
g49
NtRp4443
(dp4444
g52
(dp4445
g60
I1
ssg61
g4439
sg54
(lp4446
(lp4447
(g4208
(S't\n\x00\x00\x00Controller'
tRp4448
I00
S'/admin/default/edit/Final_Impulse/controllers/default.py'
tp4449
a(g4208
(S't\x04\x00\x00\x00View'
tRp4450
I00
S'/admin/default/edit/Final_Impulse/views/default/index.html'
tp4451
a(g4208
(S't\x06\x00\x00\x00Layout'
tRp4452
I00
S'/admin/default/edit/Final_Impulse/views/layout.html'
tp4453
a(g4208
(S't\n\x00\x00\x00Stylesheet'
tRp4454
I00
S'/admin/default/edit/Final_Impulse/static/css/web2py.css'
tp4455
a(g4208
(S's\x08\x00\x00\x00DB Model'
tRp4456
I00
S'/admin/default/edit/Final_Impulse/models/db.py'
tp4457
a(g4208
(S's\n\x00\x00\x00Menu Model'
tRp4458
I00
S'/admin/default/edit/Final_Impulse/models/menu.py'
tp4459
a(g4208
(S't\x08\x00\x00\x00Database'
tRp4460
I00
S'/Final_Impulse/appadmin/index'
tp4461
a(g4208
(S't\x06\x00\x00\x00Errors'
tRp4462
I00
S'/admin/default/errors/Final_Impulse'
tp4463
a(g4208
(S't\x05\x00\x00\x00About'
tRp4464
I00
S'/admin/default/about/Final_Impulse'
tp4465
aasbasbasbasbasbasbasbag47
(g63
g49
NtRp4466
(dp4467
g52
(dp4468
sg61
g4323
sg54
(lp4469
g47
(g68
g49
NtRp4470
(dp4471
g52
(dp4472
sg61
g4466
sg54
(lp4473
g47
(g48
g49
NtRp4474
(dp4475
g52
(dp4476
g60
I2
ssg61
g4470
sg54
(lp4477
g47
(g56
g49
NtRp4478
(dp4479
g52
(dp4480
g60
I1
ssg61
Nsg54
(lp4481
g47
(g63
g49
NtRp4482
(dp4483
g52
(dp4484
sg61
g4478
sg54
(lp4485
g47
(g68
g49
NtRp4486
(dp4487
g52
(dp4488
sg61
g4482
sg54
(lp4489
g47
(g48
g49
NtRp4490
(dp4491
g52
(dp4492
g60
I1
ssg61
g4486
sg54
(lp4493
S'web2py.com'
p4494
asbasbasbag47
(g63
g49
NtRp4495
(dp4496
g52
(dp4497
sg61
g4478
sg54
(lp4498
g47
(g68
g49
NtRp4499
(dp4500
g52
(dp4501
sg61
g4495
sg54
(lp4502
g47
(g48
g49
NtRp4503
(dp4504
g52
(dp4505
g60
I1
ssg61
g4499
sg54
(lp4506
I00
asbasbasbag47
(g63
g49
NtRp4507
(dp4508
g52
(dp4509
sg61
g4478
sg54
(lp4510
g47
(g68
g49
NtRp4511
(dp4512
g52
(dp4513
sg61
g4507
sg54
(lp4514
g47
(g48
g49
NtRp4515
(dp4516
g52
(dp4517
g60
I1
ssg61
g4511
sg54
(lp4518
S'http://www.web2py.com'
p4519
asbasbasbag47
(g63
g49
NtRp4520
(dp4521
g52
(dp4522
sg61
g4478
sg54
(lp4523
g47
(g68
g49
NtRp4524
(dp4525
g52
(dp4526
sg61
g4520
sg54
(lp4527
g47
(g48
g49
NtRp4528
(dp4529
g52
(dp4530
g60
I1
ssg61
g4524
sg54
(lp4531
(lp4532
(g4208
(S't\x08\x00\x00\x00Download'
tRp4533
I00
S'http://www.web2py.com/examples/default/download'
p4534
tp4535
a(g4208
(S't\x07\x00\x00\x00Support'
tRp4536
I00
S'http://www.web2py.com/examples/default/support'
p4537
tp4538
a(g4208
(S't\x04\x00\x00\x00Demo'
tRp4539
I00
S'http://web2py.com/demo_admin'
p4540
tp4541
a(g4208
(S's\x0e\x00\x00\x00Quick Examples'
tRp4542
I00
S'http://web2py.com/examples/default/examples'
p4543
tp4544
a(g4208
(S't\x03\x00\x00\x00FAQ'
tRp4545
I00
S'http://web2py.com/AlterEgo'
p4546
tp4547
a(g4208
(S't\x06\x00\x00\x00Videos'
tRp4548
I00
S'http://www.web2py.com/examples/default/videos/'
p4549
tp4550
a(g4208
(S's\x11\x00\x00\x00Free Applications'
tRp4551
I00
S'http://web2py.com/appliances'
p4552
tp4553
a(g4208
(S't\x07\x00\x00\x00Plugins'
tRp4554
I00
S'http://web2py.com/plugins'
p4555
tp4556
a(g4208
(S't\x07\x00\x00\x00Layouts'
tRp4557
I00
S'http://web2py.com/layouts'
p4558
tp4559
a(g4208
(S't\x07\x00\x00\x00Recipes'
tRp4560
I00
S'http://web2pyslices.com/'
p4561
tp4562
a(g4208
(S't\x08\x00\x00\x00Semantic'
tRp4563
I00
S'http://web2py.com/semantic'
p4564
tp4565
aasbasbasbasbasbasbasbag47
(g63
g49
NtRp4566
(dp4567
g52
(dp4568
sg61
g4323
sg54
(lp4569
g47
(g68
g49
NtRp4570
(dp4571
g52
(dp4572
sg61
g4566
sg54
(lp4573
g47
(g48
g49
NtRp4574
(dp4575
g52
(dp4576
g60
I2
ssg61
g4570
sg54
(lp4577
g47
(g56
g49
NtRp4578
(dp4579
g52
(dp4580
g60
I1
ssg61
Nsg54
(lp4581
g47
(g63
g49
NtRp4582
(dp4583
g52
(dp4584
sg61
g4578
sg54
(lp4585
g47
(g68
g49
NtRp4586
(dp4587
g52
(dp4588
sg61
g4582
sg54
(lp4589
g47
(g48
g49
NtRp4590
(dp4591
g52
(dp4592
g60
I1
ssg61
g4586
sg54
(lp4593
g4208
(S't\r\x00\x00\x00Documentation'
tRp4594
asbasbasbag47
(g63
g49
NtRp4595
(dp4596
g52
(dp4597
sg61
g4578
sg54
(lp4598
g47
(g68
g49
NtRp4599
(dp4600
g52
(dp4601
sg61
g4595
sg54
(lp4602
g47
(g48
g49
NtRp4603
(dp4604
g52
(dp4605
g60
I1
ssg61
g4599
sg54
(lp4606
I00
asbasbasbag47
(g63
g49
NtRp4607
(dp4608
g52
(dp4609
sg61
g4578
sg54
(lp4610
g47
(g68
g49
NtRp4611
(dp4612
g52
(dp4613
sg61
g4607
sg54
(lp4614
g47
(g48
g49
NtRp4615
(dp4616
g52
(dp4617
g60
I1
ssg61
g4611
sg54
(lp4618
S'http://www.web2py.com/book'
p4619
asbasbasbag47
(g63
g49
NtRp4620
(dp4621
g52
(dp4622
sg61
g4578
sg54
(lp4623
g47
(g68
g49
NtRp4624
(dp4625
g52
(dp4626
sg61
g4620
sg54
(lp4627
g47
(g48
g49
NtRp4628
(dp4629
g52
(dp4630
g60
I1
ssg61
g4624
sg54
(lp4631
(lp4632
(g4208
(S't\x07\x00\x00\x00Preface'
tRp4633
I00
S'http://www.web2py.com/book/default/chapter/00'
p4634
tp4635
a(g4208
(S't\x0c\x00\x00\x00Introduction'
tRp4636
I00
S'http://www.web2py.com/book/default/chapter/01'
p4637
tp4638
a(g4208
(S't\x06\x00\x00\x00Python'
tRp4639
I00
S'http://www.web2py.com/book/default/chapter/02'
p4640
tp4641
a(g4208
(S't\x08\x00\x00\x00Overview'
tRp4642
I00
S'http://www.web2py.com/book/default/chapter/03'
p4643
tp4644
a(g4208
(S's\x08\x00\x00\x00The Core'
tRp4645
I00
S'http://www.web2py.com/book/default/chapter/04'
p4646
tp4647
a(g4208
(S's\t\x00\x00\x00The Views'
tRp4648
I00
S'http://www.web2py.com/book/default/chapter/05'
p4649
tp4650
a(g4208
(S't\x08\x00\x00\x00Database'
tRp4651
I00
S'http://www.web2py.com/book/default/chapter/06'
p4652
tp4653
a(g4208
(S's\x14\x00\x00\x00Forms and Validators'
tRp4654
I00
S'http://www.web2py.com/book/default/chapter/07'
p4655
tp4656
a(g4208
(S's\r\x00\x00\x00Email and SMS'
tRp4657
I00
S'http://www.web2py.com/book/default/chapter/08'
p4658
tp4659
a(g4208
(S's\x0e\x00\x00\x00Access Control'
tRp4660
I00
S'http://www.web2py.com/book/default/chapter/09'
p4661
tp4662
a(g4208
(S't\x08\x00\x00\x00Services'
tRp4663
I00
S'http://www.web2py.com/book/default/chapter/10'
p4664
tp4665
a(g4208
(S's\x0c\x00\x00\x00Ajax Recipes'
tRp4666
I00
S'http://www.web2py.com/book/default/chapter/11'
p4667
tp4668
a(g4208
(S's\x16\x00\x00\x00Components and Plugins'
tRp4669
I00
S'http://www.web2py.com/book/default/chapter/12'
p4670
tp4671
a(g4208
(S's\x12\x00\x00\x00Deployment Recipes'
tRp4672
I00
S'http://www.web2py.com/book/default/chapter/13'
p4673
tp4674
a(g4208
(S's\r\x00\x00\x00Other Recipes'
tRp4675
I00
S'http://www.web2py.com/book/default/chapter/14'
p4676
tp4677
a(g4208
(S's\r\x00\x00\x00Buy this book'
tRp4678
I00
S'http://stores.lulu.com/web2py'
p4679
tp4680
aasbasbasbasbasbasbasbag47
(g63
g49
NtRp4681
(dp4682
g52
(dp4683
sg61
g4323
sg54
(lp4684
g47
(g68
g49
NtRp4685
(dp4686
g52
(dp4687
sg61
g4681
sg54
(lp4688
g47
(g48
g49
NtRp4689
(dp4690
g52
(dp4691
g60
I2
ssg61
g4685
sg54
(lp4692
g47
(g56
g49
NtRp4693
(dp4694
g52
(dp4695
g60
I1
ssg61
Nsg54
(lp4696
g47
(g63
g49
NtRp4697
(dp4698
g52
(dp4699
sg61
g4693
sg54
(lp4700
g47
(g68
g49
NtRp4701
(dp4702
g52
(dp4703
sg61
g4697
sg54
(lp4704
g47
(g48
g49
NtRp4705
(dp4706
g52
(dp4707
g60
I1
ssg61
g4701
sg54
(lp4708
g4208
(S't\t\x00\x00\x00Community'
tRp4709
asbasbasbag47
(g63
g49
NtRp4710
(dp4711
g52
(dp4712
sg61
g4693
sg54
(lp4713
g47
(g68
g49
NtRp4714
(dp4715
g52
(dp4716
sg61
g4710
sg54
(lp4717
g47
(g48
g49
NtRp4718
(dp4719
g52
(dp4720
g60
I1
ssg61
g4714
sg54
(lp4721
I00
asbasbasbag47
(g63
g49
NtRp4722
(dp4723
g52
(dp4724
sg61
g4693
sg54
(lp4725
g47
(g68
g49
NtRp4726
(dp4727
g52
(dp4728
sg61
g4722
sg54
(lp4729
g47
(g48
g49
NtRp4730
(dp4731
g52
(dp4732
g60
I1
ssg61
g4726
sg54
(lp4733
Nasbasbasbag47
(g63
g49
NtRp4734
(dp4735
g52
(dp4736
sg61
g4693
sg54
(lp4737
g47
(g68
g49
NtRp4738
(dp4739
g52
(dp4740
sg61
g4734
sg54
(lp4741
g47
(g48
g49
NtRp4742
(dp4743
g52
(dp4744
g60
I1
ssg61
g4738
sg54
(lp4745
(lp4746
(g4208
(S't\x06\x00\x00\x00Groups'
tRp4747
I00
S'http://www.web2py.com/examples/default/usergroups'
p4748
tp4749
a(g4208
(S't\x07\x00\x00\x00Twitter'
tRp4750
I00
S'http://twitter.com/web2py'
p4751
tp4752
a(g4208
(S's\t\x00\x00\x00Live Chat'
tRp4753
I00
S'http://webchat.freenode.net/?channels=web2py'
p4754
tp4755
aasbasbasbasbasbasbasbag47
(g63
g49
NtRp4756
(dp4757
g52
(dp4758
sg61
g4323
sg54
(lp4759
g47
(g68
g49
NtRp4760
(dp4761
g52
(dp4762
sg61
g4756
sg54
(lp4763
g47
(g48
g49
NtRp4764
(dp4765
g52
(dp4766
g60
I2
ssg61
g4760
sg54
(lp4767
g47
(g56
g49
NtRp4768
(dp4769
g52
(dp4770
g60
I1
ssg61
Nsg54
(lp4771
g47
(g63
g49
NtRp4772
(dp4773
g52
(dp4774
sg61
g4768
sg54
(lp4775
g47
(g68
g49
NtRp4776
(dp4777
g52
(dp4778
sg61
g4772
sg54
(lp4779
g47
(g48
g49
NtRp4780
(dp4781
g52
(dp4782
g60
I1
ssg61
g4776
sg54
(lp4783
g4208
(S't\x07\x00\x00\x00Plugins'
tRp4784
asbasbasbag47
(g63
g49
NtRp4785
(dp4786
g52
(dp4787
sg61
g4768
sg54
(lp4788
g47
(g68
g49
NtRp4789
(dp4790
g52
(dp4791
sg61
g4785
sg54
(lp4792
g47
(g48
g49
NtRp4793
(dp4794
g52
(dp4795
g60
I1
ssg61
g4789
sg54
(lp4796
I00
asbasbasbag47
(g63
g49
NtRp4797
(dp4798
g52
(dp4799
sg61
g4768
sg54
(lp4800
g47
(g68
g49
NtRp4801
(dp4802
g52
(dp4803
sg61
g4797
sg54
(lp4804
g47
(g48
g49
NtRp4805
(dp4806
g52
(dp4807
g60
I1
ssg61
g4801
sg54
(lp4808
Nasbasbasbag47
(g63
g49
NtRp4809
(dp4810
g52
(dp4811
sg61
g4768
sg54
(lp4812
g47
(g68
g49
NtRp4813
(dp4814
g52
(dp4815
sg61
g4809
sg54
(lp4816
g47
(g48
g49
NtRp4817
(dp4818
g52
(dp4819
g60
I1
ssg61
g4813
sg54
(lp4820
(lp4821
(S'plugin_wiki'
p4822
I00
S'http://web2py.com/examples/default/download'
p4823
tp4824
a(g4208
(S's\r\x00\x00\x00Other Plugins'
tRp4825
I00
g4555
tp4826
a(g4208
(S's\x0e\x00\x00\x00Layout Plugins'
tRp4827
I00
g4558
tp4828
aasbasbasbasbasbasbasbasbasbasbasbasbasbasbasbasbasbasbasbag47
(g63
g49
NtRp4829
(dp4830
g52
(dp4831
sg61
g3750
sg54
(lp4832
g47
(g68
g49
NtRp4833
(dp4834
g52
(dp4835
g72
g73
ssg61
g4829
sg54
(lp4836
S'meta'
p4837
asbag47
(g68
g49
NtRp4838
(dp4839
g52
(dp4840
g79
g80
ssg61
g4829
sg54
(lp4841
S':'
asbag47
(g68
g49
NtRp4842
(dp4843
g52
(dp4844
sg61
g4829
sg54
(lp4845
g47
(g48
g49
NtRp4846
(dp4847
g52
(dp4848
g60
I5
ssg61
g4842
sg54
(lp4849
g47
(g56
g49
NtRp4850
(dp4851
g52
(dp4852
g60
I4
ssg61
Nsg54
(lp4853
g47
(g63
g49
NtRp4854
(dp4855
g52
(dp4856
sg61
g4850
sg54
(lp4857
g47
(g68
g49
NtRp4858
(dp4859
g52
(dp4860
g72
g73
ssg61
g4854
sg54
(lp4861
S'author'
p4862
asbag47
(g68
g49
NtRp4863
(dp4864
g52
(dp4865
g79
g80
ssg61
g4854
sg54
(lp4866
S':'
asbag47
(g68
g49
NtRp4867
(dp4868
g52
(dp4869
sg61
g4854
sg54
(lp4870
g47
(g48
g49
NtRp4871
(dp4872
g52
(dp4873
g60
I4
ssg61
g4867
sg54
(lp4874
S'Your Name <you@example.com>'
p4875
asbasbasbag47
(g63
g49
NtRp4876
(dp4877
g52
(dp4878
sg61
g4850
sg54
(lp4879
g47
(g68
g49
NtRp4880
(dp4881
g52
(dp4882
g72
g73
ssg61
g4876
sg54
(lp4883
S'description'
p4884
asbag47
(g68
g49
NtRp4885
(dp4886
g52
(dp4887
g79
g80
ssg61
g4876
sg54
(lp4888
S':'
asbag47
(g68
g49
NtRp4889
(dp4890
g52
(dp4891
sg61
g4876
sg54
(lp4892
g47
(g48
g49
NtRp4893
(dp4894
g52
(dp4895
g60
I4
ssg61
g4889
sg54
(lp4896
S'a cool new app'
p4897
asbasbasbag47
(g63
g49
NtRp4898
(dp4899
g52
(dp4900
sg61
g4850
sg54
(lp4901
g47
(g68
g49
NtRp4902
(dp4903
g52
(dp4904
g72
g73
ssg61
g4898
sg54
(lp4905
S'generator'
p4906
asbag47
(g68
g49
NtRp4907
(dp4908
g52
(dp4909
g79
g80
ssg61
g4898
sg54
(lp4910
S':'
asbag47
(g68
g49
NtRp4911
(dp4912
g52
(dp4913
sg61
g4898
sg54
(lp4914
g47
(g48
g49
NtRp4915
(dp4916
g52
(dp4917
g60
I4
ssg61
g4911
sg54
(lp4918
S'Web2py Web Framework'
p4919
asbasbasbag47
(g63
g49
NtRp4920
(dp4921
g52
(dp4922
sg61
g4850
sg54
(lp4923
g47
(g68
g49
NtRp4924
(dp4925
g52
(dp4926
g72
g73
ssg61
g4920
sg54
(lp4927
S'keywords'
p4928
asbag47
(g68
g49
NtRp4929
(dp4930
g52
(dp4931
g79
g80
ssg61
g4920
sg54
(lp4932
S':'
asbag47
(g68
g49
NtRp4933
(dp4934
g52
(dp4935
sg61
g4920
sg54
(lp4936
g47
(g48
g49
NtRp4937
(dp4938
g52
(dp4939
g60
I4
ssg61
g4933
sg54
(lp4940
S'web2py, python, framework'
p4941
asbasbasbasbasbasbasbag47
(g63
g49
NtRp4942
(dp4943
g52
(dp4944
sg61
g3750
sg54
(lp4945
g47
(g68
g49
NtRp4946
(dp4947
g52
(dp4948
g72
g73
ssg61
g4942
sg54
(lp4949
S'models_to_run'
p4950
asbag47
(g68
g49
NtRp4951
(dp4952
g52
(dp4953
g79
g80
ssg61
g4942
sg54
(lp4954
S':'
asbag47
(g68
g49
NtRp4955
(dp4956
g52
(dp4957
sg61
g4942
sg54
(lp4958
g47
(g48
g49
NtRp4959
(dp4960
g52
(dp4961
g60
I5
ssg61
g4955
sg54
(lp4962
g47
(g56
g49
NtRp4963
(dp4964
g52
(dp4965
g60
I4
ssg61
Nsg54
(lp4966
g47
(g63
g49
NtRp4967
(dp4968
g52
(dp4969
sg61
g4963
sg54
(lp4970
g47
(g68
g49
NtRp4971
(dp4972
g52
(dp4973
sg61
g4967
sg54
(lp4974
g47
(g48
g49
NtRp4975
(dp4976
g52
(dp4977
g60
I4
ssg61
g4971
sg54
(lp4978
S'^\\w+\\.py$'
p4979
asbasbasbag47
(g63
g49
NtRp4980
(dp4981
g52
(dp4982
sg61
g4963
sg54
(lp4983
g47
(g68
g49
NtRp4984
(dp4985
g52
(dp4986
sg61
g4980
sg54
(lp4987
g47
(g48
g49
NtRp4988
(dp4989
g52
(dp4990
g60
I4
ssg61
g4984
sg54
(lp4991
S'^default/\\w+\\.py$'
p4992
asbasbasbag47
(g63
g49
NtRp4993
(dp4994
g52
(dp4995
sg61
g4963
sg54
(lp4996
g47
(g68
g49
NtRp4997
(dp4998
g52
(dp4999
sg61
g4993
sg54
(lp5000
g47
(g48
g49
NtRp5001
(dp5002
g52
(dp5003
g60
I4
ssg61
g4997
sg54
(lp5004
S'^default/index/\\w+\\.py$'
p5005
asbasbasbasbasbasbasbag47
(g63
g49
NtRp5006
(dp5007
g52
(dp5008
sg61
g3750
sg54
(lp5009
g47
(g68
g49
NtRp5010
(dp5011
g52
(dp5012
g72
g73
ssg61
g5006
sg54
(lp5013
S'postprocessing'
p5014
asbag47
(g68
g49
NtRp5015
(dp5016
g52
(dp5017
g79
g80
ssg61
g5006
sg54
(lp5018
S':'
asbag47
(g68
g49
NtRp5019
(dp5020
g52
(dp5021
sg61
g5006
sg54
(lp5022
g47
(g48
g49
NtRp5023
(dp5024
g52
(dp5025
g60
I5
ssg61
g5019
sg54
(lp5026
g47
(g56
g49
NtRp5027
(dp5028
g52
(dp5029
g60
I4
ssg61
Nsg54
(lp5030
sbasbasbasbag47
(g63
g49
NtRp5031
(dp5032
g52
(dp5033
sg61
g3750
sg54
(lp5034
g47
(g68
g49
NtRp5035
(dp5036
g52
(dp5037
g72
g73
ssg61
g5031
sg54
(lp5038
S'session_cookie_expires'
p5039
asbag47
(g68
g49
NtRp5040
(dp5041
g52
(dp5042
g79
g80
ssg61
g5031
sg54
(lp5043
S':'
asbag47
(g68
g49
NtRp5044
(dp5045
g52
(dp5046
sg61
g5031
sg54
(lp5047
g47
(g48
g49
NtRp5048
(dp5049
g52
(dp5050
g60
I5
ssg61
g5044
sg54
(lp5051
S'None'
p5052
asbasbasbag47
(g63
g49
NtRp5053
(dp5054
g52
(dp5055
sg61
g3750
sg54
(lp5056
g47
(g68
g49
NtRp5057
(dp5058
g52
(dp5059
g72
g73
ssg61
g5053
sg54
(lp5060
S'session_data_name'
p5061
asbag47
(g68
g49
NtRp5062
(dp5063
g52
(dp5064
g79
g80
ssg61
g5053
sg54
(lp5065
S':'
asbag47
(g68
g49
NtRp5066
(dp5067
g52
(dp5068
sg61
g5053
sg54
(lp5069
g47
(g48
g49
NtRp5070
(dp5071
g52
(dp5072
g60
I5
ssg61
g5066
sg54
(lp5073
S'session_data_final_impulse'
p5074
asbasbasbag47
(g63
g49
NtRp5075
(dp5076
g52
(dp5077
sg61
g3750
sg54
(lp5078
g47
(g68
g49
NtRp5079
(dp5080
g52
(dp5081
g72
g73
ssg61
g5075
sg54
(lp5082
S'session_file'
p5083
asbag47
(g68
g49
NtRp5084
(dp5085
g52
(dp5086
g79
g80
ssg61
g5075
sg54
(lp5087
S':'
asbag47
(g68
g49
NtRp5088
(dp5089
g52
(dp5090
sg61
g5075
sg54
(lp5091
g47
(g48
g49
NtRp5092
(dp5093
g52
(dp5094
g60
I5
ssg61
g5088
sg54
(lp5095
S"<open file '/Users/abaric/Downloads/web2py/web2py.app/Contents/Resources/applications/Final_Impulse/sessions/127.0.0.1-196d16f0-df2a-4177-8038-20bcfac6a099', mode 'rb+' at 0x89595c0>"
p5096
asbasbasbag47
(g63
g49
NtRp5097
(dp5098
g52
(dp5099
sg61
g3750
sg54
(lp5100
g47
(g68
g49
NtRp5101
(dp5102
g52
(dp5103
g72
g73
ssg61
g5097
sg54
(lp5104
S'session_filename'
p5105
asbag47
(g68
g49
NtRp5106
(dp5107
g52
(dp5108
g79
g80
ssg61
g5097
sg54
(lp5109
S':'
asbag47
(g68
g49
NtRp5110
(dp5111
g52
(dp5112
sg61
g5097
sg54
(lp5113
g47
(g48
g49
NtRp5114
(dp5115
g52
(dp5116
g60
I5
ssg61
g5110
sg54
(lp5117
S'/Users/abaric/Downloads/web2py/web2py.app/Contents/Resources/applications/Final_Impulse/sessions/127.0.0.1-196d16f0-df2a-4177-8038-20bcfac6a099'
p5118
asbasbasbag47
(g63
g49
NtRp5119
(dp5120
g52
(dp5121
sg61
g3750
sg54
(lp5122
g47
(g68
g49
NtRp5123
(dp5124
g52
(dp5125
g72
g73
ssg61
g5119
sg54
(lp5126
S'session_id'
p5127
asbag47
(g68
g49
NtRp5128
(dp5129
g52
(dp5130
g79
g80
ssg61
g5119
sg54
(lp5131
S':'
asbag47
(g68
g49
NtRp5132
(dp5133
g52
(dp5134
sg61
g5119
sg54
(lp5135
g47
(g48
g49
NtRp5136
(dp5137
g52
(dp5138
g60
I5
ssg61
g5132
sg54
(lp5139
g610
asbasbasbag47
(g63
g49
NtRp5140
(dp5141
g52
(dp5142
sg61
g3750
sg54
(lp5143
g47
(g68
g49
NtRp5144
(dp5145
g52
(dp5146
g72
g73
ssg61
g5140
sg54
(lp5147
S'session_id_name'
p5148
asbag47
(g68
g49
NtRp5149
(dp5150
g52
(dp5151
g79
g80
ssg61
g5140
sg54
(lp5152
S':'
asbag47
(g68
g49
NtRp5153
(dp5154
g52
(dp5155
sg61
g5140
sg54
(lp5156
g47
(g48
g49
NtRp5157
(dp5158
g52
(dp5159
g60
I5
ssg61
g5153
sg54
(lp5160
g3807
asbasbasbag47
(g63
g49
NtRp5161
(dp5162
g52
(dp5163
sg61
g3750
sg54
(lp5164
g47
(g68
g49
NtRp5165
(dp5166
g52
(dp5167
g72
g73
ssg61
g5161
sg54
(lp5168
S'session_locked'
p5169
asbag47
(g68
g49
NtRp5170
(dp5171
g52
(dp5172
g79
g80
ssg61
g5161
sg54
(lp5173
S':'
asbag47
(g68
g49
NtRp5174
(dp5175
g52
(dp5176
sg61
g5161
sg54
(lp5177
g47
(g48
g49
NtRp5178
(dp5179
g52
(dp5180
g60
I5
ssg61
g5174
sg54
(lp5181
g1863
asbasbasbag47
(g63
g49
NtRp5182
(dp5183
g52
(dp5184
sg61
g3750
sg54
(lp5185
g47
(g68
g49
NtRp5186
(dp5187
g52
(dp5188
g72
g73
ssg61
g5182
sg54
(lp5189
S'session_new'
p5190
asbag47
(g68
g49
NtRp5191
(dp5192
g52
(dp5193
g79
g80
ssg61
g5182
sg54
(lp5194
S':'
asbag47
(g68
g49
NtRp5195
(dp5196
g52
(dp5197
sg61
g5182
sg54
(lp5198
g47
(g48
g49
NtRp5199
(dp5200
g52
(dp5201
g60
I5
ssg61
g5195
sg54
(lp5202
g90
asbasbasbag47
(g63
g49
NtRp5203
(dp5204
g52
(dp5205
sg61
g3750
sg54
(lp5206
g47
(g68
g49
NtRp5207
(dp5208
g52
(dp5209
g72
g73
ssg61
g5203
sg54
(lp5210
S'session_storage_type'
p5211
asbag47
(g68
g49
NtRp5212
(dp5213
g52
(dp5214
g79
g80
ssg61
g5203
sg54
(lp5215
S':'
asbag47
(g68
g49
NtRp5216
(dp5217
g52
(dp5218
sg61
g5203
sg54
(lp5219
g47
(g48
g49
NtRp5220
(dp5221
g52
(dp5222
g60
I5
ssg61
g5216
sg54
(lp5223
g3294
asbasbasbag47
(g63
g49
NtRp5224
(dp5225
g52
(dp5226
sg61
g3750
sg54
(lp5227
g47
(g68
g49
NtRp5228
(dp5229
g52
(dp5230
g72
g73
ssg61
g5224
sg54
(lp5231
S'status'
p5232
asbag47
(g68
g49
NtRp5233
(dp5234
g52
(dp5235
g79
g80
ssg61
g5224
sg54
(lp5236
S':'
asbag47
(g68
g49
NtRp5237
(dp5238
g52
(dp5239
sg61
g5224
sg54
(lp5240
g47
(g48
g49
NtRp5241
(dp5242
g52
(dp5243
g60
I5
ssg61
g5237
sg54
(lp5244
S'200'
p5245
asbasbasbag47
(g63
g49
NtRp5246
(dp5247
g52
(dp5248
sg61
g3750
sg54
(lp5249
g47
(g68
g49
NtRp5250
(dp5251
g52
(dp5252
g72
g73
ssg61
g5246
sg54
(lp5253
S'subtitle'
p5254
asbag47
(g68
g49
NtRp5255
(dp5256
g52
(dp5257
g79
g80
ssg61
g5246
sg54
(lp5258
S':'
asbag47
(g68
g49
NtRp5259
(dp5260
g52
(dp5261
sg61
g5246
sg54
(lp5262
g47
(g48
g49
NtRp5263
(dp5264
g52
(dp5265
g60
I5
ssg61
g5259
sg54
(lp5266
g4208
(S's\r\x00\x00\x00customize me!'
tRp5267
asbasbasbag47
(g63
g49
NtRp5268
(dp5269
g52
(dp5270
sg61
g3750
sg54
(lp5271
g47
(g68
g49
NtRp5272
(dp5273
g52
(dp5274
g72
g73
ssg61
g5268
sg54
(lp5275
S'title'
p5276
asbag47
(g68
g49
NtRp5277
(dp5278
g52
(dp5279
g79
g80
ssg61
g5268
sg54
(lp5280
S':'
asbag47
(g68
g49
NtRp5281
(dp5282
g52
(dp5283
sg61
g5268
sg54
(lp5284
g47
(g48
g49
NtRp5285
(dp5286
g52
(dp5287
g60
I5
ssg61
g5281
sg54
(lp5288
S'Final Impulse'
p5289
asbasbasbag47
(g63
g49
NtRp5290
(dp5291
g52
(dp5292
sg61
g3750
sg54
(lp5293
g47
(g68
g49
NtRp5294
(dp5295
g52
(dp5296
g72
g73
ssg61
g5290
sg54
(lp5297
S'view'
p5298
asbag47
(g68
g49
NtRp5299
(dp5300
g52
(dp5301
g79
g80
ssg61
g5290
sg54
(lp5302
S':'
asbag47
(g68
g49
NtRp5303
(dp5304
g52
(dp5305
sg61
g5290
sg54
(lp5306
g47
(g48
g49
NtRp5307
(dp5308
g52
(dp5309
g60
I5
ssg61
g5303
sg54
(lp5310
S'default/index.html'
p5311
asbasbasbasbasbsS'locals'
p5312
(dp5313
S'OBJECT'
p5314
S"<class 'gluon.html.OBJECT'>"
p5315
sS'SQLDB'
p5316
S"<class 'gluon.dal.DAL'>"
p5317
sg3354
S"<Storage {'_user_agent': {'is_mobile': False, 'i...ssion_hash': '83f1018c15418e8e5dcc38701b14dd79'}>"
p5318
sS'LINK'
p5319
S"<class 'gluon.html.LINK'>"
p5320
sS'BR'
p5321
S"<class 'gluon.html.BR'>"
p5322
sS'local_import'
p5323
S'<function <lambda> at 0x767f6b0>'
p5324
sS'OPTGROUP'
p5325
S"<class 'gluon.html.OPTGROUP'>"
p5326
sS'PRE'
p5327
S"<class 'gluon.html.PRE'>"
p5328
sS'IS_INT_IN_RANGE'
p5329
S"<class 'gluon.validators.IS_INT_IN_RANGE'>"
p5330
sS'IS_LOWER'
p5331
S"<class 'gluon.validators.IS_LOWER'>"
p5332
sS'IS_STRONG'
p5333
S"<class 'gluon.validators.IS_STRONG'>"
p5334
sS'cache'
p5335
S'<gluon.cache.Cache object at 0x92ada30>'
p5336
sS'IS_IN_DB'
p5337
S"<class 'gluon.validators.IS_IN_DB'>"
p5338
sS'TAG'
p5339
S'<gluon.html.__TAG__ object at 0x408d9f0>'
p5340
sS'SQLField'
p5341
S"<class 'gluon.dal.Field'>"
p5342
sS'BODY'
p5343
S"<class 'gluon.html.BODY'>"
p5344
sS'IS_DATE_IN_RANGE'
p5345
S"<class 'gluon.validators.IS_DATE_IN_RANGE'>"
p5346
sS'IFRAME'
p5347
S"<class 'gluon.html.IFRAME'>"
p5348
sS'URL'
p5349
S'<function URL at 0x4079bf0>'
p5350
sS'__file__'
p5351
S"'/Users/abaric/Downloads/web2py/web2py.app/Conten...sources/applications/Final_Impulse/models/menu.py'"
p5352
sS'db'
p5353
S'<DAL uri="sqlite://storage.sqlite">'
p5354
sS'auth'
p5355
S'<gluon.tools.Auth object at 0x92adf30>'
p5356
sS'P'
S"<class 'gluon.html.P'>"
p5357
sS'TFOOT'
p5358
S"<class 'gluon.html.TFOOT'>"
p5359
sS'XHTML'
p5360
S"<class 'gluon.html.XHTML'>"
p5361
sS'ON'
p5362
g1863
sS'OL'
p5363
S"<class 'gluon.html.OL'>"
p5364
sS'TEXTAREA'
p5365
S"<class 'gluon.html.TEXTAREA'>"
p5366
sS'MENU'
p5367
S"<class 'gluon.html.MENU'>"
p5368
sS'LOAD'
p5369
S'<function LOAD at 0x431d970>'
p5370
sS'CODE'
p5371
S"<class 'gluon.html.CODE'>"
p5372
sS'HTTP'
p5373
S"<class 'gluon.http.HTTP'>"
p5374
sS'HR'
p5375
S"<class 'gluon.html.HR'>"
p5376
sS'IS_DATETIME'
p5377
S"<class 'gluon.validators.IS_DATETIME'>"
p5378
sS'HEAD'
p5379
S"<class 'gluon.html.HEAD'>"
p5380
sS'LABEL'
p5381
S"<class 'gluon.html.LABEL'>"
p5382
sS'CLEANUP'
p5383
S"<class 'gluon.validators.CLEANUP'>"
p5384
sS'SELECT'
p5385
S"<class 'gluon.html.SELECT'>"
p5386
sS'CENTER'
p5387
S"<class 'gluon.html.CENTER'>"
p5388
sS'Crud'
p5389
S"<class 'gluon.tools.Crud'>"
p5390
sS'Auth'
p5391
S"<class 'gluon.tools.Auth'>"
p5392
sS'__builtins__'
p5393
S"{'ArithmeticError': <type 'exceptions.ArithmeticError'>, 'AssertionError': <type 'exceptions.AssertionError'>, 'AttributeError': <type 'exceptions.AttributeError'>, 'BaseException': <type 'exceptions.BaseException'>, 'DeprecationWarning': <type 'exceptions.DeprecationWarning'>, 'EOFError': <type 'exceptions.EOFError'>, 'Ellipsis': Ellipsis, 'EnvironmentError': <type 'exceptions.EnvironmentError'>, 'Exception': <type 'exceptions.Exception'>, 'False': False, ...}"
p5394
sS'HTML'
p5395
S"<class 'gluon.html.HTML'>"
p5396
sS'SQLFORM'
p5397
S"<class 'gluon.sqlhtml.SQLFORM'>"
p5398
sS'EM'
p5399
S"<class 'gluon.html.EM'>"
p5400
sS'redirect'
p5401
S'<function redirect at 0x3bd0530>'
p5402
sS'FIELDSET'
p5403
S"<class 'gluon.html.FIELDSET'>"
p5404
sS'IS_EQUAL_TO'
p5405
S"<class 'gluon.validators.IS_EQUAL_TO'>"
p5406
sS'embed64'
p5407
S'<function embed64 at 0x408f830>'
p5408
sS'IS_LIST_OF'
p5409
S"<class 'gluon.validators.IS_LIST_OF'>"
p5410
sS'__name__'
p5411
S"'__restricted__'"
p5412
sS'EMBED'
p5413
S"<class 'gluon.html.EMBED'>"
p5414
sS'_'
S'<function _ at 0x8c4fef0>'
p5415
sS'FORM'
p5416
S"<class 'gluon.html.FORM'>"
p5417
sS'H2'
p5418
S"<class 'gluon.html.H2'>"
p5419
sS'H3'
p5420
S"<class 'gluon.html.H3'>"
p5421
sS'BUTTON'
p5422
S"<class 'gluon.html.BUTTON'>"
p5423
sS'H1'
p5424
S"<class 'gluon.html.H1'>"
p5425
sS'H6'
p5426
S"<class 'gluon.html.H6'>"
p5427
sS'H4'
p5428
S"<class 'gluon.html.H4'>"
p5429
sS'H5'
p5430
S"<class 'gluon.html.H5'>"
p5431
sS'UL'
p5432
S"<class 'gluon.html.UL'>"
p5433
sS'IS_UPPER'
p5434
S"<class 'gluon.validators.IS_UPPER'>"
p5435
sS'xmlescape'
p5436
S'<function xmlescape at 0x40797b0>'
p5437
sS'IS_TIME'
p5438
S"<class 'gluon.validators.IS_TIME'>"
p5439
sS'OPTION'
p5440
S"<class 'gluon.html.OPTION'>"
p5441
sS'TITLE'
p5442
S"<class 'gluon.html.TITLE'>"
p5443
sS'CRYPT'
p5444
S"<class 'gluon.validators.CRYPT'>"
p5445
sS'IS_EMPTY_OR'
p5446
S"<class 'gluon.validators.IS_EMPTY_OR'>"
p5447
sS'MARKMIN'
p5448
S"<class 'gluon.html.MARKMIN'>"
p5449
sS'INPUT'
p5450
S"<class 'gluon.html.INPUT'>"
p5451
sS'STRONG'
p5452
S"<class 'gluon.html.STRONG'>"
p5453
sS'COL'
p5454
S"<class 'gluon.html.COL'>"
p5455
sS'SCRIPT'
p5456
S"<class 'gluon.html.SCRIPT'>"
p5457
sS'TABLE'
p5458
S"<class 'gluon.html.TABLE'>"
p5459
sS'IS_IPV4'
p5460
S"<class 'gluon.validators.IS_IPV4'>"
p5461
sS'IS_LENGTH'
p5462
S"<class 'gluon.validators.IS_LENGTH'>"
p5463
sS'XML'
p5464
S"<class 'gluon.html.XML'>"
p5465
sS'B'
S"<class 'gluon.html.B'>"
p5466
sS'IMG'
p5467
S"<class 'gluon.html.IMG'>"
p5468
sS'SQLTABLE'
p5469
S"<class 'gluon.sqlhtml.SQLTABLE'>"
p5470
sS'IS_MATCH'
p5471
S"<class 'gluon.validators.IS_MATCH'>"
p5472
sS'IS_ALPHANUMERIC'
p5473
S"<class 'gluon.validators.IS_ALPHANUMERIC'>"
p5474
sS'SPAN'
p5475
S"<class 'gluon.html.SPAN'>"
p5476
sS'IS_SLUG'
p5477
S"<class 'gluon.validators.IS_SLUG'>"
p5478
sS'BEAUTIFY'
p5479
S"<class 'gluon.html.BEAUTIFY'>"
p5480
sS'META'
p5481
S"<class 'gluon.html.META'>"
p5482
sS'IS_DATE'
p5483
S"<class 'gluon.validators.IS_DATE'>"
p5484
sS'IS_EMAIL'
p5485
S"<class 'gluon.validators.IS_EMAIL'>"
p5486
sS'IS_NOT_EMPTY'
p5487
S"<class 'gluon.validators.IS_NOT_EMPTY'>"
p5488
sS'IS_FLOAT_IN_RANGE'
p5489
S"<class 'gluon.validators.IS_FLOAT_IN_RANGE'>"
p5490
sS'TBODY'
p5491
S"<class 'gluon.html.TBODY'>"
p5492
sS'CAT'
p5493
S"<class 'gluon.html.CAT'>"
p5494
sS'Field'
p5495
S"<class 'gluon.dal.Field'>"
p5496
sS'DIV'
p5497
S"<class 'gluon.html.DIV'>"
p5498
sS'LEGEND'
p5499
S"<class 'gluon.html.LEGEND'>"
p5500
sS'COLGROUP'
p5501
S"<class 'gluon.html.COLGROUP'>"
p5502
sS'DAL'
p5503
S"<class 'gluon.dal.DAL'>"
p5504
sS'TT'
p5505
S"<class 'gluon.html.TT'>"
p5506
sS'TR'
p5507
S"<class 'gluon.html.TR'>"
p5508
sS'LI'
p5509
S"<class 'gluon.html.LI'>"
p5510
sS'TH'
p5511
S"<class 'gluon.html.TH'>"
p5512
sS'TD'
p5513
S"<class 'gluon.html.TD'>"
p5514
sS'IS_URL'
p5515
S"<class 'gluon.validators.IS_URL'>"
p5516
sS'A'
S"<class 'gluon.html.A'>"
p5517
sS'STYLE'
p5518
S"<class 'gluon.html.STYLE'>"
p5519
sS'IS_DATETIME_IN_RANGE'
p5520
S"<class 'gluon.validators.IS_DATETIME_IN_RANGE'>"
p5521
sS'IS_IMAGE'
p5522
S"<class 'gluon.validators.IS_IMAGE'>"
p5523
sS'I'
S"<class 'gluon.html.I'>"
p5524
sS'crud'
p5525
S'<gluon.tools.Crud object at 0x9066a50>'
p5526
sS'IS_NOT_IN_DB'
p5527
S"<class 'gluon.validators.IS_NOT_IN_DB'>"
p5528
sg3745
S"<Storage {'body': <cStringIO.StringO object at 0...da> at 0x767fbf0>, 'view': 'default/index.html'}>"
p5529
sS'THEAD'
p5530
S"<class 'gluon.html.THEAD'>"
p5531
sS'IS_NULL_OR'
p5532
S"<class 'gluon.validators.IS_EMPTY_OR'>"
p5533
sg46
S"<Storage {'function': 'index', 'body': <cStringI...ions/Final_Impulse/', 'post_vars': <Storage {}>}>"
p5534
sS'IS_EXPR'
p5535
S"<class 'gluon.validators.IS_EXPR'>"
p5536
sS'T'
S'<gluon.languages.translator object at 0x92add50>'
p5537
sS'IS_IN_SET'
p5538
S"<class 'gluon.validators.IS_IN_SET'>"
p5539
sS'IS_UPLOAD_FILENAME'
p5540
S"<class 'gluon.validators.IS_UPLOAD_FILENAME'>"
p5541
sS'IS_DECIMAL_IN_RANGE'
p5542
S"<class 'gluon.validators.IS_DECIMAL_IN_RANGE'>"
p5543
sssS'traceback'
p5544
S'Traceback (most recent call last):\n  File "gluon/main.py", line 538, in wsgibase\n  File "gluon/main.py", line 225, in serve_controller\n  File "gluon/compileapp.py", line 671, in run_view_in\n  File "gluon/template.py", line 781, in parse_template\n  File "gluon/template.py", line 312, in __init__\n  File "gluon/template.py", line 752, in parse\n  File "gluon/template.py", line 467, in extend\n  File "gluon/template.py", line 432, in _get_file_text\n  File "<string>", line 1, in <module>\nNameError: name \'layout\' is not defined\n'
p5545
s.