(dp1
S'output'
p2
S"<type 'exceptions.AttributeError'> 'NoneType' object has no attribute 'id'"
p3
sS'layer'
p4
S'/Users/abaric/Downloads/web2py/web2py.app/Contents/Resources/applications/Final_Impulse/controllers/default.py'
p5
sS'code'
p6
S"from gluon.tools import datetime\nfrom gluon.tools import Auth\n        \n@auth.requires_login()\n\ndef user():\n    return dict(form=auth())\n    \n#def load_roles():\n #  session.user_name=auth.user.first_name\n  # session.roles=[]\n   #     \n    #    if auth.has_membership('teacher'):\n     #       session.user_teacher_id=db(db.teacher.email==auth.user.email).select().first().id\n      #      t=('teacher','load_courses',session.user_teacher_id)\n       #     session.roles.append(t)\n        #    \n        #if auth.has_membership('advisor'):\n          #  session.user_advisor_id=db(db.advisor.email==auth.user.email).select().first().id\n           # a=('advisor','load_advisees',session.user_advisor_id)\n            #session.roles.append(a)\n            #\n        #if auth.has_membership('division_level'):\n         #   session.user_division_level_id=db(db.division_level.email==auth.user.email).select().first().id\n          #  divl=('division level','load_departments',session.user_division_level_id)\n           # session.roles.append(divl)\n                                      \ndef index():\n    return locals()\n\ndef download():\n    return response.download(request, db)\n\ndef show_image_comments():\n    image_form=SQLFORM(db.image,fields=['title','file'],labels={'file':'Your Image'})\n    image_form.vars.author_id=auth.user.id\n    if image_form.process().accepted:\n        response.flash='image submitted!'\n    images=db(db.image).select(db.image.ALL, orderby=db.image.id)\n    d={}\n    for image in images:\n        comments=db((db.image_comment.image_id==image.id) &\\\n                   (db.auth_user.id==db.image_comment.author_id)).select() \n        tuple_list=[]       \n        for comment in comments:\n            author=('%s %s')%(comment.auth_user.first_name,comment.auth_user.last_name)\n            body=('%s')%(comment.image_comment.body)\n            t=(author,body)\n            tuple_list.append(t)\n        d[image.id]=tuple_list\n  \n    form = SQLFORM(db.writing_comment)\n    if form.process().accepted:\n        response.flash = 'your comment is posted'\n    #images = db(db.image_comment.image_id==image.id).select()\n    return locals()\n    \ndef show_writing_comments():\n    writings = db().select(db.writing.ALL, orderby=db.writing.id)\n    d={}\n    for writing in writings:\n        comments=db((db.writing_comment.writing_id==writing.id) &\\\n                   (db.auth_user.id==db.writing_comment.author_id)).select() \n        tuple_list=[]       \n        for comment in comments:\n            author=('%s %s')%(comment.auth_user.first_name,comment.auth_user.last_name)\n            body=('%s')%(comment.writing_comment.body)\n            t=(author,body)\n            tuple_list.append(t)\n        d[writing.id]=tuple_list\n  \n    form = SQLFORM(db.writing_comment)\n    if form.process().accepted:\n        response.flash = 'your comment is posted'\n    #comments = db(db.writing_comment.writing_id==writing.id).select()\n    return locals()\n\ndef show_video_comments():\n    video = db.video(request.args(0))\n    videos=db().select(db.video.ALL, orderby=db.video.id)\n    video_comment=db.video_comment(request.args(0))\n    d={}\n    for video in videos:\n        comments=db((db.video_comment.video_id==video.id) &\\\n                   (db.auth_user.id==db.video_comment.author_id)).select() \n        tuple_list=[]       \n        for comment in comments:\n            author=('%s %s')%(comment.auth_user.first_name,comment.auth_user.last_name)\n            body=('%s')%(comment.video_comment.body)\n            t=(author,body)\n            tuple_list.append(t)\n        d[video.id]=tuple_list\n    form = SQLFORM(db.video_comment)\n    if form.process().accepted:\n        response.flash = 'your comment is posted'\n    return locals()  \n\ndef insert_writing_comment():\n    if auth.user:\n        writing_comment=request.post_vars.writing_comment\n       # db.writing_comment.insert(video_id=video_id,video_comment_id=video_comment_id, author_id=author_id,email=email,body=body)\n        writing_id=request.args(0)\n        db.writing_comment.insert(author_id=auth.user.id,\n                                  writing_id=writing_id,\n                                  email=None,\n                                  body=writing_comment,\n                                  date_of_entry=datetime.datetime.today())\n        db.commit()\n       \n    else:\n        session.flash='You must log in to post a comment.'\n    redirect(URL('show_writing_comments'))\n    return locals()\n\n\ndef insert_image_comment():\n    if auth.user:\n        image_comment=request.post_vars.image_comment\n       # db.writing_comment.insert(video_id=video_id,video_comment_id=video_comment_id, author_id=author_id,email=email,body=body)\n        image_id=request.args(0)\n        db.image_comment.insert(author_id=auth.user.id,\n                                  image_id=image_id,\n                                  email=None,\n                                  body=image_comment,\n                                  date_of_entry=datetime.datetime.today())\n        db.commit()\n       \n    else:\n        session.flash='You must log in to post a comment.'\n    redirect(URL('show_image_comments'))\n    return locals()\n    \ndef insert_video_comment():\n    if auth.user:\n        video_comment=request.post_vars.video_comment\n        video_id=request.args(0)\n        db.video_comment.insert(author_id=auth.user.id,\n                                  video_id=video_id,\n                                  email=None,\n                                  body=video_comment,\n                                  date_of_entry=datetime.datetime.today())\n        db.commit()\n       \n    else:\n        session.flash='You must log in to post a comment.'\n    redirect(URL('show_video_comments'))\n    return locals()\n\nresponse._vars=response._caller(show_image_comments)\n"
p7
sS'snapshot'
p8
(dp9
S'exception'
p10
(dp11
S'__hash__'
p12
S"<method-wrapper '__hash__' of exceptions.AttributeError object at 0x8b06c60>"
p13
sS'__setattr__'
p14
S"<method-wrapper '__setattr__' of exceptions.AttributeError object at 0x8b06c60>"
p15
sS'__reduce_ex__'
p16
S'<built-in method __reduce_ex__ of exceptions.AttributeError object at 0x8b06c60>'
p17
sS'__getslice__'
p18
S"<method-wrapper '__getslice__' of exceptions.AttributeError object at 0x8b06c60>"
p19
sS'__getitem__'
p20
S"<method-wrapper '__getitem__' of exceptions.AttributeError object at 0x8b06c60>"
p21
sS'__setstate__'
p22
S'<built-in method __setstate__ of exceptions.AttributeError object at 0x8b06c60>'
p23
sS'__reduce__'
p24
S'<built-in method __reduce__ of exceptions.AttributeError object at 0x8b06c60>'
p25
sS'__str__'
p26
S"<method-wrapper '__str__' of exceptions.AttributeError object at 0x8b06c60>"
p27
sS'args'
p28
S'("\'NoneType\' object has no attribute \'id\'",)'
p29
sS'__getattribute__'
p30
S"<method-wrapper '__getattribute__' of exceptions.AttributeError object at 0x8b06c60>"
p31
sS'__class__'
p32
S"<type 'exceptions.AttributeError'>"
p33
sS'__delattr__'
p34
S"<method-wrapper '__delattr__' of exceptions.AttributeError object at 0x8b06c60>"
p35
sS'__repr__'
p36
S"<method-wrapper '__repr__' of exceptions.AttributeError object at 0x8b06c60>"
p37
sS'__dict__'
p38
S'{}'
p39
sS'__doc__'
p40
S"'Attribute not found.'"
p41
sS'__init__'
p42
S"<method-wrapper '__init__' of exceptions.AttributeError object at 0x8b06c60>"
p43
sS'__new__'
p44
S'<built-in method __new__ of type object at 0x5f94a0>'
p45
ssS'evalue'
p46
S"'NoneType' object has no attribute 'id'"
p47
sS'request'
p48
ccopy_reg
_reconstructor
p49
(cgluon.html
BEAUTIFY
p50
c__builtin__
object
p51
NtRp52
(dp53
S'attributes'
p54
(dp55
sS'components'
p56
(lp57
g49
(cgluon.html
TABLE
p58
g51
NtRp59
(dp60
g54
(dp61
S'level'
p62
I5
ssS'parent'
p63
Nsg56
(lp64
g49
(cgluon.html
TR
p65
g51
NtRp66
(dp67
g54
(dp68
sg63
g59
sg56
(lp69
g49
(cgluon.html
TD
p70
g51
NtRp71
(dp72
g54
(dp73
S'_style'
p74
S'font-weight:bold;vertical-align:top'
p75
ssg63
g66
sg56
(lp76
S'ajax'
p77
asbag49
(g70
g51
NtRp78
(dp79
g54
(dp80
S'_valign'
p81
S'top'
p82
ssg63
g66
sg56
(lp83
S':'
asbag49
(g70
g51
NtRp84
(dp85
g54
(dp86
sg63
g66
sg56
(lp87
g49
(g50
g51
NtRp88
(dp89
g54
(dp90
g62
I5
ssg63
g84
sg56
(lp91
S'False'
p92
asbasbasbag49
(g65
g51
NtRp93
(dp94
g54
(dp95
sg63
g59
sg56
(lp96
g49
(g70
g51
NtRp97
(dp98
g54
(dp99
g74
g75
ssg63
g93
sg56
(lp100
S'application'
p101
asbag49
(g70
g51
NtRp102
(dp103
g54
(dp104
g81
g82
ssg63
g93
sg56
(lp105
S':'
asbag49
(g70
g51
NtRp106
(dp107
g54
(dp108
sg63
g93
sg56
(lp109
g49
(g50
g51
NtRp110
(dp111
g54
(dp112
g62
I5
ssg63
g106
sg56
(lp113
S'Final_Impulse'
p114
asbasbasbag49
(g65
g51
NtRp115
(dp116
g54
(dp117
sg63
g59
sg56
(lp118
g49
(g70
g51
NtRp119
(dp120
g54
(dp121
g74
g75
ssg63
g115
sg56
(lp122
g28
asbag49
(g70
g51
NtRp123
(dp124
g54
(dp125
g81
g82
ssg63
g115
sg56
(lp126
S':'
asbag49
(g70
g51
NtRp127
(dp128
g54
(dp129
sg63
g115
sg56
(lp130
g49
(g50
g51
NtRp131
(dp132
g54
(dp133
g62
I5
ssg63
g127
sg56
(lp134
g49
(g58
g51
NtRp135
(dp136
g54
(dp137
g62
I4
ssg63
Nsg56
(lp138
sbasbasbasbag49
(g65
g51
NtRp139
(dp140
g54
(dp141
sg63
g59
sg56
(lp142
g49
(g70
g51
NtRp143
(dp144
g54
(dp145
g74
g75
ssg63
g139
sg56
(lp146
S'body'
p147
asbag49
(g70
g51
NtRp148
(dp149
g54
(dp150
g81
g82
ssg63
g139
sg56
(lp151
S':'
asbag49
(g70
g51
NtRp152
(dp153
g54
(dp154
sg63
g139
sg56
(lp155
g49
(g50
g51
NtRp156
(dp157
g54
(dp158
g62
I5
ssg63
g152
sg56
(lp159
S'<cStringIO.StringO object at 0x8c72ec0>'
p160
asbasbasbag49
(g65
g51
NtRp161
(dp162
g54
(dp163
sg63
g59
sg56
(lp164
g49
(g70
g51
NtRp165
(dp166
g54
(dp167
g74
g75
ssg63
g161
sg56
(lp168
S'cid'
p169
asbag49
(g70
g51
NtRp170
(dp171
g54
(dp172
g81
g82
ssg63
g161
sg56
(lp173
S':'
asbag49
(g70
g51
NtRp174
(dp175
g54
(dp176
sg63
g161
sg56
(lp177
g49
(g50
g51
NtRp178
(dp179
g54
(dp180
g62
I5
ssg63
g174
sg56
(lp181
S'None'
p182
asbasbasbag49
(g65
g51
NtRp183
(dp184
g54
(dp185
sg63
g59
sg56
(lp186
g49
(g70
g51
NtRp187
(dp188
g54
(dp189
g74
g75
ssg63
g183
sg56
(lp190
S'client'
p191
asbag49
(g70
g51
NtRp192
(dp193
g54
(dp194
g81
g82
ssg63
g183
sg56
(lp195
S':'
asbag49
(g70
g51
NtRp196
(dp197
g54
(dp198
sg63
g183
sg56
(lp199
g49
(g50
g51
NtRp200
(dp201
g54
(dp202
g62
I5
ssg63
g196
sg56
(lp203
S'127.0.0.1'
p204
asbasbasbag49
(g65
g51
NtRp205
(dp206
g54
(dp207
sg63
g59
sg56
(lp208
g49
(g70
g51
NtRp209
(dp210
g54
(dp211
g74
g75
ssg63
g205
sg56
(lp212
S'controller'
p213
asbag49
(g70
g51
NtRp214
(dp215
g54
(dp216
g81
g82
ssg63
g205
sg56
(lp217
S':'
asbag49
(g70
g51
NtRp218
(dp219
g54
(dp220
sg63
g205
sg56
(lp221
g49
(g50
g51
NtRp222
(dp223
g54
(dp224
g62
I5
ssg63
g218
sg56
(lp225
S'default'
p226
asbasbasbag49
(g65
g51
NtRp227
(dp228
g54
(dp229
sg63
g59
sg56
(lp230
g49
(g70
g51
NtRp231
(dp232
g54
(dp233
g74
g75
ssg63
g227
sg56
(lp234
S'cookies'
p235
asbag49
(g70
g51
NtRp236
(dp237
g54
(dp238
g81
g82
ssg63
g227
sg56
(lp239
S':'
asbag49
(g70
g51
NtRp240
(dp241
g54
(dp242
sg63
g227
sg56
(lp243
g49
(g50
g51
NtRp244
(dp245
g54
(dp246
g62
I5
ssg63
g240
sg56
(lp247
g49
(g58
g51
NtRp248
(dp249
g54
(dp250
g62
I4
ssg63
Nsg56
(lp251
g49
(g65
g51
NtRp252
(dp253
g54
(dp254
sg63
g248
sg56
(lp255
g49
(g70
g51
NtRp256
(dp257
g54
(dp258
g74
g75
ssg63
g252
sg56
(lp259
S'session_id_admin'
p260
asbag49
(g70
g51
NtRp261
(dp262
g54
(dp263
g81
g82
ssg63
g252
sg56
(lp264
S':'
asbag49
(g70
g51
NtRp265
(dp266
g54
(dp267
sg63
g252
sg56
(lp268
g49
(g50
g51
NtRp269
(dp270
g54
(dp271
g62
I4
ssg63
g265
sg56
(lp272
S'127.0.0.1-6c5ac715-dc32-4bfe-990c-76370cc8a1ef'
p273
ag49
(g58
g51
NtRp274
(dp275
g54
(dp276
g62
I3
ssg63
Nsg56
(lp277
g49
(g65
g51
NtRp278
(dp279
g54
(dp280
sg63
g274
sg56
(lp281
g49
(g70
g51
NtRp282
(dp283
g54
(dp284
g74
g75
ssg63
g278
sg56
(lp285
S'comment'
p286
asbag49
(g70
g51
NtRp287
(dp288
g54
(dp289
g81
g82
ssg63
g278
sg56
(lp290
S':'
asbag49
(g70
g51
NtRp291
(dp292
g54
(dp293
sg63
g278
sg56
(lp294
g49
(g50
g51
NtRp295
(dp296
g54
(dp297
g62
I3
ssg63
g291
sg56
(lp298
S''
asbasbasbag49
(g65
g51
NtRp299
(dp300
g54
(dp301
sg63
g274
sg56
(lp302
g49
(g70
g51
NtRp303
(dp304
g54
(dp305
g74
g75
ssg63
g299
sg56
(lp306
S'domain'
p307
asbag49
(g70
g51
NtRp308
(dp309
g54
(dp310
g81
g82
ssg63
g299
sg56
(lp311
S':'
asbag49
(g70
g51
NtRp312
(dp313
g54
(dp314
sg63
g299
sg56
(lp315
g49
(g50
g51
NtRp316
(dp317
g54
(dp318
g62
I3
ssg63
g312
sg56
(lp319
S''
asbasbasbag49
(g65
g51
NtRp320
(dp321
g54
(dp322
sg63
g274
sg56
(lp323
g49
(g70
g51
NtRp324
(dp325
g54
(dp326
g74
g75
ssg63
g320
sg56
(lp327
S'expires'
p328
asbag49
(g70
g51
NtRp329
(dp330
g54
(dp331
g81
g82
ssg63
g320
sg56
(lp332
S':'
asbag49
(g70
g51
NtRp333
(dp334
g54
(dp335
sg63
g320
sg56
(lp336
g49
(g50
g51
NtRp337
(dp338
g54
(dp339
g62
I3
ssg63
g333
sg56
(lp340
S''
asbasbasbag49
(g65
g51
NtRp341
(dp342
g54
(dp343
sg63
g274
sg56
(lp344
g49
(g70
g51
NtRp345
(dp346
g54
(dp347
g74
g75
ssg63
g341
sg56
(lp348
S'max-age'
p349
asbag49
(g70
g51
NtRp350
(dp351
g54
(dp352
g81
g82
ssg63
g341
sg56
(lp353
S':'
asbag49
(g70
g51
NtRp354
(dp355
g54
(dp356
sg63
g341
sg56
(lp357
g49
(g50
g51
NtRp358
(dp359
g54
(dp360
g62
I3
ssg63
g354
sg56
(lp361
S''
asbasbasbag49
(g65
g51
NtRp362
(dp363
g54
(dp364
sg63
g274
sg56
(lp365
g49
(g70
g51
NtRp366
(dp367
g54
(dp368
g74
g75
ssg63
g362
sg56
(lp369
S'path'
p370
asbag49
(g70
g51
NtRp371
(dp372
g54
(dp373
g81
g82
ssg63
g362
sg56
(lp374
S':'
asbag49
(g70
g51
NtRp375
(dp376
g54
(dp377
sg63
g362
sg56
(lp378
g49
(g50
g51
NtRp379
(dp380
g54
(dp381
g62
I3
ssg63
g375
sg56
(lp382
S''
asbasbasbag49
(g65
g51
NtRp383
(dp384
g54
(dp385
sg63
g274
sg56
(lp386
g49
(g70
g51
NtRp387
(dp388
g54
(dp389
g74
g75
ssg63
g383
sg56
(lp390
S'secure'
p391
asbag49
(g70
g51
NtRp392
(dp393
g54
(dp394
g81
g82
ssg63
g383
sg56
(lp395
S':'
asbag49
(g70
g51
NtRp396
(dp397
g54
(dp398
sg63
g383
sg56
(lp399
g49
(g50
g51
NtRp400
(dp401
g54
(dp402
g62
I3
ssg63
g396
sg56
(lp403
S''
asbasbasbag49
(g65
g51
NtRp404
(dp405
g54
(dp406
sg63
g274
sg56
(lp407
g49
(g70
g51
NtRp408
(dp409
g54
(dp410
g74
g75
ssg63
g404
sg56
(lp411
S'version'
p412
asbag49
(g70
g51
NtRp413
(dp414
g54
(dp415
g81
g82
ssg63
g404
sg56
(lp416
S':'
asbag49
(g70
g51
NtRp417
(dp418
g54
(dp419
sg63
g404
sg56
(lp420
g49
(g50
g51
NtRp421
(dp422
g54
(dp423
g62
I3
ssg63
g417
sg56
(lp424
S''
asbasbasbasbasbasbasbag49
(g65
g51
NtRp425
(dp426
g54
(dp427
sg63
g248
sg56
(lp428
g49
(g70
g51
NtRp429
(dp430
g54
(dp431
g74
g75
ssg63
g425
sg56
(lp432
S'session_id_final_impulse'
p433
asbag49
(g70
g51
NtRp434
(dp435
g54
(dp436
g81
g82
ssg63
g425
sg56
(lp437
S':'
asbag49
(g70
g51
NtRp438
(dp439
g54
(dp440
sg63
g425
sg56
(lp441
g49
(g50
g51
NtRp442
(dp443
g54
(dp444
g62
I4
ssg63
g438
sg56
(lp445
S'127.0.0.1-c6ae7db2-43cb-41d9-b0c0-82e43266c2dd'
p446
ag49
(g58
g51
NtRp447
(dp448
g54
(dp449
g62
I3
ssg63
Nsg56
(lp450
g49
(g65
g51
NtRp451
(dp452
g54
(dp453
sg63
g447
sg56
(lp454
g49
(g70
g51
NtRp455
(dp456
g54
(dp457
g74
g75
ssg63
g451
sg56
(lp458
g286
asbag49
(g70
g51
NtRp459
(dp460
g54
(dp461
g81
g82
ssg63
g451
sg56
(lp462
S':'
asbag49
(g70
g51
NtRp463
(dp464
g54
(dp465
sg63
g451
sg56
(lp466
g49
(g50
g51
NtRp467
(dp468
g54
(dp469
g62
I3
ssg63
g463
sg56
(lp470
S''
asbasbasbag49
(g65
g51
NtRp471
(dp472
g54
(dp473
sg63
g447
sg56
(lp474
g49
(g70
g51
NtRp475
(dp476
g54
(dp477
g74
g75
ssg63
g471
sg56
(lp478
g307
asbag49
(g70
g51
NtRp479
(dp480
g54
(dp481
g81
g82
ssg63
g471
sg56
(lp482
S':'
asbag49
(g70
g51
NtRp483
(dp484
g54
(dp485
sg63
g471
sg56
(lp486
g49
(g50
g51
NtRp487
(dp488
g54
(dp489
g62
I3
ssg63
g483
sg56
(lp490
S''
asbasbasbag49
(g65
g51
NtRp491
(dp492
g54
(dp493
sg63
g447
sg56
(lp494
g49
(g70
g51
NtRp495
(dp496
g54
(dp497
g74
g75
ssg63
g491
sg56
(lp498
g328
asbag49
(g70
g51
NtRp499
(dp500
g54
(dp501
g81
g82
ssg63
g491
sg56
(lp502
S':'
asbag49
(g70
g51
NtRp503
(dp504
g54
(dp505
sg63
g491
sg56
(lp506
g49
(g50
g51
NtRp507
(dp508
g54
(dp509
g62
I3
ssg63
g503
sg56
(lp510
S''
asbasbasbag49
(g65
g51
NtRp511
(dp512
g54
(dp513
sg63
g447
sg56
(lp514
g49
(g70
g51
NtRp515
(dp516
g54
(dp517
g74
g75
ssg63
g511
sg56
(lp518
g349
asbag49
(g70
g51
NtRp519
(dp520
g54
(dp521
g81
g82
ssg63
g511
sg56
(lp522
S':'
asbag49
(g70
g51
NtRp523
(dp524
g54
(dp525
sg63
g511
sg56
(lp526
g49
(g50
g51
NtRp527
(dp528
g54
(dp529
g62
I3
ssg63
g523
sg56
(lp530
S''
asbasbasbag49
(g65
g51
NtRp531
(dp532
g54
(dp533
sg63
g447
sg56
(lp534
g49
(g70
g51
NtRp535
(dp536
g54
(dp537
g74
g75
ssg63
g531
sg56
(lp538
g370
asbag49
(g70
g51
NtRp539
(dp540
g54
(dp541
g81
g82
ssg63
g531
sg56
(lp542
S':'
asbag49
(g70
g51
NtRp543
(dp544
g54
(dp545
sg63
g531
sg56
(lp546
g49
(g50
g51
NtRp547
(dp548
g54
(dp549
g62
I3
ssg63
g543
sg56
(lp550
S''
asbasbasbag49
(g65
g51
NtRp551
(dp552
g54
(dp553
sg63
g447
sg56
(lp554
g49
(g70
g51
NtRp555
(dp556
g54
(dp557
g74
g75
ssg63
g551
sg56
(lp558
g391
asbag49
(g70
g51
NtRp559
(dp560
g54
(dp561
g81
g82
ssg63
g551
sg56
(lp562
S':'
asbag49
(g70
g51
NtRp563
(dp564
g54
(dp565
sg63
g551
sg56
(lp566
g49
(g50
g51
NtRp567
(dp568
g54
(dp569
g62
I3
ssg63
g563
sg56
(lp570
S''
asbasbasbag49
(g65
g51
NtRp571
(dp572
g54
(dp573
sg63
g447
sg56
(lp574
g49
(g70
g51
NtRp575
(dp576
g54
(dp577
g74
g75
ssg63
g571
sg56
(lp578
g412
asbag49
(g70
g51
NtRp579
(dp580
g54
(dp581
g81
g82
ssg63
g571
sg56
(lp582
S':'
asbag49
(g70
g51
NtRp583
(dp584
g54
(dp585
sg63
g571
sg56
(lp586
g49
(g50
g51
NtRp587
(dp588
g54
(dp589
g62
I3
ssg63
g583
sg56
(lp590
S''
asbasbasbasbasbasbasbag49
(g65
g51
NtRp591
(dp592
g54
(dp593
sg63
g248
sg56
(lp594
g49
(g70
g51
NtRp595
(dp596
g54
(dp597
g74
g75
ssg63
g591
sg56
(lp598
S'session_id_welcome'
p599
asbag49
(g70
g51
NtRp600
(dp601
g54
(dp602
g81
g82
ssg63
g591
sg56
(lp603
S':'
asbag49
(g70
g51
NtRp604
(dp605
g54
(dp606
sg63
g591
sg56
(lp607
g49
(g50
g51
NtRp608
(dp609
g54
(dp610
g62
I4
ssg63
g604
sg56
(lp611
S'127.0.0.1-b1bb4185-beaf-45db-814e-80659d45631a'
p612
ag49
(g58
g51
NtRp613
(dp614
g54
(dp615
g62
I3
ssg63
Nsg56
(lp616
g49
(g65
g51
NtRp617
(dp618
g54
(dp619
sg63
g613
sg56
(lp620
g49
(g70
g51
NtRp621
(dp622
g54
(dp623
g74
g75
ssg63
g617
sg56
(lp624
g286
asbag49
(g70
g51
NtRp625
(dp626
g54
(dp627
g81
g82
ssg63
g617
sg56
(lp628
S':'
asbag49
(g70
g51
NtRp629
(dp630
g54
(dp631
sg63
g617
sg56
(lp632
g49
(g50
g51
NtRp633
(dp634
g54
(dp635
g62
I3
ssg63
g629
sg56
(lp636
S''
asbasbasbag49
(g65
g51
NtRp637
(dp638
g54
(dp639
sg63
g613
sg56
(lp640
g49
(g70
g51
NtRp641
(dp642
g54
(dp643
g74
g75
ssg63
g637
sg56
(lp644
g307
asbag49
(g70
g51
NtRp645
(dp646
g54
(dp647
g81
g82
ssg63
g637
sg56
(lp648
S':'
asbag49
(g70
g51
NtRp649
(dp650
g54
(dp651
sg63
g637
sg56
(lp652
g49
(g50
g51
NtRp653
(dp654
g54
(dp655
g62
I3
ssg63
g649
sg56
(lp656
S''
asbasbasbag49
(g65
g51
NtRp657
(dp658
g54
(dp659
sg63
g613
sg56
(lp660
g49
(g70
g51
NtRp661
(dp662
g54
(dp663
g74
g75
ssg63
g657
sg56
(lp664
g328
asbag49
(g70
g51
NtRp665
(dp666
g54
(dp667
g81
g82
ssg63
g657
sg56
(lp668
S':'
asbag49
(g70
g51
NtRp669
(dp670
g54
(dp671
sg63
g657
sg56
(lp672
g49
(g50
g51
NtRp673
(dp674
g54
(dp675
g62
I3
ssg63
g669
sg56
(lp676
S''
asbasbasbag49
(g65
g51
NtRp677
(dp678
g54
(dp679
sg63
g613
sg56
(lp680
g49
(g70
g51
NtRp681
(dp682
g54
(dp683
g74
g75
ssg63
g677
sg56
(lp684
g349
asbag49
(g70
g51
NtRp685
(dp686
g54
(dp687
g81
g82
ssg63
g677
sg56
(lp688
S':'
asbag49
(g70
g51
NtRp689
(dp690
g54
(dp691
sg63
g677
sg56
(lp692
g49
(g50
g51
NtRp693
(dp694
g54
(dp695
g62
I3
ssg63
g689
sg56
(lp696
S''
asbasbasbag49
(g65
g51
NtRp697
(dp698
g54
(dp699
sg63
g613
sg56
(lp700
g49
(g70
g51
NtRp701
(dp702
g54
(dp703
g74
g75
ssg63
g697
sg56
(lp704
g370
asbag49
(g70
g51
NtRp705
(dp706
g54
(dp707
g81
g82
ssg63
g697
sg56
(lp708
S':'
asbag49
(g70
g51
NtRp709
(dp710
g54
(dp711
sg63
g697
sg56
(lp712
g49
(g50
g51
NtRp713
(dp714
g54
(dp715
g62
I3
ssg63
g709
sg56
(lp716
S''
asbasbasbag49
(g65
g51
NtRp717
(dp718
g54
(dp719
sg63
g613
sg56
(lp720
g49
(g70
g51
NtRp721
(dp722
g54
(dp723
g74
g75
ssg63
g717
sg56
(lp724
g391
asbag49
(g70
g51
NtRp725
(dp726
g54
(dp727
g81
g82
ssg63
g717
sg56
(lp728
S':'
asbag49
(g70
g51
NtRp729
(dp730
g54
(dp731
sg63
g717
sg56
(lp732
g49
(g50
g51
NtRp733
(dp734
g54
(dp735
g62
I3
ssg63
g729
sg56
(lp736
S''
asbasbasbag49
(g65
g51
NtRp737
(dp738
g54
(dp739
sg63
g613
sg56
(lp740
g49
(g70
g51
NtRp741
(dp742
g54
(dp743
g74
g75
ssg63
g737
sg56
(lp744
g412
asbag49
(g70
g51
NtRp745
(dp746
g54
(dp747
g81
g82
ssg63
g737
sg56
(lp748
S':'
asbag49
(g70
g51
NtRp749
(dp750
g54
(dp751
sg63
g737
sg56
(lp752
g49
(g50
g51
NtRp753
(dp754
g54
(dp755
g62
I3
ssg63
g749
sg56
(lp756
S''
asbasbasbasbasbasbasbasbasbasbasbag49
(g65
g51
NtRp757
(dp758
g54
(dp759
sg63
g59
sg56
(lp760
g49
(g70
g51
NtRp761
(dp762
g54
(dp763
g74
g75
ssg63
g757
sg56
(lp764
S'env'
p765
asbag49
(g70
g51
NtRp766
(dp767
g54
(dp768
g81
g82
ssg63
g757
sg56
(lp769
S':'
asbag49
(g70
g51
NtRp770
(dp771
g54
(dp772
sg63
g757
sg56
(lp773
g49
(g50
g51
NtRp774
(dp775
g54
(dp776
g62
I5
ssg63
g770
sg56
(lp777
g49
(g58
g51
NtRp778
(dp779
g54
(dp780
g62
I4
ssg63
Nsg56
(lp781
g49
(g65
g51
NtRp782
(dp783
g54
(dp784
sg63
g778
sg56
(lp785
g49
(g70
g51
NtRp786
(dp787
g54
(dp788
g74
g75
ssg63
g782
sg56
(lp789
S'app_folders'
p790
asbag49
(g70
g51
NtRp791
(dp792
g54
(dp793
g81
g82
ssg63
g782
sg56
(lp794
S':'
asbag49
(g70
g51
NtRp795
(dp796
g54
(dp797
sg63
g782
sg56
(lp798
g49
(g50
g51
NtRp799
(dp800
g54
(dp801
g62
I4
ssg63
g795
sg56
(lp802
S"set(['/Users/abaric/Downloads/web2py/web2py.app/Contents/Resources/applications/Final_Impulse/', '/Users/abaric/Downloads/web2py/web2py.app/Contents/Resources/applications/welcome/', '/Users/abaric/Downloads/web2py/web2py.app/Contents/Resources/applications/admin/'])"
p803
asbasbasbag49
(g65
g51
NtRp804
(dp805
g54
(dp806
sg63
g778
sg56
(lp807
g49
(g70
g51
NtRp808
(dp809
g54
(dp810
g74
g75
ssg63
g804
sg56
(lp811
S'applications_parent'
p812
asbag49
(g70
g51
NtRp813
(dp814
g54
(dp815
g81
g82
ssg63
g804
sg56
(lp816
S':'
asbag49
(g70
g51
NtRp817
(dp818
g54
(dp819
sg63
g804
sg56
(lp820
g49
(g50
g51
NtRp821
(dp822
g54
(dp823
g62
I4
ssg63
g817
sg56
(lp824
S'/Users/abaric/Downloads/web2py/web2py.app/Contents/Resources'
p825
asbasbasbag49
(g65
g51
NtRp826
(dp827
g54
(dp828
sg63
g778
sg56
(lp829
g49
(g70
g51
NtRp830
(dp831
g54
(dp832
g74
g75
ssg63
g826
sg56
(lp833
S'cmd_args'
p834
asbag49
(g70
g51
NtRp835
(dp836
g54
(dp837
g81
g82
ssg63
g826
sg56
(lp838
S':'
asbag49
(g70
g51
NtRp839
(dp840
g54
(dp841
sg63
g826
sg56
(lp842
g49
(g50
g51
NtRp843
(dp844
g54
(dp845
g62
I4
ssg63
g839
sg56
(lp846
g49
(g58
g51
NtRp847
(dp848
g54
(dp849
g62
I3
ssg63
Nsg56
(lp850
sbasbasbasbag49
(g65
g51
NtRp851
(dp852
g54
(dp853
sg63
g778
sg56
(lp854
g49
(g70
g51
NtRp855
(dp856
g54
(dp857
g74
g75
ssg63
g851
sg56
(lp858
S'cmd_options'
p859
asbag49
(g70
g51
NtRp860
(dp861
g54
(dp862
g81
g82
ssg63
g851
sg56
(lp863
S':'
asbag49
(g70
g51
NtRp864
(dp865
g54
(dp866
sg63
g851
sg56
(lp867
g49
(g50
g51
NtRp868
(dp869
g54
(dp870
g62
I4
ssg63
g864
sg56
(lp871
S"<Values at 0x446d1c0: {'verbose': False, 'ip': '127.0.0.1', 'with_scheduler': False, 'ips': ['10.1.11.1'], 'shutdown_timeout': 5, 'taskbar': False, 'port': 8000, 'maxthreads': None, 'softcron': False, 'server_name': 'Andrea-Barics-MacBook-Pro.local', 'bpython': False, 'nogui': False, 'pid_filename': 'httpserver.pid', 'extcron': False, 'runcron': False, 'run_system_tests': False, 'test': None, 'folder': '/Users/abaric/Downloads/web2py/web2py.app/Contents/Resources', 'config': '', 'import_models': False, 'winservice': '', 'shell': None, 'run': '', 'log_filename': 'httpserver.log', 'debuglevel': 30, 'args': [''], 'socket_timeout': 5, 'ssl_ca_certificate': None, 'scheduler': None, 'profiler_filename': None, 'ssl_private_key': '', 'scheduler_groups': None, 'password': '<ask>', 'request_queue_size': 5, 'ssl_certificate': '', 'cronjob': False, 'numthreads': None, 'quiet': False, 'interfaces': None, 'minthreads': None, 'timeout': 10, 'plain': False, 'nobanner': False}>"
p872
asbasbasbag49
(g65
g51
NtRp873
(dp874
g54
(dp875
sg63
g778
sg56
(lp876
g49
(g70
g51
NtRp877
(dp878
g54
(dp879
g74
g75
ssg63
g873
sg56
(lp880
S'db_sessions'
p881
asbag49
(g70
g51
NtRp882
(dp883
g54
(dp884
g81
g82
ssg63
g873
sg56
(lp885
S':'
asbag49
(g70
g51
NtRp886
(dp887
g54
(dp888
sg63
g873
sg56
(lp889
g49
(g50
g51
NtRp890
(dp891
g54
(dp892
g62
I4
ssg63
g886
sg56
(lp893
S'set([])'
p894
asbasbasbag49
(g65
g51
NtRp895
(dp896
g54
(dp897
sg63
g778
sg56
(lp898
g49
(g70
g51
NtRp899
(dp900
g54
(dp901
g74
g75
ssg63
g895
sg56
(lp902
S'debugging'
p903
asbag49
(g70
g51
NtRp904
(dp905
g54
(dp906
g81
g82
ssg63
g895
sg56
(lp907
S':'
asbag49
(g70
g51
NtRp908
(dp909
g54
(dp910
sg63
g895
sg56
(lp911
g49
(g50
g51
NtRp912
(dp913
g54
(dp914
g62
I4
ssg63
g908
sg56
(lp915
g92
asbasbasbag49
(g65
g51
NtRp916
(dp917
g54
(dp918
sg63
g778
sg56
(lp919
g49
(g70
g51
NtRp920
(dp921
g54
(dp922
g74
g75
ssg63
g916
sg56
(lp923
S'gluon_parent'
p924
asbag49
(g70
g51
NtRp925
(dp926
g54
(dp927
g81
g82
ssg63
g916
sg56
(lp928
S':'
asbag49
(g70
g51
NtRp929
(dp930
g54
(dp931
sg63
g916
sg56
(lp932
g49
(g50
g51
NtRp933
(dp934
g54
(dp935
g62
I4
ssg63
g929
sg56
(lp936
S'/Users/abaric/Downloads/web2py/web2py.app/Contents/Resources'
p937
asbasbasbag49
(g65
g51
NtRp938
(dp939
g54
(dp940
sg63
g778
sg56
(lp941
g49
(g70
g51
NtRp942
(dp943
g54
(dp944
g74
g75
ssg63
g938
sg56
(lp945
S'http_accept'
p946
asbag49
(g70
g51
NtRp947
(dp948
g54
(dp949
g81
g82
ssg63
g938
sg56
(lp950
S':'
asbag49
(g70
g51
NtRp951
(dp952
g54
(dp953
sg63
g938
sg56
(lp954
g49
(g50
g51
NtRp955
(dp956
g54
(dp957
g62
I4
ssg63
g951
sg56
(lp958
S'text/html,application/xhtml+xml,application/xml;q=0.9,*/*;q=0.8'
p959
asbasbasbag49
(g65
g51
NtRp960
(dp961
g54
(dp962
sg63
g778
sg56
(lp963
g49
(g70
g51
NtRp964
(dp965
g54
(dp966
g74
g75
ssg63
g960
sg56
(lp967
S'http_accept_encoding'
p968
asbag49
(g70
g51
NtRp969
(dp970
g54
(dp971
g81
g82
ssg63
g960
sg56
(lp972
S':'
asbag49
(g70
g51
NtRp973
(dp974
g54
(dp975
sg63
g960
sg56
(lp976
g49
(g50
g51
NtRp977
(dp978
g54
(dp979
g62
I4
ssg63
g973
sg56
(lp980
S'gzip, deflate'
p981
asbasbasbag49
(g65
g51
NtRp982
(dp983
g54
(dp984
sg63
g778
sg56
(lp985
g49
(g70
g51
NtRp986
(dp987
g54
(dp988
g74
g75
ssg63
g982
sg56
(lp989
S'http_accept_language'
p990
asbag49
(g70
g51
NtRp991
(dp992
g54
(dp993
g81
g82
ssg63
g982
sg56
(lp994
S':'
asbag49
(g70
g51
NtRp995
(dp996
g54
(dp997
sg63
g982
sg56
(lp998
g49
(g50
g51
NtRp999
(dp1000
g54
(dp1001
g62
I4
ssg63
g995
sg56
(lp1002
S'en-us'
p1003
asbasbasbag49
(g65
g51
NtRp1004
(dp1005
g54
(dp1006
sg63
g778
sg56
(lp1007
g49
(g70
g51
NtRp1008
(dp1009
g54
(dp1010
g74
g75
ssg63
g1004
sg56
(lp1011
S'http_connection'
p1012
asbag49
(g70
g51
NtRp1013
(dp1014
g54
(dp1015
g81
g82
ssg63
g1004
sg56
(lp1016
S':'
asbag49
(g70
g51
NtRp1017
(dp1018
g54
(dp1019
sg63
g1004
sg56
(lp1020
g49
(g50
g51
NtRp1021
(dp1022
g54
(dp1023
g62
I4
ssg63
g1017
sg56
(lp1024
S'keep-alive'
p1025
asbasbasbag49
(g65
g51
NtRp1026
(dp1027
g54
(dp1028
sg63
g778
sg56
(lp1029
g49
(g70
g51
NtRp1030
(dp1031
g54
(dp1032
g74
g75
ssg63
g1026
sg56
(lp1033
S'http_cookie'
p1034
asbag49
(g70
g51
NtRp1035
(dp1036
g54
(dp1037
g81
g82
ssg63
g1026
sg56
(lp1038
S':'
asbag49
(g70
g51
NtRp1039
(dp1040
g54
(dp1041
sg63
g1026
sg56
(lp1042
g49
(g50
g51
NtRp1043
(dp1044
g54
(dp1045
g62
I4
ssg63
g1039
sg56
(lp1046
S'session_id_final_impulse=127.0.0.1-c6ae7db2-43cb-41d9-b0c0-82e43266c2dd; session_id_admin=127.0.0.1-6c5ac715-dc32-4bfe-990c-76370cc8a1ef; session_id_welcome=127.0.0.1-b1bb4185-beaf-45db-814e-80659d45631a'
p1047
asbasbasbag49
(g65
g51
NtRp1048
(dp1049
g54
(dp1050
sg63
g778
sg56
(lp1051
g49
(g70
g51
NtRp1052
(dp1053
g54
(dp1054
g74
g75
ssg63
g1048
sg56
(lp1055
S'http_host'
p1056
asbag49
(g70
g51
NtRp1057
(dp1058
g54
(dp1059
g81
g82
ssg63
g1048
sg56
(lp1060
S':'
asbag49
(g70
g51
NtRp1061
(dp1062
g54
(dp1063
sg63
g1048
sg56
(lp1064
g49
(g50
g51
NtRp1065
(dp1066
g54
(dp1067
g62
I4
ssg63
g1061
sg56
(lp1068
S'127.0.0.1:8000'
p1069
asbasbasbag49
(g65
g51
NtRp1070
(dp1071
g54
(dp1072
sg63
g778
sg56
(lp1073
g49
(g70
g51
NtRp1074
(dp1075
g54
(dp1076
g74
g75
ssg63
g1070
sg56
(lp1077
S'http_referer'
p1078
asbag49
(g70
g51
NtRp1079
(dp1080
g54
(dp1081
g81
g82
ssg63
g1070
sg56
(lp1082
S':'
asbag49
(g70
g51
NtRp1083
(dp1084
g54
(dp1085
sg63
g1070
sg56
(lp1086
g49
(g50
g51
NtRp1087
(dp1088
g54
(dp1089
g62
I4
ssg63
g1083
sg56
(lp1090
S'http://127.0.0.1:8000/Final_Impulse/default/index'
p1091
asbasbasbag49
(g65
g51
NtRp1092
(dp1093
g54
(dp1094
sg63
g778
sg56
(lp1095
g49
(g70
g51
NtRp1096
(dp1097
g54
(dp1098
g74
g75
ssg63
g1092
sg56
(lp1099
S'http_user_agent'
p1100
asbag49
(g70
g51
NtRp1101
(dp1102
g54
(dp1103
g81
g82
ssg63
g1092
sg56
(lp1104
S':'
asbag49
(g70
g51
NtRp1105
(dp1106
g54
(dp1107
sg63
g1092
sg56
(lp1108
g49
(g50
g51
NtRp1109
(dp1110
g54
(dp1111
g62
I4
ssg63
g1105
sg56
(lp1112
S'Mozilla/5.0 (Macintosh; Intel Mac OS X 10_8_4) AppleWebKit/536.30.1 (KHTML, like Gecko) Version/6.0.5 Safari/536.30.1'
p1113
asbasbasbag49
(g65
g51
NtRp1114
(dp1115
g54
(dp1116
sg63
g778
sg56
(lp1117
g49
(g70
g51
NtRp1118
(dp1119
g54
(dp1120
g74
g75
ssg63
g1114
sg56
(lp1121
S'is_jython'
p1122
asbag49
(g70
g51
NtRp1123
(dp1124
g54
(dp1125
g81
g82
ssg63
g1114
sg56
(lp1126
S':'
asbag49
(g70
g51
NtRp1127
(dp1128
g54
(dp1129
sg63
g1114
sg56
(lp1130
g49
(g50
g51
NtRp1131
(dp1132
g54
(dp1133
g62
I4
ssg63
g1127
sg56
(lp1134
g92
asbasbasbag49
(g65
g51
NtRp1135
(dp1136
g54
(dp1137
sg63
g778
sg56
(lp1138
g49
(g70
g51
NtRp1139
(dp1140
g54
(dp1141
g74
g75
ssg63
g1135
sg56
(lp1142
S'is_pypy'
p1143
asbag49
(g70
g51
NtRp1144
(dp1145
g54
(dp1146
g81
g82
ssg63
g1135
sg56
(lp1147
S':'
asbag49
(g70
g51
NtRp1148
(dp1149
g54
(dp1150
sg63
g1135
sg56
(lp1151
g49
(g50
g51
NtRp1152
(dp1153
g54
(dp1154
g62
I4
ssg63
g1148
sg56
(lp1155
g92
asbasbasbag49
(g65
g51
NtRp1156
(dp1157
g54
(dp1158
sg63
g778
sg56
(lp1159
g49
(g70
g51
NtRp1160
(dp1161
g54
(dp1162
g74
g75
ssg63
g1156
sg56
(lp1163
S'local_hosts'
p1164
asbag49
(g70
g51
NtRp1165
(dp1166
g54
(dp1167
g81
g82
ssg63
g1156
sg56
(lp1168
S':'
asbag49
(g70
g51
NtRp1169
(dp1170
g54
(dp1171
sg63
g1156
sg56
(lp1172
g49
(g50
g51
NtRp1173
(dp1174
g54
(dp1175
g62
I4
ssg63
g1169
sg56
(lp1176
g49
(g58
g51
NtRp1177
(dp1178
g54
(dp1179
g62
I3
ssg63
Nsg56
(lp1180
g49
(g65
g51
NtRp1181
(dp1182
g54
(dp1183
sg63
g1177
sg56
(lp1184
g49
(g70
g51
NtRp1185
(dp1186
g54
(dp1187
sg63
g1181
sg56
(lp1188
g49
(g50
g51
NtRp1189
(dp1190
g54
(dp1191
g62
I3
ssg63
g1185
sg56
(lp1192
S'127.0.0.1'
p1193
asbasbasbag49
(g65
g51
NtRp1194
(dp1195
g54
(dp1196
sg63
g1177
sg56
(lp1197
g49
(g70
g51
NtRp1198
(dp1199
g54
(dp1200
sg63
g1194
sg56
(lp1201
g49
(g50
g51
NtRp1202
(dp1203
g54
(dp1204
g62
I3
ssg63
g1198
sg56
(lp1205
S'::ffff:127.0.0.1'
p1206
asbasbasbag49
(g65
g51
NtRp1207
(dp1208
g54
(dp1209
sg63
g1177
sg56
(lp1210
g49
(g70
g51
NtRp1211
(dp1212
g54
(dp1213
sg63
g1207
sg56
(lp1214
g49
(g50
g51
NtRp1215
(dp1216
g54
(dp1217
g62
I3
ssg63
g1211
sg56
(lp1218
S'Andrea-Barics-MacBook-Pro.local'
p1219
asbasbasbag49
(g65
g51
NtRp1220
(dp1221
g54
(dp1222
sg63
g1177
sg56
(lp1223
g49
(g70
g51
NtRp1224
(dp1225
g54
(dp1226
sg63
g1220
sg56
(lp1227
g49
(g50
g51
NtRp1228
(dp1229
g54
(dp1230
g62
I3
ssg63
g1224
sg56
(lp1231
S'Andrea-Barics-MacBook-Pro.local'
p1232
asbasbasbag49
(g65
g51
NtRp1233
(dp1234
g54
(dp1235
sg63
g1177
sg56
(lp1236
g49
(g70
g51
NtRp1237
(dp1238
g54
(dp1239
sg63
g1233
sg56
(lp1240
g49
(g50
g51
NtRp1241
(dp1242
g54
(dp1243
g62
I3
ssg63
g1237
sg56
(lp1244
S'10.1.11.1'
p1245
asbasbasbasbasbasbasbag49
(g65
g51
NtRp1246
(dp1247
g54
(dp1248
sg63
g778
sg56
(lp1249
g49
(g70
g51
NtRp1250
(dp1251
g54
(dp1252
g74
g75
ssg63
g1246
sg56
(lp1253
S'path_info'
p1254
asbag49
(g70
g51
NtRp1255
(dp1256
g54
(dp1257
g81
g82
ssg63
g1246
sg56
(lp1258
S':'
asbag49
(g70
g51
NtRp1259
(dp1260
g54
(dp1261
sg63
g1246
sg56
(lp1262
g49
(g50
g51
NtRp1263
(dp1264
g54
(dp1265
g62
I4
ssg63
g1259
sg56
(lp1266
S'/Final_Impulse/default/show_image_comments'
p1267
asbasbasbag49
(g65
g51
NtRp1268
(dp1269
g54
(dp1270
sg63
g778
sg56
(lp1271
g49
(g70
g51
NtRp1272
(dp1273
g54
(dp1274
g74
g75
ssg63
g1268
sg56
(lp1275
S'query_string'
p1276
asbag49
(g70
g51
NtRp1277
(dp1278
g54
(dp1279
g81
g82
ssg63
g1268
sg56
(lp1280
S':'
asbag49
(g70
g51
NtRp1281
(dp1282
g54
(dp1283
sg63
g1268
sg56
(lp1284
g49
(g50
g51
NtRp1285
(dp1286
g54
(dp1287
g62
I4
ssg63
g1281
sg56
(lp1288
S''
asbasbasbag49
(g65
g51
NtRp1289
(dp1290
g54
(dp1291
sg63
g778
sg56
(lp1292
g49
(g70
g51
NtRp1293
(dp1294
g54
(dp1295
g74
g75
ssg63
g1289
sg56
(lp1296
S'remote_addr'
p1297
asbag49
(g70
g51
NtRp1298
(dp1299
g54
(dp1300
g81
g82
ssg63
g1289
sg56
(lp1301
S':'
asbag49
(g70
g51
NtRp1302
(dp1303
g54
(dp1304
sg63
g1289
sg56
(lp1305
g49
(g50
g51
NtRp1306
(dp1307
g54
(dp1308
g62
I4
ssg63
g1302
sg56
(lp1309
g204
asbasbasbag49
(g65
g51
NtRp1310
(dp1311
g54
(dp1312
sg63
g778
sg56
(lp1313
g49
(g70
g51
NtRp1314
(dp1315
g54
(dp1316
g74
g75
ssg63
g1310
sg56
(lp1317
S'remote_port'
p1318
asbag49
(g70
g51
NtRp1319
(dp1320
g54
(dp1321
g81
g82
ssg63
g1310
sg56
(lp1322
S':'
asbag49
(g70
g51
NtRp1323
(dp1324
g54
(dp1325
sg63
g1310
sg56
(lp1326
g49
(g50
g51
NtRp1327
(dp1328
g54
(dp1329
g62
I4
ssg63
g1323
sg56
(lp1330
S'61252'
p1331
asbasbasbag49
(g65
g51
NtRp1332
(dp1333
g54
(dp1334
sg63
g778
sg56
(lp1335
g49
(g70
g51
NtRp1336
(dp1337
g54
(dp1338
g74
g75
ssg63
g1332
sg56
(lp1339
S'request_method'
p1340
asbag49
(g70
g51
NtRp1341
(dp1342
g54
(dp1343
g81
g82
ssg63
g1332
sg56
(lp1344
S':'
asbag49
(g70
g51
NtRp1345
(dp1346
g54
(dp1347
sg63
g1332
sg56
(lp1348
g49
(g50
g51
NtRp1349
(dp1350
g54
(dp1351
g62
I4
ssg63
g1345
sg56
(lp1352
S'GET'
p1353
asbasbasbag49
(g65
g51
NtRp1354
(dp1355
g54
(dp1356
sg63
g778
sg56
(lp1357
g49
(g70
g51
NtRp1358
(dp1359
g54
(dp1360
g74
g75
ssg63
g1354
sg56
(lp1361
S'request_uri'
p1362
asbag49
(g70
g51
NtRp1363
(dp1364
g54
(dp1365
g81
g82
ssg63
g1354
sg56
(lp1366
S':'
asbag49
(g70
g51
NtRp1367
(dp1368
g54
(dp1369
sg63
g1354
sg56
(lp1370
g49
(g50
g51
NtRp1371
(dp1372
g54
(dp1373
g62
I4
ssg63
g1367
sg56
(lp1374
g1267
asbasbasbag49
(g65
g51
NtRp1375
(dp1376
g54
(dp1377
sg63
g778
sg56
(lp1378
g49
(g70
g51
NtRp1379
(dp1380
g54
(dp1381
g74
g75
ssg63
g1375
sg56
(lp1382
S'script_name'
p1383
asbag49
(g70
g51
NtRp1384
(dp1385
g54
(dp1386
g81
g82
ssg63
g1375
sg56
(lp1387
S':'
asbag49
(g70
g51
NtRp1388
(dp1389
g54
(dp1390
sg63
g1375
sg56
(lp1391
g49
(g50
g51
NtRp1392
(dp1393
g54
(dp1394
g62
I4
ssg63
g1388
sg56
(lp1395
S''
asbasbasbag49
(g65
g51
NtRp1396
(dp1397
g54
(dp1398
sg63
g778
sg56
(lp1399
g49
(g70
g51
NtRp1400
(dp1401
g54
(dp1402
g74
g75
ssg63
g1396
sg56
(lp1403
S'server_name'
p1404
asbag49
(g70
g51
NtRp1405
(dp1406
g54
(dp1407
g81
g82
ssg63
g1396
sg56
(lp1408
S':'
asbag49
(g70
g51
NtRp1409
(dp1410
g54
(dp1411
sg63
g1396
sg56
(lp1412
g49
(g50
g51
NtRp1413
(dp1414
g54
(dp1415
g62
I4
ssg63
g1409
sg56
(lp1416
g1232
asbasbasbag49
(g65
g51
NtRp1417
(dp1418
g54
(dp1419
sg63
g778
sg56
(lp1420
g49
(g70
g51
NtRp1421
(dp1422
g54
(dp1423
g74
g75
ssg63
g1417
sg56
(lp1424
S'server_port'
p1425
asbag49
(g70
g51
NtRp1426
(dp1427
g54
(dp1428
g81
g82
ssg63
g1417
sg56
(lp1429
S':'
asbag49
(g70
g51
NtRp1430
(dp1431
g54
(dp1432
sg63
g1417
sg56
(lp1433
g49
(g50
g51
NtRp1434
(dp1435
g54
(dp1436
g62
I4
ssg63
g1430
sg56
(lp1437
S'8000'
p1438
asbasbasbag49
(g65
g51
NtRp1439
(dp1440
g54
(dp1441
sg63
g778
sg56
(lp1442
g49
(g70
g51
NtRp1443
(dp1444
g54
(dp1445
g74
g75
ssg63
g1439
sg56
(lp1446
S'server_protocol'
p1447
asbag49
(g70
g51
NtRp1448
(dp1449
g54
(dp1450
g81
g82
ssg63
g1439
sg56
(lp1451
S':'
asbag49
(g70
g51
NtRp1452
(dp1453
g54
(dp1454
sg63
g1439
sg56
(lp1455
g49
(g50
g51
NtRp1456
(dp1457
g54
(dp1458
g62
I4
ssg63
g1452
sg56
(lp1459
S'HTTP/1.1'
p1460
asbasbasbag49
(g65
g51
NtRp1461
(dp1462
g54
(dp1463
sg63
g778
sg56
(lp1464
g49
(g70
g51
NtRp1465
(dp1466
g54
(dp1467
g74
g75
ssg63
g1461
sg56
(lp1468
S'server_software'
p1469
asbag49
(g70
g51
NtRp1470
(dp1471
g54
(dp1472
g81
g82
ssg63
g1461
sg56
(lp1473
S':'
asbag49
(g70
g51
NtRp1474
(dp1475
g54
(dp1476
sg63
g1461
sg56
(lp1477
g49
(g50
g51
NtRp1478
(dp1479
g54
(dp1480
g62
I4
ssg63
g1474
sg56
(lp1481
S'Rocket 1.2.5'
p1482
asbasbasbag49
(g65
g51
NtRp1483
(dp1484
g54
(dp1485
sg63
g778
sg56
(lp1486
g49
(g70
g51
NtRp1487
(dp1488
g54
(dp1489
g74
g75
ssg63
g1483
sg56
(lp1490
S'web2py_path'
p1491
asbag49
(g70
g51
NtRp1492
(dp1493
g54
(dp1494
g81
g82
ssg63
g1483
sg56
(lp1495
S':'
asbag49
(g70
g51
NtRp1496
(dp1497
g54
(dp1498
sg63
g1483
sg56
(lp1499
g49
(g50
g51
NtRp1500
(dp1501
g54
(dp1502
g62
I4
ssg63
g1496
sg56
(lp1503
g825
asbasbasbag49
(g65
g51
NtRp1504
(dp1505
g54
(dp1506
sg63
g778
sg56
(lp1507
g49
(g70
g51
NtRp1508
(dp1509
g54
(dp1510
g74
g75
ssg63
g1504
sg56
(lp1511
S'web2py_version'
p1512
asbag49
(g70
g51
NtRp1513
(dp1514
g54
(dp1515
g81
g82
ssg63
g1504
sg56
(lp1516
S':'
asbag49
(g70
g51
NtRp1517
(dp1518
g54
(dp1519
sg63
g1504
sg56
(lp1520
g49
(g50
g51
NtRp1521
(dp1522
g54
(dp1523
g62
I4
ssg63
g1517
sg56
(lp1524
g49
(g58
g51
NtRp1525
(dp1526
g54
(dp1527
g62
I3
ssg63
Nsg56
(lp1528
g49
(g65
g51
NtRp1529
(dp1530
g54
(dp1531
sg63
g1525
sg56
(lp1532
g49
(g70
g51
NtRp1533
(dp1534
g54
(dp1535
sg63
g1529
sg56
(lp1536
g49
(g50
g51
NtRp1537
(dp1538
g54
(dp1539
g62
I3
ssg63
g1533
sg56
(lp1540
S'2'
asbasbasbag49
(g65
g51
NtRp1541
(dp1542
g54
(dp1543
sg63
g1525
sg56
(lp1544
g49
(g70
g51
NtRp1545
(dp1546
g54
(dp1547
sg63
g1541
sg56
(lp1548
g49
(g50
g51
NtRp1549
(dp1550
g54
(dp1551
g62
I3
ssg63
g1545
sg56
(lp1552
S'2'
asbasbasbag49
(g65
g51
NtRp1553
(dp1554
g54
(dp1555
sg63
g1525
sg56
(lp1556
g49
(g70
g51
NtRp1557
(dp1558
g54
(dp1559
sg63
g1553
sg56
(lp1560
g49
(g50
g51
NtRp1561
(dp1562
g54
(dp1563
g62
I3
ssg63
g1557
sg56
(lp1564
S'1'
asbasbasbag49
(g65
g51
NtRp1565
(dp1566
g54
(dp1567
sg63
g1525
sg56
(lp1568
g49
(g70
g51
NtRp1569
(dp1570
g54
(dp1571
sg63
g1565
sg56
(lp1572
g49
(g50
g51
NtRp1573
(dp1574
g54
(dp1575
g62
I3
ssg63
g1569
sg56
(lp1576
S'datetime.datetime(2012, 10, 21, 16, 57, 4)'
p1577
asbasbasbag49
(g65
g51
NtRp1578
(dp1579
g54
(dp1580
sg63
g1525
sg56
(lp1581
g49
(g70
g51
NtRp1582
(dp1583
g54
(dp1584
sg63
g1578
sg56
(lp1585
g49
(g50
g51
NtRp1586
(dp1587
g54
(dp1588
g62
I3
ssg63
g1582
sg56
(lp1589
S'stable'
p1590
asbasbasbasbasbasbasbag49
(g65
g51
NtRp1591
(dp1592
g54
(dp1593
sg63
g778
sg56
(lp1594
g49
(g70
g51
NtRp1595
(dp1596
g54
(dp1597
g74
g75
ssg63
g1591
sg56
(lp1598
S'wsgi_errors'
p1599
asbag49
(g70
g51
NtRp1600
(dp1601
g54
(dp1602
g81
g82
ssg63
g1591
sg56
(lp1603
S':'
asbag49
(g70
g51
NtRp1604
(dp1605
g54
(dp1606
sg63
g1591
sg56
(lp1607
g49
(g50
g51
NtRp1608
(dp1609
g54
(dp1610
g62
I4
ssg63
g1604
sg56
(lp1611
S"<open file '<stderr>', mode 'w' at 0x540b0>"
p1612
asbasbasbag49
(g65
g51
NtRp1613
(dp1614
g54
(dp1615
sg63
g778
sg56
(lp1616
g49
(g70
g51
NtRp1617
(dp1618
g54
(dp1619
g74
g75
ssg63
g1613
sg56
(lp1620
S'wsgi_file_wrapper'
p1621
asbag49
(g70
g51
NtRp1622
(dp1623
g54
(dp1624
g81
g82
ssg63
g1613
sg56
(lp1625
S':'
asbag49
(g70
g51
NtRp1626
(dp1627
g54
(dp1628
sg63
g1613
sg56
(lp1629
g49
(g50
g51
NtRp1630
(dp1631
g54
(dp1632
g62
I4
ssg63
g1626
sg56
(lp1633
S'<class wsgiref.util.FileWrapper at 0x443f2d0>'
p1634
asbasbasbag49
(g65
g51
NtRp1635
(dp1636
g54
(dp1637
sg63
g778
sg56
(lp1638
g49
(g70
g51
NtRp1639
(dp1640
g54
(dp1641
g74
g75
ssg63
g1635
sg56
(lp1642
S'wsgi_input'
p1643
asbag49
(g70
g51
NtRp1644
(dp1645
g54
(dp1646
g81
g82
ssg63
g1635
sg56
(lp1647
S':'
asbag49
(g70
g51
NtRp1648
(dp1649
g54
(dp1650
sg63
g1635
sg56
(lp1651
g49
(g50
g51
NtRp1652
(dp1653
g54
(dp1654
g62
I4
ssg63
g1648
sg56
(lp1655
S'<socket._fileobject object at 0x8c2e6b0>'
p1656
asbasbasbag49
(g65
g51
NtRp1657
(dp1658
g54
(dp1659
sg63
g778
sg56
(lp1660
g49
(g70
g51
NtRp1661
(dp1662
g54
(dp1663
g74
g75
ssg63
g1657
sg56
(lp1664
S'wsgi_multiprocess'
p1665
asbag49
(g70
g51
NtRp1666
(dp1667
g54
(dp1668
g81
g82
ssg63
g1657
sg56
(lp1669
S':'
asbag49
(g70
g51
NtRp1670
(dp1671
g54
(dp1672
sg63
g1657
sg56
(lp1673
g49
(g50
g51
NtRp1674
(dp1675
g54
(dp1676
g62
I4
ssg63
g1670
sg56
(lp1677
g92
asbasbasbag49
(g65
g51
NtRp1678
(dp1679
g54
(dp1680
sg63
g778
sg56
(lp1681
g49
(g70
g51
NtRp1682
(dp1683
g54
(dp1684
g74
g75
ssg63
g1678
sg56
(lp1685
S'wsgi_multithread'
p1686
asbag49
(g70
g51
NtRp1687
(dp1688
g54
(dp1689
g81
g82
ssg63
g1678
sg56
(lp1690
S':'
asbag49
(g70
g51
NtRp1691
(dp1692
g54
(dp1693
sg63
g1678
sg56
(lp1694
g49
(g50
g51
NtRp1695
(dp1696
g54
(dp1697
g62
I4
ssg63
g1691
sg56
(lp1698
S'True'
p1699
asbasbasbag49
(g65
g51
NtRp1700
(dp1701
g54
(dp1702
sg63
g778
sg56
(lp1703
g49
(g70
g51
NtRp1704
(dp1705
g54
(dp1706
g74
g75
ssg63
g1700
sg56
(lp1707
S'wsgi_run_once'
p1708
asbag49
(g70
g51
NtRp1709
(dp1710
g54
(dp1711
g81
g82
ssg63
g1700
sg56
(lp1712
S':'
asbag49
(g70
g51
NtRp1713
(dp1714
g54
(dp1715
sg63
g1700
sg56
(lp1716
g49
(g50
g51
NtRp1717
(dp1718
g54
(dp1719
g62
I4
ssg63
g1713
sg56
(lp1720
g92
asbasbasbag49
(g65
g51
NtRp1721
(dp1722
g54
(dp1723
sg63
g778
sg56
(lp1724
g49
(g70
g51
NtRp1725
(dp1726
g54
(dp1727
g74
g75
ssg63
g1721
sg56
(lp1728
S'wsgi_url_scheme'
p1729
asbag49
(g70
g51
NtRp1730
(dp1731
g54
(dp1732
g81
g82
ssg63
g1721
sg56
(lp1733
S':'
asbag49
(g70
g51
NtRp1734
(dp1735
g54
(dp1736
sg63
g1721
sg56
(lp1737
g49
(g50
g51
NtRp1738
(dp1739
g54
(dp1740
g62
I4
ssg63
g1734
sg56
(lp1741
S'http'
p1742
asbasbasbag49
(g65
g51
NtRp1743
(dp1744
g54
(dp1745
sg63
g778
sg56
(lp1746
g49
(g70
g51
NtRp1747
(dp1748
g54
(dp1749
g74
g75
ssg63
g1743
sg56
(lp1750
S'wsgi_version'
p1751
asbag49
(g70
g51
NtRp1752
(dp1753
g54
(dp1754
g81
g82
ssg63
g1743
sg56
(lp1755
S':'
asbag49
(g70
g51
NtRp1756
(dp1757
g54
(dp1758
sg63
g1743
sg56
(lp1759
g49
(g50
g51
NtRp1760
(dp1761
g54
(dp1762
g62
I4
ssg63
g1756
sg56
(lp1763
g49
(g58
g51
NtRp1764
(dp1765
g54
(dp1766
g62
I3
ssg63
Nsg56
(lp1767
g49
(g65
g51
NtRp1768
(dp1769
g54
(dp1770
sg63
g1764
sg56
(lp1771
g49
(g70
g51
NtRp1772
(dp1773
g54
(dp1774
sg63
g1768
sg56
(lp1775
g49
(g50
g51
NtRp1776
(dp1777
g54
(dp1778
g62
I3
ssg63
g1772
sg56
(lp1779
S'1'
asbasbasbag49
(g65
g51
NtRp1780
(dp1781
g54
(dp1782
sg63
g1764
sg56
(lp1783
g49
(g70
g51
NtRp1784
(dp1785
g54
(dp1786
sg63
g1780
sg56
(lp1787
g49
(g50
g51
NtRp1788
(dp1789
g54
(dp1790
g62
I3
ssg63
g1784
sg56
(lp1791
S'0'
asbasbasbasbasbasbasbasbasbasbasbag49
(g65
g51
NtRp1792
(dp1793
g54
(dp1794
sg63
g59
sg56
(lp1795
g49
(g70
g51
NtRp1796
(dp1797
g54
(dp1798
g74
g75
ssg63
g1792
sg56
(lp1799
S'extension'
p1800
asbag49
(g70
g51
NtRp1801
(dp1802
g54
(dp1803
g81
g82
ssg63
g1792
sg56
(lp1804
S':'
asbag49
(g70
g51
NtRp1805
(dp1806
g54
(dp1807
sg63
g1792
sg56
(lp1808
g49
(g50
g51
NtRp1809
(dp1810
g54
(dp1811
g62
I5
ssg63
g1805
sg56
(lp1812
S'html'
p1813
asbasbasbag49
(g65
g51
NtRp1814
(dp1815
g54
(dp1816
sg63
g59
sg56
(lp1817
g49
(g70
g51
NtRp1818
(dp1819
g54
(dp1820
g74
g75
ssg63
g1814
sg56
(lp1821
S'folder'
p1822
asbag49
(g70
g51
NtRp1823
(dp1824
g54
(dp1825
g81
g82
ssg63
g1814
sg56
(lp1826
S':'
asbag49
(g70
g51
NtRp1827
(dp1828
g54
(dp1829
sg63
g1814
sg56
(lp1830
g49
(g50
g51
NtRp1831
(dp1832
g54
(dp1833
g62
I5
ssg63
g1827
sg56
(lp1834
S'/Users/abaric/Downloads/web2py/web2py.app/Contents/Resources/applications/Final_Impulse/'
p1835
asbasbasbag49
(g65
g51
NtRp1836
(dp1837
g54
(dp1838
sg63
g59
sg56
(lp1839
g49
(g70
g51
NtRp1840
(dp1841
g54
(dp1842
g74
g75
ssg63
g1836
sg56
(lp1843
S'function'
p1844
asbag49
(g70
g51
NtRp1845
(dp1846
g54
(dp1847
g81
g82
ssg63
g1836
sg56
(lp1848
S':'
asbag49
(g70
g51
NtRp1849
(dp1850
g54
(dp1851
sg63
g1836
sg56
(lp1852
g49
(g50
g51
NtRp1853
(dp1854
g54
(dp1855
g62
I5
ssg63
g1849
sg56
(lp1856
S'show_image_comments'
p1857
asbasbasbag49
(g65
g51
NtRp1858
(dp1859
g54
(dp1860
sg63
g59
sg56
(lp1861
g49
(g70
g51
NtRp1862
(dp1863
g54
(dp1864
g74
g75
ssg63
g1858
sg56
(lp1865
S'get_vars'
p1866
asbag49
(g70
g51
NtRp1867
(dp1868
g54
(dp1869
g81
g82
ssg63
g1858
sg56
(lp1870
S':'
asbag49
(g70
g51
NtRp1871
(dp1872
g54
(dp1873
sg63
g1858
sg56
(lp1874
g49
(g50
g51
NtRp1875
(dp1876
g54
(dp1877
g62
I5
ssg63
g1871
sg56
(lp1878
g49
(g58
g51
NtRp1879
(dp1880
g54
(dp1881
g62
I4
ssg63
Nsg56
(lp1882
sbasbasbasbag49
(g65
g51
NtRp1883
(dp1884
g54
(dp1885
sg63
g59
sg56
(lp1886
g49
(g70
g51
NtRp1887
(dp1888
g54
(dp1889
g74
g75
ssg63
g1883
sg56
(lp1890
S'global_settings'
p1891
asbag49
(g70
g51
NtRp1892
(dp1893
g54
(dp1894
g81
g82
ssg63
g1883
sg56
(lp1895
S':'
asbag49
(g70
g51
NtRp1896
(dp1897
g54
(dp1898
sg63
g1883
sg56
(lp1899
g49
(g50
g51
NtRp1900
(dp1901
g54
(dp1902
g62
I5
ssg63
g1896
sg56
(lp1903
g49
(g58
g51
NtRp1904
(dp1905
g54
(dp1906
g62
I4
ssg63
Nsg56
(lp1907
g49
(g65
g51
NtRp1908
(dp1909
g54
(dp1910
sg63
g1904
sg56
(lp1911
g49
(g70
g51
NtRp1912
(dp1913
g54
(dp1914
g74
g75
ssg63
g1908
sg56
(lp1915
g790
asbag49
(g70
g51
NtRp1916
(dp1917
g54
(dp1918
g81
g82
ssg63
g1908
sg56
(lp1919
S':'
asbag49
(g70
g51
NtRp1920
(dp1921
g54
(dp1922
sg63
g1908
sg56
(lp1923
g49
(g50
g51
NtRp1924
(dp1925
g54
(dp1926
g62
I4
ssg63
g1920
sg56
(lp1927
S"set(['/Users/abaric/Downloads/web2py/web2py.app/Contents/Resources/applications/Final_Impulse/', '/Users/abaric/Downloads/web2py/web2py.app/Contents/Resources/applications/welcome/', '/Users/abaric/Downloads/web2py/web2py.app/Contents/Resources/applications/admin/'])"
p1928
asbasbasbag49
(g65
g51
NtRp1929
(dp1930
g54
(dp1931
sg63
g1904
sg56
(lp1932
g49
(g70
g51
NtRp1933
(dp1934
g54
(dp1935
g74
g75
ssg63
g1929
sg56
(lp1936
g812
asbag49
(g70
g51
NtRp1937
(dp1938
g54
(dp1939
g81
g82
ssg63
g1929
sg56
(lp1940
S':'
asbag49
(g70
g51
NtRp1941
(dp1942
g54
(dp1943
sg63
g1929
sg56
(lp1944
g49
(g50
g51
NtRp1945
(dp1946
g54
(dp1947
g62
I4
ssg63
g1941
sg56
(lp1948
g825
asbasbasbag49
(g65
g51
NtRp1949
(dp1950
g54
(dp1951
sg63
g1904
sg56
(lp1952
g49
(g70
g51
NtRp1953
(dp1954
g54
(dp1955
g74
g75
ssg63
g1949
sg56
(lp1956
g834
asbag49
(g70
g51
NtRp1957
(dp1958
g54
(dp1959
g81
g82
ssg63
g1949
sg56
(lp1960
S':'
asbag49
(g70
g51
NtRp1961
(dp1962
g54
(dp1963
sg63
g1949
sg56
(lp1964
g49
(g50
g51
NtRp1965
(dp1966
g54
(dp1967
g62
I4
ssg63
g1961
sg56
(lp1968
g49
(g58
g51
NtRp1969
(dp1970
g54
(dp1971
g62
I3
ssg63
Nsg56
(lp1972
sbasbasbasbag49
(g65
g51
NtRp1973
(dp1974
g54
(dp1975
sg63
g1904
sg56
(lp1976
g49
(g70
g51
NtRp1977
(dp1978
g54
(dp1979
g74
g75
ssg63
g1973
sg56
(lp1980
g859
asbag49
(g70
g51
NtRp1981
(dp1982
g54
(dp1983
g81
g82
ssg63
g1973
sg56
(lp1984
S':'
asbag49
(g70
g51
NtRp1985
(dp1986
g54
(dp1987
sg63
g1973
sg56
(lp1988
g49
(g50
g51
NtRp1989
(dp1990
g54
(dp1991
g62
I4
ssg63
g1985
sg56
(lp1992
S"<Values at 0x446d1c0: {'verbose': False, 'ip': '127.0.0.1', 'with_scheduler': False, 'ips': ['10.1.11.1'], 'shutdown_timeout': 5, 'taskbar': False, 'port': 8000, 'maxthreads': None, 'softcron': False, 'server_name': 'Andrea-Barics-MacBook-Pro.local', 'bpython': False, 'nogui': False, 'pid_filename': 'httpserver.pid', 'extcron': False, 'runcron': False, 'run_system_tests': False, 'test': None, 'folder': '/Users/abaric/Downloads/web2py/web2py.app/Contents/Resources', 'config': '', 'import_models': False, 'winservice': '', 'shell': None, 'run': '', 'log_filename': 'httpserver.log', 'debuglevel': 30, 'args': [''], 'socket_timeout': 5, 'ssl_ca_certificate': None, 'scheduler': None, 'profiler_filename': None, 'ssl_private_key': '', 'scheduler_groups': None, 'password': '<ask>', 'request_queue_size': 5, 'ssl_certificate': '', 'cronjob': False, 'numthreads': None, 'quiet': False, 'interfaces': None, 'minthreads': None, 'timeout': 10, 'plain': False, 'nobanner': False}>"
p1993
asbasbasbag49
(g65
g51
NtRp1994
(dp1995
g54
(dp1996
sg63
g1904
sg56
(lp1997
g49
(g70
g51
NtRp1998
(dp1999
g54
(dp2000
g74
g75
ssg63
g1994
sg56
(lp2001
g881
asbag49
(g70
g51
NtRp2002
(dp2003
g54
(dp2004
g81
g82
ssg63
g1994
sg56
(lp2005
S':'
asbag49
(g70
g51
NtRp2006
(dp2007
g54
(dp2008
sg63
g1994
sg56
(lp2009
g49
(g50
g51
NtRp2010
(dp2011
g54
(dp2012
g62
I4
ssg63
g2006
sg56
(lp2013
S'set([])'
p2014
asbasbasbag49
(g65
g51
NtRp2015
(dp2016
g54
(dp2017
sg63
g1904
sg56
(lp2018
g49
(g70
g51
NtRp2019
(dp2020
g54
(dp2021
g74
g75
ssg63
g2015
sg56
(lp2022
g903
asbag49
(g70
g51
NtRp2023
(dp2024
g54
(dp2025
g81
g82
ssg63
g2015
sg56
(lp2026
S':'
asbag49
(g70
g51
NtRp2027
(dp2028
g54
(dp2029
sg63
g2015
sg56
(lp2030
g49
(g50
g51
NtRp2031
(dp2032
g54
(dp2033
g62
I4
ssg63
g2027
sg56
(lp2034
g92
asbasbasbag49
(g65
g51
NtRp2035
(dp2036
g54
(dp2037
sg63
g1904
sg56
(lp2038
g49
(g70
g51
NtRp2039
(dp2040
g54
(dp2041
g74
g75
ssg63
g2035
sg56
(lp2042
g924
asbag49
(g70
g51
NtRp2043
(dp2044
g54
(dp2045
g81
g82
ssg63
g2035
sg56
(lp2046
S':'
asbag49
(g70
g51
NtRp2047
(dp2048
g54
(dp2049
sg63
g2035
sg56
(lp2050
g49
(g50
g51
NtRp2051
(dp2052
g54
(dp2053
g62
I4
ssg63
g2047
sg56
(lp2054
g937
asbasbasbag49
(g65
g51
NtRp2055
(dp2056
g54
(dp2057
sg63
g1904
sg56
(lp2058
g49
(g70
g51
NtRp2059
(dp2060
g54
(dp2061
g74
g75
ssg63
g2055
sg56
(lp2062
g1122
asbag49
(g70
g51
NtRp2063
(dp2064
g54
(dp2065
g81
g82
ssg63
g2055
sg56
(lp2066
S':'
asbag49
(g70
g51
NtRp2067
(dp2068
g54
(dp2069
sg63
g2055
sg56
(lp2070
g49
(g50
g51
NtRp2071
(dp2072
g54
(dp2073
g62
I4
ssg63
g2067
sg56
(lp2074
g92
asbasbasbag49
(g65
g51
NtRp2075
(dp2076
g54
(dp2077
sg63
g1904
sg56
(lp2078
g49
(g70
g51
NtRp2079
(dp2080
g54
(dp2081
g74
g75
ssg63
g2075
sg56
(lp2082
g1143
asbag49
(g70
g51
NtRp2083
(dp2084
g54
(dp2085
g81
g82
ssg63
g2075
sg56
(lp2086
S':'
asbag49
(g70
g51
NtRp2087
(dp2088
g54
(dp2089
sg63
g2075
sg56
(lp2090
g49
(g50
g51
NtRp2091
(dp2092
g54
(dp2093
g62
I4
ssg63
g2087
sg56
(lp2094
g92
asbasbasbag49
(g65
g51
NtRp2095
(dp2096
g54
(dp2097
sg63
g1904
sg56
(lp2098
g49
(g70
g51
NtRp2099
(dp2100
g54
(dp2101
g74
g75
ssg63
g2095
sg56
(lp2102
g1164
asbag49
(g70
g51
NtRp2103
(dp2104
g54
(dp2105
g81
g82
ssg63
g2095
sg56
(lp2106
S':'
asbag49
(g70
g51
NtRp2107
(dp2108
g54
(dp2109
sg63
g2095
sg56
(lp2110
g49
(g50
g51
NtRp2111
(dp2112
g54
(dp2113
g62
I4
ssg63
g2107
sg56
(lp2114
g49
(g58
g51
NtRp2115
(dp2116
g54
(dp2117
g62
I3
ssg63
Nsg56
(lp2118
g49
(g65
g51
NtRp2119
(dp2120
g54
(dp2121
sg63
g2115
sg56
(lp2122
g49
(g70
g51
NtRp2123
(dp2124
g54
(dp2125
sg63
g2119
sg56
(lp2126
g49
(g50
g51
NtRp2127
(dp2128
g54
(dp2129
g62
I3
ssg63
g2123
sg56
(lp2130
g1193
asbasbasbag49
(g65
g51
NtRp2131
(dp2132
g54
(dp2133
sg63
g2115
sg56
(lp2134
g49
(g70
g51
NtRp2135
(dp2136
g54
(dp2137
sg63
g2131
sg56
(lp2138
g49
(g50
g51
NtRp2139
(dp2140
g54
(dp2141
g62
I3
ssg63
g2135
sg56
(lp2142
g1206
asbasbasbag49
(g65
g51
NtRp2143
(dp2144
g54
(dp2145
sg63
g2115
sg56
(lp2146
g49
(g70
g51
NtRp2147
(dp2148
g54
(dp2149
sg63
g2143
sg56
(lp2150
g49
(g50
g51
NtRp2151
(dp2152
g54
(dp2153
g62
I3
ssg63
g2147
sg56
(lp2154
g1219
asbasbasbag49
(g65
g51
NtRp2155
(dp2156
g54
(dp2157
sg63
g2115
sg56
(lp2158
g49
(g70
g51
NtRp2159
(dp2160
g54
(dp2161
sg63
g2155
sg56
(lp2162
g49
(g50
g51
NtRp2163
(dp2164
g54
(dp2165
g62
I3
ssg63
g2159
sg56
(lp2166
g1232
asbasbasbag49
(g65
g51
NtRp2167
(dp2168
g54
(dp2169
sg63
g2115
sg56
(lp2170
g49
(g70
g51
NtRp2171
(dp2172
g54
(dp2173
sg63
g2167
sg56
(lp2174
g49
(g50
g51
NtRp2175
(dp2176
g54
(dp2177
g62
I3
ssg63
g2171
sg56
(lp2178
g1245
asbasbasbasbasbasbasbag49
(g65
g51
NtRp2179
(dp2180
g54
(dp2181
sg63
g1904
sg56
(lp2182
g49
(g70
g51
NtRp2183
(dp2184
g54
(dp2185
g74
g75
ssg63
g2179
sg56
(lp2186
g1512
asbag49
(g70
g51
NtRp2187
(dp2188
g54
(dp2189
g81
g82
ssg63
g2179
sg56
(lp2190
S':'
asbag49
(g70
g51
NtRp2191
(dp2192
g54
(dp2193
sg63
g2179
sg56
(lp2194
g49
(g50
g51
NtRp2195
(dp2196
g54
(dp2197
g62
I4
ssg63
g2191
sg56
(lp2198
g49
(g58
g51
NtRp2199
(dp2200
g54
(dp2201
g62
I3
ssg63
Nsg56
(lp2202
g49
(g65
g51
NtRp2203
(dp2204
g54
(dp2205
sg63
g2199
sg56
(lp2206
g49
(g70
g51
NtRp2207
(dp2208
g54
(dp2209
sg63
g2203
sg56
(lp2210
g49
(g50
g51
NtRp2211
(dp2212
g54
(dp2213
g62
I3
ssg63
g2207
sg56
(lp2214
S'2'
asbasbasbag49
(g65
g51
NtRp2215
(dp2216
g54
(dp2217
sg63
g2199
sg56
(lp2218
g49
(g70
g51
NtRp2219
(dp2220
g54
(dp2221
sg63
g2215
sg56
(lp2222
g49
(g50
g51
NtRp2223
(dp2224
g54
(dp2225
g62
I3
ssg63
g2219
sg56
(lp2226
S'2'
asbasbasbag49
(g65
g51
NtRp2227
(dp2228
g54
(dp2229
sg63
g2199
sg56
(lp2230
g49
(g70
g51
NtRp2231
(dp2232
g54
(dp2233
sg63
g2227
sg56
(lp2234
g49
(g50
g51
NtRp2235
(dp2236
g54
(dp2237
g62
I3
ssg63
g2231
sg56
(lp2238
S'1'
asbasbasbag49
(g65
g51
NtRp2239
(dp2240
g54
(dp2241
sg63
g2199
sg56
(lp2242
g49
(g70
g51
NtRp2243
(dp2244
g54
(dp2245
sg63
g2239
sg56
(lp2246
g49
(g50
g51
NtRp2247
(dp2248
g54
(dp2249
g62
I3
ssg63
g2243
sg56
(lp2250
S'datetime.datetime(2012, 10, 21, 16, 57, 4)'
p2251
asbasbasbag49
(g65
g51
NtRp2252
(dp2253
g54
(dp2254
sg63
g2199
sg56
(lp2255
g49
(g70
g51
NtRp2256
(dp2257
g54
(dp2258
sg63
g2252
sg56
(lp2259
g49
(g50
g51
NtRp2260
(dp2261
g54
(dp2262
g62
I3
ssg63
g2256
sg56
(lp2263
g1590
asbasbasbasbasbasbasbasbasbasbasbag49
(g65
g51
NtRp2264
(dp2265
g54
(dp2266
sg63
g59
sg56
(lp2267
g49
(g70
g51
NtRp2268
(dp2269
g54
(dp2270
g74
g75
ssg63
g2264
sg56
(lp2271
S'is_https'
p2272
asbag49
(g70
g51
NtRp2273
(dp2274
g54
(dp2275
g81
g82
ssg63
g2264
sg56
(lp2276
S':'
asbag49
(g70
g51
NtRp2277
(dp2278
g54
(dp2279
sg63
g2264
sg56
(lp2280
g49
(g50
g51
NtRp2281
(dp2282
g54
(dp2283
g62
I5
ssg63
g2277
sg56
(lp2284
g92
asbasbasbag49
(g65
g51
NtRp2285
(dp2286
g54
(dp2287
sg63
g59
sg56
(lp2288
g49
(g70
g51
NtRp2289
(dp2290
g54
(dp2291
g74
g75
ssg63
g2285
sg56
(lp2292
S'is_local'
p2293
asbag49
(g70
g51
NtRp2294
(dp2295
g54
(dp2296
g81
g82
ssg63
g2285
sg56
(lp2297
S':'
asbag49
(g70
g51
NtRp2298
(dp2299
g54
(dp2300
sg63
g2285
sg56
(lp2301
g49
(g50
g51
NtRp2302
(dp2303
g54
(dp2304
g62
I5
ssg63
g2298
sg56
(lp2305
g1699
asbasbasbag49
(g65
g51
NtRp2306
(dp2307
g54
(dp2308
sg63
g59
sg56
(lp2309
g49
(g70
g51
NtRp2310
(dp2311
g54
(dp2312
g74
g75
ssg63
g2306
sg56
(lp2313
S'is_restful'
p2314
asbag49
(g70
g51
NtRp2315
(dp2316
g54
(dp2317
g81
g82
ssg63
g2306
sg56
(lp2318
S':'
asbag49
(g70
g51
NtRp2319
(dp2320
g54
(dp2321
sg63
g2306
sg56
(lp2322
g49
(g50
g51
NtRp2323
(dp2324
g54
(dp2325
g62
I5
ssg63
g2319
sg56
(lp2326
g92
asbasbasbag49
(g65
g51
NtRp2327
(dp2328
g54
(dp2329
sg63
g59
sg56
(lp2330
g49
(g70
g51
NtRp2331
(dp2332
g54
(dp2333
g74
g75
ssg63
g2327
sg56
(lp2334
S'now'
p2335
asbag49
(g70
g51
NtRp2336
(dp2337
g54
(dp2338
g81
g82
ssg63
g2327
sg56
(lp2339
S':'
asbag49
(g70
g51
NtRp2340
(dp2341
g54
(dp2342
sg63
g2327
sg56
(lp2343
g49
(g50
g51
NtRp2344
(dp2345
g54
(dp2346
g62
I5
ssg63
g2340
sg56
(lp2347
S'datetime.datetime(2014, 5, 29, 10, 4, 0, 72060)'
p2348
asbasbasbag49
(g65
g51
NtRp2349
(dp2350
g54
(dp2351
sg63
g59
sg56
(lp2352
g49
(g70
g51
NtRp2353
(dp2354
g54
(dp2355
g74
g75
ssg63
g2349
sg56
(lp2356
S'post_vars'
p2357
asbag49
(g70
g51
NtRp2358
(dp2359
g54
(dp2360
g81
g82
ssg63
g2349
sg56
(lp2361
S':'
asbag49
(g70
g51
NtRp2362
(dp2363
g54
(dp2364
sg63
g2349
sg56
(lp2365
g49
(g50
g51
NtRp2366
(dp2367
g54
(dp2368
g62
I5
ssg63
g2362
sg56
(lp2369
g49
(g58
g51
NtRp2370
(dp2371
g54
(dp2372
g62
I4
ssg63
Nsg56
(lp2373
sbasbasbasbag49
(g65
g51
NtRp2374
(dp2375
g54
(dp2376
sg63
g59
sg56
(lp2377
g49
(g70
g51
NtRp2378
(dp2379
g54
(dp2380
g74
g75
ssg63
g2374
sg56
(lp2381
S'raw_args'
p2382
asbag49
(g70
g51
NtRp2383
(dp2384
g54
(dp2385
g81
g82
ssg63
g2374
sg56
(lp2386
S':'
asbag49
(g70
g51
NtRp2387
(dp2388
g54
(dp2389
sg63
g2374
sg56
(lp2390
g49
(g50
g51
NtRp2391
(dp2392
g54
(dp2393
g62
I5
ssg63
g2387
sg56
(lp2394
S''
asbasbasbag49
(g65
g51
NtRp2395
(dp2396
g54
(dp2397
sg63
g59
sg56
(lp2398
g49
(g70
g51
NtRp2399
(dp2400
g54
(dp2401
g74
g75
ssg63
g2395
sg56
(lp2402
S'raw_extension'
p2403
asbag49
(g70
g51
NtRp2404
(dp2405
g54
(dp2406
g81
g82
ssg63
g2395
sg56
(lp2407
S':'
asbag49
(g70
g51
NtRp2408
(dp2409
g54
(dp2410
sg63
g2395
sg56
(lp2411
g49
(g50
g51
NtRp2412
(dp2413
g54
(dp2414
g62
I5
ssg63
g2408
sg56
(lp2415
S'None'
p2416
asbasbasbag49
(g65
g51
NtRp2417
(dp2418
g54
(dp2419
sg63
g59
sg56
(lp2420
g49
(g70
g51
NtRp2421
(dp2422
g54
(dp2423
g74
g75
ssg63
g2417
sg56
(lp2424
S'url'
p2425
asbag49
(g70
g51
NtRp2426
(dp2427
g54
(dp2428
g81
g82
ssg63
g2417
sg56
(lp2429
S':'
asbag49
(g70
g51
NtRp2430
(dp2431
g54
(dp2432
sg63
g2417
sg56
(lp2433
g49
(g50
g51
NtRp2434
(dp2435
g54
(dp2436
g62
I5
ssg63
g2430
sg56
(lp2437
g1267
asbasbasbag49
(g65
g51
NtRp2438
(dp2439
g54
(dp2440
sg63
g59
sg56
(lp2441
g49
(g70
g51
NtRp2442
(dp2443
g54
(dp2444
g74
g75
ssg63
g2438
sg56
(lp2445
S'utcnow'
p2446
asbag49
(g70
g51
NtRp2447
(dp2448
g54
(dp2449
g81
g82
ssg63
g2438
sg56
(lp2450
S':'
asbag49
(g70
g51
NtRp2451
(dp2452
g54
(dp2453
sg63
g2438
sg56
(lp2454
g49
(g50
g51
NtRp2455
(dp2456
g54
(dp2457
g62
I5
ssg63
g2451
sg56
(lp2458
S'datetime.datetime(2014, 5, 29, 14, 4, 0, 72071)'
p2459
asbasbasbag49
(g65
g51
NtRp2460
(dp2461
g54
(dp2462
sg63
g59
sg56
(lp2463
g49
(g70
g51
NtRp2464
(dp2465
g54
(dp2466
g74
g75
ssg63
g2460
sg56
(lp2467
S'uuid'
p2468
asbag49
(g70
g51
NtRp2469
(dp2470
g54
(dp2471
g81
g82
ssg63
g2460
sg56
(lp2472
S':'
asbag49
(g70
g51
NtRp2473
(dp2474
g54
(dp2475
sg63
g2460
sg56
(lp2476
g49
(g50
g51
NtRp2477
(dp2478
g54
(dp2479
g62
I5
ssg63
g2473
sg56
(lp2480
S'Final_Impulse/127.0.0.1.2014-05-29.10-04-00.8bcafd0b-e41d-4066-b53b-2f621db3bb48'
p2481
asbasbasbag49
(g65
g51
NtRp2482
(dp2483
g54
(dp2484
sg63
g59
sg56
(lp2485
g49
(g70
g51
NtRp2486
(dp2487
g54
(dp2488
g74
g75
ssg63
g2482
sg56
(lp2489
S'vars'
p2490
asbag49
(g70
g51
NtRp2491
(dp2492
g54
(dp2493
g81
g82
ssg63
g2482
sg56
(lp2494
S':'
asbag49
(g70
g51
NtRp2495
(dp2496
g54
(dp2497
sg63
g2482
sg56
(lp2498
g49
(g50
g51
NtRp2499
(dp2500
g54
(dp2501
g62
I5
ssg63
g2495
sg56
(lp2502
g49
(g58
g51
NtRp2503
(dp2504
g54
(dp2505
g62
I4
ssg63
Nsg56
(lp2506
sbasbasbasbag49
(g65
g51
NtRp2507
(dp2508
g54
(dp2509
sg63
g59
sg56
(lp2510
g49
(g70
g51
NtRp2511
(dp2512
g54
(dp2513
g74
g75
ssg63
g2507
sg56
(lp2514
S'wsgi'
p2515
asbag49
(g70
g51
NtRp2516
(dp2517
g54
(dp2518
g81
g82
ssg63
g2507
sg56
(lp2519
S':'
asbag49
(g70
g51
NtRp2520
(dp2521
g54
(dp2522
sg63
g2507
sg56
(lp2523
g49
(g50
g51
NtRp2524
(dp2525
g54
(dp2526
g62
I5
ssg63
g2520
sg56
(lp2527
g49
(g58
g51
NtRp2528
(dp2529
g54
(dp2530
g62
I4
ssg63
Nsg56
(lp2531
g49
(g65
g51
NtRp2532
(dp2533
g54
(dp2534
sg63
g2528
sg56
(lp2535
g49
(g70
g51
NtRp2536
(dp2537
g54
(dp2538
g74
g75
ssg63
g2532
sg56
(lp2539
S'environ'
p2540
asbag49
(g70
g51
NtRp2541
(dp2542
g54
(dp2543
g81
g82
ssg63
g2532
sg56
(lp2544
S':'
asbag49
(g70
g51
NtRp2545
(dp2546
g54
(dp2547
sg63
g2532
sg56
(lp2548
g49
(g50
g51
NtRp2549
(dp2550
g54
(dp2551
g62
I4
ssg63
g2545
sg56
(lp2552
g49
(g58
g51
NtRp2553
(dp2554
g54
(dp2555
g62
I3
ssg63
Nsg56
(lp2556
g49
(g65
g51
NtRp2557
(dp2558
g54
(dp2559
sg63
g2553
sg56
(lp2560
g49
(g70
g51
NtRp2561
(dp2562
g54
(dp2563
g74
g75
ssg63
g2557
sg56
(lp2564
S'HTTP_ACCEPT'
p2565
asbag49
(g70
g51
NtRp2566
(dp2567
g54
(dp2568
g81
g82
ssg63
g2557
sg56
(lp2569
S':'
asbag49
(g70
g51
NtRp2570
(dp2571
g54
(dp2572
sg63
g2557
sg56
(lp2573
g49
(g50
g51
NtRp2574
(dp2575
g54
(dp2576
g62
I3
ssg63
g2570
sg56
(lp2577
g959
asbasbasbag49
(g65
g51
NtRp2578
(dp2579
g54
(dp2580
sg63
g2553
sg56
(lp2581
g49
(g70
g51
NtRp2582
(dp2583
g54
(dp2584
g74
g75
ssg63
g2578
sg56
(lp2585
S'HTTP_ACCEPT_ENCODING'
p2586
asbag49
(g70
g51
NtRp2587
(dp2588
g54
(dp2589
g81
g82
ssg63
g2578
sg56
(lp2590
S':'
asbag49
(g70
g51
NtRp2591
(dp2592
g54
(dp2593
sg63
g2578
sg56
(lp2594
g49
(g50
g51
NtRp2595
(dp2596
g54
(dp2597
g62
I3
ssg63
g2591
sg56
(lp2598
g981
asbasbasbag49
(g65
g51
NtRp2599
(dp2600
g54
(dp2601
sg63
g2553
sg56
(lp2602
g49
(g70
g51
NtRp2603
(dp2604
g54
(dp2605
g74
g75
ssg63
g2599
sg56
(lp2606
S'HTTP_ACCEPT_LANGUAGE'
p2607
asbag49
(g70
g51
NtRp2608
(dp2609
g54
(dp2610
g81
g82
ssg63
g2599
sg56
(lp2611
S':'
asbag49
(g70
g51
NtRp2612
(dp2613
g54
(dp2614
sg63
g2599
sg56
(lp2615
g49
(g50
g51
NtRp2616
(dp2617
g54
(dp2618
g62
I3
ssg63
g2612
sg56
(lp2619
g1003
asbasbasbag49
(g65
g51
NtRp2620
(dp2621
g54
(dp2622
sg63
g2553
sg56
(lp2623
g49
(g70
g51
NtRp2624
(dp2625
g54
(dp2626
g74
g75
ssg63
g2620
sg56
(lp2627
S'HTTP_CONNECTION'
p2628
asbag49
(g70
g51
NtRp2629
(dp2630
g54
(dp2631
g81
g82
ssg63
g2620
sg56
(lp2632
S':'
asbag49
(g70
g51
NtRp2633
(dp2634
g54
(dp2635
sg63
g2620
sg56
(lp2636
g49
(g50
g51
NtRp2637
(dp2638
g54
(dp2639
g62
I3
ssg63
g2633
sg56
(lp2640
g1025
asbasbasbag49
(g65
g51
NtRp2641
(dp2642
g54
(dp2643
sg63
g2553
sg56
(lp2644
g49
(g70
g51
NtRp2645
(dp2646
g54
(dp2647
g74
g75
ssg63
g2641
sg56
(lp2648
S'HTTP_COOKIE'
p2649
asbag49
(g70
g51
NtRp2650
(dp2651
g54
(dp2652
g81
g82
ssg63
g2641
sg56
(lp2653
S':'
asbag49
(g70
g51
NtRp2654
(dp2655
g54
(dp2656
sg63
g2641
sg56
(lp2657
g49
(g50
g51
NtRp2658
(dp2659
g54
(dp2660
g62
I3
ssg63
g2654
sg56
(lp2661
g1047
asbasbasbag49
(g65
g51
NtRp2662
(dp2663
g54
(dp2664
sg63
g2553
sg56
(lp2665
g49
(g70
g51
NtRp2666
(dp2667
g54
(dp2668
g74
g75
ssg63
g2662
sg56
(lp2669
S'HTTP_HOST'
p2670
asbag49
(g70
g51
NtRp2671
(dp2672
g54
(dp2673
g81
g82
ssg63
g2662
sg56
(lp2674
S':'
asbag49
(g70
g51
NtRp2675
(dp2676
g54
(dp2677
sg63
g2662
sg56
(lp2678
g49
(g50
g51
NtRp2679
(dp2680
g54
(dp2681
g62
I3
ssg63
g2675
sg56
(lp2682
g1069
asbasbasbag49
(g65
g51
NtRp2683
(dp2684
g54
(dp2685
sg63
g2553
sg56
(lp2686
g49
(g70
g51
NtRp2687
(dp2688
g54
(dp2689
g74
g75
ssg63
g2683
sg56
(lp2690
S'HTTP_REFERER'
p2691
asbag49
(g70
g51
NtRp2692
(dp2693
g54
(dp2694
g81
g82
ssg63
g2683
sg56
(lp2695
S':'
asbag49
(g70
g51
NtRp2696
(dp2697
g54
(dp2698
sg63
g2683
sg56
(lp2699
g49
(g50
g51
NtRp2700
(dp2701
g54
(dp2702
g62
I3
ssg63
g2696
sg56
(lp2703
g1091
asbasbasbag49
(g65
g51
NtRp2704
(dp2705
g54
(dp2706
sg63
g2553
sg56
(lp2707
g49
(g70
g51
NtRp2708
(dp2709
g54
(dp2710
g74
g75
ssg63
g2704
sg56
(lp2711
S'HTTP_USER_AGENT'
p2712
asbag49
(g70
g51
NtRp2713
(dp2714
g54
(dp2715
g81
g82
ssg63
g2704
sg56
(lp2716
S':'
asbag49
(g70
g51
NtRp2717
(dp2718
g54
(dp2719
sg63
g2704
sg56
(lp2720
g49
(g50
g51
NtRp2721
(dp2722
g54
(dp2723
g62
I3
ssg63
g2717
sg56
(lp2724
g1113
asbasbasbag49
(g65
g51
NtRp2725
(dp2726
g54
(dp2727
sg63
g2553
sg56
(lp2728
g49
(g70
g51
NtRp2729
(dp2730
g54
(dp2731
g74
g75
ssg63
g2725
sg56
(lp2732
S'PATH_INFO'
p2733
asbag49
(g70
g51
NtRp2734
(dp2735
g54
(dp2736
g81
g82
ssg63
g2725
sg56
(lp2737
S':'
asbag49
(g70
g51
NtRp2738
(dp2739
g54
(dp2740
sg63
g2725
sg56
(lp2741
g49
(g50
g51
NtRp2742
(dp2743
g54
(dp2744
g62
I3
ssg63
g2738
sg56
(lp2745
g1267
asbasbasbag49
(g65
g51
NtRp2746
(dp2747
g54
(dp2748
sg63
g2553
sg56
(lp2749
g49
(g70
g51
NtRp2750
(dp2751
g54
(dp2752
g74
g75
ssg63
g2746
sg56
(lp2753
S'QUERY_STRING'
p2754
asbag49
(g70
g51
NtRp2755
(dp2756
g54
(dp2757
g81
g82
ssg63
g2746
sg56
(lp2758
S':'
asbag49
(g70
g51
NtRp2759
(dp2760
g54
(dp2761
sg63
g2746
sg56
(lp2762
g49
(g50
g51
NtRp2763
(dp2764
g54
(dp2765
g62
I3
ssg63
g2759
sg56
(lp2766
S''
asbasbasbag49
(g65
g51
NtRp2767
(dp2768
g54
(dp2769
sg63
g2553
sg56
(lp2770
g49
(g70
g51
NtRp2771
(dp2772
g54
(dp2773
g74
g75
ssg63
g2767
sg56
(lp2774
S'REMOTE_ADDR'
p2775
asbag49
(g70
g51
NtRp2776
(dp2777
g54
(dp2778
g81
g82
ssg63
g2767
sg56
(lp2779
S':'
asbag49
(g70
g51
NtRp2780
(dp2781
g54
(dp2782
sg63
g2767
sg56
(lp2783
g49
(g50
g51
NtRp2784
(dp2785
g54
(dp2786
g62
I3
ssg63
g2780
sg56
(lp2787
g204
asbasbasbag49
(g65
g51
NtRp2788
(dp2789
g54
(dp2790
sg63
g2553
sg56
(lp2791
g49
(g70
g51
NtRp2792
(dp2793
g54
(dp2794
g74
g75
ssg63
g2788
sg56
(lp2795
S'REMOTE_PORT'
p2796
asbag49
(g70
g51
NtRp2797
(dp2798
g54
(dp2799
g81
g82
ssg63
g2788
sg56
(lp2800
S':'
asbag49
(g70
g51
NtRp2801
(dp2802
g54
(dp2803
sg63
g2788
sg56
(lp2804
g49
(g50
g51
NtRp2805
(dp2806
g54
(dp2807
g62
I3
ssg63
g2801
sg56
(lp2808
g1331
asbasbasbag49
(g65
g51
NtRp2809
(dp2810
g54
(dp2811
sg63
g2553
sg56
(lp2812
g49
(g70
g51
NtRp2813
(dp2814
g54
(dp2815
g74
g75
ssg63
g2809
sg56
(lp2816
S'REQUEST_METHOD'
p2817
asbag49
(g70
g51
NtRp2818
(dp2819
g54
(dp2820
g81
g82
ssg63
g2809
sg56
(lp2821
S':'
asbag49
(g70
g51
NtRp2822
(dp2823
g54
(dp2824
sg63
g2809
sg56
(lp2825
g49
(g50
g51
NtRp2826
(dp2827
g54
(dp2828
g62
I3
ssg63
g2822
sg56
(lp2829
g1353
asbasbasbag49
(g65
g51
NtRp2830
(dp2831
g54
(dp2832
sg63
g2553
sg56
(lp2833
g49
(g70
g51
NtRp2834
(dp2835
g54
(dp2836
g74
g75
ssg63
g2830
sg56
(lp2837
S'REQUEST_URI'
p2838
asbag49
(g70
g51
NtRp2839
(dp2840
g54
(dp2841
g81
g82
ssg63
g2830
sg56
(lp2842
S':'
asbag49
(g70
g51
NtRp2843
(dp2844
g54
(dp2845
sg63
g2830
sg56
(lp2846
g49
(g50
g51
NtRp2847
(dp2848
g54
(dp2849
g62
I3
ssg63
g2843
sg56
(lp2850
g1267
asbasbasbag49
(g65
g51
NtRp2851
(dp2852
g54
(dp2853
sg63
g2553
sg56
(lp2854
g49
(g70
g51
NtRp2855
(dp2856
g54
(dp2857
g74
g75
ssg63
g2851
sg56
(lp2858
S'SCRIPT_NAME'
p2859
asbag49
(g70
g51
NtRp2860
(dp2861
g54
(dp2862
g81
g82
ssg63
g2851
sg56
(lp2863
S':'
asbag49
(g70
g51
NtRp2864
(dp2865
g54
(dp2866
sg63
g2851
sg56
(lp2867
g49
(g50
g51
NtRp2868
(dp2869
g54
(dp2870
g62
I3
ssg63
g2864
sg56
(lp2871
S''
asbasbasbag49
(g65
g51
NtRp2872
(dp2873
g54
(dp2874
sg63
g2553
sg56
(lp2875
g49
(g70
g51
NtRp2876
(dp2877
g54
(dp2878
g74
g75
ssg63
g2872
sg56
(lp2879
S'SERVER_NAME'
p2880
asbag49
(g70
g51
NtRp2881
(dp2882
g54
(dp2883
g81
g82
ssg63
g2872
sg56
(lp2884
S':'
asbag49
(g70
g51
NtRp2885
(dp2886
g54
(dp2887
sg63
g2872
sg56
(lp2888
g49
(g50
g51
NtRp2889
(dp2890
g54
(dp2891
g62
I3
ssg63
g2885
sg56
(lp2892
g1232
asbasbasbag49
(g65
g51
NtRp2893
(dp2894
g54
(dp2895
sg63
g2553
sg56
(lp2896
g49
(g70
g51
NtRp2897
(dp2898
g54
(dp2899
g74
g75
ssg63
g2893
sg56
(lp2900
S'SERVER_PORT'
p2901
asbag49
(g70
g51
NtRp2902
(dp2903
g54
(dp2904
g81
g82
ssg63
g2893
sg56
(lp2905
S':'
asbag49
(g70
g51
NtRp2906
(dp2907
g54
(dp2908
sg63
g2893
sg56
(lp2909
g49
(g50
g51
NtRp2910
(dp2911
g54
(dp2912
g62
I3
ssg63
g2906
sg56
(lp2913
g1438
asbasbasbag49
(g65
g51
NtRp2914
(dp2915
g54
(dp2916
sg63
g2553
sg56
(lp2917
g49
(g70
g51
NtRp2918
(dp2919
g54
(dp2920
g74
g75
ssg63
g2914
sg56
(lp2921
S'SERVER_PROTOCOL'
p2922
asbag49
(g70
g51
NtRp2923
(dp2924
g54
(dp2925
g81
g82
ssg63
g2914
sg56
(lp2926
S':'
asbag49
(g70
g51
NtRp2927
(dp2928
g54
(dp2929
sg63
g2914
sg56
(lp2930
g49
(g50
g51
NtRp2931
(dp2932
g54
(dp2933
g62
I3
ssg63
g2927
sg56
(lp2934
g1460
asbasbasbag49
(g65
g51
NtRp2935
(dp2936
g54
(dp2937
sg63
g2553
sg56
(lp2938
g49
(g70
g51
NtRp2939
(dp2940
g54
(dp2941
g74
g75
ssg63
g2935
sg56
(lp2942
S'SERVER_SOFTWARE'
p2943
asbag49
(g70
g51
NtRp2944
(dp2945
g54
(dp2946
g81
g82
ssg63
g2935
sg56
(lp2947
S':'
asbag49
(g70
g51
NtRp2948
(dp2949
g54
(dp2950
sg63
g2935
sg56
(lp2951
g49
(g50
g51
NtRp2952
(dp2953
g54
(dp2954
g62
I3
ssg63
g2948
sg56
(lp2955
g1482
asbasbasbag49
(g65
g51
NtRp2956
(dp2957
g54
(dp2958
sg63
g2553
sg56
(lp2959
g49
(g70
g51
NtRp2960
(dp2961
g54
(dp2962
g74
g75
ssg63
g2956
sg56
(lp2963
S'wsgi.errors'
p2964
asbag49
(g70
g51
NtRp2965
(dp2966
g54
(dp2967
g81
g82
ssg63
g2956
sg56
(lp2968
S':'
asbag49
(g70
g51
NtRp2969
(dp2970
g54
(dp2971
sg63
g2956
sg56
(lp2972
g49
(g50
g51
NtRp2973
(dp2974
g54
(dp2975
g62
I3
ssg63
g2969
sg56
(lp2976
S"<open file '<stderr>', mode 'w' at 0x540b0>"
p2977
asbasbasbag49
(g65
g51
NtRp2978
(dp2979
g54
(dp2980
sg63
g2553
sg56
(lp2981
g49
(g70
g51
NtRp2982
(dp2983
g54
(dp2984
g74
g75
ssg63
g2978
sg56
(lp2985
S'wsgi.file_wrapper'
p2986
asbag49
(g70
g51
NtRp2987
(dp2988
g54
(dp2989
g81
g82
ssg63
g2978
sg56
(lp2990
S':'
asbag49
(g70
g51
NtRp2991
(dp2992
g54
(dp2993
sg63
g2978
sg56
(lp2994
g49
(g50
g51
NtRp2995
(dp2996
g54
(dp2997
g62
I3
ssg63
g2991
sg56
(lp2998
S'<class wsgiref.util.FileWrapper at 0x443f2d0>'
p2999
asbasbasbag49
(g65
g51
NtRp3000
(dp3001
g54
(dp3002
sg63
g2553
sg56
(lp3003
g49
(g70
g51
NtRp3004
(dp3005
g54
(dp3006
g74
g75
ssg63
g3000
sg56
(lp3007
S'wsgi.input'
p3008
asbag49
(g70
g51
NtRp3009
(dp3010
g54
(dp3011
g81
g82
ssg63
g3000
sg56
(lp3012
S':'
asbag49
(g70
g51
NtRp3013
(dp3014
g54
(dp3015
sg63
g3000
sg56
(lp3016
g49
(g50
g51
NtRp3017
(dp3018
g54
(dp3019
g62
I3
ssg63
g3013
sg56
(lp3020
S'<cStringIO.StringO object at 0x8c72ec0>'
p3021
asbasbasbag49
(g65
g51
NtRp3022
(dp3023
g54
(dp3024
sg63
g2553
sg56
(lp3025
g49
(g70
g51
NtRp3026
(dp3027
g54
(dp3028
g74
g75
ssg63
g3022
sg56
(lp3029
S'wsgi.multiprocess'
p3030
asbag49
(g70
g51
NtRp3031
(dp3032
g54
(dp3033
g81
g82
ssg63
g3022
sg56
(lp3034
S':'
asbag49
(g70
g51
NtRp3035
(dp3036
g54
(dp3037
sg63
g3022
sg56
(lp3038
g49
(g50
g51
NtRp3039
(dp3040
g54
(dp3041
g62
I3
ssg63
g3035
sg56
(lp3042
g92
asbasbasbag49
(g65
g51
NtRp3043
(dp3044
g54
(dp3045
sg63
g2553
sg56
(lp3046
g49
(g70
g51
NtRp3047
(dp3048
g54
(dp3049
g74
g75
ssg63
g3043
sg56
(lp3050
S'wsgi.multithread'
p3051
asbag49
(g70
g51
NtRp3052
(dp3053
g54
(dp3054
g81
g82
ssg63
g3043
sg56
(lp3055
S':'
asbag49
(g70
g51
NtRp3056
(dp3057
g54
(dp3058
sg63
g3043
sg56
(lp3059
g49
(g50
g51
NtRp3060
(dp3061
g54
(dp3062
g62
I3
ssg63
g3056
sg56
(lp3063
g1699
asbasbasbag49
(g65
g51
NtRp3064
(dp3065
g54
(dp3066
sg63
g2553
sg56
(lp3067
g49
(g70
g51
NtRp3068
(dp3069
g54
(dp3070
g74
g75
ssg63
g3064
sg56
(lp3071
S'wsgi.run_once'
p3072
asbag49
(g70
g51
NtRp3073
(dp3074
g54
(dp3075
g81
g82
ssg63
g3064
sg56
(lp3076
S':'
asbag49
(g70
g51
NtRp3077
(dp3078
g54
(dp3079
sg63
g3064
sg56
(lp3080
g49
(g50
g51
NtRp3081
(dp3082
g54
(dp3083
g62
I3
ssg63
g3077
sg56
(lp3084
g92
asbasbasbag49
(g65
g51
NtRp3085
(dp3086
g54
(dp3087
sg63
g2553
sg56
(lp3088
g49
(g70
g51
NtRp3089
(dp3090
g54
(dp3091
g74
g75
ssg63
g3085
sg56
(lp3092
S'wsgi.url_scheme'
p3093
asbag49
(g70
g51
NtRp3094
(dp3095
g54
(dp3096
g81
g82
ssg63
g3085
sg56
(lp3097
S':'
asbag49
(g70
g51
NtRp3098
(dp3099
g54
(dp3100
sg63
g3085
sg56
(lp3101
g49
(g50
g51
NtRp3102
(dp3103
g54
(dp3104
g62
I3
ssg63
g3098
sg56
(lp3105
g1742
asbasbasbag49
(g65
g51
NtRp3106
(dp3107
g54
(dp3108
sg63
g2553
sg56
(lp3109
g49
(g70
g51
NtRp3110
(dp3111
g54
(dp3112
g74
g75
ssg63
g3106
sg56
(lp3113
S'wsgi.version'
p3114
asbag49
(g70
g51
NtRp3115
(dp3116
g54
(dp3117
g81
g82
ssg63
g3106
sg56
(lp3118
S':'
asbag49
(g70
g51
NtRp3119
(dp3120
g54
(dp3121
sg63
g3106
sg56
(lp3122
g49
(g50
g51
NtRp3123
(dp3124
g54
(dp3125
g62
I3
ssg63
g3119
sg56
(lp3126
S'1'
asbasbasbasbasbasbasbasbasbasbasbasbasbsS'frames'
p3127
(lp3128
(dp3129
S'file'
p3130
S'/Users/abaric/Downloads/web2py/web2py.app/Contents/Resources/gluon/restricted.py'
p3131
sS'dump'
p3132
(dp3133
sS'lnum'
p3134
I212
sS'lines'
p3135
(dp3136
sS'call'
p3137
S"(code='from gluon.tools import datetime\\nfrom gluon.tool...onse._vars=response._caller(show_image_comments)\\n', environment={'A': <class 'gluon.html.A'>, 'Auth': <class 'gluon.tools.Auth'>, 'B': <class 'gluon.html.B'>, 'BEAUTIFY': <class 'gluon.html.BEAUTIFY'>, 'BODY': <class 'gluon.html.BODY'>, 'BR': <class 'gluon.html.BR'>, 'BUTTON': <class 'gluon.html.BUTTON'>, 'CAT': <class 'gluon.html.CAT'>, 'CENTER': <class 'gluon.html.CENTER'>, 'CLEANUP': <class 'gluon.validators.CLEANUP'>, ...}, layer='/Users/abaric/Downloads/web2py/web2py.app/Conten...applications/Final_Impulse/controllers/default.py')"
p3138
sS'func'
p3139
S'restricted'
p3140
sa(dp3141
g3130
S'/Users/abaric/Downloads/web2py/web2py.app/Contents/Resources/applications/Final_Impulse/controllers/default.py'
p3142
sg3132
(dp3143
sg3134
I149
sg3135
(dp3144
I138
S'                                  video_id=video_id,'
p3145
sI139
S'                                  email=None,'
p3146
sI140
S'                                  body=video_comment,'
p3147
sI141
S'                                  date_of_entry=datetime.datetime.today())'
p3148
sI142
S'        db.commit()'
p3149
sI143
S''
sI144
S'    else:'
p3150
sI145
S"        session.flash='You must log in to post a comment.'"
p3151
sI146
S"    redirect(URL('show_video_comments'))"
p3152
sI147
S'    return locals()'
p3153
ssg3137
S'()'
p3154
sg3139
S'<module>'
p3155
sa(dp3156
g3130
S'/Users/abaric/Downloads/web2py/web2py.app/Contents/Resources/gluon/globals.py'
p3157
sg3132
(dp3158
sg3134
I188
sg3135
(dp3159
sg3137
S'(f=<function show_image_comments at 0x8bdb6b0>)'
p3160
sg3139
S'<lambda>'
p3161
sa(dp3162
g3130
S'/Users/abaric/Downloads/web2py/web2py.app/Contents/Resources/applications/Final_Impulse/controllers/default.py'
p3163
sg3132
(dp3164
sg3134
I36
sg3135
(dp3165
I32
S'    return response.download(request, db)'
p3166
sI33
S''
sI34
S'def show_image_comments():'
p3167
sI35
S"    image_form=SQLFORM(db.image,fields=['title','file'],labels={'file':'Your Image'})"
p3168
sI36
S'    image_form.vars.author_id=auth.user.id'
p3169
sI37
S'    if image_form.process().accepted:'
p3170
sI38
S"        response.flash='image submitted!'"
p3171
sI39
S'    images=db(db.image).select(db.image.ALL, orderby=db.image.id)'
p3172
sI40
S'    d={}'
p3173
sI31
S'def download():'
p3174
ssg3137
S'()'
p3175
sg3139
S'show_image_comments'
p3176
sasS'pyver'
p3177
S'Python 2.5.1: /Users/abaric/Downloads/web2py/web2py.app/Contents/MacOS/python'
p3178
sS'session'
p3179
g49
(g50
g51
NtRp3180
(dp3181
g54
(dp3182
sg56
(lp3183
g49
(g58
g51
NtRp3184
(dp3185
g54
(dp3186
g62
I5
ssg63
Nsg56
(lp3187
sbasbsS'etype'
p3188
S"<type 'exceptions.AttributeError'>"
p3189
sS'date'
p3190
S'Thu May 29 10:04:00 2014'
p3191
sS'response'
p3192
g49
(g50
g51
NtRp3193
(dp3194
g54
(dp3195
sg56
(lp3196
g49
(g58
g51
NtRp3197
(dp3198
g54
(dp3199
g62
I5
ssg63
Nsg56
(lp3200
g49
(g65
g51
NtRp3201
(dp3202
g54
(dp3203
sg63
g3197
sg56
(lp3204
g49
(g70
g51
NtRp3205
(dp3206
g54
(dp3207
g74
g75
ssg63
g3201
sg56
(lp3208
g147
asbag49
(g70
g51
NtRp3209
(dp3210
g54
(dp3211
g81
g82
ssg63
g3201
sg56
(lp3212
S':'
asbag49
(g70
g51
NtRp3213
(dp3214
g54
(dp3215
sg63
g3201
sg56
(lp3216
g49
(g50
g51
NtRp3217
(dp3218
g54
(dp3219
g62
I5
ssg63
g3213
sg56
(lp3220
S'<cStringIO.StringO object at 0x8c72d80>'
p3221
asbasbasbag49
(g65
g51
NtRp3222
(dp3223
g54
(dp3224
sg63
g3197
sg56
(lp3225
g49
(g70
g51
NtRp3226
(dp3227
g54
(dp3228
g74
g75
ssg63
g3222
sg56
(lp3229
g235
asbag49
(g70
g51
NtRp3230
(dp3231
g54
(dp3232
g81
g82
ssg63
g3222
sg56
(lp3233
S':'
asbag49
(g70
g51
NtRp3234
(dp3235
g54
(dp3236
sg63
g3222
sg56
(lp3237
g49
(g50
g51
NtRp3238
(dp3239
g54
(dp3240
g62
I5
ssg63
g3234
sg56
(lp3241
g49
(g58
g51
NtRp3242
(dp3243
g54
(dp3244
g62
I4
ssg63
Nsg56
(lp3245
g49
(g65
g51
NtRp3246
(dp3247
g54
(dp3248
sg63
g3242
sg56
(lp3249
g49
(g70
g51
NtRp3250
(dp3251
g54
(dp3252
g74
g75
ssg63
g3246
sg56
(lp3253
S'session_id_final_impulse'
p3254
asbag49
(g70
g51
NtRp3255
(dp3256
g54
(dp3257
g81
g82
ssg63
g3246
sg56
(lp3258
S':'
asbag49
(g70
g51
NtRp3259
(dp3260
g54
(dp3261
sg63
g3246
sg56
(lp3262
g49
(g50
g51
NtRp3263
(dp3264
g54
(dp3265
g62
I4
ssg63
g3259
sg56
(lp3266
S'127.0.0.1-3ca8b5a3-f5b2-4acc-93f3-bc658f6de824'
p3267
ag49
(g58
g51
NtRp3268
(dp3269
g54
(dp3270
g62
I3
ssg63
Nsg56
(lp3271
g49
(g65
g51
NtRp3272
(dp3273
g54
(dp3274
sg63
g3268
sg56
(lp3275
g49
(g70
g51
NtRp3276
(dp3277
g54
(dp3278
g74
g75
ssg63
g3272
sg56
(lp3279
g286
asbag49
(g70
g51
NtRp3280
(dp3281
g54
(dp3282
g81
g82
ssg63
g3272
sg56
(lp3283
S':'
asbag49
(g70
g51
NtRp3284
(dp3285
g54
(dp3286
sg63
g3272
sg56
(lp3287
g49
(g50
g51
NtRp3288
(dp3289
g54
(dp3290
g62
I3
ssg63
g3284
sg56
(lp3291
S''
asbasbasbag49
(g65
g51
NtRp3292
(dp3293
g54
(dp3294
sg63
g3268
sg56
(lp3295
g49
(g70
g51
NtRp3296
(dp3297
g54
(dp3298
g74
g75
ssg63
g3292
sg56
(lp3299
g307
asbag49
(g70
g51
NtRp3300
(dp3301
g54
(dp3302
g81
g82
ssg63
g3292
sg56
(lp3303
S':'
asbag49
(g70
g51
NtRp3304
(dp3305
g54
(dp3306
sg63
g3292
sg56
(lp3307
g49
(g50
g51
NtRp3308
(dp3309
g54
(dp3310
g62
I3
ssg63
g3304
sg56
(lp3311
S''
asbasbasbag49
(g65
g51
NtRp3312
(dp3313
g54
(dp3314
sg63
g3268
sg56
(lp3315
g49
(g70
g51
NtRp3316
(dp3317
g54
(dp3318
g74
g75
ssg63
g3312
sg56
(lp3319
g328
asbag49
(g70
g51
NtRp3320
(dp3321
g54
(dp3322
g81
g82
ssg63
g3312
sg56
(lp3323
S':'
asbag49
(g70
g51
NtRp3324
(dp3325
g54
(dp3326
sg63
g3312
sg56
(lp3327
g49
(g50
g51
NtRp3328
(dp3329
g54
(dp3330
g62
I3
ssg63
g3324
sg56
(lp3331
S''
asbasbasbag49
(g65
g51
NtRp3332
(dp3333
g54
(dp3334
sg63
g3268
sg56
(lp3335
g49
(g70
g51
NtRp3336
(dp3337
g54
(dp3338
g74
g75
ssg63
g3332
sg56
(lp3339
g349
asbag49
(g70
g51
NtRp3340
(dp3341
g54
(dp3342
g81
g82
ssg63
g3332
sg56
(lp3343
S':'
asbag49
(g70
g51
NtRp3344
(dp3345
g54
(dp3346
sg63
g3332
sg56
(lp3347
g49
(g50
g51
NtRp3348
(dp3349
g54
(dp3350
g62
I3
ssg63
g3344
sg56
(lp3351
S''
asbasbasbag49
(g65
g51
NtRp3352
(dp3353
g54
(dp3354
sg63
g3268
sg56
(lp3355
g49
(g70
g51
NtRp3356
(dp3357
g54
(dp3358
g74
g75
ssg63
g3352
sg56
(lp3359
g370
asbag49
(g70
g51
NtRp3360
(dp3361
g54
(dp3362
g81
g82
ssg63
g3352
sg56
(lp3363
S':'
asbag49
(g70
g51
NtRp3364
(dp3365
g54
(dp3366
sg63
g3352
sg56
(lp3367
g49
(g50
g51
NtRp3368
(dp3369
g54
(dp3370
g62
I3
ssg63
g3364
sg56
(lp3371
S'/'
asbasbasbag49
(g65
g51
NtRp3372
(dp3373
g54
(dp3374
sg63
g3268
sg56
(lp3375
g49
(g70
g51
NtRp3376
(dp3377
g54
(dp3378
g74
g75
ssg63
g3372
sg56
(lp3379
g391
asbag49
(g70
g51
NtRp3380
(dp3381
g54
(dp3382
g81
g82
ssg63
g3372
sg56
(lp3383
S':'
asbag49
(g70
g51
NtRp3384
(dp3385
g54
(dp3386
sg63
g3372
sg56
(lp3387
g49
(g50
g51
NtRp3388
(dp3389
g54
(dp3390
g62
I3
ssg63
g3384
sg56
(lp3391
S''
asbasbasbag49
(g65
g51
NtRp3392
(dp3393
g54
(dp3394
sg63
g3268
sg56
(lp3395
g49
(g70
g51
NtRp3396
(dp3397
g54
(dp3398
g74
g75
ssg63
g3392
sg56
(lp3399
g412
asbag49
(g70
g51
NtRp3400
(dp3401
g54
(dp3402
g81
g82
ssg63
g3392
sg56
(lp3403
S':'
asbag49
(g70
g51
NtRp3404
(dp3405
g54
(dp3406
sg63
g3392
sg56
(lp3407
g49
(g50
g51
NtRp3408
(dp3409
g54
(dp3410
g62
I3
ssg63
g3404
sg56
(lp3411
S''
asbasbasbasbasbasbasbasbasbasbasbag49
(g65
g51
NtRp3412
(dp3413
g54
(dp3414
sg63
g3197
sg56
(lp3415
g49
(g70
g51
NtRp3416
(dp3417
g54
(dp3418
g74
g75
ssg63
g3412
sg56
(lp3419
S'delimiters'
p3420
asbag49
(g70
g51
NtRp3421
(dp3422
g54
(dp3423
g81
g82
ssg63
g3412
sg56
(lp3424
S':'
asbag49
(g70
g51
NtRp3425
(dp3426
g54
(dp3427
sg63
g3412
sg56
(lp3428
g49
(g50
g51
NtRp3429
(dp3430
g54
(dp3431
g62
I5
ssg63
g3425
sg56
(lp3432
g49
(g58
g51
NtRp3433
(dp3434
g54
(dp3435
g62
I4
ssg63
Nsg56
(lp3436
g49
(g65
g51
NtRp3437
(dp3438
g54
(dp3439
sg63
g3433
sg56
(lp3440
g49
(g70
g51
NtRp3441
(dp3442
g54
(dp3443
sg63
g3437
sg56
(lp3444
g49
(g50
g51
NtRp3445
(dp3446
g54
(dp3447
g62
I4
ssg63
g3441
sg56
(lp3448
S'{{'
p3449
asbasbasbag49
(g65
g51
NtRp3450
(dp3451
g54
(dp3452
sg63
g3433
sg56
(lp3453
g49
(g70
g51
NtRp3454
(dp3455
g54
(dp3456
sg63
g3450
sg56
(lp3457
g49
(g50
g51
NtRp3458
(dp3459
g54
(dp3460
g62
I4
ssg63
g3454
sg56
(lp3461
S'}}'
p3462
asbasbasbasbasbasbasbag49
(g65
g51
NtRp3463
(dp3464
g54
(dp3465
sg63
g3197
sg56
(lp3466
g49
(g70
g51
NtRp3467
(dp3468
g54
(dp3469
g74
g75
ssg63
g3463
sg56
(lp3470
S'files'
p3471
asbag49
(g70
g51
NtRp3472
(dp3473
g54
(dp3474
g81
g82
ssg63
g3463
sg56
(lp3475
S':'
asbag49
(g70
g51
NtRp3476
(dp3477
g54
(dp3478
sg63
g3463
sg56
(lp3479
g49
(g50
g51
NtRp3480
(dp3481
g54
(dp3482
g62
I5
ssg63
g3476
sg56
(lp3483
g49
(g58
g51
NtRp3484
(dp3485
g54
(dp3486
g62
I4
ssg63
Nsg56
(lp3487
sbasbasbasbag49
(g65
g51
NtRp3488
(dp3489
g54
(dp3490
sg63
g3197
sg56
(lp3491
g49
(g70
g51
NtRp3492
(dp3493
g54
(dp3494
g74
g75
ssg63
g3488
sg56
(lp3495
S'flash'
p3496
asbag49
(g70
g51
NtRp3497
(dp3498
g54
(dp3499
g81
g82
ssg63
g3488
sg56
(lp3500
S':'
asbag49
(g70
g51
NtRp3501
(dp3502
g54
(dp3503
sg63
g3488
sg56
(lp3504
g49
(g50
g51
NtRp3505
(dp3506
g54
(dp3507
g62
I5
ssg63
g3501
sg56
(lp3508
S''
asbasbasbag49
(g65
g51
NtRp3509
(dp3510
g54
(dp3511
sg63
g3197
sg56
(lp3512
g49
(g70
g51
NtRp3513
(dp3514
g54
(dp3515
g74
g75
ssg63
g3509
sg56
(lp3516
S'generic_patterns'
p3517
asbag49
(g70
g51
NtRp3518
(dp3519
g54
(dp3520
g81
g82
ssg63
g3509
sg56
(lp3521
S':'
asbag49
(g70
g51
NtRp3522
(dp3523
g54
(dp3524
sg63
g3509
sg56
(lp3525
g49
(g50
g51
NtRp3526
(dp3527
g54
(dp3528
g62
I5
ssg63
g3522
sg56
(lp3529
g49
(g58
g51
NtRp3530
(dp3531
g54
(dp3532
g62
I4
ssg63
Nsg56
(lp3533
sbasbasbasbag49
(g65
g51
NtRp3534
(dp3535
g54
(dp3536
sg63
g3197
sg56
(lp3537
g49
(g70
g51
NtRp3538
(dp3539
g54
(dp3540
g74
g75
ssg63
g3534
sg56
(lp3541
S'google_analytics_id'
p3542
asbag49
(g70
g51
NtRp3543
(dp3544
g54
(dp3545
g81
g82
ssg63
g3534
sg56
(lp3546
S':'
asbag49
(g70
g51
NtRp3547
(dp3548
g54
(dp3549
sg63
g3534
sg56
(lp3550
g49
(g50
g51
NtRp3551
(dp3552
g54
(dp3553
g62
I5
ssg63
g3547
sg56
(lp3554
S'None'
p3555
asbasbasbag49
(g65
g51
NtRp3556
(dp3557
g54
(dp3558
sg63
g3197
sg56
(lp3559
g49
(g70
g51
NtRp3560
(dp3561
g54
(dp3562
g74
g75
ssg63
g3556
sg56
(lp3563
S'headers'
p3564
asbag49
(g70
g51
NtRp3565
(dp3566
g54
(dp3567
g81
g82
ssg63
g3556
sg56
(lp3568
S':'
asbag49
(g70
g51
NtRp3569
(dp3570
g54
(dp3571
sg63
g3556
sg56
(lp3572
g49
(g50
g51
NtRp3573
(dp3574
g54
(dp3575
g62
I5
ssg63
g3569
sg56
(lp3576
g49
(g58
g51
NtRp3577
(dp3578
g54
(dp3579
g62
I4
ssg63
Nsg56
(lp3580
g49
(g65
g51
NtRp3581
(dp3582
g54
(dp3583
sg63
g3577
sg56
(lp3584
g49
(g70
g51
NtRp3585
(dp3586
g54
(dp3587
g74
g75
ssg63
g3581
sg56
(lp3588
S'X-Powered-By'
p3589
asbag49
(g70
g51
NtRp3590
(dp3591
g54
(dp3592
g81
g82
ssg63
g3581
sg56
(lp3593
S':'
asbag49
(g70
g51
NtRp3594
(dp3595
g54
(dp3596
sg63
g3581
sg56
(lp3597
g49
(g50
g51
NtRp3598
(dp3599
g54
(dp3600
g62
I4
ssg63
g3594
sg56
(lp3601
S'web2py'
p3602
asbasbasbasbasbasbasbag49
(g65
g51
NtRp3603
(dp3604
g54
(dp3605
sg63
g3197
sg56
(lp3606
g49
(g70
g51
NtRp3607
(dp3608
g54
(dp3609
g74
g75
ssg63
g3603
sg56
(lp3610
S'menu'
p3611
asbag49
(g70
g51
NtRp3612
(dp3613
g54
(dp3614
g81
g82
ssg63
g3603
sg56
(lp3615
S':'
asbag49
(g70
g51
NtRp3616
(dp3617
g54
(dp3618
sg63
g3603
sg56
(lp3619
g49
(g50
g51
NtRp3620
(dp3621
g54
(dp3622
g62
I5
ssg63
g3616
sg56
(lp3623
g49
(g58
g51
NtRp3624
(dp3625
g54
(dp3626
g62
I4
ssg63
Nsg56
(lp3627
g49
(g65
g51
NtRp3628
(dp3629
g54
(dp3630
sg63
g3624
sg56
(lp3631
g49
(g70
g51
NtRp3632
(dp3633
g54
(dp3634
sg63
g3628
sg56
(lp3635
g49
(g50
g51
NtRp3636
(dp3637
g54
(dp3638
g62
I4
ssg63
g3632
sg56
(lp3639
g49
(g58
g51
NtRp3640
(dp3641
g54
(dp3642
g62
I3
ssg63
Nsg56
(lp3643
g49
(g65
g51
NtRp3644
(dp3645
g54
(dp3646
sg63
g3640
sg56
(lp3647
g49
(g70
g51
NtRp3648
(dp3649
g54
(dp3650
sg63
g3644
sg56
(lp3651
g49
(g50
g51
NtRp3652
(dp3653
g54
(dp3654
g62
I3
ssg63
g3648
sg56
(lp3655
cgluon.languages
lazyT_unpickle
p3656
(S't\x04\x00\x00\x00Home'
tRp3657
asbasbasbag49
(g65
g51
NtRp3658
(dp3659
g54
(dp3660
sg63
g3640
sg56
(lp3661
g49
(g70
g51
NtRp3662
(dp3663
g54
(dp3664
sg63
g3658
sg56
(lp3665
g49
(g50
g51
NtRp3666
(dp3667
g54
(dp3668
g62
I3
ssg63
g3662
sg56
(lp3669
g92
asbasbasbag49
(g65
g51
NtRp3670
(dp3671
g54
(dp3672
sg63
g3640
sg56
(lp3673
g49
(g70
g51
NtRp3674
(dp3675
g54
(dp3676
sg63
g3670
sg56
(lp3677
g49
(g50
g51
NtRp3678
(dp3679
g54
(dp3680
g62
I3
ssg63
g3674
sg56
(lp3681
S'/Final_Impulse/default/index'
p3682
asbasbasbag49
(g65
g51
NtRp3683
(dp3684
g54
(dp3685
sg63
g3640
sg56
(lp3686
g49
(g70
g51
NtRp3687
(dp3688
g54
(dp3689
sg63
g3683
sg56
(lp3690
g49
(g50
g51
NtRp3691
(dp3692
g54
(dp3693
g62
I3
ssg63
g3687
sg56
(lp3694
g49
(g58
g51
NtRp3695
(dp3696
g54
(dp3697
g62
I2
ssg63
Nsg56
(lp3698
sbasbasbasbasbasbasbasbag49
(g65
g51
NtRp3699
(dp3700
g54
(dp3701
sg63
g3624
sg56
(lp3702
g49
(g70
g51
NtRp3703
(dp3704
g54
(dp3705
sg63
g3699
sg56
(lp3706
g49
(g50
g51
NtRp3707
(dp3708
g54
(dp3709
g62
I4
ssg63
g3703
sg56
(lp3710
g49
(g58
g51
NtRp3711
(dp3712
g54
(dp3713
g62
I3
ssg63
Nsg56
(lp3714
g49
(g65
g51
NtRp3715
(dp3716
g54
(dp3717
sg63
g3711
sg56
(lp3718
g49
(g70
g51
NtRp3719
(dp3720
g54
(dp3721
sg63
g3715
sg56
(lp3722
g49
(g50
g51
NtRp3723
(dp3724
g54
(dp3725
g62
I3
ssg63
g3719
sg56
(lp3726
g49
(cgluon.html
SPAN
p3727
g51
NtRp3728
(dp3729
g54
(dp3730
S'_class'
p3731
S'highlighted'
p3732
ssg63
Nsg56
(lp3733
g3602
asbasbasbasbag49
(g65
g51
NtRp3734
(dp3735
g54
(dp3736
sg63
g3711
sg56
(lp3737
g49
(g70
g51
NtRp3738
(dp3739
g54
(dp3740
sg63
g3734
sg56
(lp3741
g49
(g50
g51
NtRp3742
(dp3743
g54
(dp3744
g62
I3
ssg63
g3738
sg56
(lp3745
g92
asbasbasbag49
(g65
g51
NtRp3746
(dp3747
g54
(dp3748
sg63
g3711
sg56
(lp3749
g49
(g70
g51
NtRp3750
(dp3751
g54
(dp3752
sg63
g3746
sg56
(lp3753
g49
(g50
g51
NtRp3754
(dp3755
g54
(dp3756
g62
I3
ssg63
g3750
sg56
(lp3757
S'http://web2py.com'
p3758
asbasbasbag49
(g65
g51
NtRp3759
(dp3760
g54
(dp3761
sg63
g3711
sg56
(lp3762
g49
(g70
g51
NtRp3763
(dp3764
g54
(dp3765
sg63
g3759
sg56
(lp3766
g49
(g50
g51
NtRp3767
(dp3768
g54
(dp3769
g62
I3
ssg63
g3763
sg56
(lp3770
g49
(g58
g51
NtRp3771
(dp3772
g54
(dp3773
g62
I2
ssg63
Nsg56
(lp3774
g49
(g65
g51
NtRp3775
(dp3776
g54
(dp3777
sg63
g3771
sg56
(lp3778
g49
(g70
g51
NtRp3779
(dp3780
g54
(dp3781
sg63
g3775
sg56
(lp3782
g49
(g50
g51
NtRp3783
(dp3784
g54
(dp3785
g62
I2
ssg63
g3779
sg56
(lp3786
g49
(g58
g51
NtRp3787
(dp3788
g54
(dp3789
g62
I1
ssg63
Nsg56
(lp3790
g49
(g65
g51
NtRp3791
(dp3792
g54
(dp3793
sg63
g3787
sg56
(lp3794
g49
(g70
g51
NtRp3795
(dp3796
g54
(dp3797
sg63
g3791
sg56
(lp3798
g49
(g50
g51
NtRp3799
(dp3800
g54
(dp3801
g62
I1
ssg63
g3795
sg56
(lp3802
g3656
(S's\x08\x00\x00\x00My Sites'
tRp3803
asbasbasbag49
(g65
g51
NtRp3804
(dp3805
g54
(dp3806
sg63
g3787
sg56
(lp3807
g49
(g70
g51
NtRp3808
(dp3809
g54
(dp3810
sg63
g3804
sg56
(lp3811
g49
(g50
g51
NtRp3812
(dp3813
g54
(dp3814
g62
I1
ssg63
g3808
sg56
(lp3815
I00
asbasbasbag49
(g65
g51
NtRp3816
(dp3817
g54
(dp3818
sg63
g3787
sg56
(lp3819
g49
(g70
g51
NtRp3820
(dp3821
g54
(dp3822
sg63
g3816
sg56
(lp3823
g49
(g50
g51
NtRp3824
(dp3825
g54
(dp3826
g62
I1
ssg63
g3820
sg56
(lp3827
S'/admin/default/site'
p3828
asbasbasbasbasbasbasbag49
(g65
g51
NtRp3829
(dp3830
g54
(dp3831
sg63
g3771
sg56
(lp3832
g49
(g70
g51
NtRp3833
(dp3834
g54
(dp3835
sg63
g3829
sg56
(lp3836
g49
(g50
g51
NtRp3837
(dp3838
g54
(dp3839
g62
I2
ssg63
g3833
sg56
(lp3840
g49
(g58
g51
NtRp3841
(dp3842
g54
(dp3843
g62
I1
ssg63
Nsg56
(lp3844
g49
(g65
g51
NtRp3845
(dp3846
g54
(dp3847
sg63
g3841
sg56
(lp3848
g49
(g70
g51
NtRp3849
(dp3850
g54
(dp3851
sg63
g3845
sg56
(lp3852
g49
(g50
g51
NtRp3853
(dp3854
g54
(dp3855
g62
I1
ssg63
g3849
sg56
(lp3856
g3656
(S's\x08\x00\x00\x00This App'
tRp3857
asbasbasbag49
(g65
g51
NtRp3858
(dp3859
g54
(dp3860
sg63
g3841
sg56
(lp3861
g49
(g70
g51
NtRp3862
(dp3863
g54
(dp3864
sg63
g3858
sg56
(lp3865
g49
(g50
g51
NtRp3866
(dp3867
g54
(dp3868
g62
I1
ssg63
g3862
sg56
(lp3869
I00
asbasbasbag49
(g65
g51
NtRp3870
(dp3871
g54
(dp3872
sg63
g3841
sg56
(lp3873
g49
(g70
g51
NtRp3874
(dp3875
g54
(dp3876
sg63
g3870
sg56
(lp3877
g49
(g50
g51
NtRp3878
(dp3879
g54
(dp3880
g62
I1
ssg63
g3874
sg56
(lp3881
S'/admin/default/design/Final_Impulse'
p3882
asbasbasbag49
(g65
g51
NtRp3883
(dp3884
g54
(dp3885
sg63
g3841
sg56
(lp3886
g49
(g70
g51
NtRp3887
(dp3888
g54
(dp3889
sg63
g3883
sg56
(lp3890
g49
(g50
g51
NtRp3891
(dp3892
g54
(dp3893
g62
I1
ssg63
g3887
sg56
(lp3894
(lp3895
(g3656
(S't\n\x00\x00\x00Controller'
tRp3896
I00
S'/admin/default/edit/Final_Impulse/controllers/default.py'
tp3897
a(g3656
(S't\x04\x00\x00\x00View'
tRp3898
I00
S'/admin/default/edit/Final_Impulse/views/default/show_image_comments.html'
tp3899
a(g3656
(S't\x06\x00\x00\x00Layout'
tRp3900
I00
S'/admin/default/edit/Final_Impulse/views/layout.html'
tp3901
a(g3656
(S't\n\x00\x00\x00Stylesheet'
tRp3902
I00
S'/admin/default/edit/Final_Impulse/static/css/web2py.css'
tp3903
a(g3656
(S's\x08\x00\x00\x00DB Model'
tRp3904
I00
S'/admin/default/edit/Final_Impulse/models/db.py'
tp3905
a(g3656
(S's\n\x00\x00\x00Menu Model'
tRp3906
I00
S'/admin/default/edit/Final_Impulse/models/menu.py'
tp3907
a(g3656
(S't\x08\x00\x00\x00Database'
tRp3908
I00
S'/Final_Impulse/appadmin/index'
tp3909
a(g3656
(S't\x06\x00\x00\x00Errors'
tRp3910
I00
S'/admin/default/errors/Final_Impulse'
tp3911
a(g3656
(S't\x05\x00\x00\x00About'
tRp3912
I00
S'/admin/default/about/Final_Impulse'
tp3913
aasbasbasbasbasbasbasbag49
(g65
g51
NtRp3914
(dp3915
g54
(dp3916
sg63
g3771
sg56
(lp3917
g49
(g70
g51
NtRp3918
(dp3919
g54
(dp3920
sg63
g3914
sg56
(lp3921
g49
(g50
g51
NtRp3922
(dp3923
g54
(dp3924
g62
I2
ssg63
g3918
sg56
(lp3925
g49
(g58
g51
NtRp3926
(dp3927
g54
(dp3928
g62
I1
ssg63
Nsg56
(lp3929
g49
(g65
g51
NtRp3930
(dp3931
g54
(dp3932
sg63
g3926
sg56
(lp3933
g49
(g70
g51
NtRp3934
(dp3935
g54
(dp3936
sg63
g3930
sg56
(lp3937
g49
(g50
g51
NtRp3938
(dp3939
g54
(dp3940
g62
I1
ssg63
g3934
sg56
(lp3941
S'web2py.com'
p3942
asbasbasbag49
(g65
g51
NtRp3943
(dp3944
g54
(dp3945
sg63
g3926
sg56
(lp3946
g49
(g70
g51
NtRp3947
(dp3948
g54
(dp3949
sg63
g3943
sg56
(lp3950
g49
(g50
g51
NtRp3951
(dp3952
g54
(dp3953
g62
I1
ssg63
g3947
sg56
(lp3954
I00
asbasbasbag49
(g65
g51
NtRp3955
(dp3956
g54
(dp3957
sg63
g3926
sg56
(lp3958
g49
(g70
g51
NtRp3959
(dp3960
g54
(dp3961
sg63
g3955
sg56
(lp3962
g49
(g50
g51
NtRp3963
(dp3964
g54
(dp3965
g62
I1
ssg63
g3959
sg56
(lp3966
S'http://www.web2py.com'
p3967
asbasbasbag49
(g65
g51
NtRp3968
(dp3969
g54
(dp3970
sg63
g3926
sg56
(lp3971
g49
(g70
g51
NtRp3972
(dp3973
g54
(dp3974
sg63
g3968
sg56
(lp3975
g49
(g50
g51
NtRp3976
(dp3977
g54
(dp3978
g62
I1
ssg63
g3972
sg56
(lp3979
(lp3980
(g3656
(S't\x08\x00\x00\x00Download'
tRp3981
I00
S'http://www.web2py.com/examples/default/download'
p3982
tp3983
a(g3656
(S't\x07\x00\x00\x00Support'
tRp3984
I00
S'http://www.web2py.com/examples/default/support'
p3985
tp3986
a(g3656
(S't\x04\x00\x00\x00Demo'
tRp3987
I00
S'http://web2py.com/demo_admin'
p3988
tp3989
a(g3656
(S's\x0e\x00\x00\x00Quick Examples'
tRp3990
I00
S'http://web2py.com/examples/default/examples'
p3991
tp3992
a(g3656
(S't\x03\x00\x00\x00FAQ'
tRp3993
I00
S'http://web2py.com/AlterEgo'
p3994
tp3995
a(g3656
(S't\x06\x00\x00\x00Videos'
tRp3996
I00
S'http://www.web2py.com/examples/default/videos/'
p3997
tp3998
a(g3656
(S's\x11\x00\x00\x00Free Applications'
tRp3999
I00
S'http://web2py.com/appliances'
p4000
tp4001
a(g3656
(S't\x07\x00\x00\x00Plugins'
tRp4002
I00
S'http://web2py.com/plugins'
p4003
tp4004
a(g3656
(S't\x07\x00\x00\x00Layouts'
tRp4005
I00
S'http://web2py.com/layouts'
p4006
tp4007
a(g3656
(S't\x07\x00\x00\x00Recipes'
tRp4008
I00
S'http://web2pyslices.com/'
p4009
tp4010
a(g3656
(S't\x08\x00\x00\x00Semantic'
tRp4011
I00
S'http://web2py.com/semantic'
p4012
tp4013
aasbasbasbasbasbasbasbag49
(g65
g51
NtRp4014
(dp4015
g54
(dp4016
sg63
g3771
sg56
(lp4017
g49
(g70
g51
NtRp4018
(dp4019
g54
(dp4020
sg63
g4014
sg56
(lp4021
g49
(g50
g51
NtRp4022
(dp4023
g54
(dp4024
g62
I2
ssg63
g4018
sg56
(lp4025
g49
(g58
g51
NtRp4026
(dp4027
g54
(dp4028
g62
I1
ssg63
Nsg56
(lp4029
g49
(g65
g51
NtRp4030
(dp4031
g54
(dp4032
sg63
g4026
sg56
(lp4033
g49
(g70
g51
NtRp4034
(dp4035
g54
(dp4036
sg63
g4030
sg56
(lp4037
g49
(g50
g51
NtRp4038
(dp4039
g54
(dp4040
g62
I1
ssg63
g4034
sg56
(lp4041
g3656
(S't\r\x00\x00\x00Documentation'
tRp4042
asbasbasbag49
(g65
g51
NtRp4043
(dp4044
g54
(dp4045
sg63
g4026
sg56
(lp4046
g49
(g70
g51
NtRp4047
(dp4048
g54
(dp4049
sg63
g4043
sg56
(lp4050
g49
(g50
g51
NtRp4051
(dp4052
g54
(dp4053
g62
I1
ssg63
g4047
sg56
(lp4054
I00
asbasbasbag49
(g65
g51
NtRp4055
(dp4056
g54
(dp4057
sg63
g4026
sg56
(lp4058
g49
(g70
g51
NtRp4059
(dp4060
g54
(dp4061
sg63
g4055
sg56
(lp4062
g49
(g50
g51
NtRp4063
(dp4064
g54
(dp4065
g62
I1
ssg63
g4059
sg56
(lp4066
S'http://www.web2py.com/book'
p4067
asbasbasbag49
(g65
g51
NtRp4068
(dp4069
g54
(dp4070
sg63
g4026
sg56
(lp4071
g49
(g70
g51
NtRp4072
(dp4073
g54
(dp4074
sg63
g4068
sg56
(lp4075
g49
(g50
g51
NtRp4076
(dp4077
g54
(dp4078
g62
I1
ssg63
g4072
sg56
(lp4079
(lp4080
(g3656
(S't\x07\x00\x00\x00Preface'
tRp4081
I00
S'http://www.web2py.com/book/default/chapter/00'
p4082
tp4083
a(g3656
(S't\x0c\x00\x00\x00Introduction'
tRp4084
I00
S'http://www.web2py.com/book/default/chapter/01'
p4085
tp4086
a(g3656
(S't\x06\x00\x00\x00Python'
tRp4087
I00
S'http://www.web2py.com/book/default/chapter/02'
p4088
tp4089
a(g3656
(S't\x08\x00\x00\x00Overview'
tRp4090
I00
S'http://www.web2py.com/book/default/chapter/03'
p4091
tp4092
a(g3656
(S's\x08\x00\x00\x00The Core'
tRp4093
I00
S'http://www.web2py.com/book/default/chapter/04'
p4094
tp4095
a(g3656
(S's\t\x00\x00\x00The Views'
tRp4096
I00
S'http://www.web2py.com/book/default/chapter/05'
p4097
tp4098
a(g3656
(S't\x08\x00\x00\x00Database'
tRp4099
I00
S'http://www.web2py.com/book/default/chapter/06'
p4100
tp4101
a(g3656
(S's\x14\x00\x00\x00Forms and Validators'
tRp4102
I00
S'http://www.web2py.com/book/default/chapter/07'
p4103
tp4104
a(g3656
(S's\r\x00\x00\x00Email and SMS'
tRp4105
I00
S'http://www.web2py.com/book/default/chapter/08'
p4106
tp4107
a(g3656
(S's\x0e\x00\x00\x00Access Control'
tRp4108
I00
S'http://www.web2py.com/book/default/chapter/09'
p4109
tp4110
a(g3656
(S't\x08\x00\x00\x00Services'
tRp4111
I00
S'http://www.web2py.com/book/default/chapter/10'
p4112
tp4113
a(g3656
(S's\x0c\x00\x00\x00Ajax Recipes'
tRp4114
I00
S'http://www.web2py.com/book/default/chapter/11'
p4115
tp4116
a(g3656
(S's\x16\x00\x00\x00Components and Plugins'
tRp4117
I00
S'http://www.web2py.com/book/default/chapter/12'
p4118
tp4119
a(g3656
(S's\x12\x00\x00\x00Deployment Recipes'
tRp4120
I00
S'http://www.web2py.com/book/default/chapter/13'
p4121
tp4122
a(g3656
(S's\r\x00\x00\x00Other Recipes'
tRp4123
I00
S'http://www.web2py.com/book/default/chapter/14'
p4124
tp4125
a(g3656
(S's\r\x00\x00\x00Buy this book'
tRp4126
I00
S'http://stores.lulu.com/web2py'
p4127
tp4128
aasbasbasbasbasbasbasbag49
(g65
g51
NtRp4129
(dp4130
g54
(dp4131
sg63
g3771
sg56
(lp4132
g49
(g70
g51
NtRp4133
(dp4134
g54
(dp4135
sg63
g4129
sg56
(lp4136
g49
(g50
g51
NtRp4137
(dp4138
g54
(dp4139
g62
I2
ssg63
g4133
sg56
(lp4140
g49
(g58
g51
NtRp4141
(dp4142
g54
(dp4143
g62
I1
ssg63
Nsg56
(lp4144
g49
(g65
g51
NtRp4145
(dp4146
g54
(dp4147
sg63
g4141
sg56
(lp4148
g49
(g70
g51
NtRp4149
(dp4150
g54
(dp4151
sg63
g4145
sg56
(lp4152
g49
(g50
g51
NtRp4153
(dp4154
g54
(dp4155
g62
I1
ssg63
g4149
sg56
(lp4156
g3656
(S't\t\x00\x00\x00Community'
tRp4157
asbasbasbag49
(g65
g51
NtRp4158
(dp4159
g54
(dp4160
sg63
g4141
sg56
(lp4161
g49
(g70
g51
NtRp4162
(dp4163
g54
(dp4164
sg63
g4158
sg56
(lp4165
g49
(g50
g51
NtRp4166
(dp4167
g54
(dp4168
g62
I1
ssg63
g4162
sg56
(lp4169
I00
asbasbasbag49
(g65
g51
NtRp4170
(dp4171
g54
(dp4172
sg63
g4141
sg56
(lp4173
g49
(g70
g51
NtRp4174
(dp4175
g54
(dp4176
sg63
g4170
sg56
(lp4177
g49
(g50
g51
NtRp4178
(dp4179
g54
(dp4180
g62
I1
ssg63
g4174
sg56
(lp4181
Nasbasbasbag49
(g65
g51
NtRp4182
(dp4183
g54
(dp4184
sg63
g4141
sg56
(lp4185
g49
(g70
g51
NtRp4186
(dp4187
g54
(dp4188
sg63
g4182
sg56
(lp4189
g49
(g50
g51
NtRp4190
(dp4191
g54
(dp4192
g62
I1
ssg63
g4186
sg56
(lp4193
(lp4194
(g3656
(S't\x06\x00\x00\x00Groups'
tRp4195
I00
S'http://www.web2py.com/examples/default/usergroups'
p4196
tp4197
a(g3656
(S't\x07\x00\x00\x00Twitter'
tRp4198
I00
S'http://twitter.com/web2py'
p4199
tp4200
a(g3656
(S's\t\x00\x00\x00Live Chat'
tRp4201
I00
S'http://webchat.freenode.net/?channels=web2py'
p4202
tp4203
aasbasbasbasbasbasbasbag49
(g65
g51
NtRp4204
(dp4205
g54
(dp4206
sg63
g3771
sg56
(lp4207
g49
(g70
g51
NtRp4208
(dp4209
g54
(dp4210
sg63
g4204
sg56
(lp4211
g49
(g50
g51
NtRp4212
(dp4213
g54
(dp4214
g62
I2
ssg63
g4208
sg56
(lp4215
g49
(g58
g51
NtRp4216
(dp4217
g54
(dp4218
g62
I1
ssg63
Nsg56
(lp4219
g49
(g65
g51
NtRp4220
(dp4221
g54
(dp4222
sg63
g4216
sg56
(lp4223
g49
(g70
g51
NtRp4224
(dp4225
g54
(dp4226
sg63
g4220
sg56
(lp4227
g49
(g50
g51
NtRp4228
(dp4229
g54
(dp4230
g62
I1
ssg63
g4224
sg56
(lp4231
g3656
(S't\x07\x00\x00\x00Plugins'
tRp4232
asbasbasbag49
(g65
g51
NtRp4233
(dp4234
g54
(dp4235
sg63
g4216
sg56
(lp4236
g49
(g70
g51
NtRp4237
(dp4238
g54
(dp4239
sg63
g4233
sg56
(lp4240
g49
(g50
g51
NtRp4241
(dp4242
g54
(dp4243
g62
I1
ssg63
g4237
sg56
(lp4244
I00
asbasbasbag49
(g65
g51
NtRp4245
(dp4246
g54
(dp4247
sg63
g4216
sg56
(lp4248
g49
(g70
g51
NtRp4249
(dp4250
g54
(dp4251
sg63
g4245
sg56
(lp4252
g49
(g50
g51
NtRp4253
(dp4254
g54
(dp4255
g62
I1
ssg63
g4249
sg56
(lp4256
Nasbasbasbag49
(g65
g51
NtRp4257
(dp4258
g54
(dp4259
sg63
g4216
sg56
(lp4260
g49
(g70
g51
NtRp4261
(dp4262
g54
(dp4263
sg63
g4257
sg56
(lp4264
g49
(g50
g51
NtRp4265
(dp4266
g54
(dp4267
g62
I1
ssg63
g4261
sg56
(lp4268
(lp4269
(S'plugin_wiki'
p4270
I00
S'http://web2py.com/examples/default/download'
p4271
tp4272
a(g3656
(S's\r\x00\x00\x00Other Plugins'
tRp4273
I00
g4003
tp4274
a(g3656
(S's\x0e\x00\x00\x00Layout Plugins'
tRp4275
I00
g4006
tp4276
aasbasbasbasbasbasbasbasbasbasbasbasbasbasbasbasbasbasbasbag49
(g65
g51
NtRp4277
(dp4278
g54
(dp4279
sg63
g3197
sg56
(lp4280
g49
(g70
g51
NtRp4281
(dp4282
g54
(dp4283
g74
g75
ssg63
g4277
sg56
(lp4284
S'meta'
p4285
asbag49
(g70
g51
NtRp4286
(dp4287
g54
(dp4288
g81
g82
ssg63
g4277
sg56
(lp4289
S':'
asbag49
(g70
g51
NtRp4290
(dp4291
g54
(dp4292
sg63
g4277
sg56
(lp4293
g49
(g50
g51
NtRp4294
(dp4295
g54
(dp4296
g62
I5
ssg63
g4290
sg56
(lp4297
g49
(g58
g51
NtRp4298
(dp4299
g54
(dp4300
g62
I4
ssg63
Nsg56
(lp4301
g49
(g65
g51
NtRp4302
(dp4303
g54
(dp4304
sg63
g4298
sg56
(lp4305
g49
(g70
g51
NtRp4306
(dp4307
g54
(dp4308
g74
g75
ssg63
g4302
sg56
(lp4309
S'author'
p4310
asbag49
(g70
g51
NtRp4311
(dp4312
g54
(dp4313
g81
g82
ssg63
g4302
sg56
(lp4314
S':'
asbag49
(g70
g51
NtRp4315
(dp4316
g54
(dp4317
sg63
g4302
sg56
(lp4318
g49
(g50
g51
NtRp4319
(dp4320
g54
(dp4321
g62
I4
ssg63
g4315
sg56
(lp4322
S'Your Name <you@example.com>'
p4323
asbasbasbag49
(g65
g51
NtRp4324
(dp4325
g54
(dp4326
sg63
g4298
sg56
(lp4327
g49
(g70
g51
NtRp4328
(dp4329
g54
(dp4330
g74
g75
ssg63
g4324
sg56
(lp4331
S'description'
p4332
asbag49
(g70
g51
NtRp4333
(dp4334
g54
(dp4335
g81
g82
ssg63
g4324
sg56
(lp4336
S':'
asbag49
(g70
g51
NtRp4337
(dp4338
g54
(dp4339
sg63
g4324
sg56
(lp4340
g49
(g50
g51
NtRp4341
(dp4342
g54
(dp4343
g62
I4
ssg63
g4337
sg56
(lp4344
S'a cool new app'
p4345
asbasbasbag49
(g65
g51
NtRp4346
(dp4347
g54
(dp4348
sg63
g4298
sg56
(lp4349
g49
(g70
g51
NtRp4350
(dp4351
g54
(dp4352
g74
g75
ssg63
g4346
sg56
(lp4353
S'generator'
p4354
asbag49
(g70
g51
NtRp4355
(dp4356
g54
(dp4357
g81
g82
ssg63
g4346
sg56
(lp4358
S':'
asbag49
(g70
g51
NtRp4359
(dp4360
g54
(dp4361
sg63
g4346
sg56
(lp4362
g49
(g50
g51
NtRp4363
(dp4364
g54
(dp4365
g62
I4
ssg63
g4359
sg56
(lp4366
S'Web2py Web Framework'
p4367
asbasbasbag49
(g65
g51
NtRp4368
(dp4369
g54
(dp4370
sg63
g4298
sg56
(lp4371
g49
(g70
g51
NtRp4372
(dp4373
g54
(dp4374
g74
g75
ssg63
g4368
sg56
(lp4375
S'keywords'
p4376
asbag49
(g70
g51
NtRp4377
(dp4378
g54
(dp4379
g81
g82
ssg63
g4368
sg56
(lp4380
S':'
asbag49
(g70
g51
NtRp4381
(dp4382
g54
(dp4383
sg63
g4368
sg56
(lp4384
g49
(g50
g51
NtRp4385
(dp4386
g54
(dp4387
g62
I4
ssg63
g4381
sg56
(lp4388
S'web2py, python, framework'
p4389
asbasbasbasbasbasbasbag49
(g65
g51
NtRp4390
(dp4391
g54
(dp4392
sg63
g3197
sg56
(lp4393
g49
(g70
g51
NtRp4394
(dp4395
g54
(dp4396
g74
g75
ssg63
g4390
sg56
(lp4397
S'models_to_run'
p4398
asbag49
(g70
g51
NtRp4399
(dp4400
g54
(dp4401
g81
g82
ssg63
g4390
sg56
(lp4402
S':'
asbag49
(g70
g51
NtRp4403
(dp4404
g54
(dp4405
sg63
g4390
sg56
(lp4406
g49
(g50
g51
NtRp4407
(dp4408
g54
(dp4409
g62
I5
ssg63
g4403
sg56
(lp4410
g49
(g58
g51
NtRp4411
(dp4412
g54
(dp4413
g62
I4
ssg63
Nsg56
(lp4414
g49
(g65
g51
NtRp4415
(dp4416
g54
(dp4417
sg63
g4411
sg56
(lp4418
g49
(g70
g51
NtRp4419
(dp4420
g54
(dp4421
sg63
g4415
sg56
(lp4422
g49
(g50
g51
NtRp4423
(dp4424
g54
(dp4425
g62
I4
ssg63
g4419
sg56
(lp4426
S'^\\w+\\.py$'
p4427
asbasbasbag49
(g65
g51
NtRp4428
(dp4429
g54
(dp4430
sg63
g4411
sg56
(lp4431
g49
(g70
g51
NtRp4432
(dp4433
g54
(dp4434
sg63
g4428
sg56
(lp4435
g49
(g50
g51
NtRp4436
(dp4437
g54
(dp4438
g62
I4
ssg63
g4432
sg56
(lp4439
S'^default/\\w+\\.py$'
p4440
asbasbasbag49
(g65
g51
NtRp4441
(dp4442
g54
(dp4443
sg63
g4411
sg56
(lp4444
g49
(g70
g51
NtRp4445
(dp4446
g54
(dp4447
sg63
g4441
sg56
(lp4448
g49
(g50
g51
NtRp4449
(dp4450
g54
(dp4451
g62
I4
ssg63
g4445
sg56
(lp4452
S'^default/show_image_comments/\\w+\\.py$'
p4453
asbasbasbasbasbasbasbag49
(g65
g51
NtRp4454
(dp4455
g54
(dp4456
sg63
g3197
sg56
(lp4457
g49
(g70
g51
NtRp4458
(dp4459
g54
(dp4460
g74
g75
ssg63
g4454
sg56
(lp4461
S'postprocessing'
p4462
asbag49
(g70
g51
NtRp4463
(dp4464
g54
(dp4465
g81
g82
ssg63
g4454
sg56
(lp4466
S':'
asbag49
(g70
g51
NtRp4467
(dp4468
g54
(dp4469
sg63
g4454
sg56
(lp4470
g49
(g50
g51
NtRp4471
(dp4472
g54
(dp4473
g62
I5
ssg63
g4467
sg56
(lp4474
g49
(g58
g51
NtRp4475
(dp4476
g54
(dp4477
g62
I4
ssg63
Nsg56
(lp4478
sbasbasbasbag49
(g65
g51
NtRp4479
(dp4480
g54
(dp4481
sg63
g3197
sg56
(lp4482
g49
(g70
g51
NtRp4483
(dp4484
g54
(dp4485
g74
g75
ssg63
g4479
sg56
(lp4486
S'session_cookie_expires'
p4487
asbag49
(g70
g51
NtRp4488
(dp4489
g54
(dp4490
g81
g82
ssg63
g4479
sg56
(lp4491
S':'
asbag49
(g70
g51
NtRp4492
(dp4493
g54
(dp4494
sg63
g4479
sg56
(lp4495
g49
(g50
g51
NtRp4496
(dp4497
g54
(dp4498
g62
I5
ssg63
g4492
sg56
(lp4499
S'None'
p4500
asbasbasbag49
(g65
g51
NtRp4501
(dp4502
g54
(dp4503
sg63
g3197
sg56
(lp4504
g49
(g70
g51
NtRp4505
(dp4506
g54
(dp4507
g74
g75
ssg63
g4501
sg56
(lp4508
S'session_data_name'
p4509
asbag49
(g70
g51
NtRp4510
(dp4511
g54
(dp4512
g81
g82
ssg63
g4501
sg56
(lp4513
S':'
asbag49
(g70
g51
NtRp4514
(dp4515
g54
(dp4516
sg63
g4501
sg56
(lp4517
g49
(g50
g51
NtRp4518
(dp4519
g54
(dp4520
g62
I5
ssg63
g4514
sg56
(lp4521
S'session_data_final_impulse'
p4522
asbasbasbag49
(g65
g51
NtRp4523
(dp4524
g54
(dp4525
sg63
g3197
sg56
(lp4526
g49
(g70
g51
NtRp4527
(dp4528
g54
(dp4529
g74
g75
ssg63
g4523
sg56
(lp4530
S'session_filename'
p4531
asbag49
(g70
g51
NtRp4532
(dp4533
g54
(dp4534
g81
g82
ssg63
g4523
sg56
(lp4535
S':'
asbag49
(g70
g51
NtRp4536
(dp4537
g54
(dp4538
sg63
g4523
sg56
(lp4539
g49
(g50
g51
NtRp4540
(dp4541
g54
(dp4542
g62
I5
ssg63
g4536
sg56
(lp4543
S'/Users/abaric/Downloads/web2py/web2py.app/Contents/Resources/applications/Final_Impulse/sessions/127.0.0.1-3ca8b5a3-f5b2-4acc-93f3-bc658f6de824'
p4544
asbasbasbag49
(g65
g51
NtRp4545
(dp4546
g54
(dp4547
sg63
g3197
sg56
(lp4548
g49
(g70
g51
NtRp4549
(dp4550
g54
(dp4551
g74
g75
ssg63
g4545
sg56
(lp4552
S'session_id'
p4553
asbag49
(g70
g51
NtRp4554
(dp4555
g54
(dp4556
g81
g82
ssg63
g4545
sg56
(lp4557
S':'
asbag49
(g70
g51
NtRp4558
(dp4559
g54
(dp4560
sg63
g4545
sg56
(lp4561
g49
(g50
g51
NtRp4562
(dp4563
g54
(dp4564
g62
I5
ssg63
g4558
sg56
(lp4565
g3267
asbasbasbag49
(g65
g51
NtRp4566
(dp4567
g54
(dp4568
sg63
g3197
sg56
(lp4569
g49
(g70
g51
NtRp4570
(dp4571
g54
(dp4572
g74
g75
ssg63
g4566
sg56
(lp4573
S'session_id_name'
p4574
asbag49
(g70
g51
NtRp4575
(dp4576
g54
(dp4577
g81
g82
ssg63
g4566
sg56
(lp4578
S':'
asbag49
(g70
g51
NtRp4579
(dp4580
g54
(dp4581
sg63
g4566
sg56
(lp4582
g49
(g50
g51
NtRp4583
(dp4584
g54
(dp4585
g62
I5
ssg63
g4579
sg56
(lp4586
g3254
asbasbasbag49
(g65
g51
NtRp4587
(dp4588
g54
(dp4589
sg63
g3197
sg56
(lp4590
g49
(g70
g51
NtRp4591
(dp4592
g54
(dp4593
g74
g75
ssg63
g4587
sg56
(lp4594
S'session_new'
p4595
asbag49
(g70
g51
NtRp4596
(dp4597
g54
(dp4598
g81
g82
ssg63
g4587
sg56
(lp4599
S':'
asbag49
(g70
g51
NtRp4600
(dp4601
g54
(dp4602
sg63
g4587
sg56
(lp4603
g49
(g50
g51
NtRp4604
(dp4605
g54
(dp4606
g62
I5
ssg63
g4600
sg56
(lp4607
g1699
asbasbasbag49
(g65
g51
NtRp4608
(dp4609
g54
(dp4610
sg63
g3197
sg56
(lp4611
g49
(g70
g51
NtRp4612
(dp4613
g54
(dp4614
g74
g75
ssg63
g4608
sg56
(lp4615
S'session_storage_type'
p4616
asbag49
(g70
g51
NtRp4617
(dp4618
g54
(dp4619
g81
g82
ssg63
g4608
sg56
(lp4620
S':'
asbag49
(g70
g51
NtRp4621
(dp4622
g54
(dp4623
sg63
g4608
sg56
(lp4624
g49
(g50
g51
NtRp4625
(dp4626
g54
(dp4627
g62
I5
ssg63
g4621
sg56
(lp4628
g3130
asbasbasbag49
(g65
g51
NtRp4629
(dp4630
g54
(dp4631
sg63
g3197
sg56
(lp4632
g49
(g70
g51
NtRp4633
(dp4634
g54
(dp4635
g74
g75
ssg63
g4629
sg56
(lp4636
S'status'
p4637
asbag49
(g70
g51
NtRp4638
(dp4639
g54
(dp4640
g81
g82
ssg63
g4629
sg56
(lp4641
S':'
asbag49
(g70
g51
NtRp4642
(dp4643
g54
(dp4644
sg63
g4629
sg56
(lp4645
g49
(g50
g51
NtRp4646
(dp4647
g54
(dp4648
g62
I5
ssg63
g4642
sg56
(lp4649
S'200'
p4650
asbasbasbag49
(g65
g51
NtRp4651
(dp4652
g54
(dp4653
sg63
g3197
sg56
(lp4654
g49
(g70
g51
NtRp4655
(dp4656
g54
(dp4657
g74
g75
ssg63
g4651
sg56
(lp4658
S'subtitle'
p4659
asbag49
(g70
g51
NtRp4660
(dp4661
g54
(dp4662
g81
g82
ssg63
g4651
sg56
(lp4663
S':'
asbag49
(g70
g51
NtRp4664
(dp4665
g54
(dp4666
sg63
g4651
sg56
(lp4667
g49
(g50
g51
NtRp4668
(dp4669
g54
(dp4670
g62
I5
ssg63
g4664
sg56
(lp4671
g3656
(S's\r\x00\x00\x00customize me!'
tRp4672
asbasbasbag49
(g65
g51
NtRp4673
(dp4674
g54
(dp4675
sg63
g3197
sg56
(lp4676
g49
(g70
g51
NtRp4677
(dp4678
g54
(dp4679
g74
g75
ssg63
g4673
sg56
(lp4680
S'title'
p4681
asbag49
(g70
g51
NtRp4682
(dp4683
g54
(dp4684
g81
g82
ssg63
g4673
sg56
(lp4685
S':'
asbag49
(g70
g51
NtRp4686
(dp4687
g54
(dp4688
sg63
g4673
sg56
(lp4689
g49
(g50
g51
NtRp4690
(dp4691
g54
(dp4692
g62
I5
ssg63
g4686
sg56
(lp4693
S'Final Impulse'
p4694
asbasbasbag49
(g65
g51
NtRp4695
(dp4696
g54
(dp4697
sg63
g3197
sg56
(lp4698
g49
(g70
g51
NtRp4699
(dp4700
g54
(dp4701
g74
g75
ssg63
g4695
sg56
(lp4702
S'view'
p4703
asbag49
(g70
g51
NtRp4704
(dp4705
g54
(dp4706
g81
g82
ssg63
g4695
sg56
(lp4707
S':'
asbag49
(g70
g51
NtRp4708
(dp4709
g54
(dp4710
sg63
g4695
sg56
(lp4711
g49
(g50
g51
NtRp4712
(dp4713
g54
(dp4714
g62
I5
ssg63
g4708
sg56
(lp4715
S'default/show_image_comments.html'
p4716
asbasbasbasbasbsS'locals'
p4717
(dp4718
S'image_form'
p4719
S'<gluon.sqlhtml.SQLFORM object at 0x8bbc130>'
p4720
sssS'traceback'
p4721
S'Traceback (most recent call last):\n  File "gluon/restricted.py", line 212, in restricted\n  File "/Users/abaric/Downloads/web2py/web2py.app/Contents/Resources/applications/Final_Impulse/controllers/default.py", line 149, in <module>\n  File "gluon/globals.py", line 188, in <lambda>\n  File "/Users/abaric/Downloads/web2py/web2py.app/Contents/Resources/applications/Final_Impulse/controllers/default.py", line 36, in show_image_comments\nAttributeError: \'NoneType\' object has no attribute \'id\'\n'
p4722
s.