(dp1
S'output'
p2
S"<type 'exceptions.NameError'> name 'image' is not defined"
p3
sS'layer'
p4
S'/Users/abaric/Downloads/web2py/web2py.app/Contents/Resources/applications/Final_Impulse/views/default/show_writing_comments.html'
p5
sS'code'
p6
S'response.write(\'<!DOCTYPE html>\\n<html>\\n<!-- paulirish.com/2008/conditional-stylesheets-vs-css-hacks-answer-neither/ -->\\n<!--[if lt IE 7]><html class="ie ie6 ie-lte9 ie-lte8 ie-lte7 no-js" lang="\', escape=False)\nresponse.write(T.accepted_language or \'en\')\nresponse.write(\'"> <![endif]-->\\n<!--[if IE 7]><html class="ie ie7 ie-lte9 ie-lte8 ie-lte7 no-js" lang="\', escape=False)\nresponse.write(T.accepted_language or \'en\')\nresponse.write(\'"> <![endif]-->\\n<!--[if IE 8]><html class="ie ie8 ie-lte9 ie-lte8 no-js" lang="\', escape=False)\nresponse.write(T.accepted_language or \'en\')\nresponse.write(\'"> <![endif]-->\\n<!--[if IE 9]><html class="ie9 ie-lte9 no-js" lang="\', escape=False)\nresponse.write(T.accepted_language or \'en\')\nresponse.write(\'"> <![endif]-->\\n<!--[if (gt IE 9)|!(IE)]><!--> <html class="no-js" lang="\', escape=False)\nresponse.write(T.accepted_language or \'en\')\nresponse.write(\'"> <!--<![endif]-->\\n<head>\\n  <meta charset="utf-8" />\\n  <!-- www.phpied.com/conditional-comments-block-downloads/ -->\\n  <!-- Always force latest IE rendering engine\\n       (even in intranet) & Chrome Frame\\n       Remove this if you use the .htaccess -->\\n  <!--[if IE]>\\n      <meta http-equiv="X-UA-Compatible" content="IE=edge\', escape=False)\nresponse.write(not request.is_local and \',chrome=1\' or \'\')\nresponse.write(\'">\\n      <![endif]-->\\n\\n  <title>\', escape=False)\nresponse.write(response.title or request.application)\nresponse.write(\'</title>\\n\\n  <!-- http://dev.w3.org/html5/markup/meta.name.html -->\\n  <meta name="application-name" content="\', escape=False)\nresponse.write(request.application)\nresponse.write(\'" />\\n\\n  <!-- Speaking of Google, don\\\'t forget to set your site up:\\n       http://google.com/webmasters -->\\n  <meta name="google-site-verification" content="" />\\n\\n  <!--  Mobile Viewport Fix\\n        j.mp/mobileviewport & davidbcalhoun.com/2010/viewport-metatag\\n        device-width: Occupy full width of the screen in its current orientation\\n        initial-scale = 1.0 retains dimensions instead of zooming out if page height > device height\\n        user-scalable = yes allows the user to zoom in -->\\n  <meta name="viewport" content="width=device-width, initial-scale=1.0">\\n\\n  <link rel="shortcut icon" href="\', escape=False)\nresponse.write(URL(\'static\',\'images/favicon.ico\'))\nresponse.write(\'" type="image/x-icon">\\n  <link rel="apple-touch-icon" href="\', escape=False)\nresponse.write(URL(\'static\',\'images/favicon.png\'))\nresponse.write(\'">\\n\\n  <!-- All JavaScript at the bottom, except for Modernizr which enables\\n       HTML5 elements & feature detects -->\\n  <script src="\', escape=False)\nresponse.write(URL(\'static\',\'js/modernizr.custom.js\'))\nresponse.write(\'"></script>\\n\\n  <!-- include stylesheets -->\\n  \', escape=False)\nresponse.files.append(URL(\'static\',\'css/web2py.css\'))\nresponse.files.append(URL(\'static\',\'css/bootstrap.min.css\'))\nresponse.files.append(URL(\'static\',\'css/bootstrap-responsive.min.css\'))\nresponse.files.append(URL(\'static\',\'css/web2py_bootstrap.css\'))\nresponse.write(\'\\n\\n  \', escape=False)\nresponse.write(\'<script type="text/javascript"><!--\\n    // These variables are used by the web2py_ajax_init function in web2py_ajax.js (which is loaded below).\\n    var w2p_ajax_confirm_message = "\', escape=False)\nresponse.write(T(\'Are you sure you want to delete this object?\'))\nresponse.write(\'";\\n    var w2p_ajax_date_format = "\', escape=False)\nresponse.write(T(\'%Y-%m-%d\'))\nresponse.write(\'";\\n    var w2p_ajax_datetime_format = "\', escape=False)\nresponse.write(T(\'%Y-%m-%d %H:%M:%S\'))\nresponse.write(\'";\\n    //--></script>\\n\', escape=False)\nresponse.files.insert(0,URL(\'static\',\'js/jquery.js\'))\nresponse.files.insert(1,URL(\'static\',\'css/calendar.css\'))\nresponse.files.insert(2,URL(\'static\',\'js/calendar.js\'))\nresponse.files.insert(3,URL(\'static\',\'js/web2py.js\'))\nresponse.include_meta()\nresponse.include_files()\nresponse.write(\'\\n\', escape=False)\nresponse.write(\'\\n\\n  \', escape=False)\n# using sidebars need to know what sidebar you want to use\nleft_sidebar_enabled = globals().get(\'left_sidebar_enabled\',False)\nright_sidebar_enabled = globals().get(\'right_sidebar_enabled\',False)\nmiddle_columns = {0:\'span12\',1:\'span9\',2:\'span6\'}[\n(left_sidebar_enabled and 1 or 0)+(right_sidebar_enabled and 1 or 0)]\nresponse.write(\'\\n\\n  <!-- uncomment here to load jquery-ui\\n       <link rel="stylesheet" href="http://ajax.googleapis.com/ajax/libs/jqueryui/1.8.16/themes/base/jquery-ui.css" type="text/css" media="all" />\\n       <script src="http://ajax.googleapis.com/ajax/libs/jqueryui/1.8.16/jquery-ui.min.js" type="text/javascript"></script>\\n       uncomment to load jquery-ui //-->\\n  <noscript><link href="\', escape=False)\nresponse.write(URL(\'static\', \'css/web2py_bootstrap_nojs.css\'))\nresponse.write(\'" rel="stylesheet" type="text/css" /></noscript>\\n  \', escape=False)\nresponse.write(\'\\n</head>\\n\\n<body>\\n  <!-- Navbar ================================================== -->\\n  <div class="navbar navbar-inverse navbar-fixed-top">\\n    <div class="flash">\', escape=False)\nresponse.write(response.flash or \'\')\nresponse.write(\'</div>\\n    <div class="navbar-inner">\\n      <div class="container">\\n        <!-- the next tag is necessary for bootstrap menus, do not remove -->\\n        <button type="button" class="btn btn-navbar" data-toggle="collapse" data-target=".nav-collapse">\\n          <span class="icon-bar"></span>\\n          <span class="icon-bar"></span>\\n          <span class="icon-bar"></span>\\n        </button>\\n        <a class="brand" href="http://www.web2py.com/"><b>web<span>2</span>py</b>&trade;&nbsp;</a>\\n        <ul id="navbar" class="nav pull-right">\', escape=False)\nresponse.write(\'auth\' in globals() and auth.navbar(mode="dropdown") or \'\')\nresponse.write(\'</ul>\\n        <div class="nav-collapse">\\n          \', escape=False)\nis_mobile=request.user_agent().is_mobile\nresponse.write(\'\\n          \', escape=False)\nif response.menu:\n    response.write(\'\\n          \', escape=False)\n    response.write(MENU(response.menu, _class=\'mobile-menu nav\' if is_mobile else \'nav\',mobile=is_mobile,li_class=\'dropdown\',ul_class=\'dropdown-menu\'))\n    response.write(\'\\n          \', escape=False)\n    pass\nresponse.write(\'\\n        </div><!--/.nav-collapse -->\\n      </div>\\n    </div>\\n  </div><!--/top navbar -->\\n\\n  <div class="container">\\n    <!-- Masthead ================================================== -->\\n    <header class="mastheader row" id="header">\\n        <div class="span12">\\n            <div class="page-header">\\n                <h1>\\n                    \', escape=False)\nresponse.write(response.title or request.application)\nresponse.write(\'\\n                    <small>\', escape=False)\nresponse.write(response.subtitle or \'\')\nresponse.write(\'</small>\\n                </h1>\\n            </div>\\n        </div>\\n    </header>\\n\\n    <section id="main" class="main row">\\n        \', escape=False)\nif left_sidebar_enabled:\n    response.write(\'\\n        <div class="span3 left-sidebar">\\n            \', escape=False)\n    response.write(\'\\n            <h3>Left Sidebar</h3>\\n            <p></p>\\n            \', escape=False)\n    response.write(\'\\n        </div>\\n        \', escape=False)\n    pass\nresponse.write(\'\\n\\n        <div class="\', escape=False)\nresponse.write(middle_columns)\nresponse.write(\'">\\n            \', escape=False)\nresponse.write(\'\\n            \', escape=False)\nresponse.write(\'\\n<body>\\n<a href=\\\'index.html\\\'><img width=\\\'30px\\\' src="\', escape=False)\nresponse.write(URL(\'download\', args=image.file))\nresponse.write(\'"/></a>\\n    <h1><center>Writing Posts</center></h1>\\n\', escape=False)\nresponse.write(writing_form)\nresponse.write("\\n<br>\\n<table width=\'100%\'>\\n    ", escape=False)\nfor writing in writings:\n    response.write(\'\\n    <tr> \\n        <td><h5><center><b><i><u>\', escape=False)\n    response.write(writing.title.title())\n    response.write(\'</u></i></b></center></h5></td>\\n    </tr>\\n    \\n\\t<tr>  \\n        <td><center><pre>\', escape=False)\n    response.write(writing.body)\n    response.write(\'</pre></center></td>\\n    </tr>\\n    \\n    \', escape=False)\n    if len(d[writing.id]):\n        response.write("\\n        <tr>\\n        <td>\\n        \\t<table width=\'100%\'>\\n            ", escape=False)\n        for t in d[writing.id]:\n            response.write(\'\\n                        <tr>\\n                            <td><center><b>\', escape=False)\n            response.write(("%s says, \'%s\'")%(t[0],t[1]))\n            response.write(\'</b></center></td>\\n                        </tr>\\n            \', escape=False)\n            pass\n        response.write(\'\\n    \\t\\t</table>\\n               \\t\\n            <table width=\\\'100%\\\'>\\n               \\t\\t\\t<tr>\\n          \\t\\t\\t\\t\\t<form enctype="multipart/form-data" action="\', escape=False)\n        response.write(URL(\'insert_writing_comment\',args=(writing.id)))\n        response.write(\'" method="post"> \\n                                <td style="wbite-space:nowrap" cellspan=2><center><input name="writing_comment" type="text">\\n                        <input formmethod="post" name="commentform" type="submit" width="150"></center></td>\\n          \\t\\t\\t\\t\\t</form>\\n                    \\t</tr>\\n            </table>\\n        \\n     \', escape=False)\n    else:\n        response.write(\'    \\n            <tr>\\n            <td>\\n              <table width=\\\'95%\\\'>\\n                  <tr><td><center><h4>Be the first to post a comment!</h4></center></td></tr>\\n                  <tr>\\n                    <form enctype="multipart/form-data" action="\', escape=False)\n        response.write(URL(\'insert_writing_comment\',args=(writing.id)))\n        response.write(\'" method="post"> \\n                        <td style="white-space:nowrap" cellspan=2><center><input name="writing_comment" type="text">\\n                        <input formmethod="post" name="commentform" type="submit" width="150"></center>\\n                        </td>\\n                    </form>\\n                 </tr>\\n                                   \\n              </table>\\n           </td>\\n           </tr>          \\t\\n            \\t      \\t   \\t\\n        </td>\\n        </tr>\\n\\n     \', escape=False)\n        pass\n    response.write(\'\\n\', escape=False)\n    pass\nresponse.write(\' \\n    \\n</table>\\n</body>\\n\', escape=False)\nresponse.write(\'\\n            \', escape=False)\nresponse.write(\'\\n        </div>\\n\\n        \', escape=False)\nif right_sidebar_enabled:\n    response.write(\'\\n        <div class="span3">\\n            \', escape=False)\n    response.write(\'\\n            <h3>Right Sidebar</h3>\\n            <p></p>\\n            \', escape=False)\n    response.write(\'\\n        </div>\\n        \', escape=False)\n    pass\nresponse.write(\'\\n    </section><!--/main-->\\n\\n    <!-- Footer ================================================== -->\\n    <div class="row">\\n        <footer class="footer span12" id="footer">\\n            <div class="footer-content">\\n                \', escape=False)\nresponse.write(\' <!-- this is default footer -->\\n                <div class="copyright pull-left">\', escape=False)\nresponse.write(T(\'Copyright\'))\nresponse.write(\' &#169; \', escape=False)\nresponse.write(request.now.year)\nresponse.write(\'</div>\\n                <div id="poweredBy" class="pull-right">\\n                    \', escape=False)\nresponse.write(T(\'Powered by\'))\nresponse.write(\'\\n                    <a href="http://www.web2py.com/">web2py</a>\\n                </div>\\n                \', escape=False)\nresponse.write(\'\\n            </div>\\n        </footer>\\n    </div>\\n\\n  </div> <!-- /container -->\\n\\n  <!-- The javascript =============================================\\n       (Placed at the end of the document so the pages load faster) -->\\n  <script src="\', escape=False)\nresponse.write(URL(\'static\',\'js/bootstrap.min.js\'))\nresponse.write(\'"></script>\\n  <script src="\', escape=False)\nresponse.write(URL(\'static\',\'js/web2py_bootstrap.js\'))\nresponse.write(\'"></script>\\n  <!--[if lt IE 7 ]>\\n      <script src="\', escape=False)\nresponse.write(URL(\'static\',\'js/dd_belatedpng.js\'))\nresponse.write(\'"></script>\\n      <script> DD_belatedPNG.fix(\\\'img, .png_bg\\\'); //fix any <img> or .png_bg background-images </script>\\n      <![endif]-->\\n  \', escape=False)\nif response.google_analytics_id:\n    response.write(\'<script type="text/javascript"> var _gaq = _gaq || []; _gaq.push([\\\'_setAccount\\\', \\\'\', escape=False)\n    response.write(response.google_analytics_id)\n    response.write("\']); _gaq.push([\'_trackPageview\']); (function() { var ga = document.createElement(\'script\'); ga.type = \'text/javascript\'; ga.async = true; ga.src = (\'https:\' == document.location.protocol ? \'https://ssl\' : \'http://www\') + \'.google-analytics.com/ga.js\'; var s = document.getElementsByTagName(\'script\')[0]; s.parentNode.insertBefore(ga, s); })(); </script> ", escape=False)\n    pass\nresponse.write(\'\\n  <script src="\', escape=False)\nresponse.write(URL(\'static\',\'js/share.js\',vars=dict(static=URL(\'static\',\'images\'))))\nresponse.write(\'"></script>\\n\\n<style>\\nbody { background-color:#9BC4E2;}\\na { color: #0C090A; }\\n    td {color: black; font-family:"Times New Roman"; font-size: 18px;}\\nh1 { color: #0C090A; font-family:"Georgia"; font-size: 35px; }\\nh3 { color: #FEE5AC; font-style: italic; font-family:"Georgia"; font-size: 25px;}\\nh5 { color: #FEE5AC; font-style: italic; font-family:"Georgia"; font-size: 25px;}\\nh4 { color: #FEE5AC; font-family:"Georgia"; font-size: 20px;}\\n.statusbar { background: #333333; border-bottom: 5px #349C01 solid; }\\n.statusbar a { color: white; }\\nfooter { border-top: 5px #349C01 solid; }\\n</style>\\n\', escape=False)'
p7
sS'snapshot'
p8
(dp9
S'exception'
p10
(dp11
S'__hash__'
p12
S"<method-wrapper '__hash__' of exceptions.NameError object at 0x8bec3f0>"
p13
sS'__setattr__'
p14
S"<method-wrapper '__setattr__' of exceptions.NameError object at 0x8bec3f0>"
p15
sS'__reduce_ex__'
p16
S'<built-in method __reduce_ex__ of exceptions.NameError object at 0x8bec3f0>'
p17
sS'__getslice__'
p18
S"<method-wrapper '__getslice__' of exceptions.NameError object at 0x8bec3f0>"
p19
sS'__getitem__'
p20
S"<method-wrapper '__getitem__' of exceptions.NameError object at 0x8bec3f0>"
p21
sS'__setstate__'
p22
S'<built-in method __setstate__ of exceptions.NameError object at 0x8bec3f0>'
p23
sS'__reduce__'
p24
S'<built-in method __reduce__ of exceptions.NameError object at 0x8bec3f0>'
p25
sS'__str__'
p26
S"<method-wrapper '__str__' of exceptions.NameError object at 0x8bec3f0>"
p27
sS'args'
p28
S'("name \'image\' is not defined",)'
p29
sS'__getattribute__'
p30
S"<method-wrapper '__getattribute__' of exceptions.NameError object at 0x8bec3f0>"
p31
sS'__class__'
p32
S"<type 'exceptions.NameError'>"
p33
sS'__delattr__'
p34
S"<method-wrapper '__delattr__' of exceptions.NameError object at 0x8bec3f0>"
p35
sS'__repr__'
p36
S"<method-wrapper '__repr__' of exceptions.NameError object at 0x8bec3f0>"
p37
sS'__dict__'
p38
S'{}'
p39
sS'__doc__'
p40
S"'Name not found globally.'"
p41
sS'__init__'
p42
S"<method-wrapper '__init__' of exceptions.NameError object at 0x8bec3f0>"
p43
sS'__new__'
p44
S'<built-in method __new__ of type object at 0x5f9640>'
p45
ssS'evalue'
p46
S"name 'image' is not defined"
p47
sS'request'
p48
ccopy_reg
_reconstructor
p49
(cgluon.html
BEAUTIFY
p50
c__builtin__
object
p51
NtRp52
(dp53
S'attributes'
p54
(dp55
sS'components'
p56
(lp57
g49
(cgluon.html
TABLE
p58
g51
NtRp59
(dp60
g54
(dp61
S'level'
p62
I5
ssS'parent'
p63
Nsg56
(lp64
g49
(cgluon.html
TR
p65
g51
NtRp66
(dp67
g54
(dp68
sg63
g59
sg56
(lp69
g49
(cgluon.html
TD
p70
g51
NtRp71
(dp72
g54
(dp73
S'_style'
p74
S'font-weight:bold;vertical-align:top'
p75
ssg63
g66
sg56
(lp76
S'ajax'
p77
asbag49
(g70
g51
NtRp78
(dp79
g54
(dp80
S'_valign'
p81
S'top'
p82
ssg63
g66
sg56
(lp83
S':'
asbag49
(g70
g51
NtRp84
(dp85
g54
(dp86
sg63
g66
sg56
(lp87
g49
(g50
g51
NtRp88
(dp89
g54
(dp90
g62
I5
ssg63
g84
sg56
(lp91
S'False'
p92
asbasbasbag49
(g65
g51
NtRp93
(dp94
g54
(dp95
sg63
g59
sg56
(lp96
g49
(g70
g51
NtRp97
(dp98
g54
(dp99
g74
g75
ssg63
g93
sg56
(lp100
S'application'
p101
asbag49
(g70
g51
NtRp102
(dp103
g54
(dp104
g81
g82
ssg63
g93
sg56
(lp105
S':'
asbag49
(g70
g51
NtRp106
(dp107
g54
(dp108
sg63
g93
sg56
(lp109
g49
(g50
g51
NtRp110
(dp111
g54
(dp112
g62
I5
ssg63
g106
sg56
(lp113
S'Final_Impulse'
p114
asbasbasbag49
(g65
g51
NtRp115
(dp116
g54
(dp117
sg63
g59
sg56
(lp118
g49
(g70
g51
NtRp119
(dp120
g54
(dp121
g74
g75
ssg63
g115
sg56
(lp122
g28
asbag49
(g70
g51
NtRp123
(dp124
g54
(dp125
g81
g82
ssg63
g115
sg56
(lp126
S':'
asbag49
(g70
g51
NtRp127
(dp128
g54
(dp129
sg63
g115
sg56
(lp130
g49
(g50
g51
NtRp131
(dp132
g54
(dp133
g62
I5
ssg63
g127
sg56
(lp134
g49
(g58
g51
NtRp135
(dp136
g54
(dp137
g62
I4
ssg63
Nsg56
(lp138
sbasbasbasbag49
(g65
g51
NtRp139
(dp140
g54
(dp141
sg63
g59
sg56
(lp142
g49
(g70
g51
NtRp143
(dp144
g54
(dp145
g74
g75
ssg63
g139
sg56
(lp146
S'body'
p147
asbag49
(g70
g51
NtRp148
(dp149
g54
(dp150
g81
g82
ssg63
g139
sg56
(lp151
S':'
asbag49
(g70
g51
NtRp152
(dp153
g54
(dp154
sg63
g139
sg56
(lp155
g49
(g50
g51
NtRp156
(dp157
g54
(dp158
g62
I5
ssg63
g152
sg56
(lp159
S'<cStringIO.StringO object at 0x9251780>'
p160
asbasbasbag49
(g65
g51
NtRp161
(dp162
g54
(dp163
sg63
g59
sg56
(lp164
g49
(g70
g51
NtRp165
(dp166
g54
(dp167
g74
g75
ssg63
g161
sg56
(lp168
S'cid'
p169
asbag49
(g70
g51
NtRp170
(dp171
g54
(dp172
g81
g82
ssg63
g161
sg56
(lp173
S':'
asbag49
(g70
g51
NtRp174
(dp175
g54
(dp176
sg63
g161
sg56
(lp177
g49
(g50
g51
NtRp178
(dp179
g54
(dp180
g62
I5
ssg63
g174
sg56
(lp181
S'None'
p182
asbasbasbag49
(g65
g51
NtRp183
(dp184
g54
(dp185
sg63
g59
sg56
(lp186
g49
(g70
g51
NtRp187
(dp188
g54
(dp189
g74
g75
ssg63
g183
sg56
(lp190
S'client'
p191
asbag49
(g70
g51
NtRp192
(dp193
g54
(dp194
g81
g82
ssg63
g183
sg56
(lp195
S':'
asbag49
(g70
g51
NtRp196
(dp197
g54
(dp198
sg63
g183
sg56
(lp199
g49
(g50
g51
NtRp200
(dp201
g54
(dp202
g62
I5
ssg63
g196
sg56
(lp203
S'127.0.0.1'
p204
asbasbasbag49
(g65
g51
NtRp205
(dp206
g54
(dp207
sg63
g59
sg56
(lp208
g49
(g70
g51
NtRp209
(dp210
g54
(dp211
g74
g75
ssg63
g205
sg56
(lp212
S'controller'
p213
asbag49
(g70
g51
NtRp214
(dp215
g54
(dp216
g81
g82
ssg63
g205
sg56
(lp217
S':'
asbag49
(g70
g51
NtRp218
(dp219
g54
(dp220
sg63
g205
sg56
(lp221
g49
(g50
g51
NtRp222
(dp223
g54
(dp224
g62
I5
ssg63
g218
sg56
(lp225
S'default'
p226
asbasbasbag49
(g65
g51
NtRp227
(dp228
g54
(dp229
sg63
g59
sg56
(lp230
g49
(g70
g51
NtRp231
(dp232
g54
(dp233
g74
g75
ssg63
g227
sg56
(lp234
S'cookies'
p235
asbag49
(g70
g51
NtRp236
(dp237
g54
(dp238
g81
g82
ssg63
g227
sg56
(lp239
S':'
asbag49
(g70
g51
NtRp240
(dp241
g54
(dp242
sg63
g227
sg56
(lp243
g49
(g50
g51
NtRp244
(dp245
g54
(dp246
g62
I5
ssg63
g240
sg56
(lp247
g49
(g58
g51
NtRp248
(dp249
g54
(dp250
g62
I4
ssg63
Nsg56
(lp251
g49
(g65
g51
NtRp252
(dp253
g54
(dp254
sg63
g248
sg56
(lp255
g49
(g70
g51
NtRp256
(dp257
g54
(dp258
g74
g75
ssg63
g252
sg56
(lp259
S'session_id_admin'
p260
asbag49
(g70
g51
NtRp261
(dp262
g54
(dp263
g81
g82
ssg63
g252
sg56
(lp264
S':'
asbag49
(g70
g51
NtRp265
(dp266
g54
(dp267
sg63
g252
sg56
(lp268
g49
(g50
g51
NtRp269
(dp270
g54
(dp271
g62
I4
ssg63
g265
sg56
(lp272
S'127.0.0.1-78422ea9-f684-495a-9e76-2db5117c417f'
p273
ag49
(g58
g51
NtRp274
(dp275
g54
(dp276
g62
I3
ssg63
Nsg56
(lp277
g49
(g65
g51
NtRp278
(dp279
g54
(dp280
sg63
g274
sg56
(lp281
g49
(g70
g51
NtRp282
(dp283
g54
(dp284
g74
g75
ssg63
g278
sg56
(lp285
S'comment'
p286
asbag49
(g70
g51
NtRp287
(dp288
g54
(dp289
g81
g82
ssg63
g278
sg56
(lp290
S':'
asbag49
(g70
g51
NtRp291
(dp292
g54
(dp293
sg63
g278
sg56
(lp294
g49
(g50
g51
NtRp295
(dp296
g54
(dp297
g62
I3
ssg63
g291
sg56
(lp298
S''
asbasbasbag49
(g65
g51
NtRp299
(dp300
g54
(dp301
sg63
g274
sg56
(lp302
g49
(g70
g51
NtRp303
(dp304
g54
(dp305
g74
g75
ssg63
g299
sg56
(lp306
S'domain'
p307
asbag49
(g70
g51
NtRp308
(dp309
g54
(dp310
g81
g82
ssg63
g299
sg56
(lp311
S':'
asbag49
(g70
g51
NtRp312
(dp313
g54
(dp314
sg63
g299
sg56
(lp315
g49
(g50
g51
NtRp316
(dp317
g54
(dp318
g62
I3
ssg63
g312
sg56
(lp319
S''
asbasbasbag49
(g65
g51
NtRp320
(dp321
g54
(dp322
sg63
g274
sg56
(lp323
g49
(g70
g51
NtRp324
(dp325
g54
(dp326
g74
g75
ssg63
g320
sg56
(lp327
S'expires'
p328
asbag49
(g70
g51
NtRp329
(dp330
g54
(dp331
g81
g82
ssg63
g320
sg56
(lp332
S':'
asbag49
(g70
g51
NtRp333
(dp334
g54
(dp335
sg63
g320
sg56
(lp336
g49
(g50
g51
NtRp337
(dp338
g54
(dp339
g62
I3
ssg63
g333
sg56
(lp340
S''
asbasbasbag49
(g65
g51
NtRp341
(dp342
g54
(dp343
sg63
g274
sg56
(lp344
g49
(g70
g51
NtRp345
(dp346
g54
(dp347
g74
g75
ssg63
g341
sg56
(lp348
S'max-age'
p349
asbag49
(g70
g51
NtRp350
(dp351
g54
(dp352
g81
g82
ssg63
g341
sg56
(lp353
S':'
asbag49
(g70
g51
NtRp354
(dp355
g54
(dp356
sg63
g341
sg56
(lp357
g49
(g50
g51
NtRp358
(dp359
g54
(dp360
g62
I3
ssg63
g354
sg56
(lp361
S''
asbasbasbag49
(g65
g51
NtRp362
(dp363
g54
(dp364
sg63
g274
sg56
(lp365
g49
(g70
g51
NtRp366
(dp367
g54
(dp368
g74
g75
ssg63
g362
sg56
(lp369
S'path'
p370
asbag49
(g70
g51
NtRp371
(dp372
g54
(dp373
g81
g82
ssg63
g362
sg56
(lp374
S':'
asbag49
(g70
g51
NtRp375
(dp376
g54
(dp377
sg63
g362
sg56
(lp378
g49
(g50
g51
NtRp379
(dp380
g54
(dp381
g62
I3
ssg63
g375
sg56
(lp382
S''
asbasbasbag49
(g65
g51
NtRp383
(dp384
g54
(dp385
sg63
g274
sg56
(lp386
g49
(g70
g51
NtRp387
(dp388
g54
(dp389
g74
g75
ssg63
g383
sg56
(lp390
S'secure'
p391
asbag49
(g70
g51
NtRp392
(dp393
g54
(dp394
g81
g82
ssg63
g383
sg56
(lp395
S':'
asbag49
(g70
g51
NtRp396
(dp397
g54
(dp398
sg63
g383
sg56
(lp399
g49
(g50
g51
NtRp400
(dp401
g54
(dp402
g62
I3
ssg63
g396
sg56
(lp403
S''
asbasbasbag49
(g65
g51
NtRp404
(dp405
g54
(dp406
sg63
g274
sg56
(lp407
g49
(g70
g51
NtRp408
(dp409
g54
(dp410
g74
g75
ssg63
g404
sg56
(lp411
S'version'
p412
asbag49
(g70
g51
NtRp413
(dp414
g54
(dp415
g81
g82
ssg63
g404
sg56
(lp416
S':'
asbag49
(g70
g51
NtRp417
(dp418
g54
(dp419
sg63
g404
sg56
(lp420
g49
(g50
g51
NtRp421
(dp422
g54
(dp423
g62
I3
ssg63
g417
sg56
(lp424
S''
asbasbasbasbasbasbasbag49
(g65
g51
NtRp425
(dp426
g54
(dp427
sg63
g248
sg56
(lp428
g49
(g70
g51
NtRp429
(dp430
g54
(dp431
g74
g75
ssg63
g425
sg56
(lp432
S'session_id_course_recommendations'
p433
asbag49
(g70
g51
NtRp434
(dp435
g54
(dp436
g81
g82
ssg63
g425
sg56
(lp437
S':'
asbag49
(g70
g51
NtRp438
(dp439
g54
(dp440
sg63
g425
sg56
(lp441
g49
(g50
g51
NtRp442
(dp443
g54
(dp444
g62
I4
ssg63
g438
sg56
(lp445
S'127.0.0.1-cb8f05e9-0587-4e87-8439-3e1e68871c8f'
p446
ag49
(g58
g51
NtRp447
(dp448
g54
(dp449
g62
I3
ssg63
Nsg56
(lp450
g49
(g65
g51
NtRp451
(dp452
g54
(dp453
sg63
g447
sg56
(lp454
g49
(g70
g51
NtRp455
(dp456
g54
(dp457
g74
g75
ssg63
g451
sg56
(lp458
g286
asbag49
(g70
g51
NtRp459
(dp460
g54
(dp461
g81
g82
ssg63
g451
sg56
(lp462
S':'
asbag49
(g70
g51
NtRp463
(dp464
g54
(dp465
sg63
g451
sg56
(lp466
g49
(g50
g51
NtRp467
(dp468
g54
(dp469
g62
I3
ssg63
g463
sg56
(lp470
S''
asbasbasbag49
(g65
g51
NtRp471
(dp472
g54
(dp473
sg63
g447
sg56
(lp474
g49
(g70
g51
NtRp475
(dp476
g54
(dp477
g74
g75
ssg63
g471
sg56
(lp478
g307
asbag49
(g70
g51
NtRp479
(dp480
g54
(dp481
g81
g82
ssg63
g471
sg56
(lp482
S':'
asbag49
(g70
g51
NtRp483
(dp484
g54
(dp485
sg63
g471
sg56
(lp486
g49
(g50
g51
NtRp487
(dp488
g54
(dp489
g62
I3
ssg63
g483
sg56
(lp490
S''
asbasbasbag49
(g65
g51
NtRp491
(dp492
g54
(dp493
sg63
g447
sg56
(lp494
g49
(g70
g51
NtRp495
(dp496
g54
(dp497
g74
g75
ssg63
g491
sg56
(lp498
g328
asbag49
(g70
g51
NtRp499
(dp500
g54
(dp501
g81
g82
ssg63
g491
sg56
(lp502
S':'
asbag49
(g70
g51
NtRp503
(dp504
g54
(dp505
sg63
g491
sg56
(lp506
g49
(g50
g51
NtRp507
(dp508
g54
(dp509
g62
I3
ssg63
g503
sg56
(lp510
S''
asbasbasbag49
(g65
g51
NtRp511
(dp512
g54
(dp513
sg63
g447
sg56
(lp514
g49
(g70
g51
NtRp515
(dp516
g54
(dp517
g74
g75
ssg63
g511
sg56
(lp518
g349
asbag49
(g70
g51
NtRp519
(dp520
g54
(dp521
g81
g82
ssg63
g511
sg56
(lp522
S':'
asbag49
(g70
g51
NtRp523
(dp524
g54
(dp525
sg63
g511
sg56
(lp526
g49
(g50
g51
NtRp527
(dp528
g54
(dp529
g62
I3
ssg63
g523
sg56
(lp530
S''
asbasbasbag49
(g65
g51
NtRp531
(dp532
g54
(dp533
sg63
g447
sg56
(lp534
g49
(g70
g51
NtRp535
(dp536
g54
(dp537
g74
g75
ssg63
g531
sg56
(lp538
g370
asbag49
(g70
g51
NtRp539
(dp540
g54
(dp541
g81
g82
ssg63
g531
sg56
(lp542
S':'
asbag49
(g70
g51
NtRp543
(dp544
g54
(dp545
sg63
g531
sg56
(lp546
g49
(g50
g51
NtRp547
(dp548
g54
(dp549
g62
I3
ssg63
g543
sg56
(lp550
S''
asbasbasbag49
(g65
g51
NtRp551
(dp552
g54
(dp553
sg63
g447
sg56
(lp554
g49
(g70
g51
NtRp555
(dp556
g54
(dp557
g74
g75
ssg63
g551
sg56
(lp558
g391
asbag49
(g70
g51
NtRp559
(dp560
g54
(dp561
g81
g82
ssg63
g551
sg56
(lp562
S':'
asbag49
(g70
g51
NtRp563
(dp564
g54
(dp565
sg63
g551
sg56
(lp566
g49
(g50
g51
NtRp567
(dp568
g54
(dp569
g62
I3
ssg63
g563
sg56
(lp570
S''
asbasbasbag49
(g65
g51
NtRp571
(dp572
g54
(dp573
sg63
g447
sg56
(lp574
g49
(g70
g51
NtRp575
(dp576
g54
(dp577
g74
g75
ssg63
g571
sg56
(lp578
g412
asbag49
(g70
g51
NtRp579
(dp580
g54
(dp581
g81
g82
ssg63
g571
sg56
(lp582
S':'
asbag49
(g70
g51
NtRp583
(dp584
g54
(dp585
sg63
g571
sg56
(lp586
g49
(g50
g51
NtRp587
(dp588
g54
(dp589
g62
I3
ssg63
g583
sg56
(lp590
S''
asbasbasbasbasbasbasbag49
(g65
g51
NtRp591
(dp592
g54
(dp593
sg63
g248
sg56
(lp594
g49
(g70
g51
NtRp595
(dp596
g54
(dp597
g74
g75
ssg63
g591
sg56
(lp598
S'session_id_final_impulse'
p599
asbag49
(g70
g51
NtRp600
(dp601
g54
(dp602
g81
g82
ssg63
g591
sg56
(lp603
S':'
asbag49
(g70
g51
NtRp604
(dp605
g54
(dp606
sg63
g591
sg56
(lp607
g49
(g50
g51
NtRp608
(dp609
g54
(dp610
g62
I4
ssg63
g604
sg56
(lp611
S'127.0.0.1-196d16f0-df2a-4177-8038-20bcfac6a099'
p612
ag49
(g58
g51
NtRp613
(dp614
g54
(dp615
g62
I3
ssg63
Nsg56
(lp616
g49
(g65
g51
NtRp617
(dp618
g54
(dp619
sg63
g613
sg56
(lp620
g49
(g70
g51
NtRp621
(dp622
g54
(dp623
g74
g75
ssg63
g617
sg56
(lp624
g286
asbag49
(g70
g51
NtRp625
(dp626
g54
(dp627
g81
g82
ssg63
g617
sg56
(lp628
S':'
asbag49
(g70
g51
NtRp629
(dp630
g54
(dp631
sg63
g617
sg56
(lp632
g49
(g50
g51
NtRp633
(dp634
g54
(dp635
g62
I3
ssg63
g629
sg56
(lp636
S''
asbasbasbag49
(g65
g51
NtRp637
(dp638
g54
(dp639
sg63
g613
sg56
(lp640
g49
(g70
g51
NtRp641
(dp642
g54
(dp643
g74
g75
ssg63
g637
sg56
(lp644
g307
asbag49
(g70
g51
NtRp645
(dp646
g54
(dp647
g81
g82
ssg63
g637
sg56
(lp648
S':'
asbag49
(g70
g51
NtRp649
(dp650
g54
(dp651
sg63
g637
sg56
(lp652
g49
(g50
g51
NtRp653
(dp654
g54
(dp655
g62
I3
ssg63
g649
sg56
(lp656
S''
asbasbasbag49
(g65
g51
NtRp657
(dp658
g54
(dp659
sg63
g613
sg56
(lp660
g49
(g70
g51
NtRp661
(dp662
g54
(dp663
g74
g75
ssg63
g657
sg56
(lp664
g328
asbag49
(g70
g51
NtRp665
(dp666
g54
(dp667
g81
g82
ssg63
g657
sg56
(lp668
S':'
asbag49
(g70
g51
NtRp669
(dp670
g54
(dp671
sg63
g657
sg56
(lp672
g49
(g50
g51
NtRp673
(dp674
g54
(dp675
g62
I3
ssg63
g669
sg56
(lp676
S''
asbasbasbag49
(g65
g51
NtRp677
(dp678
g54
(dp679
sg63
g613
sg56
(lp680
g49
(g70
g51
NtRp681
(dp682
g54
(dp683
g74
g75
ssg63
g677
sg56
(lp684
g349
asbag49
(g70
g51
NtRp685
(dp686
g54
(dp687
g81
g82
ssg63
g677
sg56
(lp688
S':'
asbag49
(g70
g51
NtRp689
(dp690
g54
(dp691
sg63
g677
sg56
(lp692
g49
(g50
g51
NtRp693
(dp694
g54
(dp695
g62
I3
ssg63
g689
sg56
(lp696
S''
asbasbasbag49
(g65
g51
NtRp697
(dp698
g54
(dp699
sg63
g613
sg56
(lp700
g49
(g70
g51
NtRp701
(dp702
g54
(dp703
g74
g75
ssg63
g697
sg56
(lp704
g370
asbag49
(g70
g51
NtRp705
(dp706
g54
(dp707
g81
g82
ssg63
g697
sg56
(lp708
S':'
asbag49
(g70
g51
NtRp709
(dp710
g54
(dp711
sg63
g697
sg56
(lp712
g49
(g50
g51
NtRp713
(dp714
g54
(dp715
g62
I3
ssg63
g709
sg56
(lp716
S''
asbasbasbag49
(g65
g51
NtRp717
(dp718
g54
(dp719
sg63
g613
sg56
(lp720
g49
(g70
g51
NtRp721
(dp722
g54
(dp723
g74
g75
ssg63
g717
sg56
(lp724
g391
asbag49
(g70
g51
NtRp725
(dp726
g54
(dp727
g81
g82
ssg63
g717
sg56
(lp728
S':'
asbag49
(g70
g51
NtRp729
(dp730
g54
(dp731
sg63
g717
sg56
(lp732
g49
(g50
g51
NtRp733
(dp734
g54
(dp735
g62
I3
ssg63
g729
sg56
(lp736
S''
asbasbasbag49
(g65
g51
NtRp737
(dp738
g54
(dp739
sg63
g613
sg56
(lp740
g49
(g70
g51
NtRp741
(dp742
g54
(dp743
g74
g75
ssg63
g737
sg56
(lp744
g412
asbag49
(g70
g51
NtRp745
(dp746
g54
(dp747
g81
g82
ssg63
g737
sg56
(lp748
S':'
asbag49
(g70
g51
NtRp749
(dp750
g54
(dp751
sg63
g737
sg56
(lp752
g49
(g50
g51
NtRp753
(dp754
g54
(dp755
g62
I3
ssg63
g749
sg56
(lp756
S''
asbasbasbasbasbasbasbag49
(g65
g51
NtRp757
(dp758
g54
(dp759
sg63
g248
sg56
(lp760
g49
(g70
g51
NtRp761
(dp762
g54
(dp763
g74
g75
ssg63
g757
sg56
(lp764
S'session_id_welcome'
p765
asbag49
(g70
g51
NtRp766
(dp767
g54
(dp768
g81
g82
ssg63
g757
sg56
(lp769
S':'
asbag49
(g70
g51
NtRp770
(dp771
g54
(dp772
sg63
g757
sg56
(lp773
g49
(g50
g51
NtRp774
(dp775
g54
(dp776
g62
I4
ssg63
g770
sg56
(lp777
S'127.0.0.1-2aa03a6c-1012-4eea-98a7-98c4cb6a077c'
p778
ag49
(g58
g51
NtRp779
(dp780
g54
(dp781
g62
I3
ssg63
Nsg56
(lp782
g49
(g65
g51
NtRp783
(dp784
g54
(dp785
sg63
g779
sg56
(lp786
g49
(g70
g51
NtRp787
(dp788
g54
(dp789
g74
g75
ssg63
g783
sg56
(lp790
g286
asbag49
(g70
g51
NtRp791
(dp792
g54
(dp793
g81
g82
ssg63
g783
sg56
(lp794
S':'
asbag49
(g70
g51
NtRp795
(dp796
g54
(dp797
sg63
g783
sg56
(lp798
g49
(g50
g51
NtRp799
(dp800
g54
(dp801
g62
I3
ssg63
g795
sg56
(lp802
S''
asbasbasbag49
(g65
g51
NtRp803
(dp804
g54
(dp805
sg63
g779
sg56
(lp806
g49
(g70
g51
NtRp807
(dp808
g54
(dp809
g74
g75
ssg63
g803
sg56
(lp810
g307
asbag49
(g70
g51
NtRp811
(dp812
g54
(dp813
g81
g82
ssg63
g803
sg56
(lp814
S':'
asbag49
(g70
g51
NtRp815
(dp816
g54
(dp817
sg63
g803
sg56
(lp818
g49
(g50
g51
NtRp819
(dp820
g54
(dp821
g62
I3
ssg63
g815
sg56
(lp822
S''
asbasbasbag49
(g65
g51
NtRp823
(dp824
g54
(dp825
sg63
g779
sg56
(lp826
g49
(g70
g51
NtRp827
(dp828
g54
(dp829
g74
g75
ssg63
g823
sg56
(lp830
g328
asbag49
(g70
g51
NtRp831
(dp832
g54
(dp833
g81
g82
ssg63
g823
sg56
(lp834
S':'
asbag49
(g70
g51
NtRp835
(dp836
g54
(dp837
sg63
g823
sg56
(lp838
g49
(g50
g51
NtRp839
(dp840
g54
(dp841
g62
I3
ssg63
g835
sg56
(lp842
S''
asbasbasbag49
(g65
g51
NtRp843
(dp844
g54
(dp845
sg63
g779
sg56
(lp846
g49
(g70
g51
NtRp847
(dp848
g54
(dp849
g74
g75
ssg63
g843
sg56
(lp850
g349
asbag49
(g70
g51
NtRp851
(dp852
g54
(dp853
g81
g82
ssg63
g843
sg56
(lp854
S':'
asbag49
(g70
g51
NtRp855
(dp856
g54
(dp857
sg63
g843
sg56
(lp858
g49
(g50
g51
NtRp859
(dp860
g54
(dp861
g62
I3
ssg63
g855
sg56
(lp862
S''
asbasbasbag49
(g65
g51
NtRp863
(dp864
g54
(dp865
sg63
g779
sg56
(lp866
g49
(g70
g51
NtRp867
(dp868
g54
(dp869
g74
g75
ssg63
g863
sg56
(lp870
g370
asbag49
(g70
g51
NtRp871
(dp872
g54
(dp873
g81
g82
ssg63
g863
sg56
(lp874
S':'
asbag49
(g70
g51
NtRp875
(dp876
g54
(dp877
sg63
g863
sg56
(lp878
g49
(g50
g51
NtRp879
(dp880
g54
(dp881
g62
I3
ssg63
g875
sg56
(lp882
S''
asbasbasbag49
(g65
g51
NtRp883
(dp884
g54
(dp885
sg63
g779
sg56
(lp886
g49
(g70
g51
NtRp887
(dp888
g54
(dp889
g74
g75
ssg63
g883
sg56
(lp890
g391
asbag49
(g70
g51
NtRp891
(dp892
g54
(dp893
g81
g82
ssg63
g883
sg56
(lp894
S':'
asbag49
(g70
g51
NtRp895
(dp896
g54
(dp897
sg63
g883
sg56
(lp898
g49
(g50
g51
NtRp899
(dp900
g54
(dp901
g62
I3
ssg63
g895
sg56
(lp902
S''
asbasbasbag49
(g65
g51
NtRp903
(dp904
g54
(dp905
sg63
g779
sg56
(lp906
g49
(g70
g51
NtRp907
(dp908
g54
(dp909
g74
g75
ssg63
g903
sg56
(lp910
g412
asbag49
(g70
g51
NtRp911
(dp912
g54
(dp913
g81
g82
ssg63
g903
sg56
(lp914
S':'
asbag49
(g70
g51
NtRp915
(dp916
g54
(dp917
sg63
g903
sg56
(lp918
g49
(g50
g51
NtRp919
(dp920
g54
(dp921
g62
I3
ssg63
g915
sg56
(lp922
S''
asbasbasbasbasbasbasbasbasbasbasbag49
(g65
g51
NtRp923
(dp924
g54
(dp925
sg63
g59
sg56
(lp926
g49
(g70
g51
NtRp927
(dp928
g54
(dp929
g74
g75
ssg63
g923
sg56
(lp930
S'env'
p931
asbag49
(g70
g51
NtRp932
(dp933
g54
(dp934
g81
g82
ssg63
g923
sg56
(lp935
S':'
asbag49
(g70
g51
NtRp936
(dp937
g54
(dp938
sg63
g923
sg56
(lp939
g49
(g50
g51
NtRp940
(dp941
g54
(dp942
g62
I5
ssg63
g936
sg56
(lp943
g49
(g58
g51
NtRp944
(dp945
g54
(dp946
g62
I4
ssg63
Nsg56
(lp947
g49
(g65
g51
NtRp948
(dp949
g54
(dp950
sg63
g944
sg56
(lp951
g49
(g70
g51
NtRp952
(dp953
g54
(dp954
g74
g75
ssg63
g948
sg56
(lp955
S'app_folders'
p956
asbag49
(g70
g51
NtRp957
(dp958
g54
(dp959
g81
g82
ssg63
g948
sg56
(lp960
S':'
asbag49
(g70
g51
NtRp961
(dp962
g54
(dp963
sg63
g948
sg56
(lp964
g49
(g50
g51
NtRp965
(dp966
g54
(dp967
g62
I4
ssg63
g961
sg56
(lp968
S"set(['/Users/abaric/Downloads/web2py/web2py.app/Contents/Resources/applications/examples/', '/Users/abaric/Downloads/web2py/web2py.app/Contents/Resources/applications/Final_Impulse/', '/Users/abaric/Downloads/web2py/web2py.app/Contents/Resources/applications/Course_Recommendations/', '/Users/abaric/Downloads/web2py/web2py.app/Contents/Resources/applications/welcome/', '/Users/abaric/Downloads/web2py/web2py.app/Contents/Resources/applications/admin/'])"
p969
asbasbasbag49
(g65
g51
NtRp970
(dp971
g54
(dp972
sg63
g944
sg56
(lp973
g49
(g70
g51
NtRp974
(dp975
g54
(dp976
g74
g75
ssg63
g970
sg56
(lp977
S'applications_parent'
p978
asbag49
(g70
g51
NtRp979
(dp980
g54
(dp981
g81
g82
ssg63
g970
sg56
(lp982
S':'
asbag49
(g70
g51
NtRp983
(dp984
g54
(dp985
sg63
g970
sg56
(lp986
g49
(g50
g51
NtRp987
(dp988
g54
(dp989
g62
I4
ssg63
g983
sg56
(lp990
S'/Users/abaric/Downloads/web2py/web2py.app/Contents/Resources'
p991
asbasbasbag49
(g65
g51
NtRp992
(dp993
g54
(dp994
sg63
g944
sg56
(lp995
g49
(g70
g51
NtRp996
(dp997
g54
(dp998
g74
g75
ssg63
g992
sg56
(lp999
S'cmd_args'
p1000
asbag49
(g70
g51
NtRp1001
(dp1002
g54
(dp1003
g81
g82
ssg63
g992
sg56
(lp1004
S':'
asbag49
(g70
g51
NtRp1005
(dp1006
g54
(dp1007
sg63
g992
sg56
(lp1008
g49
(g50
g51
NtRp1009
(dp1010
g54
(dp1011
g62
I4
ssg63
g1005
sg56
(lp1012
g49
(g58
g51
NtRp1013
(dp1014
g54
(dp1015
g62
I3
ssg63
Nsg56
(lp1016
sbasbasbasbag49
(g65
g51
NtRp1017
(dp1018
g54
(dp1019
sg63
g944
sg56
(lp1020
g49
(g70
g51
NtRp1021
(dp1022
g54
(dp1023
g74
g75
ssg63
g1017
sg56
(lp1024
S'cmd_options'
p1025
asbag49
(g70
g51
NtRp1026
(dp1027
g54
(dp1028
g81
g82
ssg63
g1017
sg56
(lp1029
S':'
asbag49
(g70
g51
NtRp1030
(dp1031
g54
(dp1032
sg63
g1017
sg56
(lp1033
g49
(g50
g51
NtRp1034
(dp1035
g54
(dp1036
g62
I4
ssg63
g1030
sg56
(lp1037
S"<Values at 0x43bc1c0: {'verbose': False, 'ip': '127.0.0.1', 'with_scheduler': False, 'ips': [], 'shutdown_timeout': 5, 'taskbar': False, 'port': 8000, 'maxthreads': None, 'softcron': False, 'server_name': 'Andrea-Barics-MacBook-Pro.local', 'bpython': False, 'nogui': False, 'pid_filename': 'httpserver.pid', 'extcron': False, 'runcron': False, 'run_system_tests': False, 'test': None, 'folder': '/Users/abaric/Downloads/web2py/web2py.app/Contents/Resources', 'config': '', 'import_models': False, 'winservice': '', 'shell': None, 'run': '', 'log_filename': 'httpserver.log', 'debuglevel': 30, 'args': [''], 'socket_timeout': 5, 'ssl_ca_certificate': None, 'scheduler': None, 'profiler_filename': None, 'ssl_private_key': '', 'scheduler_groups': None, 'password': '<ask>', 'request_queue_size': 5, 'ssl_certificate': '', 'cronjob': False, 'numthreads': None, 'quiet': False, 'interfaces': None, 'minthreads': None, 'timeout': 10, 'plain': False, 'nobanner': False}>"
p1038
asbasbasbag49
(g65
g51
NtRp1039
(dp1040
g54
(dp1041
sg63
g944
sg56
(lp1042
g49
(g70
g51
NtRp1043
(dp1044
g54
(dp1045
g74
g75
ssg63
g1039
sg56
(lp1046
S'db_sessions'
p1047
asbag49
(g70
g51
NtRp1048
(dp1049
g54
(dp1050
g81
g82
ssg63
g1039
sg56
(lp1051
S':'
asbag49
(g70
g51
NtRp1052
(dp1053
g54
(dp1054
sg63
g1039
sg56
(lp1055
g49
(g50
g51
NtRp1056
(dp1057
g54
(dp1058
g62
I4
ssg63
g1052
sg56
(lp1059
S'set([])'
p1060
asbasbasbag49
(g65
g51
NtRp1061
(dp1062
g54
(dp1063
sg63
g944
sg56
(lp1064
g49
(g70
g51
NtRp1065
(dp1066
g54
(dp1067
g74
g75
ssg63
g1061
sg56
(lp1068
S'debugging'
p1069
asbag49
(g70
g51
NtRp1070
(dp1071
g54
(dp1072
g81
g82
ssg63
g1061
sg56
(lp1073
S':'
asbag49
(g70
g51
NtRp1074
(dp1075
g54
(dp1076
sg63
g1061
sg56
(lp1077
g49
(g50
g51
NtRp1078
(dp1079
g54
(dp1080
g62
I4
ssg63
g1074
sg56
(lp1081
g92
asbasbasbag49
(g65
g51
NtRp1082
(dp1083
g54
(dp1084
sg63
g944
sg56
(lp1085
g49
(g70
g51
NtRp1086
(dp1087
g54
(dp1088
g74
g75
ssg63
g1082
sg56
(lp1089
S'gluon_parent'
p1090
asbag49
(g70
g51
NtRp1091
(dp1092
g54
(dp1093
g81
g82
ssg63
g1082
sg56
(lp1094
S':'
asbag49
(g70
g51
NtRp1095
(dp1096
g54
(dp1097
sg63
g1082
sg56
(lp1098
g49
(g50
g51
NtRp1099
(dp1100
g54
(dp1101
g62
I4
ssg63
g1095
sg56
(lp1102
S'/Users/abaric/Downloads/web2py/web2py.app/Contents/Resources'
p1103
asbasbasbag49
(g65
g51
NtRp1104
(dp1105
g54
(dp1106
sg63
g944
sg56
(lp1107
g49
(g70
g51
NtRp1108
(dp1109
g54
(dp1110
g74
g75
ssg63
g1104
sg56
(lp1111
S'http_accept'
p1112
asbag49
(g70
g51
NtRp1113
(dp1114
g54
(dp1115
g81
g82
ssg63
g1104
sg56
(lp1116
S':'
asbag49
(g70
g51
NtRp1117
(dp1118
g54
(dp1119
sg63
g1104
sg56
(lp1120
g49
(g50
g51
NtRp1121
(dp1122
g54
(dp1123
g62
I4
ssg63
g1117
sg56
(lp1124
S'text/html,application/xhtml+xml,application/xml;q=0.9,*/*;q=0.8'
p1125
asbasbasbag49
(g65
g51
NtRp1126
(dp1127
g54
(dp1128
sg63
g944
sg56
(lp1129
g49
(g70
g51
NtRp1130
(dp1131
g54
(dp1132
g74
g75
ssg63
g1126
sg56
(lp1133
S'http_accept_encoding'
p1134
asbag49
(g70
g51
NtRp1135
(dp1136
g54
(dp1137
g81
g82
ssg63
g1126
sg56
(lp1138
S':'
asbag49
(g70
g51
NtRp1139
(dp1140
g54
(dp1141
sg63
g1126
sg56
(lp1142
g49
(g50
g51
NtRp1143
(dp1144
g54
(dp1145
g62
I4
ssg63
g1139
sg56
(lp1146
S'gzip, deflate'
p1147
asbasbasbag49
(g65
g51
NtRp1148
(dp1149
g54
(dp1150
sg63
g944
sg56
(lp1151
g49
(g70
g51
NtRp1152
(dp1153
g54
(dp1154
g74
g75
ssg63
g1148
sg56
(lp1155
S'http_accept_language'
p1156
asbag49
(g70
g51
NtRp1157
(dp1158
g54
(dp1159
g81
g82
ssg63
g1148
sg56
(lp1160
S':'
asbag49
(g70
g51
NtRp1161
(dp1162
g54
(dp1163
sg63
g1148
sg56
(lp1164
g49
(g50
g51
NtRp1165
(dp1166
g54
(dp1167
g62
I4
ssg63
g1161
sg56
(lp1168
S'en-us'
p1169
asbasbasbag49
(g65
g51
NtRp1170
(dp1171
g54
(dp1172
sg63
g944
sg56
(lp1173
g49
(g70
g51
NtRp1174
(dp1175
g54
(dp1176
g74
g75
ssg63
g1170
sg56
(lp1177
S'http_connection'
p1178
asbag49
(g70
g51
NtRp1179
(dp1180
g54
(dp1181
g81
g82
ssg63
g1170
sg56
(lp1182
S':'
asbag49
(g70
g51
NtRp1183
(dp1184
g54
(dp1185
sg63
g1170
sg56
(lp1186
g49
(g50
g51
NtRp1187
(dp1188
g54
(dp1189
g62
I4
ssg63
g1183
sg56
(lp1190
S'keep-alive'
p1191
asbasbasbag49
(g65
g51
NtRp1192
(dp1193
g54
(dp1194
sg63
g944
sg56
(lp1195
g49
(g70
g51
NtRp1196
(dp1197
g54
(dp1198
g74
g75
ssg63
g1192
sg56
(lp1199
S'http_cookie'
p1200
asbag49
(g70
g51
NtRp1201
(dp1202
g54
(dp1203
g81
g82
ssg63
g1192
sg56
(lp1204
S':'
asbag49
(g70
g51
NtRp1205
(dp1206
g54
(dp1207
sg63
g1192
sg56
(lp1208
g49
(g50
g51
NtRp1209
(dp1210
g54
(dp1211
g62
I4
ssg63
g1205
sg56
(lp1212
S'session_id_final_impulse=127.0.0.1-196d16f0-df2a-4177-8038-20bcfac6a099; session_id_admin=127.0.0.1-78422ea9-f684-495a-9e76-2db5117c417f; session_id_course_recommendations=127.0.0.1-cb8f05e9-0587-4e87-8439-3e1e68871c8f; session_id_welcome=127.0.0.1-2aa03a6c-1012-4eea-98a7-98c4cb6a077c'
p1213
asbasbasbag49
(g65
g51
NtRp1214
(dp1215
g54
(dp1216
sg63
g944
sg56
(lp1217
g49
(g70
g51
NtRp1218
(dp1219
g54
(dp1220
g74
g75
ssg63
g1214
sg56
(lp1221
S'http_host'
p1222
asbag49
(g70
g51
NtRp1223
(dp1224
g54
(dp1225
g81
g82
ssg63
g1214
sg56
(lp1226
S':'
asbag49
(g70
g51
NtRp1227
(dp1228
g54
(dp1229
sg63
g1214
sg56
(lp1230
g49
(g50
g51
NtRp1231
(dp1232
g54
(dp1233
g62
I4
ssg63
g1227
sg56
(lp1234
S'127.0.0.1:8000'
p1235
asbasbasbag49
(g65
g51
NtRp1236
(dp1237
g54
(dp1238
sg63
g944
sg56
(lp1239
g49
(g70
g51
NtRp1240
(dp1241
g54
(dp1242
g74
g75
ssg63
g1236
sg56
(lp1243
S'http_referer'
p1244
asbag49
(g70
g51
NtRp1245
(dp1246
g54
(dp1247
g81
g82
ssg63
g1236
sg56
(lp1248
S':'
asbag49
(g70
g51
NtRp1249
(dp1250
g54
(dp1251
sg63
g1236
sg56
(lp1252
g49
(g50
g51
NtRp1253
(dp1254
g54
(dp1255
g62
I4
ssg63
g1249
sg56
(lp1256
S'http://127.0.0.1:8000/Final_Impulse/default/index'
p1257
asbasbasbag49
(g65
g51
NtRp1258
(dp1259
g54
(dp1260
sg63
g944
sg56
(lp1261
g49
(g70
g51
NtRp1262
(dp1263
g54
(dp1264
g74
g75
ssg63
g1258
sg56
(lp1265
S'http_user_agent'
p1266
asbag49
(g70
g51
NtRp1267
(dp1268
g54
(dp1269
g81
g82
ssg63
g1258
sg56
(lp1270
S':'
asbag49
(g70
g51
NtRp1271
(dp1272
g54
(dp1273
sg63
g1258
sg56
(lp1274
g49
(g50
g51
NtRp1275
(dp1276
g54
(dp1277
g62
I4
ssg63
g1271
sg56
(lp1278
S'Mozilla/5.0 (Macintosh; Intel Mac OS X 10_8_4) AppleWebKit/536.30.1 (KHTML, like Gecko) Version/6.0.5 Safari/536.30.1'
p1279
asbasbasbag49
(g65
g51
NtRp1280
(dp1281
g54
(dp1282
sg63
g944
sg56
(lp1283
g49
(g70
g51
NtRp1284
(dp1285
g54
(dp1286
g74
g75
ssg63
g1280
sg56
(lp1287
S'is_jython'
p1288
asbag49
(g70
g51
NtRp1289
(dp1290
g54
(dp1291
g81
g82
ssg63
g1280
sg56
(lp1292
S':'
asbag49
(g70
g51
NtRp1293
(dp1294
g54
(dp1295
sg63
g1280
sg56
(lp1296
g49
(g50
g51
NtRp1297
(dp1298
g54
(dp1299
g62
I4
ssg63
g1293
sg56
(lp1300
g92
asbasbasbag49
(g65
g51
NtRp1301
(dp1302
g54
(dp1303
sg63
g944
sg56
(lp1304
g49
(g70
g51
NtRp1305
(dp1306
g54
(dp1307
g74
g75
ssg63
g1301
sg56
(lp1308
S'is_pypy'
p1309
asbag49
(g70
g51
NtRp1310
(dp1311
g54
(dp1312
g81
g82
ssg63
g1301
sg56
(lp1313
S':'
asbag49
(g70
g51
NtRp1314
(dp1315
g54
(dp1316
sg63
g1301
sg56
(lp1317
g49
(g50
g51
NtRp1318
(dp1319
g54
(dp1320
g62
I4
ssg63
g1314
sg56
(lp1321
g92
asbasbasbag49
(g65
g51
NtRp1322
(dp1323
g54
(dp1324
sg63
g944
sg56
(lp1325
g49
(g70
g51
NtRp1326
(dp1327
g54
(dp1328
g74
g75
ssg63
g1322
sg56
(lp1329
S'local_hosts'
p1330
asbag49
(g70
g51
NtRp1331
(dp1332
g54
(dp1333
g81
g82
ssg63
g1322
sg56
(lp1334
S':'
asbag49
(g70
g51
NtRp1335
(dp1336
g54
(dp1337
sg63
g1322
sg56
(lp1338
g49
(g50
g51
NtRp1339
(dp1340
g54
(dp1341
g62
I4
ssg63
g1335
sg56
(lp1342
g49
(g58
g51
NtRp1343
(dp1344
g54
(dp1345
g62
I3
ssg63
Nsg56
(lp1346
g49
(g65
g51
NtRp1347
(dp1348
g54
(dp1349
sg63
g1343
sg56
(lp1350
g49
(g70
g51
NtRp1351
(dp1352
g54
(dp1353
sg63
g1347
sg56
(lp1354
g49
(g50
g51
NtRp1355
(dp1356
g54
(dp1357
g62
I3
ssg63
g1351
sg56
(lp1358
S'127.0.0.1'
p1359
asbasbasbag49
(g65
g51
NtRp1360
(dp1361
g54
(dp1362
sg63
g1343
sg56
(lp1363
g49
(g70
g51
NtRp1364
(dp1365
g54
(dp1366
sg63
g1360
sg56
(lp1367
g49
(g50
g51
NtRp1368
(dp1369
g54
(dp1370
g62
I3
ssg63
g1364
sg56
(lp1371
S'::ffff:127.0.0.1'
p1372
asbasbasbag49
(g65
g51
NtRp1373
(dp1374
g54
(dp1375
sg63
g1343
sg56
(lp1376
g49
(g70
g51
NtRp1377
(dp1378
g54
(dp1379
sg63
g1373
sg56
(lp1380
g49
(g50
g51
NtRp1381
(dp1382
g54
(dp1383
g62
I3
ssg63
g1377
sg56
(lp1384
S'Andrea-Barics-MacBook-Pro.local'
p1385
asbasbasbag49
(g65
g51
NtRp1386
(dp1387
g54
(dp1388
sg63
g1343
sg56
(lp1389
g49
(g70
g51
NtRp1390
(dp1391
g54
(dp1392
sg63
g1386
sg56
(lp1393
g49
(g50
g51
NtRp1394
(dp1395
g54
(dp1396
g62
I3
ssg63
g1390
sg56
(lp1397
S'Andrea-Barics-MacBook-Pro.local'
p1398
asbasbasbag49
(g65
g51
NtRp1399
(dp1400
g54
(dp1401
sg63
g1343
sg56
(lp1402
g49
(g70
g51
NtRp1403
(dp1404
g54
(dp1405
sg63
g1399
sg56
(lp1406
g49
(g50
g51
NtRp1407
(dp1408
g54
(dp1409
g62
I3
ssg63
g1403
sg56
(lp1410
S'127.0.0.1'
p1411
asbasbasbasbasbasbasbag49
(g65
g51
NtRp1412
(dp1413
g54
(dp1414
sg63
g944
sg56
(lp1415
g49
(g70
g51
NtRp1416
(dp1417
g54
(dp1418
g74
g75
ssg63
g1412
sg56
(lp1419
S'path_info'
p1420
asbag49
(g70
g51
NtRp1421
(dp1422
g54
(dp1423
g81
g82
ssg63
g1412
sg56
(lp1424
S':'
asbag49
(g70
g51
NtRp1425
(dp1426
g54
(dp1427
sg63
g1412
sg56
(lp1428
g49
(g50
g51
NtRp1429
(dp1430
g54
(dp1431
g62
I4
ssg63
g1425
sg56
(lp1432
S'/Final_Impulse/default/show_writing_comments'
p1433
asbasbasbag49
(g65
g51
NtRp1434
(dp1435
g54
(dp1436
sg63
g944
sg56
(lp1437
g49
(g70
g51
NtRp1438
(dp1439
g54
(dp1440
g74
g75
ssg63
g1434
sg56
(lp1441
S'query_string'
p1442
asbag49
(g70
g51
NtRp1443
(dp1444
g54
(dp1445
g81
g82
ssg63
g1434
sg56
(lp1446
S':'
asbag49
(g70
g51
NtRp1447
(dp1448
g54
(dp1449
sg63
g1434
sg56
(lp1450
g49
(g50
g51
NtRp1451
(dp1452
g54
(dp1453
g62
I4
ssg63
g1447
sg56
(lp1454
S''
asbasbasbag49
(g65
g51
NtRp1455
(dp1456
g54
(dp1457
sg63
g944
sg56
(lp1458
g49
(g70
g51
NtRp1459
(dp1460
g54
(dp1461
g74
g75
ssg63
g1455
sg56
(lp1462
S'remote_addr'
p1463
asbag49
(g70
g51
NtRp1464
(dp1465
g54
(dp1466
g81
g82
ssg63
g1455
sg56
(lp1467
S':'
asbag49
(g70
g51
NtRp1468
(dp1469
g54
(dp1470
sg63
g1455
sg56
(lp1471
g49
(g50
g51
NtRp1472
(dp1473
g54
(dp1474
g62
I4
ssg63
g1468
sg56
(lp1475
g204
asbasbasbag49
(g65
g51
NtRp1476
(dp1477
g54
(dp1478
sg63
g944
sg56
(lp1479
g49
(g70
g51
NtRp1480
(dp1481
g54
(dp1482
g74
g75
ssg63
g1476
sg56
(lp1483
S'remote_port'
p1484
asbag49
(g70
g51
NtRp1485
(dp1486
g54
(dp1487
g81
g82
ssg63
g1476
sg56
(lp1488
S':'
asbag49
(g70
g51
NtRp1489
(dp1490
g54
(dp1491
sg63
g1476
sg56
(lp1492
g49
(g50
g51
NtRp1493
(dp1494
g54
(dp1495
g62
I4
ssg63
g1489
sg56
(lp1496
S'57888'
p1497
asbasbasbag49
(g65
g51
NtRp1498
(dp1499
g54
(dp1500
sg63
g944
sg56
(lp1501
g49
(g70
g51
NtRp1502
(dp1503
g54
(dp1504
g74
g75
ssg63
g1498
sg56
(lp1505
S'request_method'
p1506
asbag49
(g70
g51
NtRp1507
(dp1508
g54
(dp1509
g81
g82
ssg63
g1498
sg56
(lp1510
S':'
asbag49
(g70
g51
NtRp1511
(dp1512
g54
(dp1513
sg63
g1498
sg56
(lp1514
g49
(g50
g51
NtRp1515
(dp1516
g54
(dp1517
g62
I4
ssg63
g1511
sg56
(lp1518
S'GET'
p1519
asbasbasbag49
(g65
g51
NtRp1520
(dp1521
g54
(dp1522
sg63
g944
sg56
(lp1523
g49
(g70
g51
NtRp1524
(dp1525
g54
(dp1526
g74
g75
ssg63
g1520
sg56
(lp1527
S'request_uri'
p1528
asbag49
(g70
g51
NtRp1529
(dp1530
g54
(dp1531
g81
g82
ssg63
g1520
sg56
(lp1532
S':'
asbag49
(g70
g51
NtRp1533
(dp1534
g54
(dp1535
sg63
g1520
sg56
(lp1536
g49
(g50
g51
NtRp1537
(dp1538
g54
(dp1539
g62
I4
ssg63
g1533
sg56
(lp1540
g1433
asbasbasbag49
(g65
g51
NtRp1541
(dp1542
g54
(dp1543
sg63
g944
sg56
(lp1544
g49
(g70
g51
NtRp1545
(dp1546
g54
(dp1547
g74
g75
ssg63
g1541
sg56
(lp1548
S'script_name'
p1549
asbag49
(g70
g51
NtRp1550
(dp1551
g54
(dp1552
g81
g82
ssg63
g1541
sg56
(lp1553
S':'
asbag49
(g70
g51
NtRp1554
(dp1555
g54
(dp1556
sg63
g1541
sg56
(lp1557
g49
(g50
g51
NtRp1558
(dp1559
g54
(dp1560
g62
I4
ssg63
g1554
sg56
(lp1561
S''
asbasbasbag49
(g65
g51
NtRp1562
(dp1563
g54
(dp1564
sg63
g944
sg56
(lp1565
g49
(g70
g51
NtRp1566
(dp1567
g54
(dp1568
g74
g75
ssg63
g1562
sg56
(lp1569
S'server_name'
p1570
asbag49
(g70
g51
NtRp1571
(dp1572
g54
(dp1573
g81
g82
ssg63
g1562
sg56
(lp1574
S':'
asbag49
(g70
g51
NtRp1575
(dp1576
g54
(dp1577
sg63
g1562
sg56
(lp1578
g49
(g50
g51
NtRp1579
(dp1580
g54
(dp1581
g62
I4
ssg63
g1575
sg56
(lp1582
g1398
asbasbasbag49
(g65
g51
NtRp1583
(dp1584
g54
(dp1585
sg63
g944
sg56
(lp1586
g49
(g70
g51
NtRp1587
(dp1588
g54
(dp1589
g74
g75
ssg63
g1583
sg56
(lp1590
S'server_port'
p1591
asbag49
(g70
g51
NtRp1592
(dp1593
g54
(dp1594
g81
g82
ssg63
g1583
sg56
(lp1595
S':'
asbag49
(g70
g51
NtRp1596
(dp1597
g54
(dp1598
sg63
g1583
sg56
(lp1599
g49
(g50
g51
NtRp1600
(dp1601
g54
(dp1602
g62
I4
ssg63
g1596
sg56
(lp1603
S'8000'
p1604
asbasbasbag49
(g65
g51
NtRp1605
(dp1606
g54
(dp1607
sg63
g944
sg56
(lp1608
g49
(g70
g51
NtRp1609
(dp1610
g54
(dp1611
g74
g75
ssg63
g1605
sg56
(lp1612
S'server_protocol'
p1613
asbag49
(g70
g51
NtRp1614
(dp1615
g54
(dp1616
g81
g82
ssg63
g1605
sg56
(lp1617
S':'
asbag49
(g70
g51
NtRp1618
(dp1619
g54
(dp1620
sg63
g1605
sg56
(lp1621
g49
(g50
g51
NtRp1622
(dp1623
g54
(dp1624
g62
I4
ssg63
g1618
sg56
(lp1625
S'HTTP/1.1'
p1626
asbasbasbag49
(g65
g51
NtRp1627
(dp1628
g54
(dp1629
sg63
g944
sg56
(lp1630
g49
(g70
g51
NtRp1631
(dp1632
g54
(dp1633
g74
g75
ssg63
g1627
sg56
(lp1634
S'server_software'
p1635
asbag49
(g70
g51
NtRp1636
(dp1637
g54
(dp1638
g81
g82
ssg63
g1627
sg56
(lp1639
S':'
asbag49
(g70
g51
NtRp1640
(dp1641
g54
(dp1642
sg63
g1627
sg56
(lp1643
g49
(g50
g51
NtRp1644
(dp1645
g54
(dp1646
g62
I4
ssg63
g1640
sg56
(lp1647
S'Rocket 1.2.5'
p1648
asbasbasbag49
(g65
g51
NtRp1649
(dp1650
g54
(dp1651
sg63
g944
sg56
(lp1652
g49
(g70
g51
NtRp1653
(dp1654
g54
(dp1655
g74
g75
ssg63
g1649
sg56
(lp1656
S'web2py_path'
p1657
asbag49
(g70
g51
NtRp1658
(dp1659
g54
(dp1660
g81
g82
ssg63
g1649
sg56
(lp1661
S':'
asbag49
(g70
g51
NtRp1662
(dp1663
g54
(dp1664
sg63
g1649
sg56
(lp1665
g49
(g50
g51
NtRp1666
(dp1667
g54
(dp1668
g62
I4
ssg63
g1662
sg56
(lp1669
g991
asbasbasbag49
(g65
g51
NtRp1670
(dp1671
g54
(dp1672
sg63
g944
sg56
(lp1673
g49
(g70
g51
NtRp1674
(dp1675
g54
(dp1676
g74
g75
ssg63
g1670
sg56
(lp1677
S'web2py_version'
p1678
asbag49
(g70
g51
NtRp1679
(dp1680
g54
(dp1681
g81
g82
ssg63
g1670
sg56
(lp1682
S':'
asbag49
(g70
g51
NtRp1683
(dp1684
g54
(dp1685
sg63
g1670
sg56
(lp1686
g49
(g50
g51
NtRp1687
(dp1688
g54
(dp1689
g62
I4
ssg63
g1683
sg56
(lp1690
g49
(g58
g51
NtRp1691
(dp1692
g54
(dp1693
g62
I3
ssg63
Nsg56
(lp1694
g49
(g65
g51
NtRp1695
(dp1696
g54
(dp1697
sg63
g1691
sg56
(lp1698
g49
(g70
g51
NtRp1699
(dp1700
g54
(dp1701
sg63
g1695
sg56
(lp1702
g49
(g50
g51
NtRp1703
(dp1704
g54
(dp1705
g62
I3
ssg63
g1699
sg56
(lp1706
S'2'
asbasbasbag49
(g65
g51
NtRp1707
(dp1708
g54
(dp1709
sg63
g1691
sg56
(lp1710
g49
(g70
g51
NtRp1711
(dp1712
g54
(dp1713
sg63
g1707
sg56
(lp1714
g49
(g50
g51
NtRp1715
(dp1716
g54
(dp1717
g62
I3
ssg63
g1711
sg56
(lp1718
S'2'
asbasbasbag49
(g65
g51
NtRp1719
(dp1720
g54
(dp1721
sg63
g1691
sg56
(lp1722
g49
(g70
g51
NtRp1723
(dp1724
g54
(dp1725
sg63
g1719
sg56
(lp1726
g49
(g50
g51
NtRp1727
(dp1728
g54
(dp1729
g62
I3
ssg63
g1723
sg56
(lp1730
S'1'
asbasbasbag49
(g65
g51
NtRp1731
(dp1732
g54
(dp1733
sg63
g1691
sg56
(lp1734
g49
(g70
g51
NtRp1735
(dp1736
g54
(dp1737
sg63
g1731
sg56
(lp1738
g49
(g50
g51
NtRp1739
(dp1740
g54
(dp1741
g62
I3
ssg63
g1735
sg56
(lp1742
S'datetime.datetime(2012, 10, 21, 16, 57, 4)'
p1743
asbasbasbag49
(g65
g51
NtRp1744
(dp1745
g54
(dp1746
sg63
g1691
sg56
(lp1747
g49
(g70
g51
NtRp1748
(dp1749
g54
(dp1750
sg63
g1744
sg56
(lp1751
g49
(g50
g51
NtRp1752
(dp1753
g54
(dp1754
g62
I3
ssg63
g1748
sg56
(lp1755
S'stable'
p1756
asbasbasbasbasbasbasbag49
(g65
g51
NtRp1757
(dp1758
g54
(dp1759
sg63
g944
sg56
(lp1760
g49
(g70
g51
NtRp1761
(dp1762
g54
(dp1763
g74
g75
ssg63
g1757
sg56
(lp1764
S'wsgi_errors'
p1765
asbag49
(g70
g51
NtRp1766
(dp1767
g54
(dp1768
g81
g82
ssg63
g1757
sg56
(lp1769
S':'
asbag49
(g70
g51
NtRp1770
(dp1771
g54
(dp1772
sg63
g1757
sg56
(lp1773
g49
(g50
g51
NtRp1774
(dp1775
g54
(dp1776
g62
I4
ssg63
g1770
sg56
(lp1777
S"<open file '<stderr>', mode 'w' at 0x540b0>"
p1778
asbasbasbag49
(g65
g51
NtRp1779
(dp1780
g54
(dp1781
sg63
g944
sg56
(lp1782
g49
(g70
g51
NtRp1783
(dp1784
g54
(dp1785
g74
g75
ssg63
g1779
sg56
(lp1786
S'wsgi_file_wrapper'
p1787
asbag49
(g70
g51
NtRp1788
(dp1789
g54
(dp1790
g81
g82
ssg63
g1779
sg56
(lp1791
S':'
asbag49
(g70
g51
NtRp1792
(dp1793
g54
(dp1794
sg63
g1779
sg56
(lp1795
g49
(g50
g51
NtRp1796
(dp1797
g54
(dp1798
g62
I4
ssg63
g1792
sg56
(lp1799
S'<class wsgiref.util.FileWrapper at 0x45782d0>'
p1800
asbasbasbag49
(g65
g51
NtRp1801
(dp1802
g54
(dp1803
sg63
g944
sg56
(lp1804
g49
(g70
g51
NtRp1805
(dp1806
g54
(dp1807
g74
g75
ssg63
g1801
sg56
(lp1808
S'wsgi_input'
p1809
asbag49
(g70
g51
NtRp1810
(dp1811
g54
(dp1812
g81
g82
ssg63
g1801
sg56
(lp1813
S':'
asbag49
(g70
g51
NtRp1814
(dp1815
g54
(dp1816
sg63
g1801
sg56
(lp1817
g49
(g50
g51
NtRp1818
(dp1819
g54
(dp1820
g62
I4
ssg63
g1814
sg56
(lp1821
S'<socket._fileobject object at 0x8cc8ab0>'
p1822
asbasbasbag49
(g65
g51
NtRp1823
(dp1824
g54
(dp1825
sg63
g944
sg56
(lp1826
g49
(g70
g51
NtRp1827
(dp1828
g54
(dp1829
g74
g75
ssg63
g1823
sg56
(lp1830
S'wsgi_multiprocess'
p1831
asbag49
(g70
g51
NtRp1832
(dp1833
g54
(dp1834
g81
g82
ssg63
g1823
sg56
(lp1835
S':'
asbag49
(g70
g51
NtRp1836
(dp1837
g54
(dp1838
sg63
g1823
sg56
(lp1839
g49
(g50
g51
NtRp1840
(dp1841
g54
(dp1842
g62
I4
ssg63
g1836
sg56
(lp1843
g92
asbasbasbag49
(g65
g51
NtRp1844
(dp1845
g54
(dp1846
sg63
g944
sg56
(lp1847
g49
(g70
g51
NtRp1848
(dp1849
g54
(dp1850
g74
g75
ssg63
g1844
sg56
(lp1851
S'wsgi_multithread'
p1852
asbag49
(g70
g51
NtRp1853
(dp1854
g54
(dp1855
g81
g82
ssg63
g1844
sg56
(lp1856
S':'
asbag49
(g70
g51
NtRp1857
(dp1858
g54
(dp1859
sg63
g1844
sg56
(lp1860
g49
(g50
g51
NtRp1861
(dp1862
g54
(dp1863
g62
I4
ssg63
g1857
sg56
(lp1864
S'True'
p1865
asbasbasbag49
(g65
g51
NtRp1866
(dp1867
g54
(dp1868
sg63
g944
sg56
(lp1869
g49
(g70
g51
NtRp1870
(dp1871
g54
(dp1872
g74
g75
ssg63
g1866
sg56
(lp1873
S'wsgi_run_once'
p1874
asbag49
(g70
g51
NtRp1875
(dp1876
g54
(dp1877
g81
g82
ssg63
g1866
sg56
(lp1878
S':'
asbag49
(g70
g51
NtRp1879
(dp1880
g54
(dp1881
sg63
g1866
sg56
(lp1882
g49
(g50
g51
NtRp1883
(dp1884
g54
(dp1885
g62
I4
ssg63
g1879
sg56
(lp1886
g92
asbasbasbag49
(g65
g51
NtRp1887
(dp1888
g54
(dp1889
sg63
g944
sg56
(lp1890
g49
(g70
g51
NtRp1891
(dp1892
g54
(dp1893
g74
g75
ssg63
g1887
sg56
(lp1894
S'wsgi_url_scheme'
p1895
asbag49
(g70
g51
NtRp1896
(dp1897
g54
(dp1898
g81
g82
ssg63
g1887
sg56
(lp1899
S':'
asbag49
(g70
g51
NtRp1900
(dp1901
g54
(dp1902
sg63
g1887
sg56
(lp1903
g49
(g50
g51
NtRp1904
(dp1905
g54
(dp1906
g62
I4
ssg63
g1900
sg56
(lp1907
S'http'
p1908
asbasbasbag49
(g65
g51
NtRp1909
(dp1910
g54
(dp1911
sg63
g944
sg56
(lp1912
g49
(g70
g51
NtRp1913
(dp1914
g54
(dp1915
g74
g75
ssg63
g1909
sg56
(lp1916
S'wsgi_version'
p1917
asbag49
(g70
g51
NtRp1918
(dp1919
g54
(dp1920
g81
g82
ssg63
g1909
sg56
(lp1921
S':'
asbag49
(g70
g51
NtRp1922
(dp1923
g54
(dp1924
sg63
g1909
sg56
(lp1925
g49
(g50
g51
NtRp1926
(dp1927
g54
(dp1928
g62
I4
ssg63
g1922
sg56
(lp1929
g49
(g58
g51
NtRp1930
(dp1931
g54
(dp1932
g62
I3
ssg63
Nsg56
(lp1933
g49
(g65
g51
NtRp1934
(dp1935
g54
(dp1936
sg63
g1930
sg56
(lp1937
g49
(g70
g51
NtRp1938
(dp1939
g54
(dp1940
sg63
g1934
sg56
(lp1941
g49
(g50
g51
NtRp1942
(dp1943
g54
(dp1944
g62
I3
ssg63
g1938
sg56
(lp1945
S'1'
asbasbasbag49
(g65
g51
NtRp1946
(dp1947
g54
(dp1948
sg63
g1930
sg56
(lp1949
g49
(g70
g51
NtRp1950
(dp1951
g54
(dp1952
sg63
g1946
sg56
(lp1953
g49
(g50
g51
NtRp1954
(dp1955
g54
(dp1956
g62
I3
ssg63
g1950
sg56
(lp1957
S'0'
asbasbasbasbasbasbasbasbasbasbasbag49
(g65
g51
NtRp1958
(dp1959
g54
(dp1960
sg63
g59
sg56
(lp1961
g49
(g70
g51
NtRp1962
(dp1963
g54
(dp1964
g74
g75
ssg63
g1958
sg56
(lp1965
S'extension'
p1966
asbag49
(g70
g51
NtRp1967
(dp1968
g54
(dp1969
g81
g82
ssg63
g1958
sg56
(lp1970
S':'
asbag49
(g70
g51
NtRp1971
(dp1972
g54
(dp1973
sg63
g1958
sg56
(lp1974
g49
(g50
g51
NtRp1975
(dp1976
g54
(dp1977
g62
I5
ssg63
g1971
sg56
(lp1978
S'html'
p1979
asbasbasbag49
(g65
g51
NtRp1980
(dp1981
g54
(dp1982
sg63
g59
sg56
(lp1983
g49
(g70
g51
NtRp1984
(dp1985
g54
(dp1986
g74
g75
ssg63
g1980
sg56
(lp1987
S'folder'
p1988
asbag49
(g70
g51
NtRp1989
(dp1990
g54
(dp1991
g81
g82
ssg63
g1980
sg56
(lp1992
S':'
asbag49
(g70
g51
NtRp1993
(dp1994
g54
(dp1995
sg63
g1980
sg56
(lp1996
g49
(g50
g51
NtRp1997
(dp1998
g54
(dp1999
g62
I5
ssg63
g1993
sg56
(lp2000
S'/Users/abaric/Downloads/web2py/web2py.app/Contents/Resources/applications/Final_Impulse/'
p2001
asbasbasbag49
(g65
g51
NtRp2002
(dp2003
g54
(dp2004
sg63
g59
sg56
(lp2005
g49
(g70
g51
NtRp2006
(dp2007
g54
(dp2008
g74
g75
ssg63
g2002
sg56
(lp2009
S'function'
p2010
asbag49
(g70
g51
NtRp2011
(dp2012
g54
(dp2013
g81
g82
ssg63
g2002
sg56
(lp2014
S':'
asbag49
(g70
g51
NtRp2015
(dp2016
g54
(dp2017
sg63
g2002
sg56
(lp2018
g49
(g50
g51
NtRp2019
(dp2020
g54
(dp2021
g62
I5
ssg63
g2015
sg56
(lp2022
S'show_writing_comments'
p2023
asbasbasbag49
(g65
g51
NtRp2024
(dp2025
g54
(dp2026
sg63
g59
sg56
(lp2027
g49
(g70
g51
NtRp2028
(dp2029
g54
(dp2030
g74
g75
ssg63
g2024
sg56
(lp2031
S'get_vars'
p2032
asbag49
(g70
g51
NtRp2033
(dp2034
g54
(dp2035
g81
g82
ssg63
g2024
sg56
(lp2036
S':'
asbag49
(g70
g51
NtRp2037
(dp2038
g54
(dp2039
sg63
g2024
sg56
(lp2040
g49
(g50
g51
NtRp2041
(dp2042
g54
(dp2043
g62
I5
ssg63
g2037
sg56
(lp2044
g49
(g58
g51
NtRp2045
(dp2046
g54
(dp2047
g62
I4
ssg63
Nsg56
(lp2048
sbasbasbasbag49
(g65
g51
NtRp2049
(dp2050
g54
(dp2051
sg63
g59
sg56
(lp2052
g49
(g70
g51
NtRp2053
(dp2054
g54
(dp2055
g74
g75
ssg63
g2049
sg56
(lp2056
S'global_settings'
p2057
asbag49
(g70
g51
NtRp2058
(dp2059
g54
(dp2060
g81
g82
ssg63
g2049
sg56
(lp2061
S':'
asbag49
(g70
g51
NtRp2062
(dp2063
g54
(dp2064
sg63
g2049
sg56
(lp2065
g49
(g50
g51
NtRp2066
(dp2067
g54
(dp2068
g62
I5
ssg63
g2062
sg56
(lp2069
g49
(g58
g51
NtRp2070
(dp2071
g54
(dp2072
g62
I4
ssg63
Nsg56
(lp2073
g49
(g65
g51
NtRp2074
(dp2075
g54
(dp2076
sg63
g2070
sg56
(lp2077
g49
(g70
g51
NtRp2078
(dp2079
g54
(dp2080
g74
g75
ssg63
g2074
sg56
(lp2081
g956
asbag49
(g70
g51
NtRp2082
(dp2083
g54
(dp2084
g81
g82
ssg63
g2074
sg56
(lp2085
S':'
asbag49
(g70
g51
NtRp2086
(dp2087
g54
(dp2088
sg63
g2074
sg56
(lp2089
g49
(g50
g51
NtRp2090
(dp2091
g54
(dp2092
g62
I4
ssg63
g2086
sg56
(lp2093
S"set(['/Users/abaric/Downloads/web2py/web2py.app/Contents/Resources/applications/examples/', '/Users/abaric/Downloads/web2py/web2py.app/Contents/Resources/applications/Final_Impulse/', '/Users/abaric/Downloads/web2py/web2py.app/Contents/Resources/applications/Course_Recommendations/', '/Users/abaric/Downloads/web2py/web2py.app/Contents/Resources/applications/welcome/', '/Users/abaric/Downloads/web2py/web2py.app/Contents/Resources/applications/admin/'])"
p2094
asbasbasbag49
(g65
g51
NtRp2095
(dp2096
g54
(dp2097
sg63
g2070
sg56
(lp2098
g49
(g70
g51
NtRp2099
(dp2100
g54
(dp2101
g74
g75
ssg63
g2095
sg56
(lp2102
g978
asbag49
(g70
g51
NtRp2103
(dp2104
g54
(dp2105
g81
g82
ssg63
g2095
sg56
(lp2106
S':'
asbag49
(g70
g51
NtRp2107
(dp2108
g54
(dp2109
sg63
g2095
sg56
(lp2110
g49
(g50
g51
NtRp2111
(dp2112
g54
(dp2113
g62
I4
ssg63
g2107
sg56
(lp2114
g991
asbasbasbag49
(g65
g51
NtRp2115
(dp2116
g54
(dp2117
sg63
g2070
sg56
(lp2118
g49
(g70
g51
NtRp2119
(dp2120
g54
(dp2121
g74
g75
ssg63
g2115
sg56
(lp2122
g1000
asbag49
(g70
g51
NtRp2123
(dp2124
g54
(dp2125
g81
g82
ssg63
g2115
sg56
(lp2126
S':'
asbag49
(g70
g51
NtRp2127
(dp2128
g54
(dp2129
sg63
g2115
sg56
(lp2130
g49
(g50
g51
NtRp2131
(dp2132
g54
(dp2133
g62
I4
ssg63
g2127
sg56
(lp2134
g49
(g58
g51
NtRp2135
(dp2136
g54
(dp2137
g62
I3
ssg63
Nsg56
(lp2138
sbasbasbasbag49
(g65
g51
NtRp2139
(dp2140
g54
(dp2141
sg63
g2070
sg56
(lp2142
g49
(g70
g51
NtRp2143
(dp2144
g54
(dp2145
g74
g75
ssg63
g2139
sg56
(lp2146
g1025
asbag49
(g70
g51
NtRp2147
(dp2148
g54
(dp2149
g81
g82
ssg63
g2139
sg56
(lp2150
S':'
asbag49
(g70
g51
NtRp2151
(dp2152
g54
(dp2153
sg63
g2139
sg56
(lp2154
g49
(g50
g51
NtRp2155
(dp2156
g54
(dp2157
g62
I4
ssg63
g2151
sg56
(lp2158
S"<Values at 0x43bc1c0: {'verbose': False, 'ip': '127.0.0.1', 'with_scheduler': False, 'ips': [], 'shutdown_timeout': 5, 'taskbar': False, 'port': 8000, 'maxthreads': None, 'softcron': False, 'server_name': 'Andrea-Barics-MacBook-Pro.local', 'bpython': False, 'nogui': False, 'pid_filename': 'httpserver.pid', 'extcron': False, 'runcron': False, 'run_system_tests': False, 'test': None, 'folder': '/Users/abaric/Downloads/web2py/web2py.app/Contents/Resources', 'config': '', 'import_models': False, 'winservice': '', 'shell': None, 'run': '', 'log_filename': 'httpserver.log', 'debuglevel': 30, 'args': [''], 'socket_timeout': 5, 'ssl_ca_certificate': None, 'scheduler': None, 'profiler_filename': None, 'ssl_private_key': '', 'scheduler_groups': None, 'password': '<ask>', 'request_queue_size': 5, 'ssl_certificate': '', 'cronjob': False, 'numthreads': None, 'quiet': False, 'interfaces': None, 'minthreads': None, 'timeout': 10, 'plain': False, 'nobanner': False}>"
p2159
asbasbasbag49
(g65
g51
NtRp2160
(dp2161
g54
(dp2162
sg63
g2070
sg56
(lp2163
g49
(g70
g51
NtRp2164
(dp2165
g54
(dp2166
g74
g75
ssg63
g2160
sg56
(lp2167
g1047
asbag49
(g70
g51
NtRp2168
(dp2169
g54
(dp2170
g81
g82
ssg63
g2160
sg56
(lp2171
S':'
asbag49
(g70
g51
NtRp2172
(dp2173
g54
(dp2174
sg63
g2160
sg56
(lp2175
g49
(g50
g51
NtRp2176
(dp2177
g54
(dp2178
g62
I4
ssg63
g2172
sg56
(lp2179
S'set([])'
p2180
asbasbasbag49
(g65
g51
NtRp2181
(dp2182
g54
(dp2183
sg63
g2070
sg56
(lp2184
g49
(g70
g51
NtRp2185
(dp2186
g54
(dp2187
g74
g75
ssg63
g2181
sg56
(lp2188
g1069
asbag49
(g70
g51
NtRp2189
(dp2190
g54
(dp2191
g81
g82
ssg63
g2181
sg56
(lp2192
S':'
asbag49
(g70
g51
NtRp2193
(dp2194
g54
(dp2195
sg63
g2181
sg56
(lp2196
g49
(g50
g51
NtRp2197
(dp2198
g54
(dp2199
g62
I4
ssg63
g2193
sg56
(lp2200
g92
asbasbasbag49
(g65
g51
NtRp2201
(dp2202
g54
(dp2203
sg63
g2070
sg56
(lp2204
g49
(g70
g51
NtRp2205
(dp2206
g54
(dp2207
g74
g75
ssg63
g2201
sg56
(lp2208
g1090
asbag49
(g70
g51
NtRp2209
(dp2210
g54
(dp2211
g81
g82
ssg63
g2201
sg56
(lp2212
S':'
asbag49
(g70
g51
NtRp2213
(dp2214
g54
(dp2215
sg63
g2201
sg56
(lp2216
g49
(g50
g51
NtRp2217
(dp2218
g54
(dp2219
g62
I4
ssg63
g2213
sg56
(lp2220
g1103
asbasbasbag49
(g65
g51
NtRp2221
(dp2222
g54
(dp2223
sg63
g2070
sg56
(lp2224
g49
(g70
g51
NtRp2225
(dp2226
g54
(dp2227
g74
g75
ssg63
g2221
sg56
(lp2228
g1288
asbag49
(g70
g51
NtRp2229
(dp2230
g54
(dp2231
g81
g82
ssg63
g2221
sg56
(lp2232
S':'
asbag49
(g70
g51
NtRp2233
(dp2234
g54
(dp2235
sg63
g2221
sg56
(lp2236
g49
(g50
g51
NtRp2237
(dp2238
g54
(dp2239
g62
I4
ssg63
g2233
sg56
(lp2240
g92
asbasbasbag49
(g65
g51
NtRp2241
(dp2242
g54
(dp2243
sg63
g2070
sg56
(lp2244
g49
(g70
g51
NtRp2245
(dp2246
g54
(dp2247
g74
g75
ssg63
g2241
sg56
(lp2248
g1309
asbag49
(g70
g51
NtRp2249
(dp2250
g54
(dp2251
g81
g82
ssg63
g2241
sg56
(lp2252
S':'
asbag49
(g70
g51
NtRp2253
(dp2254
g54
(dp2255
sg63
g2241
sg56
(lp2256
g49
(g50
g51
NtRp2257
(dp2258
g54
(dp2259
g62
I4
ssg63
g2253
sg56
(lp2260
g92
asbasbasbag49
(g65
g51
NtRp2261
(dp2262
g54
(dp2263
sg63
g2070
sg56
(lp2264
g49
(g70
g51
NtRp2265
(dp2266
g54
(dp2267
g74
g75
ssg63
g2261
sg56
(lp2268
g1330
asbag49
(g70
g51
NtRp2269
(dp2270
g54
(dp2271
g81
g82
ssg63
g2261
sg56
(lp2272
S':'
asbag49
(g70
g51
NtRp2273
(dp2274
g54
(dp2275
sg63
g2261
sg56
(lp2276
g49
(g50
g51
NtRp2277
(dp2278
g54
(dp2279
g62
I4
ssg63
g2273
sg56
(lp2280
g49
(g58
g51
NtRp2281
(dp2282
g54
(dp2283
g62
I3
ssg63
Nsg56
(lp2284
g49
(g65
g51
NtRp2285
(dp2286
g54
(dp2287
sg63
g2281
sg56
(lp2288
g49
(g70
g51
NtRp2289
(dp2290
g54
(dp2291
sg63
g2285
sg56
(lp2292
g49
(g50
g51
NtRp2293
(dp2294
g54
(dp2295
g62
I3
ssg63
g2289
sg56
(lp2296
g1359
asbasbasbag49
(g65
g51
NtRp2297
(dp2298
g54
(dp2299
sg63
g2281
sg56
(lp2300
g49
(g70
g51
NtRp2301
(dp2302
g54
(dp2303
sg63
g2297
sg56
(lp2304
g49
(g50
g51
NtRp2305
(dp2306
g54
(dp2307
g62
I3
ssg63
g2301
sg56
(lp2308
g1372
asbasbasbag49
(g65
g51
NtRp2309
(dp2310
g54
(dp2311
sg63
g2281
sg56
(lp2312
g49
(g70
g51
NtRp2313
(dp2314
g54
(dp2315
sg63
g2309
sg56
(lp2316
g49
(g50
g51
NtRp2317
(dp2318
g54
(dp2319
g62
I3
ssg63
g2313
sg56
(lp2320
g1385
asbasbasbag49
(g65
g51
NtRp2321
(dp2322
g54
(dp2323
sg63
g2281
sg56
(lp2324
g49
(g70
g51
NtRp2325
(dp2326
g54
(dp2327
sg63
g2321
sg56
(lp2328
g49
(g50
g51
NtRp2329
(dp2330
g54
(dp2331
g62
I3
ssg63
g2325
sg56
(lp2332
g1398
asbasbasbag49
(g65
g51
NtRp2333
(dp2334
g54
(dp2335
sg63
g2281
sg56
(lp2336
g49
(g70
g51
NtRp2337
(dp2338
g54
(dp2339
sg63
g2333
sg56
(lp2340
g49
(g50
g51
NtRp2341
(dp2342
g54
(dp2343
g62
I3
ssg63
g2337
sg56
(lp2344
g1411
asbasbasbasbasbasbasbag49
(g65
g51
NtRp2345
(dp2346
g54
(dp2347
sg63
g2070
sg56
(lp2348
g49
(g70
g51
NtRp2349
(dp2350
g54
(dp2351
g74
g75
ssg63
g2345
sg56
(lp2352
g1678
asbag49
(g70
g51
NtRp2353
(dp2354
g54
(dp2355
g81
g82
ssg63
g2345
sg56
(lp2356
S':'
asbag49
(g70
g51
NtRp2357
(dp2358
g54
(dp2359
sg63
g2345
sg56
(lp2360
g49
(g50
g51
NtRp2361
(dp2362
g54
(dp2363
g62
I4
ssg63
g2357
sg56
(lp2364
g49
(g58
g51
NtRp2365
(dp2366
g54
(dp2367
g62
I3
ssg63
Nsg56
(lp2368
g49
(g65
g51
NtRp2369
(dp2370
g54
(dp2371
sg63
g2365
sg56
(lp2372
g49
(g70
g51
NtRp2373
(dp2374
g54
(dp2375
sg63
g2369
sg56
(lp2376
g49
(g50
g51
NtRp2377
(dp2378
g54
(dp2379
g62
I3
ssg63
g2373
sg56
(lp2380
S'2'
asbasbasbag49
(g65
g51
NtRp2381
(dp2382
g54
(dp2383
sg63
g2365
sg56
(lp2384
g49
(g70
g51
NtRp2385
(dp2386
g54
(dp2387
sg63
g2381
sg56
(lp2388
g49
(g50
g51
NtRp2389
(dp2390
g54
(dp2391
g62
I3
ssg63
g2385
sg56
(lp2392
S'2'
asbasbasbag49
(g65
g51
NtRp2393
(dp2394
g54
(dp2395
sg63
g2365
sg56
(lp2396
g49
(g70
g51
NtRp2397
(dp2398
g54
(dp2399
sg63
g2393
sg56
(lp2400
g49
(g50
g51
NtRp2401
(dp2402
g54
(dp2403
g62
I3
ssg63
g2397
sg56
(lp2404
S'1'
asbasbasbag49
(g65
g51
NtRp2405
(dp2406
g54
(dp2407
sg63
g2365
sg56
(lp2408
g49
(g70
g51
NtRp2409
(dp2410
g54
(dp2411
sg63
g2405
sg56
(lp2412
g49
(g50
g51
NtRp2413
(dp2414
g54
(dp2415
g62
I3
ssg63
g2409
sg56
(lp2416
S'datetime.datetime(2012, 10, 21, 16, 57, 4)'
p2417
asbasbasbag49
(g65
g51
NtRp2418
(dp2419
g54
(dp2420
sg63
g2365
sg56
(lp2421
g49
(g70
g51
NtRp2422
(dp2423
g54
(dp2424
sg63
g2418
sg56
(lp2425
g49
(g50
g51
NtRp2426
(dp2427
g54
(dp2428
g62
I3
ssg63
g2422
sg56
(lp2429
g1756
asbasbasbasbasbasbasbasbasbasbasbag49
(g65
g51
NtRp2430
(dp2431
g54
(dp2432
sg63
g59
sg56
(lp2433
g49
(g70
g51
NtRp2434
(dp2435
g54
(dp2436
g74
g75
ssg63
g2430
sg56
(lp2437
S'is_https'
p2438
asbag49
(g70
g51
NtRp2439
(dp2440
g54
(dp2441
g81
g82
ssg63
g2430
sg56
(lp2442
S':'
asbag49
(g70
g51
NtRp2443
(dp2444
g54
(dp2445
sg63
g2430
sg56
(lp2446
g49
(g50
g51
NtRp2447
(dp2448
g54
(dp2449
g62
I5
ssg63
g2443
sg56
(lp2450
g92
asbasbasbag49
(g65
g51
NtRp2451
(dp2452
g54
(dp2453
sg63
g59
sg56
(lp2454
g49
(g70
g51
NtRp2455
(dp2456
g54
(dp2457
g74
g75
ssg63
g2451
sg56
(lp2458
S'is_local'
p2459
asbag49
(g70
g51
NtRp2460
(dp2461
g54
(dp2462
g81
g82
ssg63
g2451
sg56
(lp2463
S':'
asbag49
(g70
g51
NtRp2464
(dp2465
g54
(dp2466
sg63
g2451
sg56
(lp2467
g49
(g50
g51
NtRp2468
(dp2469
g54
(dp2470
g62
I5
ssg63
g2464
sg56
(lp2471
g1865
asbasbasbag49
(g65
g51
NtRp2472
(dp2473
g54
(dp2474
sg63
g59
sg56
(lp2475
g49
(g70
g51
NtRp2476
(dp2477
g54
(dp2478
g74
g75
ssg63
g2472
sg56
(lp2479
S'is_restful'
p2480
asbag49
(g70
g51
NtRp2481
(dp2482
g54
(dp2483
g81
g82
ssg63
g2472
sg56
(lp2484
S':'
asbag49
(g70
g51
NtRp2485
(dp2486
g54
(dp2487
sg63
g2472
sg56
(lp2488
g49
(g50
g51
NtRp2489
(dp2490
g54
(dp2491
g62
I5
ssg63
g2485
sg56
(lp2492
g92
asbasbasbag49
(g65
g51
NtRp2493
(dp2494
g54
(dp2495
sg63
g59
sg56
(lp2496
g49
(g70
g51
NtRp2497
(dp2498
g54
(dp2499
g74
g75
ssg63
g2493
sg56
(lp2500
S'now'
p2501
asbag49
(g70
g51
NtRp2502
(dp2503
g54
(dp2504
g81
g82
ssg63
g2493
sg56
(lp2505
S':'
asbag49
(g70
g51
NtRp2506
(dp2507
g54
(dp2508
sg63
g2493
sg56
(lp2509
g49
(g50
g51
NtRp2510
(dp2511
g54
(dp2512
g62
I5
ssg63
g2506
sg56
(lp2513
S'datetime.datetime(2014, 6, 9, 10, 37, 46, 198553)'
p2514
asbasbasbag49
(g65
g51
NtRp2515
(dp2516
g54
(dp2517
sg63
g59
sg56
(lp2518
g49
(g70
g51
NtRp2519
(dp2520
g54
(dp2521
g74
g75
ssg63
g2515
sg56
(lp2522
S'post_vars'
p2523
asbag49
(g70
g51
NtRp2524
(dp2525
g54
(dp2526
g81
g82
ssg63
g2515
sg56
(lp2527
S':'
asbag49
(g70
g51
NtRp2528
(dp2529
g54
(dp2530
sg63
g2515
sg56
(lp2531
g49
(g50
g51
NtRp2532
(dp2533
g54
(dp2534
g62
I5
ssg63
g2528
sg56
(lp2535
g49
(g58
g51
NtRp2536
(dp2537
g54
(dp2538
g62
I4
ssg63
Nsg56
(lp2539
sbasbasbasbag49
(g65
g51
NtRp2540
(dp2541
g54
(dp2542
sg63
g59
sg56
(lp2543
g49
(g70
g51
NtRp2544
(dp2545
g54
(dp2546
g74
g75
ssg63
g2540
sg56
(lp2547
S'raw_args'
p2548
asbag49
(g70
g51
NtRp2549
(dp2550
g54
(dp2551
g81
g82
ssg63
g2540
sg56
(lp2552
S':'
asbag49
(g70
g51
NtRp2553
(dp2554
g54
(dp2555
sg63
g2540
sg56
(lp2556
g49
(g50
g51
NtRp2557
(dp2558
g54
(dp2559
g62
I5
ssg63
g2553
sg56
(lp2560
S''
asbasbasbag49
(g65
g51
NtRp2561
(dp2562
g54
(dp2563
sg63
g59
sg56
(lp2564
g49
(g70
g51
NtRp2565
(dp2566
g54
(dp2567
g74
g75
ssg63
g2561
sg56
(lp2568
S'raw_extension'
p2569
asbag49
(g70
g51
NtRp2570
(dp2571
g54
(dp2572
g81
g82
ssg63
g2561
sg56
(lp2573
S':'
asbag49
(g70
g51
NtRp2574
(dp2575
g54
(dp2576
sg63
g2561
sg56
(lp2577
g49
(g50
g51
NtRp2578
(dp2579
g54
(dp2580
g62
I5
ssg63
g2574
sg56
(lp2581
S'None'
p2582
asbasbasbag49
(g65
g51
NtRp2583
(dp2584
g54
(dp2585
sg63
g59
sg56
(lp2586
g49
(g70
g51
NtRp2587
(dp2588
g54
(dp2589
g74
g75
ssg63
g2583
sg56
(lp2590
S'url'
p2591
asbag49
(g70
g51
NtRp2592
(dp2593
g54
(dp2594
g81
g82
ssg63
g2583
sg56
(lp2595
S':'
asbag49
(g70
g51
NtRp2596
(dp2597
g54
(dp2598
sg63
g2583
sg56
(lp2599
g49
(g50
g51
NtRp2600
(dp2601
g54
(dp2602
g62
I5
ssg63
g2596
sg56
(lp2603
g1433
asbasbasbag49
(g65
g51
NtRp2604
(dp2605
g54
(dp2606
sg63
g59
sg56
(lp2607
g49
(g70
g51
NtRp2608
(dp2609
g54
(dp2610
g74
g75
ssg63
g2604
sg56
(lp2611
S'utcnow'
p2612
asbag49
(g70
g51
NtRp2613
(dp2614
g54
(dp2615
g81
g82
ssg63
g2604
sg56
(lp2616
S':'
asbag49
(g70
g51
NtRp2617
(dp2618
g54
(dp2619
sg63
g2604
sg56
(lp2620
g49
(g50
g51
NtRp2621
(dp2622
g54
(dp2623
g62
I5
ssg63
g2617
sg56
(lp2624
S'datetime.datetime(2014, 6, 9, 14, 37, 46, 198565)'
p2625
asbasbasbag49
(g65
g51
NtRp2626
(dp2627
g54
(dp2628
sg63
g59
sg56
(lp2629
g49
(g70
g51
NtRp2630
(dp2631
g54
(dp2632
g74
g75
ssg63
g2626
sg56
(lp2633
S'uuid'
p2634
asbag49
(g70
g51
NtRp2635
(dp2636
g54
(dp2637
g81
g82
ssg63
g2626
sg56
(lp2638
S':'
asbag49
(g70
g51
NtRp2639
(dp2640
g54
(dp2641
sg63
g2626
sg56
(lp2642
g49
(g50
g51
NtRp2643
(dp2644
g54
(dp2645
g62
I5
ssg63
g2639
sg56
(lp2646
S'Final_Impulse/127.0.0.1.2014-06-09.10-37-46.f0a8e991-18f2-4612-a402-7522a307e838'
p2647
asbasbasbag49
(g65
g51
NtRp2648
(dp2649
g54
(dp2650
sg63
g59
sg56
(lp2651
g49
(g70
g51
NtRp2652
(dp2653
g54
(dp2654
g74
g75
ssg63
g2648
sg56
(lp2655
S'vars'
p2656
asbag49
(g70
g51
NtRp2657
(dp2658
g54
(dp2659
g81
g82
ssg63
g2648
sg56
(lp2660
S':'
asbag49
(g70
g51
NtRp2661
(dp2662
g54
(dp2663
sg63
g2648
sg56
(lp2664
g49
(g50
g51
NtRp2665
(dp2666
g54
(dp2667
g62
I5
ssg63
g2661
sg56
(lp2668
g49
(g58
g51
NtRp2669
(dp2670
g54
(dp2671
g62
I4
ssg63
Nsg56
(lp2672
sbasbasbasbag49
(g65
g51
NtRp2673
(dp2674
g54
(dp2675
sg63
g59
sg56
(lp2676
g49
(g70
g51
NtRp2677
(dp2678
g54
(dp2679
g74
g75
ssg63
g2673
sg56
(lp2680
S'wsgi'
p2681
asbag49
(g70
g51
NtRp2682
(dp2683
g54
(dp2684
g81
g82
ssg63
g2673
sg56
(lp2685
S':'
asbag49
(g70
g51
NtRp2686
(dp2687
g54
(dp2688
sg63
g2673
sg56
(lp2689
g49
(g50
g51
NtRp2690
(dp2691
g54
(dp2692
g62
I5
ssg63
g2686
sg56
(lp2693
g49
(g58
g51
NtRp2694
(dp2695
g54
(dp2696
g62
I4
ssg63
Nsg56
(lp2697
g49
(g65
g51
NtRp2698
(dp2699
g54
(dp2700
sg63
g2694
sg56
(lp2701
g49
(g70
g51
NtRp2702
(dp2703
g54
(dp2704
g74
g75
ssg63
g2698
sg56
(lp2705
S'environ'
p2706
asbag49
(g70
g51
NtRp2707
(dp2708
g54
(dp2709
g81
g82
ssg63
g2698
sg56
(lp2710
S':'
asbag49
(g70
g51
NtRp2711
(dp2712
g54
(dp2713
sg63
g2698
sg56
(lp2714
g49
(g50
g51
NtRp2715
(dp2716
g54
(dp2717
g62
I4
ssg63
g2711
sg56
(lp2718
g49
(g58
g51
NtRp2719
(dp2720
g54
(dp2721
g62
I3
ssg63
Nsg56
(lp2722
g49
(g65
g51
NtRp2723
(dp2724
g54
(dp2725
sg63
g2719
sg56
(lp2726
g49
(g70
g51
NtRp2727
(dp2728
g54
(dp2729
g74
g75
ssg63
g2723
sg56
(lp2730
S'HTTP_ACCEPT'
p2731
asbag49
(g70
g51
NtRp2732
(dp2733
g54
(dp2734
g81
g82
ssg63
g2723
sg56
(lp2735
S':'
asbag49
(g70
g51
NtRp2736
(dp2737
g54
(dp2738
sg63
g2723
sg56
(lp2739
g49
(g50
g51
NtRp2740
(dp2741
g54
(dp2742
g62
I3
ssg63
g2736
sg56
(lp2743
g1125
asbasbasbag49
(g65
g51
NtRp2744
(dp2745
g54
(dp2746
sg63
g2719
sg56
(lp2747
g49
(g70
g51
NtRp2748
(dp2749
g54
(dp2750
g74
g75
ssg63
g2744
sg56
(lp2751
S'HTTP_ACCEPT_ENCODING'
p2752
asbag49
(g70
g51
NtRp2753
(dp2754
g54
(dp2755
g81
g82
ssg63
g2744
sg56
(lp2756
S':'
asbag49
(g70
g51
NtRp2757
(dp2758
g54
(dp2759
sg63
g2744
sg56
(lp2760
g49
(g50
g51
NtRp2761
(dp2762
g54
(dp2763
g62
I3
ssg63
g2757
sg56
(lp2764
g1147
asbasbasbag49
(g65
g51
NtRp2765
(dp2766
g54
(dp2767
sg63
g2719
sg56
(lp2768
g49
(g70
g51
NtRp2769
(dp2770
g54
(dp2771
g74
g75
ssg63
g2765
sg56
(lp2772
S'HTTP_ACCEPT_LANGUAGE'
p2773
asbag49
(g70
g51
NtRp2774
(dp2775
g54
(dp2776
g81
g82
ssg63
g2765
sg56
(lp2777
S':'
asbag49
(g70
g51
NtRp2778
(dp2779
g54
(dp2780
sg63
g2765
sg56
(lp2781
g49
(g50
g51
NtRp2782
(dp2783
g54
(dp2784
g62
I3
ssg63
g2778
sg56
(lp2785
g1169
asbasbasbag49
(g65
g51
NtRp2786
(dp2787
g54
(dp2788
sg63
g2719
sg56
(lp2789
g49
(g70
g51
NtRp2790
(dp2791
g54
(dp2792
g74
g75
ssg63
g2786
sg56
(lp2793
S'HTTP_CONNECTION'
p2794
asbag49
(g70
g51
NtRp2795
(dp2796
g54
(dp2797
g81
g82
ssg63
g2786
sg56
(lp2798
S':'
asbag49
(g70
g51
NtRp2799
(dp2800
g54
(dp2801
sg63
g2786
sg56
(lp2802
g49
(g50
g51
NtRp2803
(dp2804
g54
(dp2805
g62
I3
ssg63
g2799
sg56
(lp2806
g1191
asbasbasbag49
(g65
g51
NtRp2807
(dp2808
g54
(dp2809
sg63
g2719
sg56
(lp2810
g49
(g70
g51
NtRp2811
(dp2812
g54
(dp2813
g74
g75
ssg63
g2807
sg56
(lp2814
S'HTTP_COOKIE'
p2815
asbag49
(g70
g51
NtRp2816
(dp2817
g54
(dp2818
g81
g82
ssg63
g2807
sg56
(lp2819
S':'
asbag49
(g70
g51
NtRp2820
(dp2821
g54
(dp2822
sg63
g2807
sg56
(lp2823
g49
(g50
g51
NtRp2824
(dp2825
g54
(dp2826
g62
I3
ssg63
g2820
sg56
(lp2827
g1213
asbasbasbag49
(g65
g51
NtRp2828
(dp2829
g54
(dp2830
sg63
g2719
sg56
(lp2831
g49
(g70
g51
NtRp2832
(dp2833
g54
(dp2834
g74
g75
ssg63
g2828
sg56
(lp2835
S'HTTP_HOST'
p2836
asbag49
(g70
g51
NtRp2837
(dp2838
g54
(dp2839
g81
g82
ssg63
g2828
sg56
(lp2840
S':'
asbag49
(g70
g51
NtRp2841
(dp2842
g54
(dp2843
sg63
g2828
sg56
(lp2844
g49
(g50
g51
NtRp2845
(dp2846
g54
(dp2847
g62
I3
ssg63
g2841
sg56
(lp2848
g1235
asbasbasbag49
(g65
g51
NtRp2849
(dp2850
g54
(dp2851
sg63
g2719
sg56
(lp2852
g49
(g70
g51
NtRp2853
(dp2854
g54
(dp2855
g74
g75
ssg63
g2849
sg56
(lp2856
S'HTTP_REFERER'
p2857
asbag49
(g70
g51
NtRp2858
(dp2859
g54
(dp2860
g81
g82
ssg63
g2849
sg56
(lp2861
S':'
asbag49
(g70
g51
NtRp2862
(dp2863
g54
(dp2864
sg63
g2849
sg56
(lp2865
g49
(g50
g51
NtRp2866
(dp2867
g54
(dp2868
g62
I3
ssg63
g2862
sg56
(lp2869
g1257
asbasbasbag49
(g65
g51
NtRp2870
(dp2871
g54
(dp2872
sg63
g2719
sg56
(lp2873
g49
(g70
g51
NtRp2874
(dp2875
g54
(dp2876
g74
g75
ssg63
g2870
sg56
(lp2877
S'HTTP_USER_AGENT'
p2878
asbag49
(g70
g51
NtRp2879
(dp2880
g54
(dp2881
g81
g82
ssg63
g2870
sg56
(lp2882
S':'
asbag49
(g70
g51
NtRp2883
(dp2884
g54
(dp2885
sg63
g2870
sg56
(lp2886
g49
(g50
g51
NtRp2887
(dp2888
g54
(dp2889
g62
I3
ssg63
g2883
sg56
(lp2890
g1279
asbasbasbag49
(g65
g51
NtRp2891
(dp2892
g54
(dp2893
sg63
g2719
sg56
(lp2894
g49
(g70
g51
NtRp2895
(dp2896
g54
(dp2897
g74
g75
ssg63
g2891
sg56
(lp2898
S'PATH_INFO'
p2899
asbag49
(g70
g51
NtRp2900
(dp2901
g54
(dp2902
g81
g82
ssg63
g2891
sg56
(lp2903
S':'
asbag49
(g70
g51
NtRp2904
(dp2905
g54
(dp2906
sg63
g2891
sg56
(lp2907
g49
(g50
g51
NtRp2908
(dp2909
g54
(dp2910
g62
I3
ssg63
g2904
sg56
(lp2911
g1433
asbasbasbag49
(g65
g51
NtRp2912
(dp2913
g54
(dp2914
sg63
g2719
sg56
(lp2915
g49
(g70
g51
NtRp2916
(dp2917
g54
(dp2918
g74
g75
ssg63
g2912
sg56
(lp2919
S'QUERY_STRING'
p2920
asbag49
(g70
g51
NtRp2921
(dp2922
g54
(dp2923
g81
g82
ssg63
g2912
sg56
(lp2924
S':'
asbag49
(g70
g51
NtRp2925
(dp2926
g54
(dp2927
sg63
g2912
sg56
(lp2928
g49
(g50
g51
NtRp2929
(dp2930
g54
(dp2931
g62
I3
ssg63
g2925
sg56
(lp2932
S''
asbasbasbag49
(g65
g51
NtRp2933
(dp2934
g54
(dp2935
sg63
g2719
sg56
(lp2936
g49
(g70
g51
NtRp2937
(dp2938
g54
(dp2939
g74
g75
ssg63
g2933
sg56
(lp2940
S'REMOTE_ADDR'
p2941
asbag49
(g70
g51
NtRp2942
(dp2943
g54
(dp2944
g81
g82
ssg63
g2933
sg56
(lp2945
S':'
asbag49
(g70
g51
NtRp2946
(dp2947
g54
(dp2948
sg63
g2933
sg56
(lp2949
g49
(g50
g51
NtRp2950
(dp2951
g54
(dp2952
g62
I3
ssg63
g2946
sg56
(lp2953
g204
asbasbasbag49
(g65
g51
NtRp2954
(dp2955
g54
(dp2956
sg63
g2719
sg56
(lp2957
g49
(g70
g51
NtRp2958
(dp2959
g54
(dp2960
g74
g75
ssg63
g2954
sg56
(lp2961
S'REMOTE_PORT'
p2962
asbag49
(g70
g51
NtRp2963
(dp2964
g54
(dp2965
g81
g82
ssg63
g2954
sg56
(lp2966
S':'
asbag49
(g70
g51
NtRp2967
(dp2968
g54
(dp2969
sg63
g2954
sg56
(lp2970
g49
(g50
g51
NtRp2971
(dp2972
g54
(dp2973
g62
I3
ssg63
g2967
sg56
(lp2974
g1497
asbasbasbag49
(g65
g51
NtRp2975
(dp2976
g54
(dp2977
sg63
g2719
sg56
(lp2978
g49
(g70
g51
NtRp2979
(dp2980
g54
(dp2981
g74
g75
ssg63
g2975
sg56
(lp2982
S'REQUEST_METHOD'
p2983
asbag49
(g70
g51
NtRp2984
(dp2985
g54
(dp2986
g81
g82
ssg63
g2975
sg56
(lp2987
S':'
asbag49
(g70
g51
NtRp2988
(dp2989
g54
(dp2990
sg63
g2975
sg56
(lp2991
g49
(g50
g51
NtRp2992
(dp2993
g54
(dp2994
g62
I3
ssg63
g2988
sg56
(lp2995
g1519
asbasbasbag49
(g65
g51
NtRp2996
(dp2997
g54
(dp2998
sg63
g2719
sg56
(lp2999
g49
(g70
g51
NtRp3000
(dp3001
g54
(dp3002
g74
g75
ssg63
g2996
sg56
(lp3003
S'REQUEST_URI'
p3004
asbag49
(g70
g51
NtRp3005
(dp3006
g54
(dp3007
g81
g82
ssg63
g2996
sg56
(lp3008
S':'
asbag49
(g70
g51
NtRp3009
(dp3010
g54
(dp3011
sg63
g2996
sg56
(lp3012
g49
(g50
g51
NtRp3013
(dp3014
g54
(dp3015
g62
I3
ssg63
g3009
sg56
(lp3016
g1433
asbasbasbag49
(g65
g51
NtRp3017
(dp3018
g54
(dp3019
sg63
g2719
sg56
(lp3020
g49
(g70
g51
NtRp3021
(dp3022
g54
(dp3023
g74
g75
ssg63
g3017
sg56
(lp3024
S'SCRIPT_NAME'
p3025
asbag49
(g70
g51
NtRp3026
(dp3027
g54
(dp3028
g81
g82
ssg63
g3017
sg56
(lp3029
S':'
asbag49
(g70
g51
NtRp3030
(dp3031
g54
(dp3032
sg63
g3017
sg56
(lp3033
g49
(g50
g51
NtRp3034
(dp3035
g54
(dp3036
g62
I3
ssg63
g3030
sg56
(lp3037
S''
asbasbasbag49
(g65
g51
NtRp3038
(dp3039
g54
(dp3040
sg63
g2719
sg56
(lp3041
g49
(g70
g51
NtRp3042
(dp3043
g54
(dp3044
g74
g75
ssg63
g3038
sg56
(lp3045
S'SERVER_NAME'
p3046
asbag49
(g70
g51
NtRp3047
(dp3048
g54
(dp3049
g81
g82
ssg63
g3038
sg56
(lp3050
S':'
asbag49
(g70
g51
NtRp3051
(dp3052
g54
(dp3053
sg63
g3038
sg56
(lp3054
g49
(g50
g51
NtRp3055
(dp3056
g54
(dp3057
g62
I3
ssg63
g3051
sg56
(lp3058
g1398
asbasbasbag49
(g65
g51
NtRp3059
(dp3060
g54
(dp3061
sg63
g2719
sg56
(lp3062
g49
(g70
g51
NtRp3063
(dp3064
g54
(dp3065
g74
g75
ssg63
g3059
sg56
(lp3066
S'SERVER_PORT'
p3067
asbag49
(g70
g51
NtRp3068
(dp3069
g54
(dp3070
g81
g82
ssg63
g3059
sg56
(lp3071
S':'
asbag49
(g70
g51
NtRp3072
(dp3073
g54
(dp3074
sg63
g3059
sg56
(lp3075
g49
(g50
g51
NtRp3076
(dp3077
g54
(dp3078
g62
I3
ssg63
g3072
sg56
(lp3079
g1604
asbasbasbag49
(g65
g51
NtRp3080
(dp3081
g54
(dp3082
sg63
g2719
sg56
(lp3083
g49
(g70
g51
NtRp3084
(dp3085
g54
(dp3086
g74
g75
ssg63
g3080
sg56
(lp3087
S'SERVER_PROTOCOL'
p3088
asbag49
(g70
g51
NtRp3089
(dp3090
g54
(dp3091
g81
g82
ssg63
g3080
sg56
(lp3092
S':'
asbag49
(g70
g51
NtRp3093
(dp3094
g54
(dp3095
sg63
g3080
sg56
(lp3096
g49
(g50
g51
NtRp3097
(dp3098
g54
(dp3099
g62
I3
ssg63
g3093
sg56
(lp3100
g1626
asbasbasbag49
(g65
g51
NtRp3101
(dp3102
g54
(dp3103
sg63
g2719
sg56
(lp3104
g49
(g70
g51
NtRp3105
(dp3106
g54
(dp3107
g74
g75
ssg63
g3101
sg56
(lp3108
S'SERVER_SOFTWARE'
p3109
asbag49
(g70
g51
NtRp3110
(dp3111
g54
(dp3112
g81
g82
ssg63
g3101
sg56
(lp3113
S':'
asbag49
(g70
g51
NtRp3114
(dp3115
g54
(dp3116
sg63
g3101
sg56
(lp3117
g49
(g50
g51
NtRp3118
(dp3119
g54
(dp3120
g62
I3
ssg63
g3114
sg56
(lp3121
g1648
asbasbasbag49
(g65
g51
NtRp3122
(dp3123
g54
(dp3124
sg63
g2719
sg56
(lp3125
g49
(g70
g51
NtRp3126
(dp3127
g54
(dp3128
g74
g75
ssg63
g3122
sg56
(lp3129
S'wsgi.errors'
p3130
asbag49
(g70
g51
NtRp3131
(dp3132
g54
(dp3133
g81
g82
ssg63
g3122
sg56
(lp3134
S':'
asbag49
(g70
g51
NtRp3135
(dp3136
g54
(dp3137
sg63
g3122
sg56
(lp3138
g49
(g50
g51
NtRp3139
(dp3140
g54
(dp3141
g62
I3
ssg63
g3135
sg56
(lp3142
S"<open file '<stderr>', mode 'w' at 0x540b0>"
p3143
asbasbasbag49
(g65
g51
NtRp3144
(dp3145
g54
(dp3146
sg63
g2719
sg56
(lp3147
g49
(g70
g51
NtRp3148
(dp3149
g54
(dp3150
g74
g75
ssg63
g3144
sg56
(lp3151
S'wsgi.file_wrapper'
p3152
asbag49
(g70
g51
NtRp3153
(dp3154
g54
(dp3155
g81
g82
ssg63
g3144
sg56
(lp3156
S':'
asbag49
(g70
g51
NtRp3157
(dp3158
g54
(dp3159
sg63
g3144
sg56
(lp3160
g49
(g50
g51
NtRp3161
(dp3162
g54
(dp3163
g62
I3
ssg63
g3157
sg56
(lp3164
S'<class wsgiref.util.FileWrapper at 0x45782d0>'
p3165
asbasbasbag49
(g65
g51
NtRp3166
(dp3167
g54
(dp3168
sg63
g2719
sg56
(lp3169
g49
(g70
g51
NtRp3170
(dp3171
g54
(dp3172
g74
g75
ssg63
g3166
sg56
(lp3173
S'wsgi.input'
p3174
asbag49
(g70
g51
NtRp3175
(dp3176
g54
(dp3177
g81
g82
ssg63
g3166
sg56
(lp3178
S':'
asbag49
(g70
g51
NtRp3179
(dp3180
g54
(dp3181
sg63
g3166
sg56
(lp3182
g49
(g50
g51
NtRp3183
(dp3184
g54
(dp3185
g62
I3
ssg63
g3179
sg56
(lp3186
S'<cStringIO.StringO object at 0x9251780>'
p3187
asbasbasbag49
(g65
g51
NtRp3188
(dp3189
g54
(dp3190
sg63
g2719
sg56
(lp3191
g49
(g70
g51
NtRp3192
(dp3193
g54
(dp3194
g74
g75
ssg63
g3188
sg56
(lp3195
S'wsgi.multiprocess'
p3196
asbag49
(g70
g51
NtRp3197
(dp3198
g54
(dp3199
g81
g82
ssg63
g3188
sg56
(lp3200
S':'
asbag49
(g70
g51
NtRp3201
(dp3202
g54
(dp3203
sg63
g3188
sg56
(lp3204
g49
(g50
g51
NtRp3205
(dp3206
g54
(dp3207
g62
I3
ssg63
g3201
sg56
(lp3208
g92
asbasbasbag49
(g65
g51
NtRp3209
(dp3210
g54
(dp3211
sg63
g2719
sg56
(lp3212
g49
(g70
g51
NtRp3213
(dp3214
g54
(dp3215
g74
g75
ssg63
g3209
sg56
(lp3216
S'wsgi.multithread'
p3217
asbag49
(g70
g51
NtRp3218
(dp3219
g54
(dp3220
g81
g82
ssg63
g3209
sg56
(lp3221
S':'
asbag49
(g70
g51
NtRp3222
(dp3223
g54
(dp3224
sg63
g3209
sg56
(lp3225
g49
(g50
g51
NtRp3226
(dp3227
g54
(dp3228
g62
I3
ssg63
g3222
sg56
(lp3229
g1865
asbasbasbag49
(g65
g51
NtRp3230
(dp3231
g54
(dp3232
sg63
g2719
sg56
(lp3233
g49
(g70
g51
NtRp3234
(dp3235
g54
(dp3236
g74
g75
ssg63
g3230
sg56
(lp3237
S'wsgi.run_once'
p3238
asbag49
(g70
g51
NtRp3239
(dp3240
g54
(dp3241
g81
g82
ssg63
g3230
sg56
(lp3242
S':'
asbag49
(g70
g51
NtRp3243
(dp3244
g54
(dp3245
sg63
g3230
sg56
(lp3246
g49
(g50
g51
NtRp3247
(dp3248
g54
(dp3249
g62
I3
ssg63
g3243
sg56
(lp3250
g92
asbasbasbag49
(g65
g51
NtRp3251
(dp3252
g54
(dp3253
sg63
g2719
sg56
(lp3254
g49
(g70
g51
NtRp3255
(dp3256
g54
(dp3257
g74
g75
ssg63
g3251
sg56
(lp3258
S'wsgi.url_scheme'
p3259
asbag49
(g70
g51
NtRp3260
(dp3261
g54
(dp3262
g81
g82
ssg63
g3251
sg56
(lp3263
S':'
asbag49
(g70
g51
NtRp3264
(dp3265
g54
(dp3266
sg63
g3251
sg56
(lp3267
g49
(g50
g51
NtRp3268
(dp3269
g54
(dp3270
g62
I3
ssg63
g3264
sg56
(lp3271
g1908
asbasbasbag49
(g65
g51
NtRp3272
(dp3273
g54
(dp3274
sg63
g2719
sg56
(lp3275
g49
(g70
g51
NtRp3276
(dp3277
g54
(dp3278
g74
g75
ssg63
g3272
sg56
(lp3279
S'wsgi.version'
p3280
asbag49
(g70
g51
NtRp3281
(dp3282
g54
(dp3283
g81
g82
ssg63
g3272
sg56
(lp3284
S':'
asbag49
(g70
g51
NtRp3285
(dp3286
g54
(dp3287
sg63
g3272
sg56
(lp3288
g49
(g50
g51
NtRp3289
(dp3290
g54
(dp3291
g62
I3
ssg63
g3285
sg56
(lp3292
S'1'
asbasbasbasbasbasbasbasbasbasbasbasbasbsS'frames'
p3293
(lp3294
(dp3295
S'file'
p3296
S'/Users/abaric/Downloads/web2py/web2py.app/Contents/Resources/gluon/restricted.py'
p3297
sS'dump'
p3298
(dp3299
sS'lnum'
p3300
I212
sS'lines'
p3301
(dp3302
sS'call'
p3303
S'(code=r"response.write(\'<!DOCTYPE html>\\n<html>\\n<!-- pa... 5px #349C01 solid; }\\n</style>\\n\', escape=False)", environment={\'A\': <class \'gluon.html.A\'>, \'Auth\': <class \'gluon.tools.Auth\'>, \'B\': <class \'gluon.html.B\'>, \'BEAUTIFY\': <class \'gluon.html.BEAUTIFY\'>, \'BODY\': <class \'gluon.html.BODY\'>, \'BR\': <class \'gluon.html.BR\'>, \'BUTTON\': <class \'gluon.html.BUTTON\'>, \'CAT\': <class \'gluon.html.CAT\'>, \'CENTER\': <class \'gluon.html.CENTER\'>, \'CLEANUP\': <class \'gluon.validators.CLEANUP\'>, ...}, layer=\'/Users/abaric/Downloads/web2py/web2py.app/Conten..._Impulse/views/default/show_writing_comments.html\')'
p3304
sS'func'
p3305
S'restricted'
p3306
sa(dp3307
g3296
S'/Users/abaric/Downloads/web2py/web2py.app/Contents/Resources/applications/Final_Impulse/views/default/show_writing_comments.html'
p3308
sg3298
(dp3309
sg3300
I79
sg3301
(dp3310
I70
S'    response.write(\'\\n        <div class="span3 left-sidebar">\\n            \', escape=False)'
p3311
sI71
S"    response.write('\\n            <h3>Left Sidebar</h3>\\n            <p></p>\\n            ', escape=False)"
p3312
sI72
S"    response.write('\\n        </div>\\n        ', escape=False)"
p3313
sI73
S'    pass'
p3314
sI74
S'response.write(\'\\n\\n        <div class="\', escape=False)'
p3315
sI75
S'response.write(middle_columns)'
p3316
sI76
S'response.write(\'">\\n            \', escape=False)'
p3317
sI77
S"response.write('\\n            ', escape=False)"
p3318
sI78
S'response.write(\'\\n<body>\\n<a href=\\\'index.html\\\'><img width=\\\'30px\\\' src="\', escape=False)'
p3319
sI79
S"response.write(URL('download', args=image.file))"
p3320
sI80
S'response.write(\'"/></a>\\n    <h1><center>Writing Posts</center></h1>\\n\', escape=False)'
p3321
sI81
S'response.write(writing_form)'
p3322
sI82
S'response.write("\\n<br>\\n<table width=\'100%\'>\\n    ", escape=False)'
p3323
sI83
S'for writing in writings:'
p3324
sI84
S"    response.write('\\n    <tr> \\n        <td><h5><center><b><i><u>', escape=False)"
p3325
sI85
S'    response.write(writing.title.title())'
p3326
sI86
S"    response.write('</u></i></b></center></h5></td>\\n    </tr>\\n    \\n\\t<tr>  \\n        <td><center><pre>', escape=False)"
p3327
sI87
S'    response.write(writing.body)'
p3328
sI88
S"    response.write('</pre></center></td>\\n    </tr>\\n    \\n    ', escape=False)"
p3329
sI89
S'    if len(d[writing.id]):'
p3330
ssg3303
S'()'
p3331
sg3305
S'<module>'
p3332
sasS'pyver'
p3333
S'Python 2.5.1: /Users/abaric/Downloads/web2py/web2py.app/Contents/MacOS/python'
p3334
sS'session'
p3335
g49
(g50
g51
NtRp3336
(dp3337
g54
(dp3338
sg56
(lp3339
g49
(g58
g51
NtRp3340
(dp3341
g54
(dp3342
g62
I5
ssg63
Nsg56
(lp3343
g49
(g65
g51
NtRp3344
(dp3345
g54
(dp3346
sg63
g3340
sg56
(lp3347
g49
(g70
g51
NtRp3348
(dp3349
g54
(dp3350
g74
g75
ssg63
g3344
sg56
(lp3351
S'auth'
p3352
asbag49
(g70
g51
NtRp3353
(dp3354
g54
(dp3355
g81
g82
ssg63
g3344
sg56
(lp3356
S':'
asbag49
(g70
g51
NtRp3357
(dp3358
g54
(dp3359
sg63
g3344
sg56
(lp3360
g49
(g50
g51
NtRp3361
(dp3362
g54
(dp3363
g62
I5
ssg63
g3357
sg56
(lp3364
g49
(g58
g51
NtRp3365
(dp3366
g54
(dp3367
g62
I4
ssg63
Nsg56
(lp3368
g49
(g65
g51
NtRp3369
(dp3370
g54
(dp3371
sg63
g3365
sg56
(lp3372
g49
(g70
g51
NtRp3373
(dp3374
g54
(dp3375
g74
g75
ssg63
g3369
sg56
(lp3376
S'expiration'
p3377
asbag49
(g70
g51
NtRp3378
(dp3379
g54
(dp3380
g81
g82
ssg63
g3369
sg56
(lp3381
S':'
asbag49
(g70
g51
NtRp3382
(dp3383
g54
(dp3384
sg63
g3369
sg56
(lp3385
g49
(g50
g51
NtRp3386
(dp3387
g54
(dp3388
g62
I4
ssg63
g3382
sg56
(lp3389
S'3600'
p3390
asbasbasbag49
(g65
g51
NtRp3391
(dp3392
g54
(dp3393
sg63
g3365
sg56
(lp3394
g49
(g70
g51
NtRp3395
(dp3396
g54
(dp3397
g74
g75
ssg63
g3391
sg56
(lp3398
S'hmac_key'
p3399
asbag49
(g70
g51
NtRp3400
(dp3401
g54
(dp3402
g81
g82
ssg63
g3391
sg56
(lp3403
S':'
asbag49
(g70
g51
NtRp3404
(dp3405
g54
(dp3406
sg63
g3391
sg56
(lp3407
g49
(g50
g51
NtRp3408
(dp3409
g54
(dp3410
g62
I4
ssg63
g3404
sg56
(lp3411
S'709ba8ac-5fd5-4dfc-beac-bcb92aab83e0'
p3412
asbasbasbag49
(g65
g51
NtRp3413
(dp3414
g54
(dp3415
sg63
g3365
sg56
(lp3416
g49
(g70
g51
NtRp3417
(dp3418
g54
(dp3419
g74
g75
ssg63
g3413
sg56
(lp3420
S'last_visit'
p3421
asbag49
(g70
g51
NtRp3422
(dp3423
g54
(dp3424
g81
g82
ssg63
g3413
sg56
(lp3425
S':'
asbag49
(g70
g51
NtRp3426
(dp3427
g54
(dp3428
sg63
g3413
sg56
(lp3429
g49
(g50
g51
NtRp3430
(dp3431
g54
(dp3432
g62
I4
ssg63
g3426
sg56
(lp3433
S'datetime.datetime(2014, 6, 9, 10, 36, 33, 742413)'
p3434
asbasbasbag49
(g65
g51
NtRp3435
(dp3436
g54
(dp3437
sg63
g3365
sg56
(lp3438
g49
(g70
g51
NtRp3439
(dp3440
g54
(dp3441
g74
g75
ssg63
g3435
sg56
(lp3442
S'remember'
p3443
asbag49
(g70
g51
NtRp3444
(dp3445
g54
(dp3446
g81
g82
ssg63
g3435
sg56
(lp3447
S':'
asbag49
(g70
g51
NtRp3448
(dp3449
g54
(dp3450
sg63
g3435
sg56
(lp3451
g49
(g50
g51
NtRp3452
(dp3453
g54
(dp3454
g62
I4
ssg63
g3448
sg56
(lp3455
g92
asbasbasbag49
(g65
g51
NtRp3456
(dp3457
g54
(dp3458
sg63
g3365
sg56
(lp3459
g49
(g70
g51
NtRp3460
(dp3461
g54
(dp3462
g74
g75
ssg63
g3456
sg56
(lp3463
S'user'
p3464
asbag49
(g70
g51
NtRp3465
(dp3466
g54
(dp3467
g81
g82
ssg63
g3456
sg56
(lp3468
S':'
asbag49
(g70
g51
NtRp3469
(dp3470
g54
(dp3471
sg63
g3456
sg56
(lp3472
g49
(g50
g51
NtRp3473
(dp3474
g54
(dp3475
g62
I4
ssg63
g3469
sg56
(lp3476
g49
(g58
g51
NtRp3477
(dp3478
g54
(dp3479
g62
I3
ssg63
Nsg56
(lp3480
g49
(g65
g51
NtRp3481
(dp3482
g54
(dp3483
sg63
g3477
sg56
(lp3484
g49
(g70
g51
NtRp3485
(dp3486
g54
(dp3487
g74
g75
ssg63
g3481
sg56
(lp3488
S'email'
p3489
asbag49
(g70
g51
NtRp3490
(dp3491
g54
(dp3492
g81
g82
ssg63
g3481
sg56
(lp3493
S':'
asbag49
(g70
g51
NtRp3494
(dp3495
g54
(dp3496
sg63
g3481
sg56
(lp3497
g49
(g50
g51
NtRp3498
(dp3499
g54
(dp3500
g62
I3
ssg63
g3494
sg56
(lp3501
S'abaric@agnesirwin.org'
p3502
asbasbasbag49
(g65
g51
NtRp3503
(dp3504
g54
(dp3505
sg63
g3477
sg56
(lp3506
g49
(g70
g51
NtRp3507
(dp3508
g54
(dp3509
g74
g75
ssg63
g3503
sg56
(lp3510
S'first_name'
p3511
asbag49
(g70
g51
NtRp3512
(dp3513
g54
(dp3514
g81
g82
ssg63
g3503
sg56
(lp3515
S':'
asbag49
(g70
g51
NtRp3516
(dp3517
g54
(dp3518
sg63
g3503
sg56
(lp3519
g49
(g50
g51
NtRp3520
(dp3521
g54
(dp3522
g62
I3
ssg63
g3516
sg56
(lp3523
S'Andrea'
p3524
asbasbasbag49
(g65
g51
NtRp3525
(dp3526
g54
(dp3527
sg63
g3477
sg56
(lp3528
g49
(g70
g51
NtRp3529
(dp3530
g54
(dp3531
g74
g75
ssg63
g3525
sg56
(lp3532
S'id'
p3533
asbag49
(g70
g51
NtRp3534
(dp3535
g54
(dp3536
g81
g82
ssg63
g3525
sg56
(lp3537
S':'
asbag49
(g70
g51
NtRp3538
(dp3539
g54
(dp3540
sg63
g3525
sg56
(lp3541
g49
(g50
g51
NtRp3542
(dp3543
g54
(dp3544
g62
I3
ssg63
g3538
sg56
(lp3545
S'1'
asbasbasbag49
(g65
g51
NtRp3546
(dp3547
g54
(dp3548
sg63
g3477
sg56
(lp3549
g49
(g70
g51
NtRp3550
(dp3551
g54
(dp3552
g74
g75
ssg63
g3546
sg56
(lp3553
S'last_name'
p3554
asbag49
(g70
g51
NtRp3555
(dp3556
g54
(dp3557
g81
g82
ssg63
g3546
sg56
(lp3558
S':'
asbag49
(g70
g51
NtRp3559
(dp3560
g54
(dp3561
sg63
g3546
sg56
(lp3562
g49
(g50
g51
NtRp3563
(dp3564
g54
(dp3565
g62
I3
ssg63
g3559
sg56
(lp3566
S'Baric'
p3567
asbasbasbag49
(g65
g51
NtRp3568
(dp3569
g54
(dp3570
sg63
g3477
sg56
(lp3571
g49
(g70
g51
NtRp3572
(dp3573
g54
(dp3574
g74
g75
ssg63
g3568
sg56
(lp3575
S'registration_id'
p3576
asbag49
(g70
g51
NtRp3577
(dp3578
g54
(dp3579
g81
g82
ssg63
g3568
sg56
(lp3580
S':'
asbag49
(g70
g51
NtRp3581
(dp3582
g54
(dp3583
sg63
g3568
sg56
(lp3584
g49
(g50
g51
NtRp3585
(dp3586
g54
(dp3587
g62
I3
ssg63
g3581
sg56
(lp3588
S''
asbasbasbag49
(g65
g51
NtRp3589
(dp3590
g54
(dp3591
sg63
g3477
sg56
(lp3592
g49
(g70
g51
NtRp3593
(dp3594
g54
(dp3595
g74
g75
ssg63
g3589
sg56
(lp3596
S'registration_key'
p3597
asbag49
(g70
g51
NtRp3598
(dp3599
g54
(dp3600
g81
g82
ssg63
g3589
sg56
(lp3601
S':'
asbag49
(g70
g51
NtRp3602
(dp3603
g54
(dp3604
sg63
g3589
sg56
(lp3605
g49
(g50
g51
NtRp3606
(dp3607
g54
(dp3608
g62
I3
ssg63
g3602
sg56
(lp3609
S''
asbasbasbag49
(g65
g51
NtRp3610
(dp3611
g54
(dp3612
sg63
g3477
sg56
(lp3613
g49
(g70
g51
NtRp3614
(dp3615
g54
(dp3616
g74
g75
ssg63
g3610
sg56
(lp3617
S'reset_password_key'
p3618
asbag49
(g70
g51
NtRp3619
(dp3620
g54
(dp3621
g81
g82
ssg63
g3610
sg56
(lp3622
S':'
asbag49
(g70
g51
NtRp3623
(dp3624
g54
(dp3625
sg63
g3610
sg56
(lp3626
g49
(g50
g51
NtRp3627
(dp3628
g54
(dp3629
g62
I3
ssg63
g3623
sg56
(lp3630
S''
asbasbasbasbasbasbasbag49
(g65
g51
NtRp3631
(dp3632
g54
(dp3633
sg63
g3365
sg56
(lp3634
g49
(g70
g51
NtRp3635
(dp3636
g54
(dp3637
g74
g75
ssg63
g3631
sg56
(lp3638
S'user_groups'
p3639
asbag49
(g70
g51
NtRp3640
(dp3641
g54
(dp3642
g81
g82
ssg63
g3631
sg56
(lp3643
S':'
asbag49
(g70
g51
NtRp3644
(dp3645
g54
(dp3646
sg63
g3631
sg56
(lp3647
g49
(g50
g51
NtRp3648
(dp3649
g54
(dp3650
g62
I4
ssg63
g3644
sg56
(lp3651
g49
(g58
g51
NtRp3652
(dp3653
g54
(dp3654
g62
I3
ssg63
Nsg56
(lp3655
sbasbasbasbasbasbasbasbag49
(g65
g51
NtRp3656
(dp3657
g54
(dp3658
sg63
g3340
sg56
(lp3659
g49
(g70
g51
NtRp3660
(dp3661
g54
(dp3662
g74
g75
ssg63
g3656
sg56
(lp3663
S'flash'
p3664
asbag49
(g70
g51
NtRp3665
(dp3666
g54
(dp3667
g81
g82
ssg63
g3656
sg56
(lp3668
S':'
asbag49
(g70
g51
NtRp3669
(dp3670
g54
(dp3671
sg63
g3656
sg56
(lp3672
g49
(g50
g51
NtRp3673
(dp3674
g54
(dp3675
g62
I5
ssg63
g3669
sg56
(lp3676
S'None'
p3677
asbasbasbag49
(g65
g51
NtRp3678
(dp3679
g54
(dp3680
sg63
g3340
sg56
(lp3681
g49
(g70
g51
NtRp3682
(dp3683
g54
(dp3684
g74
g75
ssg63
g3678
sg56
(lp3685
S'last_orderby'
p3686
asbag49
(g70
g51
NtRp3687
(dp3688
g54
(dp3689
g81
g82
ssg63
g3678
sg56
(lp3690
S':'
asbag49
(g70
g51
NtRp3691
(dp3692
g54
(dp3693
sg63
g3678
sg56
(lp3694
g49
(g50
g51
NtRp3695
(dp3696
g54
(dp3697
g62
I5
ssg63
g3691
sg56
(lp3698
S'None'
p3699
asbasbasbag49
(g65
g51
NtRp3700
(dp3701
g54
(dp3702
sg63
g3340
sg56
(lp3703
g49
(g70
g51
NtRp3704
(dp3705
g54
(dp3706
g74
g75
ssg63
g3700
sg56
(lp3707
S'last_query'
p3708
asbag49
(g70
g51
NtRp3709
(dp3710
g54
(dp3711
g81
g82
ssg63
g3700
sg56
(lp3712
S':'
asbag49
(g70
g51
NtRp3713
(dp3714
g54
(dp3715
sg63
g3700
sg56
(lp3716
g49
(g50
g51
NtRp3717
(dp3718
g54
(dp3719
g62
I5
ssg63
g3713
sg56
(lp3720
S'db.image.id>0'
p3721
asbasbasbasbasbsS'etype'
p3722
S"<type 'exceptions.NameError'>"
p3723
sS'date'
p3724
S'Mon Jun  9 10:37:46 2014'
p3725
sS'response'
p3726
g49
(g50
g51
NtRp3727
(dp3728
g54
(dp3729
sg56
(lp3730
g49
(g58
g51
NtRp3731
(dp3732
g54
(dp3733
g62
I5
ssg63
Nsg56
(lp3734
g49
(g65
g51
NtRp3735
(dp3736
g54
(dp3737
sg63
g3731
sg56
(lp3738
g49
(g70
g51
NtRp3739
(dp3740
g54
(dp3741
g74
g75
ssg63
g3735
sg56
(lp3742
g147
asbag49
(g70
g51
NtRp3743
(dp3744
g54
(dp3745
g81
g82
ssg63
g3735
sg56
(lp3746
S':'
asbag49
(g70
g51
NtRp3747
(dp3748
g54
(dp3749
sg63
g3735
sg56
(lp3750
g49
(g50
g51
NtRp3751
(dp3752
g54
(dp3753
g62
I5
ssg63
g3747
sg56
(lp3754
S'<cStringIO.StringO object at 0x92ad420>'
p3755
asbasbasbag49
(g65
g51
NtRp3756
(dp3757
g54
(dp3758
sg63
g3731
sg56
(lp3759
g49
(g70
g51
NtRp3760
(dp3761
g54
(dp3762
g74
g75
ssg63
g3756
sg56
(lp3763
g235
asbag49
(g70
g51
NtRp3764
(dp3765
g54
(dp3766
g81
g82
ssg63
g3756
sg56
(lp3767
S':'
asbag49
(g70
g51
NtRp3768
(dp3769
g54
(dp3770
sg63
g3756
sg56
(lp3771
g49
(g50
g51
NtRp3772
(dp3773
g54
(dp3774
g62
I5
ssg63
g3768
sg56
(lp3775
g49
(g58
g51
NtRp3776
(dp3777
g54
(dp3778
g62
I4
ssg63
Nsg56
(lp3779
g49
(g65
g51
NtRp3780
(dp3781
g54
(dp3782
sg63
g3776
sg56
(lp3783
g49
(g70
g51
NtRp3784
(dp3785
g54
(dp3786
g74
g75
ssg63
g3780
sg56
(lp3787
S'session_id_final_impulse'
p3788
asbag49
(g70
g51
NtRp3789
(dp3790
g54
(dp3791
g81
g82
ssg63
g3780
sg56
(lp3792
S':'
asbag49
(g70
g51
NtRp3793
(dp3794
g54
(dp3795
sg63
g3780
sg56
(lp3796
g49
(g50
g51
NtRp3797
(dp3798
g54
(dp3799
g62
I4
ssg63
g3793
sg56
(lp3800
g612
ag49
(g58
g51
NtRp3801
(dp3802
g54
(dp3803
g62
I3
ssg63
Nsg56
(lp3804
g49
(g65
g51
NtRp3805
(dp3806
g54
(dp3807
sg63
g3801
sg56
(lp3808
g49
(g70
g51
NtRp3809
(dp3810
g54
(dp3811
g74
g75
ssg63
g3805
sg56
(lp3812
g286
asbag49
(g70
g51
NtRp3813
(dp3814
g54
(dp3815
g81
g82
ssg63
g3805
sg56
(lp3816
S':'
asbag49
(g70
g51
NtRp3817
(dp3818
g54
(dp3819
sg63
g3805
sg56
(lp3820
g49
(g50
g51
NtRp3821
(dp3822
g54
(dp3823
g62
I3
ssg63
g3817
sg56
(lp3824
S''
asbasbasbag49
(g65
g51
NtRp3825
(dp3826
g54
(dp3827
sg63
g3801
sg56
(lp3828
g49
(g70
g51
NtRp3829
(dp3830
g54
(dp3831
g74
g75
ssg63
g3825
sg56
(lp3832
g307
asbag49
(g70
g51
NtRp3833
(dp3834
g54
(dp3835
g81
g82
ssg63
g3825
sg56
(lp3836
S':'
asbag49
(g70
g51
NtRp3837
(dp3838
g54
(dp3839
sg63
g3825
sg56
(lp3840
g49
(g50
g51
NtRp3841
(dp3842
g54
(dp3843
g62
I3
ssg63
g3837
sg56
(lp3844
S''
asbasbasbag49
(g65
g51
NtRp3845
(dp3846
g54
(dp3847
sg63
g3801
sg56
(lp3848
g49
(g70
g51
NtRp3849
(dp3850
g54
(dp3851
g74
g75
ssg63
g3845
sg56
(lp3852
g328
asbag49
(g70
g51
NtRp3853
(dp3854
g54
(dp3855
g81
g82
ssg63
g3845
sg56
(lp3856
S':'
asbag49
(g70
g51
NtRp3857
(dp3858
g54
(dp3859
sg63
g3845
sg56
(lp3860
g49
(g50
g51
NtRp3861
(dp3862
g54
(dp3863
g62
I3
ssg63
g3857
sg56
(lp3864
S''
asbasbasbag49
(g65
g51
NtRp3865
(dp3866
g54
(dp3867
sg63
g3801
sg56
(lp3868
g49
(g70
g51
NtRp3869
(dp3870
g54
(dp3871
g74
g75
ssg63
g3865
sg56
(lp3872
g349
asbag49
(g70
g51
NtRp3873
(dp3874
g54
(dp3875
g81
g82
ssg63
g3865
sg56
(lp3876
S':'
asbag49
(g70
g51
NtRp3877
(dp3878
g54
(dp3879
sg63
g3865
sg56
(lp3880
g49
(g50
g51
NtRp3881
(dp3882
g54
(dp3883
g62
I3
ssg63
g3877
sg56
(lp3884
S''
asbasbasbag49
(g65
g51
NtRp3885
(dp3886
g54
(dp3887
sg63
g3801
sg56
(lp3888
g49
(g70
g51
NtRp3889
(dp3890
g54
(dp3891
g74
g75
ssg63
g3885
sg56
(lp3892
g370
asbag49
(g70
g51
NtRp3893
(dp3894
g54
(dp3895
g81
g82
ssg63
g3885
sg56
(lp3896
S':'
asbag49
(g70
g51
NtRp3897
(dp3898
g54
(dp3899
sg63
g3885
sg56
(lp3900
g49
(g50
g51
NtRp3901
(dp3902
g54
(dp3903
g62
I3
ssg63
g3897
sg56
(lp3904
S'/'
asbasbasbag49
(g65
g51
NtRp3905
(dp3906
g54
(dp3907
sg63
g3801
sg56
(lp3908
g49
(g70
g51
NtRp3909
(dp3910
g54
(dp3911
g74
g75
ssg63
g3905
sg56
(lp3912
g391
asbag49
(g70
g51
NtRp3913
(dp3914
g54
(dp3915
g81
g82
ssg63
g3905
sg56
(lp3916
S':'
asbag49
(g70
g51
NtRp3917
(dp3918
g54
(dp3919
sg63
g3905
sg56
(lp3920
g49
(g50
g51
NtRp3921
(dp3922
g54
(dp3923
g62
I3
ssg63
g3917
sg56
(lp3924
S''
asbasbasbag49
(g65
g51
NtRp3925
(dp3926
g54
(dp3927
sg63
g3801
sg56
(lp3928
g49
(g70
g51
NtRp3929
(dp3930
g54
(dp3931
g74
g75
ssg63
g3925
sg56
(lp3932
g412
asbag49
(g70
g51
NtRp3933
(dp3934
g54
(dp3935
g81
g82
ssg63
g3925
sg56
(lp3936
S':'
asbag49
(g70
g51
NtRp3937
(dp3938
g54
(dp3939
sg63
g3925
sg56
(lp3940
g49
(g50
g51
NtRp3941
(dp3942
g54
(dp3943
g62
I3
ssg63
g3937
sg56
(lp3944
S''
asbasbasbasbasbasbasbasbasbasbasbag49
(g65
g51
NtRp3945
(dp3946
g54
(dp3947
sg63
g3731
sg56
(lp3948
g49
(g70
g51
NtRp3949
(dp3950
g54
(dp3951
g74
g75
ssg63
g3945
sg56
(lp3952
S'delimiters'
p3953
asbag49
(g70
g51
NtRp3954
(dp3955
g54
(dp3956
g81
g82
ssg63
g3945
sg56
(lp3957
S':'
asbag49
(g70
g51
NtRp3958
(dp3959
g54
(dp3960
sg63
g3945
sg56
(lp3961
g49
(g50
g51
NtRp3962
(dp3963
g54
(dp3964
g62
I5
ssg63
g3958
sg56
(lp3965
g49
(g58
g51
NtRp3966
(dp3967
g54
(dp3968
g62
I4
ssg63
Nsg56
(lp3969
g49
(g65
g51
NtRp3970
(dp3971
g54
(dp3972
sg63
g3966
sg56
(lp3973
g49
(g70
g51
NtRp3974
(dp3975
g54
(dp3976
sg63
g3970
sg56
(lp3977
g49
(g50
g51
NtRp3978
(dp3979
g54
(dp3980
g62
I4
ssg63
g3974
sg56
(lp3981
S'{{'
p3982
asbasbasbag49
(g65
g51
NtRp3983
(dp3984
g54
(dp3985
sg63
g3966
sg56
(lp3986
g49
(g70
g51
NtRp3987
(dp3988
g54
(dp3989
sg63
g3983
sg56
(lp3990
g49
(g50
g51
NtRp3991
(dp3992
g54
(dp3993
g62
I4
ssg63
g3987
sg56
(lp3994
S'}}'
p3995
asbasbasbasbasbasbasbag49
(g65
g51
NtRp3996
(dp3997
g54
(dp3998
sg63
g3731
sg56
(lp3999
g49
(g70
g51
NtRp4000
(dp4001
g54
(dp4002
g74
g75
ssg63
g3996
sg56
(lp4003
S'files'
p4004
asbag49
(g70
g51
NtRp4005
(dp4006
g54
(dp4007
g81
g82
ssg63
g3996
sg56
(lp4008
S':'
asbag49
(g70
g51
NtRp4009
(dp4010
g54
(dp4011
sg63
g3996
sg56
(lp4012
g49
(g50
g51
NtRp4013
(dp4014
g54
(dp4015
g62
I5
ssg63
g4009
sg56
(lp4016
g49
(g58
g51
NtRp4017
(dp4018
g54
(dp4019
g62
I4
ssg63
Nsg56
(lp4020
g49
(g65
g51
NtRp4021
(dp4022
g54
(dp4023
sg63
g4017
sg56
(lp4024
g49
(g70
g51
NtRp4025
(dp4026
g54
(dp4027
sg63
g4021
sg56
(lp4028
g49
(g50
g51
NtRp4029
(dp4030
g54
(dp4031
g62
I4
ssg63
g4025
sg56
(lp4032
S'/Final_Impulse/static/js/jquery.js'
p4033
asbasbasbag49
(g65
g51
NtRp4034
(dp4035
g54
(dp4036
sg63
g4017
sg56
(lp4037
g49
(g70
g51
NtRp4038
(dp4039
g54
(dp4040
sg63
g4034
sg56
(lp4041
g49
(g50
g51
NtRp4042
(dp4043
g54
(dp4044
g62
I4
ssg63
g4038
sg56
(lp4045
S'/Final_Impulse/static/css/calendar.css'
p4046
asbasbasbag49
(g65
g51
NtRp4047
(dp4048
g54
(dp4049
sg63
g4017
sg56
(lp4050
g49
(g70
g51
NtRp4051
(dp4052
g54
(dp4053
sg63
g4047
sg56
(lp4054
g49
(g50
g51
NtRp4055
(dp4056
g54
(dp4057
g62
I4
ssg63
g4051
sg56
(lp4058
S'/Final_Impulse/static/js/calendar.js'
p4059
asbasbasbag49
(g65
g51
NtRp4060
(dp4061
g54
(dp4062
sg63
g4017
sg56
(lp4063
g49
(g70
g51
NtRp4064
(dp4065
g54
(dp4066
sg63
g4060
sg56
(lp4067
g49
(g50
g51
NtRp4068
(dp4069
g54
(dp4070
g62
I4
ssg63
g4064
sg56
(lp4071
S'/Final_Impulse/static/js/web2py.js'
p4072
asbasbasbag49
(g65
g51
NtRp4073
(dp4074
g54
(dp4075
sg63
g4017
sg56
(lp4076
g49
(g70
g51
NtRp4077
(dp4078
g54
(dp4079
sg63
g4073
sg56
(lp4080
g49
(g50
g51
NtRp4081
(dp4082
g54
(dp4083
g62
I4
ssg63
g4077
sg56
(lp4084
S'/Final_Impulse/static/css/web2py.css'
p4085
asbasbasbag49
(g65
g51
NtRp4086
(dp4087
g54
(dp4088
sg63
g4017
sg56
(lp4089
g49
(g70
g51
NtRp4090
(dp4091
g54
(dp4092
sg63
g4086
sg56
(lp4093
g49
(g50
g51
NtRp4094
(dp4095
g54
(dp4096
g62
I4
ssg63
g4090
sg56
(lp4097
S'/Final_Impulse/static/css/bootstrap.min.css'
p4098
asbasbasbag49
(g65
g51
NtRp4099
(dp4100
g54
(dp4101
sg63
g4017
sg56
(lp4102
g49
(g70
g51
NtRp4103
(dp4104
g54
(dp4105
sg63
g4099
sg56
(lp4106
g49
(g50
g51
NtRp4107
(dp4108
g54
(dp4109
g62
I4
ssg63
g4103
sg56
(lp4110
S'/Final_Impulse/static/css/bootstrap-responsive.min.css'
p4111
asbasbasbag49
(g65
g51
NtRp4112
(dp4113
g54
(dp4114
sg63
g4017
sg56
(lp4115
g49
(g70
g51
NtRp4116
(dp4117
g54
(dp4118
sg63
g4112
sg56
(lp4119
g49
(g50
g51
NtRp4120
(dp4121
g54
(dp4122
g62
I4
ssg63
g4116
sg56
(lp4123
S'/Final_Impulse/static/css/web2py_bootstrap.css'
p4124
asbasbasbasbasbasbasbag49
(g65
g51
NtRp4125
(dp4126
g54
(dp4127
sg63
g3731
sg56
(lp4128
g49
(g70
g51
NtRp4129
(dp4130
g54
(dp4131
g74
g75
ssg63
g4125
sg56
(lp4132
S'flash'
p4133
asbag49
(g70
g51
NtRp4134
(dp4135
g54
(dp4136
g81
g82
ssg63
g4125
sg56
(lp4137
S':'
asbag49
(g70
g51
NtRp4138
(dp4139
g54
(dp4140
sg63
g4125
sg56
(lp4141
g49
(g50
g51
NtRp4142
(dp4143
g54
(dp4144
g62
I5
ssg63
g4138
sg56
(lp4145
S''
asbasbasbag49
(g65
g51
NtRp4146
(dp4147
g54
(dp4148
sg63
g3731
sg56
(lp4149
g49
(g70
g51
NtRp4150
(dp4151
g54
(dp4152
g74
g75
ssg63
g4146
sg56
(lp4153
S'generic_patterns'
p4154
asbag49
(g70
g51
NtRp4155
(dp4156
g54
(dp4157
g81
g82
ssg63
g4146
sg56
(lp4158
S':'
asbag49
(g70
g51
NtRp4159
(dp4160
g54
(dp4161
sg63
g4146
sg56
(lp4162
g49
(g50
g51
NtRp4163
(dp4164
g54
(dp4165
g62
I5
ssg63
g4159
sg56
(lp4166
g49
(g58
g51
NtRp4167
(dp4168
g54
(dp4169
g62
I4
ssg63
Nsg56
(lp4170
sbasbasbasbag49
(g65
g51
NtRp4171
(dp4172
g54
(dp4173
sg63
g3731
sg56
(lp4174
g49
(g70
g51
NtRp4175
(dp4176
g54
(dp4177
g74
g75
ssg63
g4171
sg56
(lp4178
S'google_analytics_id'
p4179
asbag49
(g70
g51
NtRp4180
(dp4181
g54
(dp4182
g81
g82
ssg63
g4171
sg56
(lp4183
S':'
asbag49
(g70
g51
NtRp4184
(dp4185
g54
(dp4186
sg63
g4171
sg56
(lp4187
g49
(g50
g51
NtRp4188
(dp4189
g54
(dp4190
g62
I5
ssg63
g4184
sg56
(lp4191
S'None'
p4192
asbasbasbag49
(g65
g51
NtRp4193
(dp4194
g54
(dp4195
sg63
g3731
sg56
(lp4196
g49
(g70
g51
NtRp4197
(dp4198
g54
(dp4199
g74
g75
ssg63
g4193
sg56
(lp4200
S'headers'
p4201
asbag49
(g70
g51
NtRp4202
(dp4203
g54
(dp4204
g81
g82
ssg63
g4193
sg56
(lp4205
S':'
asbag49
(g70
g51
NtRp4206
(dp4207
g54
(dp4208
sg63
g4193
sg56
(lp4209
g49
(g50
g51
NtRp4210
(dp4211
g54
(dp4212
g62
I5
ssg63
g4206
sg56
(lp4213
g49
(g58
g51
NtRp4214
(dp4215
g54
(dp4216
g62
I4
ssg63
Nsg56
(lp4217
g49
(g65
g51
NtRp4218
(dp4219
g54
(dp4220
sg63
g4214
sg56
(lp4221
g49
(g70
g51
NtRp4222
(dp4223
g54
(dp4224
g74
g75
ssg63
g4218
sg56
(lp4225
S'X-Powered-By'
p4226
asbag49
(g70
g51
NtRp4227
(dp4228
g54
(dp4229
g81
g82
ssg63
g4218
sg56
(lp4230
S':'
asbag49
(g70
g51
NtRp4231
(dp4232
g54
(dp4233
sg63
g4218
sg56
(lp4234
g49
(g50
g51
NtRp4235
(dp4236
g54
(dp4237
g62
I4
ssg63
g4231
sg56
(lp4238
S'web2py'
p4239
asbasbasbasbasbasbasbag49
(g65
g51
NtRp4240
(dp4241
g54
(dp4242
sg63
g3731
sg56
(lp4243
g49
(g70
g51
NtRp4244
(dp4245
g54
(dp4246
g74
g75
ssg63
g4240
sg56
(lp4247
S'menu'
p4248
asbag49
(g70
g51
NtRp4249
(dp4250
g54
(dp4251
g81
g82
ssg63
g4240
sg56
(lp4252
S':'
asbag49
(g70
g51
NtRp4253
(dp4254
g54
(dp4255
sg63
g4240
sg56
(lp4256
g49
(g50
g51
NtRp4257
(dp4258
g54
(dp4259
g62
I5
ssg63
g4253
sg56
(lp4260
g49
(g58
g51
NtRp4261
(dp4262
g54
(dp4263
g62
I4
ssg63
Nsg56
(lp4264
g49
(g65
g51
NtRp4265
(dp4266
g54
(dp4267
sg63
g4261
sg56
(lp4268
g49
(g70
g51
NtRp4269
(dp4270
g54
(dp4271
sg63
g4265
sg56
(lp4272
g49
(g50
g51
NtRp4273
(dp4274
g54
(dp4275
g62
I4
ssg63
g4269
sg56
(lp4276
g49
(g58
g51
NtRp4277
(dp4278
g54
(dp4279
g62
I3
ssg63
Nsg56
(lp4280
g49
(g65
g51
NtRp4281
(dp4282
g54
(dp4283
sg63
g4277
sg56
(lp4284
g49
(g70
g51
NtRp4285
(dp4286
g54
(dp4287
sg63
g4281
sg56
(lp4288
g49
(g50
g51
NtRp4289
(dp4290
g54
(dp4291
g62
I3
ssg63
g4285
sg56
(lp4292
cgluon.languages
lazyT_unpickle
p4293
(S't\x04\x00\x00\x00Home'
tRp4294
asbasbasbag49
(g65
g51
NtRp4295
(dp4296
g54
(dp4297
sg63
g4277
sg56
(lp4298
g49
(g70
g51
NtRp4299
(dp4300
g54
(dp4301
sg63
g4295
sg56
(lp4302
g49
(g50
g51
NtRp4303
(dp4304
g54
(dp4305
g62
I3
ssg63
g4299
sg56
(lp4306
g92
asbasbasbag49
(g65
g51
NtRp4307
(dp4308
g54
(dp4309
sg63
g4277
sg56
(lp4310
g49
(g70
g51
NtRp4311
(dp4312
g54
(dp4313
sg63
g4307
sg56
(lp4314
g49
(g50
g51
NtRp4315
(dp4316
g54
(dp4317
g62
I3
ssg63
g4311
sg56
(lp4318
S'/Final_Impulse/default/index'
p4319
asbasbasbag49
(g65
g51
NtRp4320
(dp4321
g54
(dp4322
sg63
g4277
sg56
(lp4323
g49
(g70
g51
NtRp4324
(dp4325
g54
(dp4326
sg63
g4320
sg56
(lp4327
g49
(g50
g51
NtRp4328
(dp4329
g54
(dp4330
g62
I3
ssg63
g4324
sg56
(lp4331
g49
(g58
g51
NtRp4332
(dp4333
g54
(dp4334
g62
I2
ssg63
Nsg56
(lp4335
sbasbasbasbasbasbasbasbag49
(g65
g51
NtRp4336
(dp4337
g54
(dp4338
sg63
g4261
sg56
(lp4339
g49
(g70
g51
NtRp4340
(dp4341
g54
(dp4342
sg63
g4336
sg56
(lp4343
g49
(g50
g51
NtRp4344
(dp4345
g54
(dp4346
g62
I4
ssg63
g4340
sg56
(lp4347
g49
(g58
g51
NtRp4348
(dp4349
g54
(dp4350
g62
I3
ssg63
Nsg56
(lp4351
g49
(g65
g51
NtRp4352
(dp4353
g54
(dp4354
sg63
g4348
sg56
(lp4355
g49
(g70
g51
NtRp4356
(dp4357
g54
(dp4358
sg63
g4352
sg56
(lp4359
g49
(g50
g51
NtRp4360
(dp4361
g54
(dp4362
g62
I3
ssg63
g4356
sg56
(lp4363
g49
(cgluon.html
SPAN
p4364
g51
NtRp4365
(dp4366
g54
(dp4367
S'_class'
p4368
S'highlighted'
p4369
ssg63
g49
(cgluon.html
A
p4370
g51
NtRp4371
(dp4372
g54
(dp4373
S'_href'
p4374
S'http://web2py.com'
p4375
ssg63
g49
(cgluon.html
LI
p4376
g51
NtRp4377
(dp4378
g54
(dp4379
g4368
S'dropdown'
p4380
ssg63
g49
(cgluon.html
UL
p4381
g51
NtRp4382
(dp4383
g54
(dp4384
S'li_class'
p4385
g4380
sS'mobile'
p4386
I00
sg4368
S'nav'
p4387
sS'ul_class'
p4388
S'dropdown-menu'
p4389
sS'li_active'
p4390
S'web2py-menu-active'
p4391
ssg63
Nsg56
(lp4392
g49
(g4376
g51
NtRp4393
(dp4394
g54
(dp4395
sg63
g4382
sg56
(lp4396
g49
(g4370
g51
NtRp4397
(dp4398
g54
(dp4399
g4374
g4319
ssg63
g4393
sg56
(lp4400
g4294
asbasbag4377
asbsg56
(lp4401
g4371
ag49
(g4381
g51
NtRp4402
(dp4403
g54
(dp4404
g4368
g4389
ssg63
g4377
sg56
(lp4405
g49
(g4376
g51
NtRp4406
(dp4407
g54
(dp4408
sg63
g4402
sg56
(lp4409
g49
(g4370
g51
NtRp4410
(dp4411
g54
(dp4412
g4374
S'/admin/default/site'
p4413
ssg63
g4406
sg56
(lp4414
g4293
(S's\x08\x00\x00\x00My Sites'
tRp4415
asbasbag49
(g4376
g51
NtRp4416
(dp4417
g54
(dp4418
g4368
g4380
ssg63
g4402
sg56
(lp4419
g49
(g4370
g51
NtRp4420
(dp4421
g54
(dp4422
g4374
S'/admin/default/design/Final_Impulse'
p4423
ssg63
g4416
sg56
(lp4424
g4293
(S's\x08\x00\x00\x00This App'
tRp4425
asbag49
(g4381
g51
NtRp4426
(dp4427
g54
(dp4428
g4368
g4389
ssg63
g4416
sg56
(lp4429
g49
(g4376
g51
NtRp4430
(dp4431
g54
(dp4432
sg63
g4426
sg56
(lp4433
g49
(g4370
g51
NtRp4434
(dp4435
g54
(dp4436
g4374
S'/admin/default/edit/Final_Impulse/controllers/default.py'
p4437
ssg63
g4430
sg56
(lp4438
g4293
(S't\n\x00\x00\x00Controller'
tRp4439
asbasbag49
(g4376
g51
NtRp4440
(dp4441
g54
(dp4442
sg63
g4426
sg56
(lp4443
g49
(g4370
g51
NtRp4444
(dp4445
g54
(dp4446
g4374
S'/admin/default/edit/Final_Impulse/views/default/show_writing_comments.html'
p4447
ssg63
g4440
sg56
(lp4448
g4293
(S't\x04\x00\x00\x00View'
tRp4449
asbasbag49
(g4376
g51
NtRp4450
(dp4451
g54
(dp4452
sg63
g4426
sg56
(lp4453
g49
(g4370
g51
NtRp4454
(dp4455
g54
(dp4456
g4374
S'/admin/default/edit/Final_Impulse/views/layout.html'
p4457
ssg63
g4450
sg56
(lp4458
g4293
(S't\x06\x00\x00\x00Layout'
tRp4459
asbasbag49
(g4376
g51
NtRp4460
(dp4461
g54
(dp4462
sg63
g4426
sg56
(lp4463
g49
(g4370
g51
NtRp4464
(dp4465
g54
(dp4466
g4374
S'/admin/default/edit/Final_Impulse/static/css/web2py.css'
p4467
ssg63
g4460
sg56
(lp4468
g4293
(S't\n\x00\x00\x00Stylesheet'
tRp4469
asbasbag49
(g4376
g51
NtRp4470
(dp4471
g54
(dp4472
sg63
g4426
sg56
(lp4473
g49
(g4370
g51
NtRp4474
(dp4475
g54
(dp4476
g4374
S'/admin/default/edit/Final_Impulse/models/db.py'
p4477
ssg63
g4470
sg56
(lp4478
g4293
(S's\x08\x00\x00\x00DB Model'
tRp4479
asbasbag49
(g4376
g51
NtRp4480
(dp4481
g54
(dp4482
sg63
g4426
sg56
(lp4483
g49
(g4370
g51
NtRp4484
(dp4485
g54
(dp4486
g4374
S'/admin/default/edit/Final_Impulse/models/menu.py'
p4487
ssg63
g4480
sg56
(lp4488
g4293
(S's\n\x00\x00\x00Menu Model'
tRp4489
asbasbag49
(g4376
g51
NtRp4490
(dp4491
g54
(dp4492
sg63
g4426
sg56
(lp4493
g49
(g4370
g51
NtRp4494
(dp4495
g54
(dp4496
g4374
S'/Final_Impulse/appadmin/index'
p4497
ssg63
g4490
sg56
(lp4498
g4293
(S't\x08\x00\x00\x00Database'
tRp4499
asbasbag49
(g4376
g51
NtRp4500
(dp4501
g54
(dp4502
sg63
g4426
sg56
(lp4503
g49
(g4370
g51
NtRp4504
(dp4505
g54
(dp4506
g4374
S'/admin/default/errors/Final_Impulse'
p4507
ssg63
g4500
sg56
(lp4508
g4293
(S't\x06\x00\x00\x00Errors'
tRp4509
asbasbag49
(g4376
g51
NtRp4510
(dp4511
g54
(dp4512
sg63
g4426
sg56
(lp4513
g49
(g4370
g51
NtRp4514
(dp4515
g54
(dp4516
g4374
S'/admin/default/about/Final_Impulse'
p4517
ssg63
g4510
sg56
(lp4518
g4293
(S't\x05\x00\x00\x00About'
tRp4519
asbasbasbasbag49
(g4376
g51
NtRp4520
(dp4521
g54
(dp4522
g4368
g4380
ssg63
g4402
sg56
(lp4523
g49
(g4370
g51
NtRp4524
(dp4525
g54
(dp4526
g4374
S'http://www.web2py.com'
p4527
ssg63
g4520
sg56
(lp4528
S'web2py.com'
p4529
asbag49
(g4381
g51
NtRp4530
(dp4531
g54
(dp4532
g4368
g4389
ssg63
g4520
sg56
(lp4533
g49
(g4376
g51
NtRp4534
(dp4535
g54
(dp4536
sg63
g4530
sg56
(lp4537
g49
(g4370
g51
NtRp4538
(dp4539
g54
(dp4540
g4374
S'http://www.web2py.com/examples/default/download'
p4541
ssg63
g4534
sg56
(lp4542
g4293
(S't\x08\x00\x00\x00Download'
tRp4543
asbasbag49
(g4376
g51
NtRp4544
(dp4545
g54
(dp4546
sg63
g4530
sg56
(lp4547
g49
(g4370
g51
NtRp4548
(dp4549
g54
(dp4550
g4374
S'http://www.web2py.com/examples/default/support'
p4551
ssg63
g4544
sg56
(lp4552
g4293
(S't\x07\x00\x00\x00Support'
tRp4553
asbasbag49
(g4376
g51
NtRp4554
(dp4555
g54
(dp4556
sg63
g4530
sg56
(lp4557
g49
(g4370
g51
NtRp4558
(dp4559
g54
(dp4560
g4374
S'http://web2py.com/demo_admin'
p4561
ssg63
g4554
sg56
(lp4562
g4293
(S't\x04\x00\x00\x00Demo'
tRp4563
asbasbag49
(g4376
g51
NtRp4564
(dp4565
g54
(dp4566
sg63
g4530
sg56
(lp4567
g49
(g4370
g51
NtRp4568
(dp4569
g54
(dp4570
g4374
S'http://web2py.com/examples/default/examples'
p4571
ssg63
g4564
sg56
(lp4572
g4293
(S's\x0e\x00\x00\x00Quick Examples'
tRp4573
asbasbag49
(g4376
g51
NtRp4574
(dp4575
g54
(dp4576
sg63
g4530
sg56
(lp4577
g49
(g4370
g51
NtRp4578
(dp4579
g54
(dp4580
g4374
S'http://web2py.com/AlterEgo'
p4581
ssg63
g4574
sg56
(lp4582
g4293
(S't\x03\x00\x00\x00FAQ'
tRp4583
asbasbag49
(g4376
g51
NtRp4584
(dp4585
g54
(dp4586
sg63
g4530
sg56
(lp4587
g49
(g4370
g51
NtRp4588
(dp4589
g54
(dp4590
g4374
S'http://www.web2py.com/examples/default/videos/'
p4591
ssg63
g4584
sg56
(lp4592
g4293
(S't\x06\x00\x00\x00Videos'
tRp4593
asbasbag49
(g4376
g51
NtRp4594
(dp4595
g54
(dp4596
sg63
g4530
sg56
(lp4597
g49
(g4370
g51
NtRp4598
(dp4599
g54
(dp4600
g4374
S'http://web2py.com/appliances'
p4601
ssg63
g4594
sg56
(lp4602
g4293
(S's\x11\x00\x00\x00Free Applications'
tRp4603
asbasbag49
(g4376
g51
NtRp4604
(dp4605
g54
(dp4606
sg63
g4530
sg56
(lp4607
g49
(g4370
g51
NtRp4608
(dp4609
g54
(dp4610
g4374
S'http://web2py.com/plugins'
p4611
ssg63
g4604
sg56
(lp4612
g4293
(S't\x07\x00\x00\x00Plugins'
tRp4613
asbasbag49
(g4376
g51
NtRp4614
(dp4615
g54
(dp4616
sg63
g4530
sg56
(lp4617
g49
(g4370
g51
NtRp4618
(dp4619
g54
(dp4620
g4374
S'http://web2py.com/layouts'
p4621
ssg63
g4614
sg56
(lp4622
g4293
(S't\x07\x00\x00\x00Layouts'
tRp4623
asbasbag49
(g4376
g51
NtRp4624
(dp4625
g54
(dp4626
sg63
g4530
sg56
(lp4627
g49
(g4370
g51
NtRp4628
(dp4629
g54
(dp4630
g4374
S'http://web2pyslices.com/'
p4631
ssg63
g4624
sg56
(lp4632
g4293
(S't\x07\x00\x00\x00Recipes'
tRp4633
asbasbag49
(g4376
g51
NtRp4634
(dp4635
g54
(dp4636
sg63
g4530
sg56
(lp4637
g49
(g4370
g51
NtRp4638
(dp4639
g54
(dp4640
g4374
S'http://web2py.com/semantic'
p4641
ssg63
g4634
sg56
(lp4642
g4293
(S't\x08\x00\x00\x00Semantic'
tRp4643
asbasbasbasbag49
(g4376
g51
NtRp4644
(dp4645
g54
(dp4646
g4368
g4380
ssg63
g4402
sg56
(lp4647
g49
(g4370
g51
NtRp4648
(dp4649
g54
(dp4650
g4374
S'http://www.web2py.com/book'
p4651
ssg63
g4644
sg56
(lp4652
g4293
(S't\r\x00\x00\x00Documentation'
tRp4653
asbag49
(g4381
g51
NtRp4654
(dp4655
g54
(dp4656
g4368
g4389
ssg63
g4644
sg56
(lp4657
g49
(g4376
g51
NtRp4658
(dp4659
g54
(dp4660
sg63
g4654
sg56
(lp4661
g49
(g4370
g51
NtRp4662
(dp4663
g54
(dp4664
g4374
S'http://www.web2py.com/book/default/chapter/00'
p4665
ssg63
g4658
sg56
(lp4666
g4293
(S't\x07\x00\x00\x00Preface'
tRp4667
asbasbag49
(g4376
g51
NtRp4668
(dp4669
g54
(dp4670
sg63
g4654
sg56
(lp4671
g49
(g4370
g51
NtRp4672
(dp4673
g54
(dp4674
g4374
S'http://www.web2py.com/book/default/chapter/01'
p4675
ssg63
g4668
sg56
(lp4676
g4293
(S't\x0c\x00\x00\x00Introduction'
tRp4677
asbasbag49
(g4376
g51
NtRp4678
(dp4679
g54
(dp4680
sg63
g4654
sg56
(lp4681
g49
(g4370
g51
NtRp4682
(dp4683
g54
(dp4684
g4374
S'http://www.web2py.com/book/default/chapter/02'
p4685
ssg63
g4678
sg56
(lp4686
g4293
(S't\x06\x00\x00\x00Python'
tRp4687
asbasbag49
(g4376
g51
NtRp4688
(dp4689
g54
(dp4690
sg63
g4654
sg56
(lp4691
g49
(g4370
g51
NtRp4692
(dp4693
g54
(dp4694
g4374
S'http://www.web2py.com/book/default/chapter/03'
p4695
ssg63
g4688
sg56
(lp4696
g4293
(S't\x08\x00\x00\x00Overview'
tRp4697
asbasbag49
(g4376
g51
NtRp4698
(dp4699
g54
(dp4700
sg63
g4654
sg56
(lp4701
g49
(g4370
g51
NtRp4702
(dp4703
g54
(dp4704
g4374
S'http://www.web2py.com/book/default/chapter/04'
p4705
ssg63
g4698
sg56
(lp4706
g4293
(S's\x08\x00\x00\x00The Core'
tRp4707
asbasbag49
(g4376
g51
NtRp4708
(dp4709
g54
(dp4710
sg63
g4654
sg56
(lp4711
g49
(g4370
g51
NtRp4712
(dp4713
g54
(dp4714
g4374
S'http://www.web2py.com/book/default/chapter/05'
p4715
ssg63
g4708
sg56
(lp4716
g4293
(S's\t\x00\x00\x00The Views'
tRp4717
asbasbag49
(g4376
g51
NtRp4718
(dp4719
g54
(dp4720
sg63
g4654
sg56
(lp4721
g49
(g4370
g51
NtRp4722
(dp4723
g54
(dp4724
g4374
S'http://www.web2py.com/book/default/chapter/06'
p4725
ssg63
g4718
sg56
(lp4726
g4293
(S't\x08\x00\x00\x00Database'
tRp4727
asbasbag49
(g4376
g51
NtRp4728
(dp4729
g54
(dp4730
sg63
g4654
sg56
(lp4731
g49
(g4370
g51
NtRp4732
(dp4733
g54
(dp4734
g4374
S'http://www.web2py.com/book/default/chapter/07'
p4735
ssg63
g4728
sg56
(lp4736
g4293
(S's\x14\x00\x00\x00Forms and Validators'
tRp4737
asbasbag49
(g4376
g51
NtRp4738
(dp4739
g54
(dp4740
sg63
g4654
sg56
(lp4741
g49
(g4370
g51
NtRp4742
(dp4743
g54
(dp4744
g4374
S'http://www.web2py.com/book/default/chapter/08'
p4745
ssg63
g4738
sg56
(lp4746
g4293
(S's\r\x00\x00\x00Email and SMS'
tRp4747
asbasbag49
(g4376
g51
NtRp4748
(dp4749
g54
(dp4750
sg63
g4654
sg56
(lp4751
g49
(g4370
g51
NtRp4752
(dp4753
g54
(dp4754
g4374
S'http://www.web2py.com/book/default/chapter/09'
p4755
ssg63
g4748
sg56
(lp4756
g4293
(S's\x0e\x00\x00\x00Access Control'
tRp4757
asbasbag49
(g4376
g51
NtRp4758
(dp4759
g54
(dp4760
sg63
g4654
sg56
(lp4761
g49
(g4370
g51
NtRp4762
(dp4763
g54
(dp4764
g4374
S'http://www.web2py.com/book/default/chapter/10'
p4765
ssg63
g4758
sg56
(lp4766
g4293
(S't\x08\x00\x00\x00Services'
tRp4767
asbasbag49
(g4376
g51
NtRp4768
(dp4769
g54
(dp4770
sg63
g4654
sg56
(lp4771
g49
(g4370
g51
NtRp4772
(dp4773
g54
(dp4774
g4374
S'http://www.web2py.com/book/default/chapter/11'
p4775
ssg63
g4768
sg56
(lp4776
g4293
(S's\x0c\x00\x00\x00Ajax Recipes'
tRp4777
asbasbag49
(g4376
g51
NtRp4778
(dp4779
g54
(dp4780
sg63
g4654
sg56
(lp4781
g49
(g4370
g51
NtRp4782
(dp4783
g54
(dp4784
g4374
S'http://www.web2py.com/book/default/chapter/12'
p4785
ssg63
g4778
sg56
(lp4786
g4293
(S's\x16\x00\x00\x00Components and Plugins'
tRp4787
asbasbag49
(g4376
g51
NtRp4788
(dp4789
g54
(dp4790
sg63
g4654
sg56
(lp4791
g49
(g4370
g51
NtRp4792
(dp4793
g54
(dp4794
g4374
S'http://www.web2py.com/book/default/chapter/13'
p4795
ssg63
g4788
sg56
(lp4796
g4293
(S's\x12\x00\x00\x00Deployment Recipes'
tRp4797
asbasbag49
(g4376
g51
NtRp4798
(dp4799
g54
(dp4800
sg63
g4654
sg56
(lp4801
g49
(g4370
g51
NtRp4802
(dp4803
g54
(dp4804
g4374
S'http://www.web2py.com/book/default/chapter/14'
p4805
ssg63
g4798
sg56
(lp4806
g4293
(S's\r\x00\x00\x00Other Recipes'
tRp4807
asbasbag49
(g4376
g51
NtRp4808
(dp4809
g54
(dp4810
sg63
g4654
sg56
(lp4811
g49
(g4370
g51
NtRp4812
(dp4813
g54
(dp4814
g4374
S'http://stores.lulu.com/web2py'
p4815
ssg63
g4808
sg56
(lp4816
g4293
(S's\r\x00\x00\x00Buy this book'
tRp4817
asbasbasbasbag49
(g4376
g51
NtRp4818
(dp4819
g54
(dp4820
g4368
g4380
ssg63
g4402
sg56
(lp4821
g49
(g4370
g51
NtRp4822
(dp4823
g54
(dp4824
S'_onclick'
p4825
S'javascript:void(0);return false;'
p4826
sg4374
S'#'
ssg63
g4818
sg56
(lp4827
g4293
(S't\t\x00\x00\x00Community'
tRp4828
asbag49
(g4381
g51
NtRp4829
(dp4830
g54
(dp4831
g4368
g4389
ssg63
g4818
sg56
(lp4832
g49
(g4376
g51
NtRp4833
(dp4834
g54
(dp4835
sg63
g4829
sg56
(lp4836
g49
(g4370
g51
NtRp4837
(dp4838
g54
(dp4839
g4374
S'http://www.web2py.com/examples/default/usergroups'
p4840
ssg63
g4833
sg56
(lp4841
g4293
(S't\x06\x00\x00\x00Groups'
tRp4842
asbasbag49
(g4376
g51
NtRp4843
(dp4844
g54
(dp4845
sg63
g4829
sg56
(lp4846
g49
(g4370
g51
NtRp4847
(dp4848
g54
(dp4849
g4374
S'http://twitter.com/web2py'
p4850
ssg63
g4843
sg56
(lp4851
g4293
(S't\x07\x00\x00\x00Twitter'
tRp4852
asbasbag49
(g4376
g51
NtRp4853
(dp4854
g54
(dp4855
sg63
g4829
sg56
(lp4856
g49
(g4370
g51
NtRp4857
(dp4858
g54
(dp4859
g4374
S'http://webchat.freenode.net/?channels=web2py'
p4860
ssg63
g4853
sg56
(lp4861
g4293
(S's\t\x00\x00\x00Live Chat'
tRp4862
asbasbasbasbag49
(g4376
g51
NtRp4863
(dp4864
g54
(dp4865
g4368
g4380
ssg63
g4402
sg56
(lp4866
g49
(g4370
g51
NtRp4867
(dp4868
g54
(dp4869
g4825
g4826
sg4374
S'#'
ssg63
g4863
sg56
(lp4870
g4293
(S't\x07\x00\x00\x00Plugins'
tRp4871
asbag49
(g4381
g51
NtRp4872
(dp4873
g54
(dp4874
g4368
g4389
ssg63
g4863
sg56
(lp4875
g49
(g4376
g51
NtRp4876
(dp4877
g54
(dp4878
sg63
g4872
sg56
(lp4879
g49
(g4370
g51
NtRp4880
(dp4881
g54
(dp4882
g4374
S'http://web2py.com/examples/default/download'
p4883
ssg63
g4876
sg56
(lp4884
S'plugin_wiki'
p4885
asbasbag49
(g4376
g51
NtRp4886
(dp4887
g54
(dp4888
sg63
g4872
sg56
(lp4889
g49
(g4370
g51
NtRp4890
(dp4891
g54
(dp4892
g4374
g4611
ssg63
g4886
sg56
(lp4893
g4293
(S's\r\x00\x00\x00Other Plugins'
tRp4894
asbasbag49
(g4376
g51
NtRp4895
(dp4896
g54
(dp4897
sg63
g4872
sg56
(lp4898
g49
(g4370
g51
NtRp4899
(dp4900
g54
(dp4901
g4374
g4621
ssg63
g4895
sg56
(lp4902
g4293
(S's\x0e\x00\x00\x00Layout Plugins'
tRp4903
asbasbasbasbasbasbsg56
(lp4904
g4365
asbsg56
(lp4905
g4239
asbasbasbasbag49
(g65
g51
NtRp4906
(dp4907
g54
(dp4908
sg63
g4348
sg56
(lp4909
g49
(g70
g51
NtRp4910
(dp4911
g54
(dp4912
sg63
g4906
sg56
(lp4913
g49
(g50
g51
NtRp4914
(dp4915
g54
(dp4916
g62
I3
ssg63
g4910
sg56
(lp4917
g92
asbasbasbag49
(g65
g51
NtRp4918
(dp4919
g54
(dp4920
sg63
g4348
sg56
(lp4921
g49
(g70
g51
NtRp4922
(dp4923
g54
(dp4924
sg63
g4918
sg56
(lp4925
g49
(g50
g51
NtRp4926
(dp4927
g54
(dp4928
g62
I3
ssg63
g4922
sg56
(lp4929
g4375
asbasbasbag49
(g65
g51
NtRp4930
(dp4931
g54
(dp4932
sg63
g4348
sg56
(lp4933
g49
(g70
g51
NtRp4934
(dp4935
g54
(dp4936
sg63
g4930
sg56
(lp4937
g49
(g50
g51
NtRp4938
(dp4939
g54
(dp4940
g62
I3
ssg63
g4934
sg56
(lp4941
g49
(g58
g51
NtRp4942
(dp4943
g54
(dp4944
g62
I2
ssg63
Nsg56
(lp4945
g49
(g65
g51
NtRp4946
(dp4947
g54
(dp4948
sg63
g4942
sg56
(lp4949
g49
(g70
g51
NtRp4950
(dp4951
g54
(dp4952
sg63
g4946
sg56
(lp4953
g49
(g50
g51
NtRp4954
(dp4955
g54
(dp4956
g62
I2
ssg63
g4950
sg56
(lp4957
g49
(g58
g51
NtRp4958
(dp4959
g54
(dp4960
g62
I1
ssg63
Nsg56
(lp4961
g49
(g65
g51
NtRp4962
(dp4963
g54
(dp4964
sg63
g4958
sg56
(lp4965
g49
(g70
g51
NtRp4966
(dp4967
g54
(dp4968
sg63
g4962
sg56
(lp4969
g49
(g50
g51
NtRp4970
(dp4971
g54
(dp4972
g62
I1
ssg63
g4966
sg56
(lp4973
g4415
asbasbasbag49
(g65
g51
NtRp4974
(dp4975
g54
(dp4976
sg63
g4958
sg56
(lp4977
g49
(g70
g51
NtRp4978
(dp4979
g54
(dp4980
sg63
g4974
sg56
(lp4981
g49
(g50
g51
NtRp4982
(dp4983
g54
(dp4984
g62
I1
ssg63
g4978
sg56
(lp4985
I00
asbasbasbag49
(g65
g51
NtRp4986
(dp4987
g54
(dp4988
sg63
g4958
sg56
(lp4989
g49
(g70
g51
NtRp4990
(dp4991
g54
(dp4992
sg63
g4986
sg56
(lp4993
g49
(g50
g51
NtRp4994
(dp4995
g54
(dp4996
g62
I1
ssg63
g4990
sg56
(lp4997
g4413
asbasbasbasbasbasbasbag49
(g65
g51
NtRp4998
(dp4999
g54
(dp5000
sg63
g4942
sg56
(lp5001
g49
(g70
g51
NtRp5002
(dp5003
g54
(dp5004
sg63
g4998
sg56
(lp5005
g49
(g50
g51
NtRp5006
(dp5007
g54
(dp5008
g62
I2
ssg63
g5002
sg56
(lp5009
g49
(g58
g51
NtRp5010
(dp5011
g54
(dp5012
g62
I1
ssg63
Nsg56
(lp5013
g49
(g65
g51
NtRp5014
(dp5015
g54
(dp5016
sg63
g5010
sg56
(lp5017
g49
(g70
g51
NtRp5018
(dp5019
g54
(dp5020
sg63
g5014
sg56
(lp5021
g49
(g50
g51
NtRp5022
(dp5023
g54
(dp5024
g62
I1
ssg63
g5018
sg56
(lp5025
g4425
asbasbasbag49
(g65
g51
NtRp5026
(dp5027
g54
(dp5028
sg63
g5010
sg56
(lp5029
g49
(g70
g51
NtRp5030
(dp5031
g54
(dp5032
sg63
g5026
sg56
(lp5033
g49
(g50
g51
NtRp5034
(dp5035
g54
(dp5036
g62
I1
ssg63
g5030
sg56
(lp5037
I00
asbasbasbag49
(g65
g51
NtRp5038
(dp5039
g54
(dp5040
sg63
g5010
sg56
(lp5041
g49
(g70
g51
NtRp5042
(dp5043
g54
(dp5044
sg63
g5038
sg56
(lp5045
g49
(g50
g51
NtRp5046
(dp5047
g54
(dp5048
g62
I1
ssg63
g5042
sg56
(lp5049
g4423
asbasbasbag49
(g65
g51
NtRp5050
(dp5051
g54
(dp5052
sg63
g5010
sg56
(lp5053
g49
(g70
g51
NtRp5054
(dp5055
g54
(dp5056
sg63
g5050
sg56
(lp5057
g49
(g50
g51
NtRp5058
(dp5059
g54
(dp5060
g62
I1
ssg63
g5054
sg56
(lp5061
(lp5062
(g4439
I00
g4437
tp5063
a(g4449
I00
g4447
tp5064
a(g4459
I00
g4457
tp5065
a(g4469
I00
g4467
tp5066
a(g4479
I00
g4477
tp5067
a(g4489
I00
g4487
tp5068
a(g4499
I00
g4497
tp5069
a(g4509
I00
g4507
tp5070
a(g4519
I00
g4517
tp5071
aasbasbasbasbasbasbasbag49
(g65
g51
NtRp5072
(dp5073
g54
(dp5074
sg63
g4942
sg56
(lp5075
g49
(g70
g51
NtRp5076
(dp5077
g54
(dp5078
sg63
g5072
sg56
(lp5079
g49
(g50
g51
NtRp5080
(dp5081
g54
(dp5082
g62
I2
ssg63
g5076
sg56
(lp5083
g49
(g58
g51
NtRp5084
(dp5085
g54
(dp5086
g62
I1
ssg63
Nsg56
(lp5087
g49
(g65
g51
NtRp5088
(dp5089
g54
(dp5090
sg63
g5084
sg56
(lp5091
g49
(g70
g51
NtRp5092
(dp5093
g54
(dp5094
sg63
g5088
sg56
(lp5095
g49
(g50
g51
NtRp5096
(dp5097
g54
(dp5098
g62
I1
ssg63
g5092
sg56
(lp5099
g4529
asbasbasbag49
(g65
g51
NtRp5100
(dp5101
g54
(dp5102
sg63
g5084
sg56
(lp5103
g49
(g70
g51
NtRp5104
(dp5105
g54
(dp5106
sg63
g5100
sg56
(lp5107
g49
(g50
g51
NtRp5108
(dp5109
g54
(dp5110
g62
I1
ssg63
g5104
sg56
(lp5111
I00
asbasbasbag49
(g65
g51
NtRp5112
(dp5113
g54
(dp5114
sg63
g5084
sg56
(lp5115
g49
(g70
g51
NtRp5116
(dp5117
g54
(dp5118
sg63
g5112
sg56
(lp5119
g49
(g50
g51
NtRp5120
(dp5121
g54
(dp5122
g62
I1
ssg63
g5116
sg56
(lp5123
g4527
asbasbasbag49
(g65
g51
NtRp5124
(dp5125
g54
(dp5126
sg63
g5084
sg56
(lp5127
g49
(g70
g51
NtRp5128
(dp5129
g54
(dp5130
sg63
g5124
sg56
(lp5131
g49
(g50
g51
NtRp5132
(dp5133
g54
(dp5134
g62
I1
ssg63
g5128
sg56
(lp5135
(lp5136
(g4543
I00
g4541
tp5137
a(g4553
I00
g4551
tp5138
a(g4563
I00
g4561
tp5139
a(g4573
I00
g4571
tp5140
a(g4583
I00
g4581
tp5141
a(g4593
I00
g4591
tp5142
a(g4603
I00
g4601
tp5143
a(g4613
I00
g4611
tp5144
a(g4623
I00
g4621
tp5145
a(g4633
I00
g4631
tp5146
a(g4643
I00
g4641
tp5147
aasbasbasbasbasbasbasbag49
(g65
g51
NtRp5148
(dp5149
g54
(dp5150
sg63
g4942
sg56
(lp5151
g49
(g70
g51
NtRp5152
(dp5153
g54
(dp5154
sg63
g5148
sg56
(lp5155
g49
(g50
g51
NtRp5156
(dp5157
g54
(dp5158
g62
I2
ssg63
g5152
sg56
(lp5159
g49
(g58
g51
NtRp5160
(dp5161
g54
(dp5162
g62
I1
ssg63
Nsg56
(lp5163
g49
(g65
g51
NtRp5164
(dp5165
g54
(dp5166
sg63
g5160
sg56
(lp5167
g49
(g70
g51
NtRp5168
(dp5169
g54
(dp5170
sg63
g5164
sg56
(lp5171
g49
(g50
g51
NtRp5172
(dp5173
g54
(dp5174
g62
I1
ssg63
g5168
sg56
(lp5175
g4653
asbasbasbag49
(g65
g51
NtRp5176
(dp5177
g54
(dp5178
sg63
g5160
sg56
(lp5179
g49
(g70
g51
NtRp5180
(dp5181
g54
(dp5182
sg63
g5176
sg56
(lp5183
g49
(g50
g51
NtRp5184
(dp5185
g54
(dp5186
g62
I1
ssg63
g5180
sg56
(lp5187
I00
asbasbasbag49
(g65
g51
NtRp5188
(dp5189
g54
(dp5190
sg63
g5160
sg56
(lp5191
g49
(g70
g51
NtRp5192
(dp5193
g54
(dp5194
sg63
g5188
sg56
(lp5195
g49
(g50
g51
NtRp5196
(dp5197
g54
(dp5198
g62
I1
ssg63
g5192
sg56
(lp5199
g4651
asbasbasbag49
(g65
g51
NtRp5200
(dp5201
g54
(dp5202
sg63
g5160
sg56
(lp5203
g49
(g70
g51
NtRp5204
(dp5205
g54
(dp5206
sg63
g5200
sg56
(lp5207
g49
(g50
g51
NtRp5208
(dp5209
g54
(dp5210
g62
I1
ssg63
g5204
sg56
(lp5211
(lp5212
(g4667
I00
g4665
tp5213
a(g4677
I00
g4675
tp5214
a(g4687
I00
g4685
tp5215
a(g4697
I00
g4695
tp5216
a(g4707
I00
g4705
tp5217
a(g4717
I00
g4715
tp5218
a(g4727
I00
g4725
tp5219
a(g4737
I00
g4735
tp5220
a(g4747
I00
g4745
tp5221
a(g4757
I00
g4755
tp5222
a(g4767
I00
g4765
tp5223
a(g4777
I00
g4775
tp5224
a(g4787
I00
g4785
tp5225
a(g4797
I00
g4795
tp5226
a(g4807
I00
g4805
tp5227
a(g4817
I00
g4815
tp5228
aasbasbasbasbasbasbasbag49
(g65
g51
NtRp5229
(dp5230
g54
(dp5231
sg63
g4942
sg56
(lp5232
g49
(g70
g51
NtRp5233
(dp5234
g54
(dp5235
sg63
g5229
sg56
(lp5236
g49
(g50
g51
NtRp5237
(dp5238
g54
(dp5239
g62
I2
ssg63
g5233
sg56
(lp5240
g49
(g58
g51
NtRp5241
(dp5242
g54
(dp5243
g62
I1
ssg63
Nsg56
(lp5244
g49
(g65
g51
NtRp5245
(dp5246
g54
(dp5247
sg63
g5241
sg56
(lp5248
g49
(g70
g51
NtRp5249
(dp5250
g54
(dp5251
sg63
g5245
sg56
(lp5252
g49
(g50
g51
NtRp5253
(dp5254
g54
(dp5255
g62
I1
ssg63
g5249
sg56
(lp5256
g4828
asbasbasbag49
(g65
g51
NtRp5257
(dp5258
g54
(dp5259
sg63
g5241
sg56
(lp5260
g49
(g70
g51
NtRp5261
(dp5262
g54
(dp5263
sg63
g5257
sg56
(lp5264
g49
(g50
g51
NtRp5265
(dp5266
g54
(dp5267
g62
I1
ssg63
g5261
sg56
(lp5268
I00
asbasbasbag49
(g65
g51
NtRp5269
(dp5270
g54
(dp5271
sg63
g5241
sg56
(lp5272
g49
(g70
g51
NtRp5273
(dp5274
g54
(dp5275
sg63
g5269
sg56
(lp5276
g49
(g50
g51
NtRp5277
(dp5278
g54
(dp5279
g62
I1
ssg63
g5273
sg56
(lp5280
Nasbasbasbag49
(g65
g51
NtRp5281
(dp5282
g54
(dp5283
sg63
g5241
sg56
(lp5284
g49
(g70
g51
NtRp5285
(dp5286
g54
(dp5287
sg63
g5281
sg56
(lp5288
g49
(g50
g51
NtRp5289
(dp5290
g54
(dp5291
g62
I1
ssg63
g5285
sg56
(lp5292
(lp5293
(g4842
I00
g4840
tp5294
a(g4852
I00
g4850
tp5295
a(g4862
I00
g4860
tp5296
aasbasbasbasbasbasbasbag49
(g65
g51
NtRp5297
(dp5298
g54
(dp5299
sg63
g4942
sg56
(lp5300
g49
(g70
g51
NtRp5301
(dp5302
g54
(dp5303
sg63
g5297
sg56
(lp5304
g49
(g50
g51
NtRp5305
(dp5306
g54
(dp5307
g62
I2
ssg63
g5301
sg56
(lp5308
g49
(g58
g51
NtRp5309
(dp5310
g54
(dp5311
g62
I1
ssg63
Nsg56
(lp5312
g49
(g65
g51
NtRp5313
(dp5314
g54
(dp5315
sg63
g5309
sg56
(lp5316
g49
(g70
g51
NtRp5317
(dp5318
g54
(dp5319
sg63
g5313
sg56
(lp5320
g49
(g50
g51
NtRp5321
(dp5322
g54
(dp5323
g62
I1
ssg63
g5317
sg56
(lp5324
g4871
asbasbasbag49
(g65
g51
NtRp5325
(dp5326
g54
(dp5327
sg63
g5309
sg56
(lp5328
g49
(g70
g51
NtRp5329
(dp5330
g54
(dp5331
sg63
g5325
sg56
(lp5332
g49
(g50
g51
NtRp5333
(dp5334
g54
(dp5335
g62
I1
ssg63
g5329
sg56
(lp5336
I00
asbasbasbag49
(g65
g51
NtRp5337
(dp5338
g54
(dp5339
sg63
g5309
sg56
(lp5340
g49
(g70
g51
NtRp5341
(dp5342
g54
(dp5343
sg63
g5337
sg56
(lp5344
g49
(g50
g51
NtRp5345
(dp5346
g54
(dp5347
g62
I1
ssg63
g5341
sg56
(lp5348
Nasbasbasbag49
(g65
g51
NtRp5349
(dp5350
g54
(dp5351
sg63
g5309
sg56
(lp5352
g49
(g70
g51
NtRp5353
(dp5354
g54
(dp5355
sg63
g5349
sg56
(lp5356
g49
(g50
g51
NtRp5357
(dp5358
g54
(dp5359
g62
I1
ssg63
g5353
sg56
(lp5360
(lp5361
(g4885
I00
g4883
tp5362
a(g4894
I00
g4611
tp5363
a(g4903
I00
g4621
tp5364
aasbasbasbasbasbasbasbasbasbasbasbasbasbasbasbasbasbasbasbag49
(g65
g51
NtRp5365
(dp5366
g54
(dp5367
sg63
g3731
sg56
(lp5368
g49
(g70
g51
NtRp5369
(dp5370
g54
(dp5371
g74
g75
ssg63
g5365
sg56
(lp5372
S'meta'
p5373
asbag49
(g70
g51
NtRp5374
(dp5375
g54
(dp5376
g81
g82
ssg63
g5365
sg56
(lp5377
S':'
asbag49
(g70
g51
NtRp5378
(dp5379
g54
(dp5380
sg63
g5365
sg56
(lp5381
g49
(g50
g51
NtRp5382
(dp5383
g54
(dp5384
g62
I5
ssg63
g5378
sg56
(lp5385
g49
(g58
g51
NtRp5386
(dp5387
g54
(dp5388
g62
I4
ssg63
Nsg56
(lp5389
g49
(g65
g51
NtRp5390
(dp5391
g54
(dp5392
sg63
g5386
sg56
(lp5393
g49
(g70
g51
NtRp5394
(dp5395
g54
(dp5396
g74
g75
ssg63
g5390
sg56
(lp5397
S'author'
p5398
asbag49
(g70
g51
NtRp5399
(dp5400
g54
(dp5401
g81
g82
ssg63
g5390
sg56
(lp5402
S':'
asbag49
(g70
g51
NtRp5403
(dp5404
g54
(dp5405
sg63
g5390
sg56
(lp5406
g49
(g50
g51
NtRp5407
(dp5408
g54
(dp5409
g62
I4
ssg63
g5403
sg56
(lp5410
S'Your Name <you@example.com>'
p5411
asbasbasbag49
(g65
g51
NtRp5412
(dp5413
g54
(dp5414
sg63
g5386
sg56
(lp5415
g49
(g70
g51
NtRp5416
(dp5417
g54
(dp5418
g74
g75
ssg63
g5412
sg56
(lp5419
S'description'
p5420
asbag49
(g70
g51
NtRp5421
(dp5422
g54
(dp5423
g81
g82
ssg63
g5412
sg56
(lp5424
S':'
asbag49
(g70
g51
NtRp5425
(dp5426
g54
(dp5427
sg63
g5412
sg56
(lp5428
g49
(g50
g51
NtRp5429
(dp5430
g54
(dp5431
g62
I4
ssg63
g5425
sg56
(lp5432
S'a cool new app'
p5433
asbasbasbag49
(g65
g51
NtRp5434
(dp5435
g54
(dp5436
sg63
g5386
sg56
(lp5437
g49
(g70
g51
NtRp5438
(dp5439
g54
(dp5440
g74
g75
ssg63
g5434
sg56
(lp5441
S'generator'
p5442
asbag49
(g70
g51
NtRp5443
(dp5444
g54
(dp5445
g81
g82
ssg63
g5434
sg56
(lp5446
S':'
asbag49
(g70
g51
NtRp5447
(dp5448
g54
(dp5449
sg63
g5434
sg56
(lp5450
g49
(g50
g51
NtRp5451
(dp5452
g54
(dp5453
g62
I4
ssg63
g5447
sg56
(lp5454
S'Web2py Web Framework'
p5455
asbasbasbag49
(g65
g51
NtRp5456
(dp5457
g54
(dp5458
sg63
g5386
sg56
(lp5459
g49
(g70
g51
NtRp5460
(dp5461
g54
(dp5462
g74
g75
ssg63
g5456
sg56
(lp5463
S'keywords'
p5464
asbag49
(g70
g51
NtRp5465
(dp5466
g54
(dp5467
g81
g82
ssg63
g5456
sg56
(lp5468
S':'
asbag49
(g70
g51
NtRp5469
(dp5470
g54
(dp5471
sg63
g5456
sg56
(lp5472
g49
(g50
g51
NtRp5473
(dp5474
g54
(dp5475
g62
I4
ssg63
g5469
sg56
(lp5476
S'web2py, python, framework'
p5477
asbasbasbasbasbasbasbag49
(g65
g51
NtRp5478
(dp5479
g54
(dp5480
sg63
g3731
sg56
(lp5481
g49
(g70
g51
NtRp5482
(dp5483
g54
(dp5484
g74
g75
ssg63
g5478
sg56
(lp5485
S'models_to_run'
p5486
asbag49
(g70
g51
NtRp5487
(dp5488
g54
(dp5489
g81
g82
ssg63
g5478
sg56
(lp5490
S':'
asbag49
(g70
g51
NtRp5491
(dp5492
g54
(dp5493
sg63
g5478
sg56
(lp5494
g49
(g50
g51
NtRp5495
(dp5496
g54
(dp5497
g62
I5
ssg63
g5491
sg56
(lp5498
g49
(g58
g51
NtRp5499
(dp5500
g54
(dp5501
g62
I4
ssg63
Nsg56
(lp5502
g49
(g65
g51
NtRp5503
(dp5504
g54
(dp5505
sg63
g5499
sg56
(lp5506
g49
(g70
g51
NtRp5507
(dp5508
g54
(dp5509
sg63
g5503
sg56
(lp5510
g49
(g50
g51
NtRp5511
(dp5512
g54
(dp5513
g62
I4
ssg63
g5507
sg56
(lp5514
S'^\\w+\\.py$'
p5515
asbasbasbag49
(g65
g51
NtRp5516
(dp5517
g54
(dp5518
sg63
g5499
sg56
(lp5519
g49
(g70
g51
NtRp5520
(dp5521
g54
(dp5522
sg63
g5516
sg56
(lp5523
g49
(g50
g51
NtRp5524
(dp5525
g54
(dp5526
g62
I4
ssg63
g5520
sg56
(lp5527
S'^default/\\w+\\.py$'
p5528
asbasbasbag49
(g65
g51
NtRp5529
(dp5530
g54
(dp5531
sg63
g5499
sg56
(lp5532
g49
(g70
g51
NtRp5533
(dp5534
g54
(dp5535
sg63
g5529
sg56
(lp5536
g49
(g50
g51
NtRp5537
(dp5538
g54
(dp5539
g62
I4
ssg63
g5533
sg56
(lp5540
S'^default/show_writing_comments/\\w+\\.py$'
p5541
asbasbasbasbasbasbasbag49
(g65
g51
NtRp5542
(dp5543
g54
(dp5544
sg63
g3731
sg56
(lp5545
g49
(g70
g51
NtRp5546
(dp5547
g54
(dp5548
g74
g75
ssg63
g5542
sg56
(lp5549
S'postprocessing'
p5550
asbag49
(g70
g51
NtRp5551
(dp5552
g54
(dp5553
g81
g82
ssg63
g5542
sg56
(lp5554
S':'
asbag49
(g70
g51
NtRp5555
(dp5556
g54
(dp5557
sg63
g5542
sg56
(lp5558
g49
(g50
g51
NtRp5559
(dp5560
g54
(dp5561
g62
I5
ssg63
g5555
sg56
(lp5562
g49
(g58
g51
NtRp5563
(dp5564
g54
(dp5565
g62
I4
ssg63
Nsg56
(lp5566
sbasbasbasbag49
(g65
g51
NtRp5567
(dp5568
g54
(dp5569
sg63
g3731
sg56
(lp5570
g49
(g70
g51
NtRp5571
(dp5572
g54
(dp5573
g74
g75
ssg63
g5567
sg56
(lp5574
S'session_cookie_expires'
p5575
asbag49
(g70
g51
NtRp5576
(dp5577
g54
(dp5578
g81
g82
ssg63
g5567
sg56
(lp5579
S':'
asbag49
(g70
g51
NtRp5580
(dp5581
g54
(dp5582
sg63
g5567
sg56
(lp5583
g49
(g50
g51
NtRp5584
(dp5585
g54
(dp5586
g62
I5
ssg63
g5580
sg56
(lp5587
S'None'
p5588
asbasbasbag49
(g65
g51
NtRp5589
(dp5590
g54
(dp5591
sg63
g3731
sg56
(lp5592
g49
(g70
g51
NtRp5593
(dp5594
g54
(dp5595
g74
g75
ssg63
g5589
sg56
(lp5596
S'session_data_name'
p5597
asbag49
(g70
g51
NtRp5598
(dp5599
g54
(dp5600
g81
g82
ssg63
g5589
sg56
(lp5601
S':'
asbag49
(g70
g51
NtRp5602
(dp5603
g54
(dp5604
sg63
g5589
sg56
(lp5605
g49
(g50
g51
NtRp5606
(dp5607
g54
(dp5608
g62
I5
ssg63
g5602
sg56
(lp5609
S'session_data_final_impulse'
p5610
asbasbasbag49
(g65
g51
NtRp5611
(dp5612
g54
(dp5613
sg63
g3731
sg56
(lp5614
g49
(g70
g51
NtRp5615
(dp5616
g54
(dp5617
g74
g75
ssg63
g5611
sg56
(lp5618
S'session_file'
p5619
asbag49
(g70
g51
NtRp5620
(dp5621
g54
(dp5622
g81
g82
ssg63
g5611
sg56
(lp5623
S':'
asbag49
(g70
g51
NtRp5624
(dp5625
g54
(dp5626
sg63
g5611
sg56
(lp5627
g49
(g50
g51
NtRp5628
(dp5629
g54
(dp5630
g62
I5
ssg63
g5624
sg56
(lp5631
S"<open file '/Users/abaric/Downloads/web2py/web2py.app/Contents/Resources/applications/Final_Impulse/sessions/127.0.0.1-196d16f0-df2a-4177-8038-20bcfac6a099', mode 'rb+' at 0x8bc0188>"
p5632
asbasbasbag49
(g65
g51
NtRp5633
(dp5634
g54
(dp5635
sg63
g3731
sg56
(lp5636
g49
(g70
g51
NtRp5637
(dp5638
g54
(dp5639
g74
g75
ssg63
g5633
sg56
(lp5640
S'session_filename'
p5641
asbag49
(g70
g51
NtRp5642
(dp5643
g54
(dp5644
g81
g82
ssg63
g5633
sg56
(lp5645
S':'
asbag49
(g70
g51
NtRp5646
(dp5647
g54
(dp5648
sg63
g5633
sg56
(lp5649
g49
(g50
g51
NtRp5650
(dp5651
g54
(dp5652
g62
I5
ssg63
g5646
sg56
(lp5653
S'/Users/abaric/Downloads/web2py/web2py.app/Contents/Resources/applications/Final_Impulse/sessions/127.0.0.1-196d16f0-df2a-4177-8038-20bcfac6a099'
p5654
asbasbasbag49
(g65
g51
NtRp5655
(dp5656
g54
(dp5657
sg63
g3731
sg56
(lp5658
g49
(g70
g51
NtRp5659
(dp5660
g54
(dp5661
g74
g75
ssg63
g5655
sg56
(lp5662
S'session_id'
p5663
asbag49
(g70
g51
NtRp5664
(dp5665
g54
(dp5666
g81
g82
ssg63
g5655
sg56
(lp5667
S':'
asbag49
(g70
g51
NtRp5668
(dp5669
g54
(dp5670
sg63
g5655
sg56
(lp5671
g49
(g50
g51
NtRp5672
(dp5673
g54
(dp5674
g62
I5
ssg63
g5668
sg56
(lp5675
g612
asbasbasbag49
(g65
g51
NtRp5676
(dp5677
g54
(dp5678
sg63
g3731
sg56
(lp5679
g49
(g70
g51
NtRp5680
(dp5681
g54
(dp5682
g74
g75
ssg63
g5676
sg56
(lp5683
S'session_id_name'
p5684
asbag49
(g70
g51
NtRp5685
(dp5686
g54
(dp5687
g81
g82
ssg63
g5676
sg56
(lp5688
S':'
asbag49
(g70
g51
NtRp5689
(dp5690
g54
(dp5691
sg63
g5676
sg56
(lp5692
g49
(g50
g51
NtRp5693
(dp5694
g54
(dp5695
g62
I5
ssg63
g5689
sg56
(lp5696
g3788
asbasbasbag49
(g65
g51
NtRp5697
(dp5698
g54
(dp5699
sg63
g3731
sg56
(lp5700
g49
(g70
g51
NtRp5701
(dp5702
g54
(dp5703
g74
g75
ssg63
g5697
sg56
(lp5704
S'session_locked'
p5705
asbag49
(g70
g51
NtRp5706
(dp5707
g54
(dp5708
g81
g82
ssg63
g5697
sg56
(lp5709
S':'
asbag49
(g70
g51
NtRp5710
(dp5711
g54
(dp5712
sg63
g5697
sg56
(lp5713
g49
(g50
g51
NtRp5714
(dp5715
g54
(dp5716
g62
I5
ssg63
g5710
sg56
(lp5717
g1865
asbasbasbag49
(g65
g51
NtRp5718
(dp5719
g54
(dp5720
sg63
g3731
sg56
(lp5721
g49
(g70
g51
NtRp5722
(dp5723
g54
(dp5724
g74
g75
ssg63
g5718
sg56
(lp5725
S'session_new'
p5726
asbag49
(g70
g51
NtRp5727
(dp5728
g54
(dp5729
g81
g82
ssg63
g5718
sg56
(lp5730
S':'
asbag49
(g70
g51
NtRp5731
(dp5732
g54
(dp5733
sg63
g5718
sg56
(lp5734
g49
(g50
g51
NtRp5735
(dp5736
g54
(dp5737
g62
I5
ssg63
g5731
sg56
(lp5738
g92
asbasbasbag49
(g65
g51
NtRp5739
(dp5740
g54
(dp5741
sg63
g3731
sg56
(lp5742
g49
(g70
g51
NtRp5743
(dp5744
g54
(dp5745
g74
g75
ssg63
g5739
sg56
(lp5746
S'session_storage_type'
p5747
asbag49
(g70
g51
NtRp5748
(dp5749
g54
(dp5750
g81
g82
ssg63
g5739
sg56
(lp5751
S':'
asbag49
(g70
g51
NtRp5752
(dp5753
g54
(dp5754
sg63
g5739
sg56
(lp5755
g49
(g50
g51
NtRp5756
(dp5757
g54
(dp5758
g62
I5
ssg63
g5752
sg56
(lp5759
g3296
asbasbasbag49
(g65
g51
NtRp5760
(dp5761
g54
(dp5762
sg63
g3731
sg56
(lp5763
g49
(g70
g51
NtRp5764
(dp5765
g54
(dp5766
g74
g75
ssg63
g5760
sg56
(lp5767
S'status'
p5768
asbag49
(g70
g51
NtRp5769
(dp5770
g54
(dp5771
g81
g82
ssg63
g5760
sg56
(lp5772
S':'
asbag49
(g70
g51
NtRp5773
(dp5774
g54
(dp5775
sg63
g5760
sg56
(lp5776
g49
(g50
g51
NtRp5777
(dp5778
g54
(dp5779
g62
I5
ssg63
g5773
sg56
(lp5780
S'200'
p5781
asbasbasbag49
(g65
g51
NtRp5782
(dp5783
g54
(dp5784
sg63
g3731
sg56
(lp5785
g49
(g70
g51
NtRp5786
(dp5787
g54
(dp5788
g74
g75
ssg63
g5782
sg56
(lp5789
S'subtitle'
p5790
asbag49
(g70
g51
NtRp5791
(dp5792
g54
(dp5793
g81
g82
ssg63
g5782
sg56
(lp5794
S':'
asbag49
(g70
g51
NtRp5795
(dp5796
g54
(dp5797
sg63
g5782
sg56
(lp5798
g49
(g50
g51
NtRp5799
(dp5800
g54
(dp5801
g62
I5
ssg63
g5795
sg56
(lp5802
g4293
(S's\r\x00\x00\x00customize me!'
tRp5803
asbasbasbag49
(g65
g51
NtRp5804
(dp5805
g54
(dp5806
sg63
g3731
sg56
(lp5807
g49
(g70
g51
NtRp5808
(dp5809
g54
(dp5810
g74
g75
ssg63
g5804
sg56
(lp5811
S'title'
p5812
asbag49
(g70
g51
NtRp5813
(dp5814
g54
(dp5815
g81
g82
ssg63
g5804
sg56
(lp5816
S':'
asbag49
(g70
g51
NtRp5817
(dp5818
g54
(dp5819
sg63
g5804
sg56
(lp5820
g49
(g50
g51
NtRp5821
(dp5822
g54
(dp5823
g62
I5
ssg63
g5817
sg56
(lp5824
S'Final Impulse'
p5825
asbasbasbag49
(g65
g51
NtRp5826
(dp5827
g54
(dp5828
sg63
g3731
sg56
(lp5829
g49
(g70
g51
NtRp5830
(dp5831
g54
(dp5832
g74
g75
ssg63
g5826
sg56
(lp5833
S'view'
p5834
asbag49
(g70
g51
NtRp5835
(dp5836
g54
(dp5837
g81
g82
ssg63
g5826
sg56
(lp5838
S':'
asbag49
(g70
g51
NtRp5839
(dp5840
g54
(dp5841
sg63
g5826
sg56
(lp5842
g49
(g50
g51
NtRp5843
(dp5844
g54
(dp5845
g62
I5
ssg63
g5839
sg56
(lp5846
S'default/show_writing_comments.html'
p5847
asbasbasbasbasbsS'locals'
p5848
(dp5849
S'writings'
p5850
S'<Rows (5)>'
p5851
sS'OBJECT'
p5852
S"<class 'gluon.html.OBJECT'>"
p5853
sS'SQLDB'
p5854
S"<class 'gluon.dal.DAL'>"
p5855
sg3335
S"<Storage {'_user_agent': {'is_mobile': False, 'i...ssion_hash': '7382f0e102c7a01a0a2c51e68af3718b'}>"
p5856
sS'LINK'
p5857
S"<class 'gluon.html.LINK'>"
p5858
sS'comments'
p5859
S'<Rows (1)>'
p5860
sS'BR'
p5861
S"<class 'gluon.html.BR'>"
p5862
sS'local_import'
p5863
S'<function <lambda> at 0x8ce2730>'
p5864
sS'OPTGROUP'
p5865
S"<class 'gluon.html.OPTGROUP'>"
p5866
sS'PRE'
p5867
S"<class 'gluon.html.PRE'>"
p5868
sS'IS_INT_IN_RANGE'
p5869
S"<class 'gluon.validators.IS_INT_IN_RANGE'>"
p5870
sS'left_sidebar_enabled'
p5871
g92
sS'IS_LOWER'
p5872
S"<class 'gluon.validators.IS_LOWER'>"
p5873
sS'IS_STRONG'
p5874
S"<class 'gluon.validators.IS_STRONG'>"
p5875
sS'cache'
p5876
S'<gluon.cache.Cache object at 0x96afb70>'
p5877
sS'IS_IN_DB'
p5878
S"<class 'gluon.validators.IS_IN_DB'>"
p5879
sS'writing_form'
p5880
S'<gluon.sqlhtml.SQLFORM object at 0x7c3cc70>'
p5881
sS'TAG'
p5882
S'<gluon.html.__TAG__ object at 0x408d9f0>'
p5883
sS'SQLField'
p5884
S"<class 'gluon.dal.Field'>"
p5885
sS'BODY'
p5886
S"<class 'gluon.html.BODY'>"
p5887
sS'IS_DATE_IN_RANGE'
p5888
S"<class 'gluon.validators.IS_DATE_IN_RANGE'>"
p5889
sS'IFRAME'
p5890
S"<class 'gluon.html.IFRAME'>"
p5891
sS'URL'
p5892
S'<function URL at 0x4079bf0>'
p5893
sS'__file__'
p5894
S"'/Users/abaric/Downloads/web2py/web2py.app/Conten..._Impulse/views/default/show_writing_comments.html'"
p5895
sS'db'
p5896
S'<DAL uri="sqlite://storage.sqlite">'
p5897
sS'auth'
p5898
S'<gluon.tools.Auth object at 0x96af490>'
p5899
sS'P'
S"<class 'gluon.html.P'>"
p5900
sS'TFOOT'
p5901
S"<class 'gluon.html.TFOOT'>"
p5902
sS'XHTML'
p5903
S"<class 'gluon.html.XHTML'>"
p5904
sS'ON'
p5905
g1865
sS'OL'
p5906
S"<class 'gluon.html.OL'>"
p5907
sS'd'
S"{1: [('Andrea Baric', '1st writing post, 1st comment'), ('Andrea Baric', 'hello'), ('Andrea Baric', 'fab')], 2: [('Andrea Baric', '2nd writing post, 1st comment'), ('Suzie Smith', '2nd writing post, 2nd comment'), ('Suzie Smith', '2nd writing post, 3rd comment'), ('Andrea Baric', 'WOW'), ('Andrea Baric', 'kewl')], 3: [('Andrea Baric', '3rd writing post, 1st comment'), ('Andrea Baric', 'so kewl'), ('Andrea Baric', 'excelente')], 4: [], 5: [('Andrea Baric', 'wow')]}"
p5908
sS'TEXTAREA'
p5909
S"<class 'gluon.html.TEXTAREA'>"
p5910
sS'MENU'
p5911
S"<class 'gluon.html.MENU'>"
p5912
sS't'
S"('Andrea Baric', 'wow')"
p5913
sS'EM'
p5914
S"<class 'gluon.html.EM'>"
p5915
sS'CODE'
p5916
S"<class 'gluon.html.CODE'>"
p5917
sS'HTTP'
p5918
S"<class 'gluon.http.HTTP'>"
p5919
sS'HR'
p5920
S"<class 'gluon.html.HR'>"
p5921
sS'IS_DATETIME'
p5922
S"<class 'gluon.validators.IS_DATETIME'>"
p5923
sS'HEAD'
p5924
S"<class 'gluon.html.HEAD'>"
p5925
sS'LABEL'
p5926
S"<class 'gluon.html.LABEL'>"
p5927
sS'CLEANUP'
p5928
S"<class 'gluon.validators.CLEANUP'>"
p5929
sS'writing'
p5930
S"<Row {'body': 'this is a poem\\r\\ni am very talen...oem', 'id': 5, 'author_id': 1, 'approved': None}>"
p5931
sS'SELECT'
p5932
S"<class 'gluon.html.SELECT'>"
p5933
sS'CENTER'
p5934
S"<class 'gluon.html.CENTER'>"
p5935
sS'Crud'
p5936
S"<class 'gluon.tools.Crud'>"
p5937
sS'Auth'
p5938
S"<class 'gluon.tools.Auth'>"
p5939
sS'__builtins__'
p5940
S"{'ArithmeticError': <type 'exceptions.ArithmeticError'>, 'AssertionError': <type 'exceptions.AssertionError'>, 'AttributeError': <type 'exceptions.AttributeError'>, 'BaseException': <type 'exceptions.BaseException'>, 'DeprecationWarning': <type 'exceptions.DeprecationWarning'>, 'EOFError': <type 'exceptions.EOFError'>, 'Ellipsis': Ellipsis, 'EnvironmentError': <type 'exceptions.EnvironmentError'>, 'Exception': <type 'exceptions.Exception'>, 'False': False, ...}"
p5941
sS'HTML'
p5942
S"<class 'gluon.html.HTML'>"
p5943
sS'SQLFORM'
p5944
S"<class 'gluon.sqlhtml.SQLFORM'>"
p5945
sS'LOAD'
p5946
S'<function LOAD at 0x431d970>'
p5947
sS'redirect'
p5948
S'<function redirect at 0x3bd0530>'
p5949
sS'FIELDSET'
p5950
S"<class 'gluon.html.FIELDSET'>"
p5951
sS'IS_EQUAL_TO'
p5952
S"<class 'gluon.validators.IS_EQUAL_TO'>"
p5953
sS'embed64'
p5954
S'<function embed64 at 0x408f830>'
p5955
sS'IS_LIST_OF'
p5956
S"<class 'gluon.validators.IS_LIST_OF'>"
p5957
sS'__name__'
p5958
S"'__restricted__'"
p5959
sS'EMBED'
p5960
S"<class 'gluon.html.EMBED'>"
p5961
sS'_'
S'<function _ at 0x8ce20b0>'
p5962
sS'FORM'
p5963
S"<class 'gluon.html.FORM'>"
p5964
sS'H2'
p5965
S"<class 'gluon.html.H2'>"
p5966
sS'H3'
p5967
S"<class 'gluon.html.H3'>"
p5968
sS'BUTTON'
p5969
S"<class 'gluon.html.BUTTON'>"
p5970
sS'H1'
p5971
S"<class 'gluon.html.H1'>"
p5972
sS'H6'
p5973
S"<class 'gluon.html.H6'>"
p5974
sS'H4'
p5975
S"<class 'gluon.html.H4'>"
p5976
sS'H5'
p5977
S"<class 'gluon.html.H5'>"
p5978
sS'UL'
p5979
S"<class 'gluon.html.UL'>"
p5980
sS'IS_UPPER'
p5981
S"<class 'gluon.validators.IS_UPPER'>"
p5982
sS'xmlescape'
p5983
S'<function xmlescape at 0x40797b0>'
p5984
sS'IS_TIME'
p5985
S"<class 'gluon.validators.IS_TIME'>"
p5986
sg286
S"<Row {'auth_user': {'first_name': 'Andrea', 'las...one, 'writing_id': 5, 'author_id': 1, 'id': 13}}>"
p5987
sS'OPTION'
p5988
S"<class 'gluon.html.OPTION'>"
p5989
sS'TITLE'
p5990
S"<class 'gluon.html.TITLE'>"
p5991
sS'CRYPT'
p5992
S"<class 'gluon.validators.CRYPT'>"
p5993
sS'IS_EMPTY_OR'
p5994
S"<class 'gluon.validators.IS_EMPTY_OR'>"
p5995
sS'MARKMIN'
p5996
S"<class 'gluon.html.MARKMIN'>"
p5997
sS'INPUT'
p5998
S"<class 'gluon.html.INPUT'>"
p5999
sS'STRONG'
p6000
S"<class 'gluon.html.STRONG'>"
p6001
sS'COL'
p6002
S"<class 'gluon.html.COL'>"
p6003
sS'SCRIPT'
p6004
S"<class 'gluon.html.SCRIPT'>"
p6005
sS'is_mobile'
p6006
g92
sS'TABLE'
p6007
S"<class 'gluon.html.TABLE'>"
p6008
sS'IS_IPV4'
p6009
S"<class 'gluon.validators.IS_IPV4'>"
p6010
sS'IS_LENGTH'
p6011
S"<class 'gluon.validators.IS_LENGTH'>"
p6012
sS'XML'
p6013
S"<class 'gluon.html.XML'>"
p6014
sS'B'
S"<class 'gluon.html.B'>"
p6015
sS'form'
p6016
S'<gluon.sqlhtml.SQLFORM object at 0x8b02270>'
p6017
sS'SQLTABLE'
p6018
S"<class 'gluon.sqlhtml.SQLTABLE'>"
p6019
sS'IS_MATCH'
p6020
S"<class 'gluon.validators.IS_MATCH'>"
p6021
sS'tuple_list'
p6022
S"[('Andrea Baric', 'wow')]"
p6023
sg147
S"'wow'"
p6024
sS'IS_ALPHANUMERIC'
p6025
S"<class 'gluon.validators.IS_ALPHANUMERIC'>"
p6026
sS'SPAN'
p6027
S"<class 'gluon.html.SPAN'>"
p6028
sS'IS_SLUG'
p6029
S"<class 'gluon.validators.IS_SLUG'>"
p6030
sS'BEAUTIFY'
p6031
S"<class 'gluon.html.BEAUTIFY'>"
p6032
sS'META'
p6033
S"<class 'gluon.html.META'>"
p6034
sS'IS_DATE'
p6035
S"<class 'gluon.validators.IS_DATE'>"
p6036
sS'IS_EMAIL'
p6037
S"<class 'gluon.validators.IS_EMAIL'>"
p6038
sS'IS_NOT_EMPTY'
p6039
S"<class 'gluon.validators.IS_NOT_EMPTY'>"
p6040
sS'IS_FLOAT_IN_RANGE'
p6041
S"<class 'gluon.validators.IS_FLOAT_IN_RANGE'>"
p6042
sS'TBODY'
p6043
S"<class 'gluon.html.TBODY'>"
p6044
sS'CAT'
p6045
S"<class 'gluon.html.CAT'>"
p6046
sS'Field'
p6047
S"<class 'gluon.dal.Field'>"
p6048
sS'middle_columns'
p6049
S"'span12'"
p6050
sS'DIV'
p6051
S"<class 'gluon.html.DIV'>"
p6052
sS'LEGEND'
p6053
S"<class 'gluon.html.LEGEND'>"
p6054
sS'IMG'
p6055
S"<class 'gluon.html.IMG'>"
p6056
sS'COLGROUP'
p6057
S"<class 'gluon.html.COLGROUP'>"
p6058
sS'DAL'
p6059
S"<class 'gluon.dal.DAL'>"
p6060
sS'TT'
p6061
S"<class 'gluon.html.TT'>"
p6062
sS'TR'
p6063
S"<class 'gluon.html.TR'>"
p6064
sS'LI'
p6065
S"<class 'gluon.html.LI'>"
p6066
sS'right_sidebar_enabled'
p6067
g92
sS'TH'
p6068
S"<class 'gluon.html.TH'>"
p6069
sS'TD'
p6070
S"<class 'gluon.html.TD'>"
p6071
sS'IS_URL'
p6072
S"<class 'gluon.validators.IS_URL'>"
p6073
sS'A'
S"<class 'gluon.html.A'>"
p6074
sS'STYLE'
p6075
S"<class 'gluon.html.STYLE'>"
p6076
sS'IS_DATETIME_IN_RANGE'
p6077
S"<class 'gluon.validators.IS_DATETIME_IN_RANGE'>"
p6078
sS'IS_IMAGE'
p6079
S"<class 'gluon.validators.IS_IMAGE'>"
p6080
sS'I'
S"<class 'gluon.html.I'>"
p6081
sS'crud'
p6082
S'<gluon.tools.Crud object at 0x96afbf0>'
p6083
sS'IS_NOT_IN_DB'
p6084
S"<class 'gluon.validators.IS_NOT_IN_DB'>"
p6085
sg3726
S"<Storage {'body': <cStringIO.StringO object at 0...>, 'view': 'default/show_writing_comments.html'}>"
p6086
sS'THEAD'
p6087
S"<class 'gluon.html.THEAD'>"
p6088
sS'IS_NULL_OR'
p6089
S"<class 'gluon.validators.IS_EMPTY_OR'>"
p6090
sg5398
S"'Andrea Baric'"
p6091
sg48
S"<Storage {'function': 'show_writing_comments', '...ions/Final_Impulse/', 'post_vars': <Storage {}>}>"
p6092
sS'IS_EXPR'
p6093
S"<class 'gluon.validators.IS_EXPR'>"
p6094
sS'T'
S'<gluon.languages.translator object at 0x96af870>'
p6095
sS'IS_IN_SET'
p6096
S"<class 'gluon.validators.IS_IN_SET'>"
p6097
sS'IS_UPLOAD_FILENAME'
p6098
S"<class 'gluon.validators.IS_UPLOAD_FILENAME'>"
p6099
sS'IS_DECIMAL_IN_RANGE'
p6100
S"<class 'gluon.validators.IS_DECIMAL_IN_RANGE'>"
p6101
sssS'traceback'
p6102
S'Traceback (most recent call last):\n  File "gluon/restricted.py", line 212, in restricted\n  File "/Users/abaric/Downloads/web2py/web2py.app/Contents/Resources/applications/Final_Impulse/views/default/show_writing_comments.html", line 79, in <module>\nNameError: name \'image\' is not defined\n'
p6103
s.