(dp1
S'output'
p2
S"<type 'exceptions.SyntaxError'> invalid syntax (show_video_comments.html, line 93)"
p3
sS'layer'
p4
S'/Users/abaric/Downloads/web2py/web2py.app/Contents/Resources/applications/Final_Impulse/views/default/show_video_comments.html'
p5
sS'code'
p6
S'response.write(\'<!DOCTYPE html>\\n<!-- paulirish.com/2008/conditional-stylesheets-vs-css-hacks-answer-neither/ -->\\n<!--[if lt IE 7]><html class="ie ie6 ie-lte9 ie-lte8 ie-lte7 no-js" lang="\', escape=False)\nresponse.write(T.accepted_language or \'en\')\nresponse.write(\'"> <![endif]-->\\n<!--[if IE 7]><html class="ie ie7 ie-lte9 ie-lte8 ie-lte7 no-js" lang="\', escape=False)\nresponse.write(T.accepted_language or \'en\')\nresponse.write(\'"> <![endif]-->\\n<!--[if IE 8]><html class="ie ie8 ie-lte9 ie-lte8 no-js" lang="\', escape=False)\nresponse.write(T.accepted_language or \'en\')\nresponse.write(\'"> <![endif]-->\\n<!--[if IE 9]><html class="ie9 ie-lte9 no-js" lang="\', escape=False)\nresponse.write(T.accepted_language or \'en\')\nresponse.write(\'"> <![endif]-->\\n<!--[if (gt IE 9)|!(IE)]><!--> <html class="no-js" lang="\', escape=False)\nresponse.write(T.accepted_language or \'en\')\nresponse.write(\'"> <!--<![endif]-->\\n<head>\\n  <meta charset="utf-8" />\\n  <!-- www.phpied.com/conditional-comments-block-downloads/ -->\\n  <!-- Always force latest IE rendering engine\\n       (even in intranet) & Chrome Frame\\n       Remove this if you use the .htaccess -->\\n  <!--[if IE]>\\n      <meta http-equiv="X-UA-Compatible" content="IE=edge\', escape=False)\nresponse.write(not request.is_local and \',chrome=1\' or \'\')\nresponse.write(\'">\\n      <![endif]-->\\n\\n  <title>\', escape=False)\nresponse.write(response.title or request.application)\nresponse.write(\'</title>\\n\\n  <!-- http://dev.w3.org/html5/markup/meta.name.html -->\\n  <meta name="application-name" content="\', escape=False)\nresponse.write(request.application)\nresponse.write(\'" />\\n\\n  <!-- Speaking of Google, don\\\'t forget to set your site up:\\n       http://google.com/webmasters -->\\n  <meta name="google-site-verification" content="" />\\n\\n  <!--  Mobile Viewport Fix\\n        j.mp/mobileviewport & davidbcalhoun.com/2010/viewport-metatag\\n        device-width: Occupy full width of the screen in its current orientation\\n        initial-scale = 1.0 retains dimensions instead of zooming out if page height > device height\\n        user-scalable = yes allows the user to zoom in -->\\n  <meta name="viewport" content="width=device-width, initial-scale=1.0">\\n\\n  <link rel="shortcut icon" href="\', escape=False)\nresponse.write(URL(\'static\',\'images/favicon.ico\'))\nresponse.write(\'" type="image/x-icon">\\n  <link rel="apple-touch-icon" href="\', escape=False)\nresponse.write(URL(\'static\',\'images/favicon.png\'))\nresponse.write(\'">\\n\\n  <!-- All JavaScript at the bottom, except for Modernizr which enables\\n       HTML5 elements & feature detects -->\\n  <script src="\', escape=False)\nresponse.write(URL(\'static\',\'js/modernizr.custom.js\'))\nresponse.write(\'"></script>\\n\\n  <!-- include stylesheets -->\\n  \', escape=False)\nresponse.files.append(URL(\'static\',\'css/web2py.css\'))\nresponse.files.append(URL(\'static\',\'css/bootstrap.min.css\'))\nresponse.files.append(URL(\'static\',\'css/bootstrap-responsive.min.css\'))\nresponse.files.append(URL(\'static\',\'css/web2py_bootstrap.css\'))\nresponse.write(\'\\n\\n  \', escape=False)\nresponse.write(\'<script type="text/javascript"><!--\\n    // These variables are used by the web2py_ajax_init function in web2py_ajax.js (which is loaded below).\\n    var w2p_ajax_confirm_message = "\', escape=False)\nresponse.write(T(\'Are you sure you want to delete this object?\'))\nresponse.write(\'";\\n    var w2p_ajax_date_format = "\', escape=False)\nresponse.write(T(\'%Y-%m-%d\'))\nresponse.write(\'";\\n    var w2p_ajax_datetime_format = "\', escape=False)\nresponse.write(T(\'%Y-%m-%d %H:%M:%S\'))\nresponse.write(\'";\\n    //--></script>\\n\', escape=False)\nresponse.files.insert(0,URL(\'static\',\'js/jquery.js\'))\nresponse.files.insert(1,URL(\'static\',\'css/calendar.css\'))\nresponse.files.insert(2,URL(\'static\',\'js/calendar.js\'))\nresponse.files.insert(3,URL(\'static\',\'js/web2py.js\'))\nresponse.include_meta()\nresponse.include_files()\nresponse.write(\'\\n\', escape=False)\nresponse.write(\'\\n\\n  \', escape=False)\n# using sidebars need to know what sidebar you want to use\nleft_sidebar_enabled = globals().get(\'left_sidebar_enabled\',False)\nright_sidebar_enabled = globals().get(\'right_sidebar_enabled\',False)\nmiddle_columns = {0:\'span12\',1:\'span9\',2:\'span6\'}[\n(left_sidebar_enabled and 1 or 0)+(right_sidebar_enabled and 1 or 0)]\nresponse.write(\'\\n\\n  <!-- uncomment here to load jquery-ui\\n       <link rel="stylesheet" href="http://ajax.googleapis.com/ajax/libs/jqueryui/1.8.16/themes/base/jquery-ui.css" type="text/css" media="all" />\\n       <script src="http://ajax.googleapis.com/ajax/libs/jqueryui/1.8.16/jquery-ui.min.js" type="text/javascript"></script>\\n       uncomment to load jquery-ui //-->\\n  <noscript><link href="\', escape=False)\nresponse.write(URL(\'static\', \'css/web2py_bootstrap_nojs.css\'))\nresponse.write(\'" rel="stylesheet" type="text/css" /></noscript>\\n  \', escape=False)\nresponse.write(\'\\n</head>\\n\\n<body>\\n  <!-- Navbar ================================================== -->\\n  <div class="navbar navbar-inverse navbar-fixed-top">\\n    <div class="flash">\', escape=False)\nresponse.write(response.flash or \'\')\nresponse.write(\'</div>\\n    <div class="navbar-inner">\\n      <div class="container">\\n        <!-- the next tag is necessary for bootstrap menus, do not remove -->\\n        <button type="button" class="btn btn-navbar" data-toggle="collapse" data-target=".nav-collapse">\\n          <span class="icon-bar"></span>\\n          <span class="icon-bar"></span>\\n          <span class="icon-bar"></span>\\n        </button>\\n        <a class="brand" href="http://www.web2py.com/"><b>web<span>2</span>py</b>&trade;&nbsp;</a>\\n        <ul id="navbar" class="nav pull-right">\', escape=False)\nresponse.write(\'auth\' in globals() and auth.navbar(mode="dropdown") or \'\')\nresponse.write(\'</ul>\\n        <div class="nav-collapse">\\n          \', escape=False)\nis_mobile=request.user_agent().is_mobile\nresponse.write(\'\\n          \', escape=False)\nif response.menu:\n    response.write(\'\\n          \', escape=False)\n    response.write(MENU(response.menu, _class=\'mobile-menu nav\' if is_mobile else \'nav\',mobile=is_mobile,li_class=\'dropdown\',ul_class=\'dropdown-menu\'))\n    response.write(\'\\n          \', escape=False)\n    pass\nresponse.write(\'\\n        </div><!--/.nav-collapse -->\\n      </div>\\n    </div>\\n  </div><!--/top navbar -->\\n\\n  <div class="container">\\n    <!-- Masthead ================================================== -->\\n    <header class="mastheader row" id="header">\\n        <div class="span12">\\n            <div class="page-header">\\n                <h1>\\n                    \', escape=False)\nresponse.write(response.title or request.application)\nresponse.write(\'\\n                    <small>\', escape=False)\nresponse.write(response.subtitle or \'\')\nresponse.write(\'</small>\\n                </h1>\\n            </div>\\n        </div>\\n    </header>\\n\\n    <section id="main" class="main row">\\n        \', escape=False)\nif left_sidebar_enabled:\n    response.write(\'\\n        <div class="span3 left-sidebar">\\n            \', escape=False)\n    response.write(\'\\n            <h3>Left Sidebar</h3>\\n            <p></p>\\n            \', escape=False)\n    response.write(\'\\n        </div>\\n        \', escape=False)\n    pass\nresponse.write(\'\\n\\n        <div class="\', escape=False)\nresponse.write(middle_columns)\nresponse.write(\'">\\n            \', escape=False)\nresponse.write(\'\\n            \', escape=False)\nresponse.write(\'\\n\\n<h1>Da Video Posts</h1>\\n\\n<table>\\n    \', escape=False)\nfor video in videos:\n    response.write(\'\\n    <tr>\\n        <center>\\n        <td><b><i>\', escape=False)\n    response.write(video.title)\n    response.write(\'</i></b></td>\\n        </center>\\n    </tr>\\n    \\n\\t<tr>     \\n        <center>  \\n        <td><iframe width="420" height="315" src="\', escape=False)\n    response.write(video.url_str)\n    response.write(\'" frameborder="0" allowfullscreen></iframe></td>\\n        </center>\\n    </tr>\\n  \\n    \', escape=False)\n    if len(d[video.id]):\n        response.write(\'\\n        <tr>\\n        <td>\\n            <table>\\n            \', escape=False)\n        for t in d[video.id]:\n            response.write(\'\\n                        <tr>\\n                            <center>\\n                            <td>\', escape=False)\n            response.write(("\'%s\' says \'%s\'")%(t[0],t[1]))\n            response.write(\'</td>\\n                            </center>\\n                        </tr>\\n                    \', escape=False)\n            pass\n        response.write(\'\\n        </table>\\n            </td>\\n    </tr>\\n    \', escape=False)\n        else\n        response.write(\':\\n    <h1>No video comments</h1>\\n    \', escape=False)\n        pass\n    response.write(\'\\n         \', escape=False)\n    pass\nresponse.write(\'\\n    \', escape=False)\npass\nresponse.write(\'\\n</table>\\n\', escape=False)\nresponse.write(\'\\n            \', escape=False)\nresponse.write(\'\\n        </div>\\n\\n        \', escape=False)\nif right_sidebar_enabled:\n    response.write(\'\\n        <div class="span3">\\n            \', escape=False)\n    response.write(\'\\n            <h3>Right Sidebar</h3>\\n            <p></p>\\n            \', escape=False)\n    response.write(\'\\n        </div>\\n        \', escape=False)\n    pass\nresponse.write(\'\\n    </section><!--/main-->\\n\\n    <!-- Footer ================================================== -->\\n    <div class="row">\\n        <footer class="footer span12" id="footer">\\n            <div class="footer-content">\\n                \', escape=False)\nresponse.write(\' <!-- this is default footer -->\\n                <div class="copyright pull-left">\', escape=False)\nresponse.write(T(\'Copyright\'))\nresponse.write(\' &#169; \', escape=False)\nresponse.write(request.now.year)\nresponse.write(\'</div>\\n                <div id="poweredBy" class="pull-right">\\n                    \', escape=False)\nresponse.write(T(\'Powered by\'))\nresponse.write(\'\\n                    <a href="http://www.web2py.com/">web2py</a>\\n                </div>\\n                \', escape=False)\nresponse.write(\'\\n            </div>\\n        </footer>\\n    </div>\\n\\n  </div> <!-- /container -->\\n\\n  <!-- The javascript =============================================\\n       (Placed at the end of the document so the pages load faster) -->\\n  <script src="\', escape=False)\nresponse.write(URL(\'static\',\'js/bootstrap.min.js\'))\nresponse.write(\'"></script>\\n  <script src="\', escape=False)\nresponse.write(URL(\'static\',\'js/web2py_bootstrap.js\'))\nresponse.write(\'"></script>\\n  <!--[if lt IE 7 ]>\\n      <script src="\', escape=False)\nresponse.write(URL(\'static\',\'js/dd_belatedpng.js\'))\nresponse.write(\'"></script>\\n      <script> DD_belatedPNG.fix(\\\'img, .png_bg\\\'); //fix any <img> or .png_bg background-images </script>\\n      <![endif]-->\\n  \', escape=False)\nif response.google_analytics_id:\n    response.write(\'<script type="text/javascript"> var _gaq = _gaq || []; _gaq.push([\\\'_setAccount\\\', \\\'\', escape=False)\n    response.write(response.google_analytics_id)\n    response.write("\']); _gaq.push([\'_trackPageview\']); (function() { var ga = document.createElement(\'script\'); ga.type = \'text/javascript\'; ga.async = true; ga.src = (\'https:\' == document.location.protocol ? \'https://ssl\' : \'http://www\') + \'.google-analytics.com/ga.js\'; var s = document.getElementsByTagName(\'script\')[0]; s.parentNode.insertBefore(ga, s); })(); </script> ", escape=False)\n    pass\nresponse.write(\'\\n  <script src="\', escape=False)\nresponse.write(URL(\'static\',\'js/share.js\',vars=dict(static=URL(\'static\',\'images\'))))\nresponse.write(\'"></script>\\n</body>\\n</html>\\n\\n\', escape=False)'
p7
sS'snapshot'
p8
(dp9
S'exception'
p10
(dp11
S'__getslice__'
p12
S"<method-wrapper '__getslice__' of exceptions.SyntaxError object at 0x92d6fb0>"
p13
sS'text'
p14
S"'        else\\n'"
p15
sS'__str__'
p16
S"<method-wrapper '__str__' of exceptions.SyntaxError object at 0x92d6fb0>"
p17
sS'__reduce__'
p18
S'<built-in method __reduce__ of exceptions.SyntaxError object at 0x92d6fb0>'
p19
sS'__dict__'
p20
S'{}'
p21
sS'__init__'
p22
S"<method-wrapper '__init__' of exceptions.SyntaxError object at 0x92d6fb0>"
p23
sS'__setattr__'
p24
S"<method-wrapper '__setattr__' of exceptions.SyntaxError object at 0x92d6fb0>"
p25
sS'__reduce_ex__'
p26
S'<built-in method __reduce_ex__ of exceptions.SyntaxError object at 0x92d6fb0>'
p27
sS'__new__'
p28
S'<built-in method __new__ of type object at 0x5f9320>'
p29
sS'__class__'
p30
S"<type 'exceptions.SyntaxError'>"
p31
sS'filename'
p32
S"'/Users/abaric/Downloads/web2py/web2py.app/Conten...al_Impulse/views/default/show_video_comments.html'"
p33
sS'lineno'
p34
S'93'
p35
sS'msg'
p36
S"'invalid syntax'"
p37
sS'__doc__'
p38
S"'Invalid syntax.'"
p39
sS'__getitem__'
p40
S"<method-wrapper '__getitem__' of exceptions.SyntaxError object at 0x92d6fb0>"
p41
sS'__setstate__'
p42
S'<built-in method __setstate__ of exceptions.SyntaxError object at 0x92d6fb0>'
p43
sS'__getattribute__'
p44
S"<method-wrapper '__getattribute__' of exceptions.SyntaxError object at 0x92d6fb0>"
p45
sS'print_file_and_line'
p46
S'None'
p47
sS'args'
p48
S"('invalid syntax', ('/Users/abaric/Downloads/web2py/web2py.app/Conten...al_Impulse/views/default/show_video_comments.html', 93, 12, '        else\\n'))"
p49
sS'offset'
p50
S'12'
p51
sS'__delattr__'
p52
S"<method-wrapper '__delattr__' of exceptions.SyntaxError object at 0x92d6fb0>"
p53
sS'__repr__'
p54
S"<method-wrapper '__repr__' of exceptions.SyntaxError object at 0x92d6fb0>"
p55
sS'__hash__'
p56
S"<method-wrapper '__hash__' of exceptions.SyntaxError object at 0x92d6fb0>"
p57
ssS'evalue'
p58
S'invalid syntax (show_video_comments.html, line 93)'
p59
sS'request'
p60
ccopy_reg
_reconstructor
p61
(cgluon.html
BEAUTIFY
p62
c__builtin__
object
p63
NtRp64
(dp65
S'attributes'
p66
(dp67
sS'components'
p68
(lp69
g61
(cgluon.html
TABLE
p70
g63
NtRp71
(dp72
g66
(dp73
S'level'
p74
I5
ssS'parent'
p75
Nsg68
(lp76
g61
(cgluon.html
TR
p77
g63
NtRp78
(dp79
g66
(dp80
sg75
g71
sg68
(lp81
g61
(cgluon.html
TD
p82
g63
NtRp83
(dp84
g66
(dp85
S'_style'
p86
S'font-weight:bold;vertical-align:top'
p87
ssg75
g78
sg68
(lp88
S'ajax'
p89
asbag61
(g82
g63
NtRp90
(dp91
g66
(dp92
S'_valign'
p93
S'top'
p94
ssg75
g78
sg68
(lp95
S':'
asbag61
(g82
g63
NtRp96
(dp97
g66
(dp98
sg75
g78
sg68
(lp99
g61
(g62
g63
NtRp100
(dp101
g66
(dp102
g74
I5
ssg75
g96
sg68
(lp103
S'False'
p104
asbasbasbag61
(g77
g63
NtRp105
(dp106
g66
(dp107
sg75
g71
sg68
(lp108
g61
(g82
g63
NtRp109
(dp110
g66
(dp111
g86
g87
ssg75
g105
sg68
(lp112
S'application'
p113
asbag61
(g82
g63
NtRp114
(dp115
g66
(dp116
g93
g94
ssg75
g105
sg68
(lp117
S':'
asbag61
(g82
g63
NtRp118
(dp119
g66
(dp120
sg75
g105
sg68
(lp121
g61
(g62
g63
NtRp122
(dp123
g66
(dp124
g74
I5
ssg75
g118
sg68
(lp125
S'Final_Impulse'
p126
asbasbasbag61
(g77
g63
NtRp127
(dp128
g66
(dp129
sg75
g71
sg68
(lp130
g61
(g82
g63
NtRp131
(dp132
g66
(dp133
g86
g87
ssg75
g127
sg68
(lp134
g48
asbag61
(g82
g63
NtRp135
(dp136
g66
(dp137
g93
g94
ssg75
g127
sg68
(lp138
S':'
asbag61
(g82
g63
NtRp139
(dp140
g66
(dp141
sg75
g127
sg68
(lp142
g61
(g62
g63
NtRp143
(dp144
g66
(dp145
g74
I5
ssg75
g139
sg68
(lp146
g61
(g70
g63
NtRp147
(dp148
g66
(dp149
g74
I4
ssg75
Nsg68
(lp150
sbasbasbasbag61
(g77
g63
NtRp151
(dp152
g66
(dp153
sg75
g71
sg68
(lp154
g61
(g82
g63
NtRp155
(dp156
g66
(dp157
g86
g87
ssg75
g151
sg68
(lp158
S'body'
p159
asbag61
(g82
g63
NtRp160
(dp161
g66
(dp162
g93
g94
ssg75
g151
sg68
(lp163
S':'
asbag61
(g82
g63
NtRp164
(dp165
g66
(dp166
sg75
g151
sg68
(lp167
g61
(g62
g63
NtRp168
(dp169
g66
(dp170
g74
I5
ssg75
g164
sg68
(lp171
S'<cStringIO.StringO object at 0x8e39a40>'
p172
asbasbasbag61
(g77
g63
NtRp173
(dp174
g66
(dp175
sg75
g71
sg68
(lp176
g61
(g82
g63
NtRp177
(dp178
g66
(dp179
g86
g87
ssg75
g173
sg68
(lp180
S'cid'
p181
asbag61
(g82
g63
NtRp182
(dp183
g66
(dp184
g93
g94
ssg75
g173
sg68
(lp185
S':'
asbag61
(g82
g63
NtRp186
(dp187
g66
(dp188
sg75
g173
sg68
(lp189
g61
(g62
g63
NtRp190
(dp191
g66
(dp192
g74
I5
ssg75
g186
sg68
(lp193
S'None'
p194
asbasbasbag61
(g77
g63
NtRp195
(dp196
g66
(dp197
sg75
g71
sg68
(lp198
g61
(g82
g63
NtRp199
(dp200
g66
(dp201
g86
g87
ssg75
g195
sg68
(lp202
S'client'
p203
asbag61
(g82
g63
NtRp204
(dp205
g66
(dp206
g93
g94
ssg75
g195
sg68
(lp207
S':'
asbag61
(g82
g63
NtRp208
(dp209
g66
(dp210
sg75
g195
sg68
(lp211
g61
(g62
g63
NtRp212
(dp213
g66
(dp214
g74
I5
ssg75
g208
sg68
(lp215
S'127.0.0.1'
p216
asbasbasbag61
(g77
g63
NtRp217
(dp218
g66
(dp219
sg75
g71
sg68
(lp220
g61
(g82
g63
NtRp221
(dp222
g66
(dp223
g86
g87
ssg75
g217
sg68
(lp224
S'controller'
p225
asbag61
(g82
g63
NtRp226
(dp227
g66
(dp228
g93
g94
ssg75
g217
sg68
(lp229
S':'
asbag61
(g82
g63
NtRp230
(dp231
g66
(dp232
sg75
g217
sg68
(lp233
g61
(g62
g63
NtRp234
(dp235
g66
(dp236
g74
I5
ssg75
g230
sg68
(lp237
S'default'
p238
asbasbasbag61
(g77
g63
NtRp239
(dp240
g66
(dp241
sg75
g71
sg68
(lp242
g61
(g82
g63
NtRp243
(dp244
g66
(dp245
g86
g87
ssg75
g239
sg68
(lp246
S'cookies'
p247
asbag61
(g82
g63
NtRp248
(dp249
g66
(dp250
g93
g94
ssg75
g239
sg68
(lp251
S':'
asbag61
(g82
g63
NtRp252
(dp253
g66
(dp254
sg75
g239
sg68
(lp255
g61
(g62
g63
NtRp256
(dp257
g66
(dp258
g74
I5
ssg75
g252
sg68
(lp259
g61
(g70
g63
NtRp260
(dp261
g66
(dp262
g74
I4
ssg75
Nsg68
(lp263
g61
(g77
g63
NtRp264
(dp265
g66
(dp266
sg75
g260
sg68
(lp267
g61
(g82
g63
NtRp268
(dp269
g66
(dp270
g86
g87
ssg75
g264
sg68
(lp271
S'session_id_admin'
p272
asbag61
(g82
g63
NtRp273
(dp274
g66
(dp275
g93
g94
ssg75
g264
sg68
(lp276
S':'
asbag61
(g82
g63
NtRp277
(dp278
g66
(dp279
sg75
g264
sg68
(lp280
g61
(g62
g63
NtRp281
(dp282
g66
(dp283
g74
I4
ssg75
g277
sg68
(lp284
S'127.0.0.1-67e1670c-9cb7-4c81-83d1-b44ab2b28c6e'
p285
ag61
(g70
g63
NtRp286
(dp287
g66
(dp288
g74
I3
ssg75
Nsg68
(lp289
g61
(g77
g63
NtRp290
(dp291
g66
(dp292
sg75
g286
sg68
(lp293
g61
(g82
g63
NtRp294
(dp295
g66
(dp296
g86
g87
ssg75
g290
sg68
(lp297
S'comment'
p298
asbag61
(g82
g63
NtRp299
(dp300
g66
(dp301
g93
g94
ssg75
g290
sg68
(lp302
S':'
asbag61
(g82
g63
NtRp303
(dp304
g66
(dp305
sg75
g290
sg68
(lp306
g61
(g62
g63
NtRp307
(dp308
g66
(dp309
g74
I3
ssg75
g303
sg68
(lp310
S''
asbasbasbag61
(g77
g63
NtRp311
(dp312
g66
(dp313
sg75
g286
sg68
(lp314
g61
(g82
g63
NtRp315
(dp316
g66
(dp317
g86
g87
ssg75
g311
sg68
(lp318
S'domain'
p319
asbag61
(g82
g63
NtRp320
(dp321
g66
(dp322
g93
g94
ssg75
g311
sg68
(lp323
S':'
asbag61
(g82
g63
NtRp324
(dp325
g66
(dp326
sg75
g311
sg68
(lp327
g61
(g62
g63
NtRp328
(dp329
g66
(dp330
g74
I3
ssg75
g324
sg68
(lp331
S''
asbasbasbag61
(g77
g63
NtRp332
(dp333
g66
(dp334
sg75
g286
sg68
(lp335
g61
(g82
g63
NtRp336
(dp337
g66
(dp338
g86
g87
ssg75
g332
sg68
(lp339
S'expires'
p340
asbag61
(g82
g63
NtRp341
(dp342
g66
(dp343
g93
g94
ssg75
g332
sg68
(lp344
S':'
asbag61
(g82
g63
NtRp345
(dp346
g66
(dp347
sg75
g332
sg68
(lp348
g61
(g62
g63
NtRp349
(dp350
g66
(dp351
g74
I3
ssg75
g345
sg68
(lp352
S''
asbasbasbag61
(g77
g63
NtRp353
(dp354
g66
(dp355
sg75
g286
sg68
(lp356
g61
(g82
g63
NtRp357
(dp358
g66
(dp359
g86
g87
ssg75
g353
sg68
(lp360
S'max-age'
p361
asbag61
(g82
g63
NtRp362
(dp363
g66
(dp364
g93
g94
ssg75
g353
sg68
(lp365
S':'
asbag61
(g82
g63
NtRp366
(dp367
g66
(dp368
sg75
g353
sg68
(lp369
g61
(g62
g63
NtRp370
(dp371
g66
(dp372
g74
I3
ssg75
g366
sg68
(lp373
S''
asbasbasbag61
(g77
g63
NtRp374
(dp375
g66
(dp376
sg75
g286
sg68
(lp377
g61
(g82
g63
NtRp378
(dp379
g66
(dp380
g86
g87
ssg75
g374
sg68
(lp381
S'path'
p382
asbag61
(g82
g63
NtRp383
(dp384
g66
(dp385
g93
g94
ssg75
g374
sg68
(lp386
S':'
asbag61
(g82
g63
NtRp387
(dp388
g66
(dp389
sg75
g374
sg68
(lp390
g61
(g62
g63
NtRp391
(dp392
g66
(dp393
g74
I3
ssg75
g387
sg68
(lp394
S''
asbasbasbag61
(g77
g63
NtRp395
(dp396
g66
(dp397
sg75
g286
sg68
(lp398
g61
(g82
g63
NtRp399
(dp400
g66
(dp401
g86
g87
ssg75
g395
sg68
(lp402
S'secure'
p403
asbag61
(g82
g63
NtRp404
(dp405
g66
(dp406
g93
g94
ssg75
g395
sg68
(lp407
S':'
asbag61
(g82
g63
NtRp408
(dp409
g66
(dp410
sg75
g395
sg68
(lp411
g61
(g62
g63
NtRp412
(dp413
g66
(dp414
g74
I3
ssg75
g408
sg68
(lp415
S''
asbasbasbag61
(g77
g63
NtRp416
(dp417
g66
(dp418
sg75
g286
sg68
(lp419
g61
(g82
g63
NtRp420
(dp421
g66
(dp422
g86
g87
ssg75
g416
sg68
(lp423
S'version'
p424
asbag61
(g82
g63
NtRp425
(dp426
g66
(dp427
g93
g94
ssg75
g416
sg68
(lp428
S':'
asbag61
(g82
g63
NtRp429
(dp430
g66
(dp431
sg75
g416
sg68
(lp432
g61
(g62
g63
NtRp433
(dp434
g66
(dp435
g74
I3
ssg75
g429
sg68
(lp436
S''
asbasbasbasbasbasbasbag61
(g77
g63
NtRp437
(dp438
g66
(dp439
sg75
g260
sg68
(lp440
g61
(g82
g63
NtRp441
(dp442
g66
(dp443
g86
g87
ssg75
g437
sg68
(lp444
S'session_id_final_impulse'
p445
asbag61
(g82
g63
NtRp446
(dp447
g66
(dp448
g93
g94
ssg75
g437
sg68
(lp449
S':'
asbag61
(g82
g63
NtRp450
(dp451
g66
(dp452
sg75
g437
sg68
(lp453
g61
(g62
g63
NtRp454
(dp455
g66
(dp456
g74
I4
ssg75
g450
sg68
(lp457
S'127.0.0.1-fe54df76-3eba-4359-ae6d-98727f24814f'
p458
ag61
(g70
g63
NtRp459
(dp460
g66
(dp461
g74
I3
ssg75
Nsg68
(lp462
g61
(g77
g63
NtRp463
(dp464
g66
(dp465
sg75
g459
sg68
(lp466
g61
(g82
g63
NtRp467
(dp468
g66
(dp469
g86
g87
ssg75
g463
sg68
(lp470
g298
asbag61
(g82
g63
NtRp471
(dp472
g66
(dp473
g93
g94
ssg75
g463
sg68
(lp474
S':'
asbag61
(g82
g63
NtRp475
(dp476
g66
(dp477
sg75
g463
sg68
(lp478
g61
(g62
g63
NtRp479
(dp480
g66
(dp481
g74
I3
ssg75
g475
sg68
(lp482
S''
asbasbasbag61
(g77
g63
NtRp483
(dp484
g66
(dp485
sg75
g459
sg68
(lp486
g61
(g82
g63
NtRp487
(dp488
g66
(dp489
g86
g87
ssg75
g483
sg68
(lp490
g319
asbag61
(g82
g63
NtRp491
(dp492
g66
(dp493
g93
g94
ssg75
g483
sg68
(lp494
S':'
asbag61
(g82
g63
NtRp495
(dp496
g66
(dp497
sg75
g483
sg68
(lp498
g61
(g62
g63
NtRp499
(dp500
g66
(dp501
g74
I3
ssg75
g495
sg68
(lp502
S''
asbasbasbag61
(g77
g63
NtRp503
(dp504
g66
(dp505
sg75
g459
sg68
(lp506
g61
(g82
g63
NtRp507
(dp508
g66
(dp509
g86
g87
ssg75
g503
sg68
(lp510
g340
asbag61
(g82
g63
NtRp511
(dp512
g66
(dp513
g93
g94
ssg75
g503
sg68
(lp514
S':'
asbag61
(g82
g63
NtRp515
(dp516
g66
(dp517
sg75
g503
sg68
(lp518
g61
(g62
g63
NtRp519
(dp520
g66
(dp521
g74
I3
ssg75
g515
sg68
(lp522
S''
asbasbasbag61
(g77
g63
NtRp523
(dp524
g66
(dp525
sg75
g459
sg68
(lp526
g61
(g82
g63
NtRp527
(dp528
g66
(dp529
g86
g87
ssg75
g523
sg68
(lp530
g361
asbag61
(g82
g63
NtRp531
(dp532
g66
(dp533
g93
g94
ssg75
g523
sg68
(lp534
S':'
asbag61
(g82
g63
NtRp535
(dp536
g66
(dp537
sg75
g523
sg68
(lp538
g61
(g62
g63
NtRp539
(dp540
g66
(dp541
g74
I3
ssg75
g535
sg68
(lp542
S''
asbasbasbag61
(g77
g63
NtRp543
(dp544
g66
(dp545
sg75
g459
sg68
(lp546
g61
(g82
g63
NtRp547
(dp548
g66
(dp549
g86
g87
ssg75
g543
sg68
(lp550
g382
asbag61
(g82
g63
NtRp551
(dp552
g66
(dp553
g93
g94
ssg75
g543
sg68
(lp554
S':'
asbag61
(g82
g63
NtRp555
(dp556
g66
(dp557
sg75
g543
sg68
(lp558
g61
(g62
g63
NtRp559
(dp560
g66
(dp561
g74
I3
ssg75
g555
sg68
(lp562
S''
asbasbasbag61
(g77
g63
NtRp563
(dp564
g66
(dp565
sg75
g459
sg68
(lp566
g61
(g82
g63
NtRp567
(dp568
g66
(dp569
g86
g87
ssg75
g563
sg68
(lp570
g403
asbag61
(g82
g63
NtRp571
(dp572
g66
(dp573
g93
g94
ssg75
g563
sg68
(lp574
S':'
asbag61
(g82
g63
NtRp575
(dp576
g66
(dp577
sg75
g563
sg68
(lp578
g61
(g62
g63
NtRp579
(dp580
g66
(dp581
g74
I3
ssg75
g575
sg68
(lp582
S''
asbasbasbag61
(g77
g63
NtRp583
(dp584
g66
(dp585
sg75
g459
sg68
(lp586
g61
(g82
g63
NtRp587
(dp588
g66
(dp589
g86
g87
ssg75
g583
sg68
(lp590
g424
asbag61
(g82
g63
NtRp591
(dp592
g66
(dp593
g93
g94
ssg75
g583
sg68
(lp594
S':'
asbag61
(g82
g63
NtRp595
(dp596
g66
(dp597
sg75
g583
sg68
(lp598
g61
(g62
g63
NtRp599
(dp600
g66
(dp601
g74
I3
ssg75
g595
sg68
(lp602
S''
asbasbasbasbasbasbasbag61
(g77
g63
NtRp603
(dp604
g66
(dp605
sg75
g260
sg68
(lp606
g61
(g82
g63
NtRp607
(dp608
g66
(dp609
g86
g87
ssg75
g603
sg68
(lp610
S'session_id_impulse_online2'
p611
asbag61
(g82
g63
NtRp612
(dp613
g66
(dp614
g93
g94
ssg75
g603
sg68
(lp615
S':'
asbag61
(g82
g63
NtRp616
(dp617
g66
(dp618
sg75
g603
sg68
(lp619
g61
(g62
g63
NtRp620
(dp621
g66
(dp622
g74
I4
ssg75
g616
sg68
(lp623
S'127.0.0.1-37fb8c7e-69a3-434e-9537-3c2b0516f29b'
p624
ag61
(g70
g63
NtRp625
(dp626
g66
(dp627
g74
I3
ssg75
Nsg68
(lp628
g61
(g77
g63
NtRp629
(dp630
g66
(dp631
sg75
g625
sg68
(lp632
g61
(g82
g63
NtRp633
(dp634
g66
(dp635
g86
g87
ssg75
g629
sg68
(lp636
g298
asbag61
(g82
g63
NtRp637
(dp638
g66
(dp639
g93
g94
ssg75
g629
sg68
(lp640
S':'
asbag61
(g82
g63
NtRp641
(dp642
g66
(dp643
sg75
g629
sg68
(lp644
g61
(g62
g63
NtRp645
(dp646
g66
(dp647
g74
I3
ssg75
g641
sg68
(lp648
S''
asbasbasbag61
(g77
g63
NtRp649
(dp650
g66
(dp651
sg75
g625
sg68
(lp652
g61
(g82
g63
NtRp653
(dp654
g66
(dp655
g86
g87
ssg75
g649
sg68
(lp656
g319
asbag61
(g82
g63
NtRp657
(dp658
g66
(dp659
g93
g94
ssg75
g649
sg68
(lp660
S':'
asbag61
(g82
g63
NtRp661
(dp662
g66
(dp663
sg75
g649
sg68
(lp664
g61
(g62
g63
NtRp665
(dp666
g66
(dp667
g74
I3
ssg75
g661
sg68
(lp668
S''
asbasbasbag61
(g77
g63
NtRp669
(dp670
g66
(dp671
sg75
g625
sg68
(lp672
g61
(g82
g63
NtRp673
(dp674
g66
(dp675
g86
g87
ssg75
g669
sg68
(lp676
g340
asbag61
(g82
g63
NtRp677
(dp678
g66
(dp679
g93
g94
ssg75
g669
sg68
(lp680
S':'
asbag61
(g82
g63
NtRp681
(dp682
g66
(dp683
sg75
g669
sg68
(lp684
g61
(g62
g63
NtRp685
(dp686
g66
(dp687
g74
I3
ssg75
g681
sg68
(lp688
S''
asbasbasbag61
(g77
g63
NtRp689
(dp690
g66
(dp691
sg75
g625
sg68
(lp692
g61
(g82
g63
NtRp693
(dp694
g66
(dp695
g86
g87
ssg75
g689
sg68
(lp696
g361
asbag61
(g82
g63
NtRp697
(dp698
g66
(dp699
g93
g94
ssg75
g689
sg68
(lp700
S':'
asbag61
(g82
g63
NtRp701
(dp702
g66
(dp703
sg75
g689
sg68
(lp704
g61
(g62
g63
NtRp705
(dp706
g66
(dp707
g74
I3
ssg75
g701
sg68
(lp708
S''
asbasbasbag61
(g77
g63
NtRp709
(dp710
g66
(dp711
sg75
g625
sg68
(lp712
g61
(g82
g63
NtRp713
(dp714
g66
(dp715
g86
g87
ssg75
g709
sg68
(lp716
g382
asbag61
(g82
g63
NtRp717
(dp718
g66
(dp719
g93
g94
ssg75
g709
sg68
(lp720
S':'
asbag61
(g82
g63
NtRp721
(dp722
g66
(dp723
sg75
g709
sg68
(lp724
g61
(g62
g63
NtRp725
(dp726
g66
(dp727
g74
I3
ssg75
g721
sg68
(lp728
S''
asbasbasbag61
(g77
g63
NtRp729
(dp730
g66
(dp731
sg75
g625
sg68
(lp732
g61
(g82
g63
NtRp733
(dp734
g66
(dp735
g86
g87
ssg75
g729
sg68
(lp736
g403
asbag61
(g82
g63
NtRp737
(dp738
g66
(dp739
g93
g94
ssg75
g729
sg68
(lp740
S':'
asbag61
(g82
g63
NtRp741
(dp742
g66
(dp743
sg75
g729
sg68
(lp744
g61
(g62
g63
NtRp745
(dp746
g66
(dp747
g74
I3
ssg75
g741
sg68
(lp748
S''
asbasbasbag61
(g77
g63
NtRp749
(dp750
g66
(dp751
sg75
g625
sg68
(lp752
g61
(g82
g63
NtRp753
(dp754
g66
(dp755
g86
g87
ssg75
g749
sg68
(lp756
g424
asbag61
(g82
g63
NtRp757
(dp758
g66
(dp759
g93
g94
ssg75
g749
sg68
(lp760
S':'
asbag61
(g82
g63
NtRp761
(dp762
g66
(dp763
sg75
g749
sg68
(lp764
g61
(g62
g63
NtRp765
(dp766
g66
(dp767
g74
I3
ssg75
g761
sg68
(lp768
S''
asbasbasbasbasbasbasbag61
(g77
g63
NtRp769
(dp770
g66
(dp771
sg75
g260
sg68
(lp772
g61
(g82
g63
NtRp773
(dp774
g66
(dp775
g86
g87
ssg75
g769
sg68
(lp776
S'session_id_welcome'
p777
asbag61
(g82
g63
NtRp778
(dp779
g66
(dp780
g93
g94
ssg75
g769
sg68
(lp781
S':'
asbag61
(g82
g63
NtRp782
(dp783
g66
(dp784
sg75
g769
sg68
(lp785
g61
(g62
g63
NtRp786
(dp787
g66
(dp788
g74
I4
ssg75
g782
sg68
(lp789
S'127.0.0.1-5868511e-f888-4dcb-9511-6b25cf572dee'
p790
ag61
(g70
g63
NtRp791
(dp792
g66
(dp793
g74
I3
ssg75
Nsg68
(lp794
g61
(g77
g63
NtRp795
(dp796
g66
(dp797
sg75
g791
sg68
(lp798
g61
(g82
g63
NtRp799
(dp800
g66
(dp801
g86
g87
ssg75
g795
sg68
(lp802
g298
asbag61
(g82
g63
NtRp803
(dp804
g66
(dp805
g93
g94
ssg75
g795
sg68
(lp806
S':'
asbag61
(g82
g63
NtRp807
(dp808
g66
(dp809
sg75
g795
sg68
(lp810
g61
(g62
g63
NtRp811
(dp812
g66
(dp813
g74
I3
ssg75
g807
sg68
(lp814
S''
asbasbasbag61
(g77
g63
NtRp815
(dp816
g66
(dp817
sg75
g791
sg68
(lp818
g61
(g82
g63
NtRp819
(dp820
g66
(dp821
g86
g87
ssg75
g815
sg68
(lp822
g319
asbag61
(g82
g63
NtRp823
(dp824
g66
(dp825
g93
g94
ssg75
g815
sg68
(lp826
S':'
asbag61
(g82
g63
NtRp827
(dp828
g66
(dp829
sg75
g815
sg68
(lp830
g61
(g62
g63
NtRp831
(dp832
g66
(dp833
g74
I3
ssg75
g827
sg68
(lp834
S''
asbasbasbag61
(g77
g63
NtRp835
(dp836
g66
(dp837
sg75
g791
sg68
(lp838
g61
(g82
g63
NtRp839
(dp840
g66
(dp841
g86
g87
ssg75
g835
sg68
(lp842
g340
asbag61
(g82
g63
NtRp843
(dp844
g66
(dp845
g93
g94
ssg75
g835
sg68
(lp846
S':'
asbag61
(g82
g63
NtRp847
(dp848
g66
(dp849
sg75
g835
sg68
(lp850
g61
(g62
g63
NtRp851
(dp852
g66
(dp853
g74
I3
ssg75
g847
sg68
(lp854
S''
asbasbasbag61
(g77
g63
NtRp855
(dp856
g66
(dp857
sg75
g791
sg68
(lp858
g61
(g82
g63
NtRp859
(dp860
g66
(dp861
g86
g87
ssg75
g855
sg68
(lp862
g361
asbag61
(g82
g63
NtRp863
(dp864
g66
(dp865
g93
g94
ssg75
g855
sg68
(lp866
S':'
asbag61
(g82
g63
NtRp867
(dp868
g66
(dp869
sg75
g855
sg68
(lp870
g61
(g62
g63
NtRp871
(dp872
g66
(dp873
g74
I3
ssg75
g867
sg68
(lp874
S''
asbasbasbag61
(g77
g63
NtRp875
(dp876
g66
(dp877
sg75
g791
sg68
(lp878
g61
(g82
g63
NtRp879
(dp880
g66
(dp881
g86
g87
ssg75
g875
sg68
(lp882
g382
asbag61
(g82
g63
NtRp883
(dp884
g66
(dp885
g93
g94
ssg75
g875
sg68
(lp886
S':'
asbag61
(g82
g63
NtRp887
(dp888
g66
(dp889
sg75
g875
sg68
(lp890
g61
(g62
g63
NtRp891
(dp892
g66
(dp893
g74
I3
ssg75
g887
sg68
(lp894
S''
asbasbasbag61
(g77
g63
NtRp895
(dp896
g66
(dp897
sg75
g791
sg68
(lp898
g61
(g82
g63
NtRp899
(dp900
g66
(dp901
g86
g87
ssg75
g895
sg68
(lp902
g403
asbag61
(g82
g63
NtRp903
(dp904
g66
(dp905
g93
g94
ssg75
g895
sg68
(lp906
S':'
asbag61
(g82
g63
NtRp907
(dp908
g66
(dp909
sg75
g895
sg68
(lp910
g61
(g62
g63
NtRp911
(dp912
g66
(dp913
g74
I3
ssg75
g907
sg68
(lp914
S''
asbasbasbag61
(g77
g63
NtRp915
(dp916
g66
(dp917
sg75
g791
sg68
(lp918
g61
(g82
g63
NtRp919
(dp920
g66
(dp921
g86
g87
ssg75
g915
sg68
(lp922
g424
asbag61
(g82
g63
NtRp923
(dp924
g66
(dp925
g93
g94
ssg75
g915
sg68
(lp926
S':'
asbag61
(g82
g63
NtRp927
(dp928
g66
(dp929
sg75
g915
sg68
(lp930
g61
(g62
g63
NtRp931
(dp932
g66
(dp933
g74
I3
ssg75
g927
sg68
(lp934
S''
asbasbasbasbasbasbasbasbasbasbasbag61
(g77
g63
NtRp935
(dp936
g66
(dp937
sg75
g71
sg68
(lp938
g61
(g82
g63
NtRp939
(dp940
g66
(dp941
g86
g87
ssg75
g935
sg68
(lp942
S'env'
p943
asbag61
(g82
g63
NtRp944
(dp945
g66
(dp946
g93
g94
ssg75
g935
sg68
(lp947
S':'
asbag61
(g82
g63
NtRp948
(dp949
g66
(dp950
sg75
g935
sg68
(lp951
g61
(g62
g63
NtRp952
(dp953
g66
(dp954
g74
I5
ssg75
g948
sg68
(lp955
g61
(g70
g63
NtRp956
(dp957
g66
(dp958
g74
I4
ssg75
Nsg68
(lp959
g61
(g77
g63
NtRp960
(dp961
g66
(dp962
sg75
g956
sg68
(lp963
g61
(g82
g63
NtRp964
(dp965
g66
(dp966
g86
g87
ssg75
g960
sg68
(lp967
S'app_folders'
p968
asbag61
(g82
g63
NtRp969
(dp970
g66
(dp971
g93
g94
ssg75
g960
sg68
(lp972
S':'
asbag61
(g82
g63
NtRp973
(dp974
g66
(dp975
sg75
g960
sg68
(lp976
g61
(g62
g63
NtRp977
(dp978
g66
(dp979
g74
I4
ssg75
g973
sg68
(lp980
S"set(['/Users/abaric/Downloads/web2py/web2py.app/Contents/Resources/applications/examples/', '/Users/abaric/Downloads/web2py/web2py.app/Contents/Resources/applications/Final_Impulse/', '/Users/abaric/Downloads/web2py/web2py.app/Contents/Resources/applications/Impulse_Online2/', '/Users/abaric/Downloads/web2py/web2py.app/Contents/Resources/applications/welcome/', '/Users/abaric/Downloads/web2py/web2py.app/Contents/Resources/applications/admin/'])"
p981
asbasbasbag61
(g77
g63
NtRp982
(dp983
g66
(dp984
sg75
g956
sg68
(lp985
g61
(g82
g63
NtRp986
(dp987
g66
(dp988
g86
g87
ssg75
g982
sg68
(lp989
S'applications_parent'
p990
asbag61
(g82
g63
NtRp991
(dp992
g66
(dp993
g93
g94
ssg75
g982
sg68
(lp994
S':'
asbag61
(g82
g63
NtRp995
(dp996
g66
(dp997
sg75
g982
sg68
(lp998
g61
(g62
g63
NtRp999
(dp1000
g66
(dp1001
g74
I4
ssg75
g995
sg68
(lp1002
S'/Users/abaric/Downloads/web2py/web2py.app/Contents/Resources'
p1003
asbasbasbag61
(g77
g63
NtRp1004
(dp1005
g66
(dp1006
sg75
g956
sg68
(lp1007
g61
(g82
g63
NtRp1008
(dp1009
g66
(dp1010
g86
g87
ssg75
g1004
sg68
(lp1011
S'cmd_args'
p1012
asbag61
(g82
g63
NtRp1013
(dp1014
g66
(dp1015
g93
g94
ssg75
g1004
sg68
(lp1016
S':'
asbag61
(g82
g63
NtRp1017
(dp1018
g66
(dp1019
sg75
g1004
sg68
(lp1020
g61
(g62
g63
NtRp1021
(dp1022
g66
(dp1023
g74
I4
ssg75
g1017
sg68
(lp1024
g61
(g70
g63
NtRp1025
(dp1026
g66
(dp1027
g74
I3
ssg75
Nsg68
(lp1028
sbasbasbasbag61
(g77
g63
NtRp1029
(dp1030
g66
(dp1031
sg75
g956
sg68
(lp1032
g61
(g82
g63
NtRp1033
(dp1034
g66
(dp1035
g86
g87
ssg75
g1029
sg68
(lp1036
S'cmd_options'
p1037
asbag61
(g82
g63
NtRp1038
(dp1039
g66
(dp1040
g93
g94
ssg75
g1029
sg68
(lp1041
S':'
asbag61
(g82
g63
NtRp1042
(dp1043
g66
(dp1044
sg75
g1029
sg68
(lp1045
g61
(g62
g63
NtRp1046
(dp1047
g66
(dp1048
g74
I4
ssg75
g1042
sg68
(lp1049
S"<Values at 0x442e238: {'verbose': False, 'ip': '127.0.0.1', 'with_scheduler': False, 'ips': ['192.168.1.5'], 'shutdown_timeout': 5, 'taskbar': False, 'port': 8000, 'maxthreads': None, 'softcron': False, 'server_name': 'new-host.home', 'bpython': False, 'nogui': False, 'pid_filename': 'httpserver.pid', 'extcron': False, 'runcron': False, 'run_system_tests': False, 'test': None, 'folder': '/Users/abaric/Downloads/web2py/web2py.app/Contents/Resources', 'config': '', 'import_models': False, 'winservice': '', 'shell': None, 'run': '', 'log_filename': 'httpserver.log', 'debuglevel': 30, 'args': [''], 'socket_timeout': 5, 'ssl_ca_certificate': None, 'scheduler': None, 'profiler_filename': None, 'ssl_private_key': '', 'scheduler_groups': None, 'password': '<ask>', 'request_queue_size': 5, 'ssl_certificate': '', 'cronjob': False, 'numthreads': None, 'quiet': False, 'interfaces': None, 'minthreads': None, 'timeout': 10, 'plain': False, 'nobanner': False}>"
p1050
asbasbasbag61
(g77
g63
NtRp1051
(dp1052
g66
(dp1053
sg75
g956
sg68
(lp1054
g61
(g82
g63
NtRp1055
(dp1056
g66
(dp1057
g86
g87
ssg75
g1051
sg68
(lp1058
S'db_sessions'
p1059
asbag61
(g82
g63
NtRp1060
(dp1061
g66
(dp1062
g93
g94
ssg75
g1051
sg68
(lp1063
S':'
asbag61
(g82
g63
NtRp1064
(dp1065
g66
(dp1066
sg75
g1051
sg68
(lp1067
g61
(g62
g63
NtRp1068
(dp1069
g66
(dp1070
g74
I4
ssg75
g1064
sg68
(lp1071
S'set([])'
p1072
asbasbasbag61
(g77
g63
NtRp1073
(dp1074
g66
(dp1075
sg75
g956
sg68
(lp1076
g61
(g82
g63
NtRp1077
(dp1078
g66
(dp1079
g86
g87
ssg75
g1073
sg68
(lp1080
S'debugging'
p1081
asbag61
(g82
g63
NtRp1082
(dp1083
g66
(dp1084
g93
g94
ssg75
g1073
sg68
(lp1085
S':'
asbag61
(g82
g63
NtRp1086
(dp1087
g66
(dp1088
sg75
g1073
sg68
(lp1089
g61
(g62
g63
NtRp1090
(dp1091
g66
(dp1092
g74
I4
ssg75
g1086
sg68
(lp1093
g104
asbasbasbag61
(g77
g63
NtRp1094
(dp1095
g66
(dp1096
sg75
g956
sg68
(lp1097
g61
(g82
g63
NtRp1098
(dp1099
g66
(dp1100
g86
g87
ssg75
g1094
sg68
(lp1101
S'gluon_parent'
p1102
asbag61
(g82
g63
NtRp1103
(dp1104
g66
(dp1105
g93
g94
ssg75
g1094
sg68
(lp1106
S':'
asbag61
(g82
g63
NtRp1107
(dp1108
g66
(dp1109
sg75
g1094
sg68
(lp1110
g61
(g62
g63
NtRp1111
(dp1112
g66
(dp1113
g74
I4
ssg75
g1107
sg68
(lp1114
S'/Users/abaric/Downloads/web2py/web2py.app/Contents/Resources'
p1115
asbasbasbag61
(g77
g63
NtRp1116
(dp1117
g66
(dp1118
sg75
g956
sg68
(lp1119
g61
(g82
g63
NtRp1120
(dp1121
g66
(dp1122
g86
g87
ssg75
g1116
sg68
(lp1123
S'http_accept'
p1124
asbag61
(g82
g63
NtRp1125
(dp1126
g66
(dp1127
g93
g94
ssg75
g1116
sg68
(lp1128
S':'
asbag61
(g82
g63
NtRp1129
(dp1130
g66
(dp1131
sg75
g1116
sg68
(lp1132
g61
(g62
g63
NtRp1133
(dp1134
g66
(dp1135
g74
I4
ssg75
g1129
sg68
(lp1136
S'text/html,application/xhtml+xml,application/xml;q=0.9,*/*;q=0.8'
p1137
asbasbasbag61
(g77
g63
NtRp1138
(dp1139
g66
(dp1140
sg75
g956
sg68
(lp1141
g61
(g82
g63
NtRp1142
(dp1143
g66
(dp1144
g86
g87
ssg75
g1138
sg68
(lp1145
S'http_accept_encoding'
p1146
asbag61
(g82
g63
NtRp1147
(dp1148
g66
(dp1149
g93
g94
ssg75
g1138
sg68
(lp1150
S':'
asbag61
(g82
g63
NtRp1151
(dp1152
g66
(dp1153
sg75
g1138
sg68
(lp1154
g61
(g62
g63
NtRp1155
(dp1156
g66
(dp1157
g74
I4
ssg75
g1151
sg68
(lp1158
S'gzip, deflate'
p1159
asbasbasbag61
(g77
g63
NtRp1160
(dp1161
g66
(dp1162
sg75
g956
sg68
(lp1163
g61
(g82
g63
NtRp1164
(dp1165
g66
(dp1166
g86
g87
ssg75
g1160
sg68
(lp1167
S'http_accept_language'
p1168
asbag61
(g82
g63
NtRp1169
(dp1170
g66
(dp1171
g93
g94
ssg75
g1160
sg68
(lp1172
S':'
asbag61
(g82
g63
NtRp1173
(dp1174
g66
(dp1175
sg75
g1160
sg68
(lp1176
g61
(g62
g63
NtRp1177
(dp1178
g66
(dp1179
g74
I4
ssg75
g1173
sg68
(lp1180
S'en-us'
p1181
asbasbasbag61
(g77
g63
NtRp1182
(dp1183
g66
(dp1184
sg75
g956
sg68
(lp1185
g61
(g82
g63
NtRp1186
(dp1187
g66
(dp1188
g86
g87
ssg75
g1182
sg68
(lp1189
S'http_connection'
p1190
asbag61
(g82
g63
NtRp1191
(dp1192
g66
(dp1193
g93
g94
ssg75
g1182
sg68
(lp1194
S':'
asbag61
(g82
g63
NtRp1195
(dp1196
g66
(dp1197
sg75
g1182
sg68
(lp1198
g61
(g62
g63
NtRp1199
(dp1200
g66
(dp1201
g74
I4
ssg75
g1195
sg68
(lp1202
S'keep-alive'
p1203
asbasbasbag61
(g77
g63
NtRp1204
(dp1205
g66
(dp1206
sg75
g956
sg68
(lp1207
g61
(g82
g63
NtRp1208
(dp1209
g66
(dp1210
g86
g87
ssg75
g1204
sg68
(lp1211
S'http_cookie'
p1212
asbag61
(g82
g63
NtRp1213
(dp1214
g66
(dp1215
g93
g94
ssg75
g1204
sg68
(lp1216
S':'
asbag61
(g82
g63
NtRp1217
(dp1218
g66
(dp1219
sg75
g1204
sg68
(lp1220
g61
(g62
g63
NtRp1221
(dp1222
g66
(dp1223
g74
I4
ssg75
g1217
sg68
(lp1224
S'session_id_final_impulse=127.0.0.1-fe54df76-3eba-4359-ae6d-98727f24814f; session_id_admin=127.0.0.1-67e1670c-9cb7-4c81-83d1-b44ab2b28c6e; session_id_impulse_online2=127.0.0.1-37fb8c7e-69a3-434e-9537-3c2b0516f29b; session_id_welcome=127.0.0.1-5868511e-f888-4dcb-9511-6b25cf572dee'
p1225
asbasbasbag61
(g77
g63
NtRp1226
(dp1227
g66
(dp1228
sg75
g956
sg68
(lp1229
g61
(g82
g63
NtRp1230
(dp1231
g66
(dp1232
g86
g87
ssg75
g1226
sg68
(lp1233
S'http_host'
p1234
asbag61
(g82
g63
NtRp1235
(dp1236
g66
(dp1237
g93
g94
ssg75
g1226
sg68
(lp1238
S':'
asbag61
(g82
g63
NtRp1239
(dp1240
g66
(dp1241
sg75
g1226
sg68
(lp1242
g61
(g62
g63
NtRp1243
(dp1244
g66
(dp1245
g74
I4
ssg75
g1239
sg68
(lp1246
S'127.0.0.1:8000'
p1247
asbasbasbag61
(g77
g63
NtRp1248
(dp1249
g66
(dp1250
sg75
g956
sg68
(lp1251
g61
(g82
g63
NtRp1252
(dp1253
g66
(dp1254
g86
g87
ssg75
g1248
sg68
(lp1255
S'http_referer'
p1256
asbag61
(g82
g63
NtRp1257
(dp1258
g66
(dp1259
g93
g94
ssg75
g1248
sg68
(lp1260
S':'
asbag61
(g82
g63
NtRp1261
(dp1262
g66
(dp1263
sg75
g1248
sg68
(lp1264
g61
(g62
g63
NtRp1265
(dp1266
g66
(dp1267
g74
I4
ssg75
g1261
sg68
(lp1268
S'http://127.0.0.1:8000/Final_Impulse/default/index'
p1269
asbasbasbag61
(g77
g63
NtRp1270
(dp1271
g66
(dp1272
sg75
g956
sg68
(lp1273
g61
(g82
g63
NtRp1274
(dp1275
g66
(dp1276
g86
g87
ssg75
g1270
sg68
(lp1277
S'http_user_agent'
p1278
asbag61
(g82
g63
NtRp1279
(dp1280
g66
(dp1281
g93
g94
ssg75
g1270
sg68
(lp1282
S':'
asbag61
(g82
g63
NtRp1283
(dp1284
g66
(dp1285
sg75
g1270
sg68
(lp1286
g61
(g62
g63
NtRp1287
(dp1288
g66
(dp1289
g74
I4
ssg75
g1283
sg68
(lp1290
S'Mozilla/5.0 (Macintosh; Intel Mac OS X 10_8_4) AppleWebKit/536.30.1 (KHTML, like Gecko) Version/6.0.5 Safari/536.30.1'
p1291
asbasbasbag61
(g77
g63
NtRp1292
(dp1293
g66
(dp1294
sg75
g956
sg68
(lp1295
g61
(g82
g63
NtRp1296
(dp1297
g66
(dp1298
g86
g87
ssg75
g1292
sg68
(lp1299
S'is_jython'
p1300
asbag61
(g82
g63
NtRp1301
(dp1302
g66
(dp1303
g93
g94
ssg75
g1292
sg68
(lp1304
S':'
asbag61
(g82
g63
NtRp1305
(dp1306
g66
(dp1307
sg75
g1292
sg68
(lp1308
g61
(g62
g63
NtRp1309
(dp1310
g66
(dp1311
g74
I4
ssg75
g1305
sg68
(lp1312
g104
asbasbasbag61
(g77
g63
NtRp1313
(dp1314
g66
(dp1315
sg75
g956
sg68
(lp1316
g61
(g82
g63
NtRp1317
(dp1318
g66
(dp1319
g86
g87
ssg75
g1313
sg68
(lp1320
S'is_pypy'
p1321
asbag61
(g82
g63
NtRp1322
(dp1323
g66
(dp1324
g93
g94
ssg75
g1313
sg68
(lp1325
S':'
asbag61
(g82
g63
NtRp1326
(dp1327
g66
(dp1328
sg75
g1313
sg68
(lp1329
g61
(g62
g63
NtRp1330
(dp1331
g66
(dp1332
g74
I4
ssg75
g1326
sg68
(lp1333
g104
asbasbasbag61
(g77
g63
NtRp1334
(dp1335
g66
(dp1336
sg75
g956
sg68
(lp1337
g61
(g82
g63
NtRp1338
(dp1339
g66
(dp1340
g86
g87
ssg75
g1334
sg68
(lp1341
S'local_hosts'
p1342
asbag61
(g82
g63
NtRp1343
(dp1344
g66
(dp1345
g93
g94
ssg75
g1334
sg68
(lp1346
S':'
asbag61
(g82
g63
NtRp1347
(dp1348
g66
(dp1349
sg75
g1334
sg68
(lp1350
g61
(g62
g63
NtRp1351
(dp1352
g66
(dp1353
g74
I4
ssg75
g1347
sg68
(lp1354
g61
(g70
g63
NtRp1355
(dp1356
g66
(dp1357
g74
I3
ssg75
Nsg68
(lp1358
g61
(g77
g63
NtRp1359
(dp1360
g66
(dp1361
sg75
g1355
sg68
(lp1362
g61
(g82
g63
NtRp1363
(dp1364
g66
(dp1365
sg75
g1359
sg68
(lp1366
g61
(g62
g63
NtRp1367
(dp1368
g66
(dp1369
g74
I3
ssg75
g1363
sg68
(lp1370
S'127.0.0.1'
p1371
asbasbasbag61
(g77
g63
NtRp1372
(dp1373
g66
(dp1374
sg75
g1355
sg68
(lp1375
g61
(g82
g63
NtRp1376
(dp1377
g66
(dp1378
sg75
g1372
sg68
(lp1379
g61
(g62
g63
NtRp1380
(dp1381
g66
(dp1382
g74
I3
ssg75
g1376
sg68
(lp1383
S'::ffff:127.0.0.1'
p1384
asbasbasbag61
(g77
g63
NtRp1385
(dp1386
g66
(dp1387
sg75
g1355
sg68
(lp1388
g61
(g82
g63
NtRp1389
(dp1390
g66
(dp1391
sg75
g1385
sg68
(lp1392
g61
(g62
g63
NtRp1393
(dp1394
g66
(dp1395
g74
I3
ssg75
g1389
sg68
(lp1396
S'new-host.home'
p1397
asbasbasbag61
(g77
g63
NtRp1398
(dp1399
g66
(dp1400
sg75
g1355
sg68
(lp1401
g61
(g82
g63
NtRp1402
(dp1403
g66
(dp1404
sg75
g1398
sg68
(lp1405
g61
(g62
g63
NtRp1406
(dp1407
g66
(dp1408
g74
I3
ssg75
g1402
sg68
(lp1409
S'new-host.home'
p1410
asbasbasbag61
(g77
g63
NtRp1411
(dp1412
g66
(dp1413
sg75
g1355
sg68
(lp1414
g61
(g82
g63
NtRp1415
(dp1416
g66
(dp1417
sg75
g1411
sg68
(lp1418
g61
(g62
g63
NtRp1419
(dp1420
g66
(dp1421
g74
I3
ssg75
g1415
sg68
(lp1422
S'192.168.1.5'
p1423
asbasbasbasbasbasbasbag61
(g77
g63
NtRp1424
(dp1425
g66
(dp1426
sg75
g956
sg68
(lp1427
g61
(g82
g63
NtRp1428
(dp1429
g66
(dp1430
g86
g87
ssg75
g1424
sg68
(lp1431
S'path_info'
p1432
asbag61
(g82
g63
NtRp1433
(dp1434
g66
(dp1435
g93
g94
ssg75
g1424
sg68
(lp1436
S':'
asbag61
(g82
g63
NtRp1437
(dp1438
g66
(dp1439
sg75
g1424
sg68
(lp1440
g61
(g62
g63
NtRp1441
(dp1442
g66
(dp1443
g74
I4
ssg75
g1437
sg68
(lp1444
S'/Final_Impulse/default/show_video_comments'
p1445
asbasbasbag61
(g77
g63
NtRp1446
(dp1447
g66
(dp1448
sg75
g956
sg68
(lp1449
g61
(g82
g63
NtRp1450
(dp1451
g66
(dp1452
g86
g87
ssg75
g1446
sg68
(lp1453
S'query_string'
p1454
asbag61
(g82
g63
NtRp1455
(dp1456
g66
(dp1457
g93
g94
ssg75
g1446
sg68
(lp1458
S':'
asbag61
(g82
g63
NtRp1459
(dp1460
g66
(dp1461
sg75
g1446
sg68
(lp1462
g61
(g62
g63
NtRp1463
(dp1464
g66
(dp1465
g74
I4
ssg75
g1459
sg68
(lp1466
S''
asbasbasbag61
(g77
g63
NtRp1467
(dp1468
g66
(dp1469
sg75
g956
sg68
(lp1470
g61
(g82
g63
NtRp1471
(dp1472
g66
(dp1473
g86
g87
ssg75
g1467
sg68
(lp1474
S'remote_addr'
p1475
asbag61
(g82
g63
NtRp1476
(dp1477
g66
(dp1478
g93
g94
ssg75
g1467
sg68
(lp1479
S':'
asbag61
(g82
g63
NtRp1480
(dp1481
g66
(dp1482
sg75
g1467
sg68
(lp1483
g61
(g62
g63
NtRp1484
(dp1485
g66
(dp1486
g74
I4
ssg75
g1480
sg68
(lp1487
g216
asbasbasbag61
(g77
g63
NtRp1488
(dp1489
g66
(dp1490
sg75
g956
sg68
(lp1491
g61
(g82
g63
NtRp1492
(dp1493
g66
(dp1494
g86
g87
ssg75
g1488
sg68
(lp1495
S'remote_port'
p1496
asbag61
(g82
g63
NtRp1497
(dp1498
g66
(dp1499
g93
g94
ssg75
g1488
sg68
(lp1500
S':'
asbag61
(g82
g63
NtRp1501
(dp1502
g66
(dp1503
sg75
g1488
sg68
(lp1504
g61
(g62
g63
NtRp1505
(dp1506
g66
(dp1507
g74
I4
ssg75
g1501
sg68
(lp1508
S'62932'
p1509
asbasbasbag61
(g77
g63
NtRp1510
(dp1511
g66
(dp1512
sg75
g956
sg68
(lp1513
g61
(g82
g63
NtRp1514
(dp1515
g66
(dp1516
g86
g87
ssg75
g1510
sg68
(lp1517
S'request_method'
p1518
asbag61
(g82
g63
NtRp1519
(dp1520
g66
(dp1521
g93
g94
ssg75
g1510
sg68
(lp1522
S':'
asbag61
(g82
g63
NtRp1523
(dp1524
g66
(dp1525
sg75
g1510
sg68
(lp1526
g61
(g62
g63
NtRp1527
(dp1528
g66
(dp1529
g74
I4
ssg75
g1523
sg68
(lp1530
S'GET'
p1531
asbasbasbag61
(g77
g63
NtRp1532
(dp1533
g66
(dp1534
sg75
g956
sg68
(lp1535
g61
(g82
g63
NtRp1536
(dp1537
g66
(dp1538
g86
g87
ssg75
g1532
sg68
(lp1539
S'request_uri'
p1540
asbag61
(g82
g63
NtRp1541
(dp1542
g66
(dp1543
g93
g94
ssg75
g1532
sg68
(lp1544
S':'
asbag61
(g82
g63
NtRp1545
(dp1546
g66
(dp1547
sg75
g1532
sg68
(lp1548
g61
(g62
g63
NtRp1549
(dp1550
g66
(dp1551
g74
I4
ssg75
g1545
sg68
(lp1552
g1445
asbasbasbag61
(g77
g63
NtRp1553
(dp1554
g66
(dp1555
sg75
g956
sg68
(lp1556
g61
(g82
g63
NtRp1557
(dp1558
g66
(dp1559
g86
g87
ssg75
g1553
sg68
(lp1560
S'script_name'
p1561
asbag61
(g82
g63
NtRp1562
(dp1563
g66
(dp1564
g93
g94
ssg75
g1553
sg68
(lp1565
S':'
asbag61
(g82
g63
NtRp1566
(dp1567
g66
(dp1568
sg75
g1553
sg68
(lp1569
g61
(g62
g63
NtRp1570
(dp1571
g66
(dp1572
g74
I4
ssg75
g1566
sg68
(lp1573
S''
asbasbasbag61
(g77
g63
NtRp1574
(dp1575
g66
(dp1576
sg75
g956
sg68
(lp1577
g61
(g82
g63
NtRp1578
(dp1579
g66
(dp1580
g86
g87
ssg75
g1574
sg68
(lp1581
S'server_name'
p1582
asbag61
(g82
g63
NtRp1583
(dp1584
g66
(dp1585
g93
g94
ssg75
g1574
sg68
(lp1586
S':'
asbag61
(g82
g63
NtRp1587
(dp1588
g66
(dp1589
sg75
g1574
sg68
(lp1590
g61
(g62
g63
NtRp1591
(dp1592
g66
(dp1593
g74
I4
ssg75
g1587
sg68
(lp1594
g1410
asbasbasbag61
(g77
g63
NtRp1595
(dp1596
g66
(dp1597
sg75
g956
sg68
(lp1598
g61
(g82
g63
NtRp1599
(dp1600
g66
(dp1601
g86
g87
ssg75
g1595
sg68
(lp1602
S'server_port'
p1603
asbag61
(g82
g63
NtRp1604
(dp1605
g66
(dp1606
g93
g94
ssg75
g1595
sg68
(lp1607
S':'
asbag61
(g82
g63
NtRp1608
(dp1609
g66
(dp1610
sg75
g1595
sg68
(lp1611
g61
(g62
g63
NtRp1612
(dp1613
g66
(dp1614
g74
I4
ssg75
g1608
sg68
(lp1615
S'8000'
p1616
asbasbasbag61
(g77
g63
NtRp1617
(dp1618
g66
(dp1619
sg75
g956
sg68
(lp1620
g61
(g82
g63
NtRp1621
(dp1622
g66
(dp1623
g86
g87
ssg75
g1617
sg68
(lp1624
S'server_protocol'
p1625
asbag61
(g82
g63
NtRp1626
(dp1627
g66
(dp1628
g93
g94
ssg75
g1617
sg68
(lp1629
S':'
asbag61
(g82
g63
NtRp1630
(dp1631
g66
(dp1632
sg75
g1617
sg68
(lp1633
g61
(g62
g63
NtRp1634
(dp1635
g66
(dp1636
g74
I4
ssg75
g1630
sg68
(lp1637
S'HTTP/1.1'
p1638
asbasbasbag61
(g77
g63
NtRp1639
(dp1640
g66
(dp1641
sg75
g956
sg68
(lp1642
g61
(g82
g63
NtRp1643
(dp1644
g66
(dp1645
g86
g87
ssg75
g1639
sg68
(lp1646
S'server_software'
p1647
asbag61
(g82
g63
NtRp1648
(dp1649
g66
(dp1650
g93
g94
ssg75
g1639
sg68
(lp1651
S':'
asbag61
(g82
g63
NtRp1652
(dp1653
g66
(dp1654
sg75
g1639
sg68
(lp1655
g61
(g62
g63
NtRp1656
(dp1657
g66
(dp1658
g74
I4
ssg75
g1652
sg68
(lp1659
S'Rocket 1.2.5'
p1660
asbasbasbag61
(g77
g63
NtRp1661
(dp1662
g66
(dp1663
sg75
g956
sg68
(lp1664
g61
(g82
g63
NtRp1665
(dp1666
g66
(dp1667
g86
g87
ssg75
g1661
sg68
(lp1668
S'web2py_path'
p1669
asbag61
(g82
g63
NtRp1670
(dp1671
g66
(dp1672
g93
g94
ssg75
g1661
sg68
(lp1673
S':'
asbag61
(g82
g63
NtRp1674
(dp1675
g66
(dp1676
sg75
g1661
sg68
(lp1677
g61
(g62
g63
NtRp1678
(dp1679
g66
(dp1680
g74
I4
ssg75
g1674
sg68
(lp1681
g1003
asbasbasbag61
(g77
g63
NtRp1682
(dp1683
g66
(dp1684
sg75
g956
sg68
(lp1685
g61
(g82
g63
NtRp1686
(dp1687
g66
(dp1688
g86
g87
ssg75
g1682
sg68
(lp1689
S'web2py_version'
p1690
asbag61
(g82
g63
NtRp1691
(dp1692
g66
(dp1693
g93
g94
ssg75
g1682
sg68
(lp1694
S':'
asbag61
(g82
g63
NtRp1695
(dp1696
g66
(dp1697
sg75
g1682
sg68
(lp1698
g61
(g62
g63
NtRp1699
(dp1700
g66
(dp1701
g74
I4
ssg75
g1695
sg68
(lp1702
g61
(g70
g63
NtRp1703
(dp1704
g66
(dp1705
g74
I3
ssg75
Nsg68
(lp1706
g61
(g77
g63
NtRp1707
(dp1708
g66
(dp1709
sg75
g1703
sg68
(lp1710
g61
(g82
g63
NtRp1711
(dp1712
g66
(dp1713
sg75
g1707
sg68
(lp1714
g61
(g62
g63
NtRp1715
(dp1716
g66
(dp1717
g74
I3
ssg75
g1711
sg68
(lp1718
S'2'
asbasbasbag61
(g77
g63
NtRp1719
(dp1720
g66
(dp1721
sg75
g1703
sg68
(lp1722
g61
(g82
g63
NtRp1723
(dp1724
g66
(dp1725
sg75
g1719
sg68
(lp1726
g61
(g62
g63
NtRp1727
(dp1728
g66
(dp1729
g74
I3
ssg75
g1723
sg68
(lp1730
S'2'
asbasbasbag61
(g77
g63
NtRp1731
(dp1732
g66
(dp1733
sg75
g1703
sg68
(lp1734
g61
(g82
g63
NtRp1735
(dp1736
g66
(dp1737
sg75
g1731
sg68
(lp1738
g61
(g62
g63
NtRp1739
(dp1740
g66
(dp1741
g74
I3
ssg75
g1735
sg68
(lp1742
S'1'
asbasbasbag61
(g77
g63
NtRp1743
(dp1744
g66
(dp1745
sg75
g1703
sg68
(lp1746
g61
(g82
g63
NtRp1747
(dp1748
g66
(dp1749
sg75
g1743
sg68
(lp1750
g61
(g62
g63
NtRp1751
(dp1752
g66
(dp1753
g74
I3
ssg75
g1747
sg68
(lp1754
S'datetime.datetime(2012, 10, 21, 16, 57, 4)'
p1755
asbasbasbag61
(g77
g63
NtRp1756
(dp1757
g66
(dp1758
sg75
g1703
sg68
(lp1759
g61
(g82
g63
NtRp1760
(dp1761
g66
(dp1762
sg75
g1756
sg68
(lp1763
g61
(g62
g63
NtRp1764
(dp1765
g66
(dp1766
g74
I3
ssg75
g1760
sg68
(lp1767
S'stable'
p1768
asbasbasbasbasbasbasbag61
(g77
g63
NtRp1769
(dp1770
g66
(dp1771
sg75
g956
sg68
(lp1772
g61
(g82
g63
NtRp1773
(dp1774
g66
(dp1775
g86
g87
ssg75
g1769
sg68
(lp1776
S'wsgi_errors'
p1777
asbag61
(g82
g63
NtRp1778
(dp1779
g66
(dp1780
g93
g94
ssg75
g1769
sg68
(lp1781
S':'
asbag61
(g82
g63
NtRp1782
(dp1783
g66
(dp1784
sg75
g1769
sg68
(lp1785
g61
(g62
g63
NtRp1786
(dp1787
g66
(dp1788
g74
I4
ssg75
g1782
sg68
(lp1789
S"<open file '<stderr>', mode 'w' at 0x540b0>"
p1790
asbasbasbag61
(g77
g63
NtRp1791
(dp1792
g66
(dp1793
sg75
g956
sg68
(lp1794
g61
(g82
g63
NtRp1795
(dp1796
g66
(dp1797
g86
g87
ssg75
g1791
sg68
(lp1798
S'wsgi_file_wrapper'
p1799
asbag61
(g82
g63
NtRp1800
(dp1801
g66
(dp1802
g93
g94
ssg75
g1791
sg68
(lp1803
S':'
asbag61
(g82
g63
NtRp1804
(dp1805
g66
(dp1806
sg75
g1791
sg68
(lp1807
g61
(g62
g63
NtRp1808
(dp1809
g66
(dp1810
g74
I4
ssg75
g1804
sg68
(lp1811
S'<class wsgiref.util.FileWrapper at 0x44002d0>'
p1812
asbasbasbag61
(g77
g63
NtRp1813
(dp1814
g66
(dp1815
sg75
g956
sg68
(lp1816
g61
(g82
g63
NtRp1817
(dp1818
g66
(dp1819
g86
g87
ssg75
g1813
sg68
(lp1820
S'wsgi_input'
p1821
asbag61
(g82
g63
NtRp1822
(dp1823
g66
(dp1824
g93
g94
ssg75
g1813
sg68
(lp1825
S':'
asbag61
(g82
g63
NtRp1826
(dp1827
g66
(dp1828
sg75
g1813
sg68
(lp1829
g61
(g62
g63
NtRp1830
(dp1831
g66
(dp1832
g74
I4
ssg75
g1826
sg68
(lp1833
S'<socket._fileobject object at 0x92c54f0>'
p1834
asbasbasbag61
(g77
g63
NtRp1835
(dp1836
g66
(dp1837
sg75
g956
sg68
(lp1838
g61
(g82
g63
NtRp1839
(dp1840
g66
(dp1841
g86
g87
ssg75
g1835
sg68
(lp1842
S'wsgi_multiprocess'
p1843
asbag61
(g82
g63
NtRp1844
(dp1845
g66
(dp1846
g93
g94
ssg75
g1835
sg68
(lp1847
S':'
asbag61
(g82
g63
NtRp1848
(dp1849
g66
(dp1850
sg75
g1835
sg68
(lp1851
g61
(g62
g63
NtRp1852
(dp1853
g66
(dp1854
g74
I4
ssg75
g1848
sg68
(lp1855
g104
asbasbasbag61
(g77
g63
NtRp1856
(dp1857
g66
(dp1858
sg75
g956
sg68
(lp1859
g61
(g82
g63
NtRp1860
(dp1861
g66
(dp1862
g86
g87
ssg75
g1856
sg68
(lp1863
S'wsgi_multithread'
p1864
asbag61
(g82
g63
NtRp1865
(dp1866
g66
(dp1867
g93
g94
ssg75
g1856
sg68
(lp1868
S':'
asbag61
(g82
g63
NtRp1869
(dp1870
g66
(dp1871
sg75
g1856
sg68
(lp1872
g61
(g62
g63
NtRp1873
(dp1874
g66
(dp1875
g74
I4
ssg75
g1869
sg68
(lp1876
S'True'
p1877
asbasbasbag61
(g77
g63
NtRp1878
(dp1879
g66
(dp1880
sg75
g956
sg68
(lp1881
g61
(g82
g63
NtRp1882
(dp1883
g66
(dp1884
g86
g87
ssg75
g1878
sg68
(lp1885
S'wsgi_run_once'
p1886
asbag61
(g82
g63
NtRp1887
(dp1888
g66
(dp1889
g93
g94
ssg75
g1878
sg68
(lp1890
S':'
asbag61
(g82
g63
NtRp1891
(dp1892
g66
(dp1893
sg75
g1878
sg68
(lp1894
g61
(g62
g63
NtRp1895
(dp1896
g66
(dp1897
g74
I4
ssg75
g1891
sg68
(lp1898
g104
asbasbasbag61
(g77
g63
NtRp1899
(dp1900
g66
(dp1901
sg75
g956
sg68
(lp1902
g61
(g82
g63
NtRp1903
(dp1904
g66
(dp1905
g86
g87
ssg75
g1899
sg68
(lp1906
S'wsgi_url_scheme'
p1907
asbag61
(g82
g63
NtRp1908
(dp1909
g66
(dp1910
g93
g94
ssg75
g1899
sg68
(lp1911
S':'
asbag61
(g82
g63
NtRp1912
(dp1913
g66
(dp1914
sg75
g1899
sg68
(lp1915
g61
(g62
g63
NtRp1916
(dp1917
g66
(dp1918
g74
I4
ssg75
g1912
sg68
(lp1919
S'http'
p1920
asbasbasbag61
(g77
g63
NtRp1921
(dp1922
g66
(dp1923
sg75
g956
sg68
(lp1924
g61
(g82
g63
NtRp1925
(dp1926
g66
(dp1927
g86
g87
ssg75
g1921
sg68
(lp1928
S'wsgi_version'
p1929
asbag61
(g82
g63
NtRp1930
(dp1931
g66
(dp1932
g93
g94
ssg75
g1921
sg68
(lp1933
S':'
asbag61
(g82
g63
NtRp1934
(dp1935
g66
(dp1936
sg75
g1921
sg68
(lp1937
g61
(g62
g63
NtRp1938
(dp1939
g66
(dp1940
g74
I4
ssg75
g1934
sg68
(lp1941
g61
(g70
g63
NtRp1942
(dp1943
g66
(dp1944
g74
I3
ssg75
Nsg68
(lp1945
g61
(g77
g63
NtRp1946
(dp1947
g66
(dp1948
sg75
g1942
sg68
(lp1949
g61
(g82
g63
NtRp1950
(dp1951
g66
(dp1952
sg75
g1946
sg68
(lp1953
g61
(g62
g63
NtRp1954
(dp1955
g66
(dp1956
g74
I3
ssg75
g1950
sg68
(lp1957
S'1'
asbasbasbag61
(g77
g63
NtRp1958
(dp1959
g66
(dp1960
sg75
g1942
sg68
(lp1961
g61
(g82
g63
NtRp1962
(dp1963
g66
(dp1964
sg75
g1958
sg68
(lp1965
g61
(g62
g63
NtRp1966
(dp1967
g66
(dp1968
g74
I3
ssg75
g1962
sg68
(lp1969
S'0'
asbasbasbasbasbasbasbasbasbasbasbag61
(g77
g63
NtRp1970
(dp1971
g66
(dp1972
sg75
g71
sg68
(lp1973
g61
(g82
g63
NtRp1974
(dp1975
g66
(dp1976
g86
g87
ssg75
g1970
sg68
(lp1977
S'extension'
p1978
asbag61
(g82
g63
NtRp1979
(dp1980
g66
(dp1981
g93
g94
ssg75
g1970
sg68
(lp1982
S':'
asbag61
(g82
g63
NtRp1983
(dp1984
g66
(dp1985
sg75
g1970
sg68
(lp1986
g61
(g62
g63
NtRp1987
(dp1988
g66
(dp1989
g74
I5
ssg75
g1983
sg68
(lp1990
S'html'
p1991
asbasbasbag61
(g77
g63
NtRp1992
(dp1993
g66
(dp1994
sg75
g71
sg68
(lp1995
g61
(g82
g63
NtRp1996
(dp1997
g66
(dp1998
g86
g87
ssg75
g1992
sg68
(lp1999
S'folder'
p2000
asbag61
(g82
g63
NtRp2001
(dp2002
g66
(dp2003
g93
g94
ssg75
g1992
sg68
(lp2004
S':'
asbag61
(g82
g63
NtRp2005
(dp2006
g66
(dp2007
sg75
g1992
sg68
(lp2008
g61
(g62
g63
NtRp2009
(dp2010
g66
(dp2011
g74
I5
ssg75
g2005
sg68
(lp2012
S'/Users/abaric/Downloads/web2py/web2py.app/Contents/Resources/applications/Final_Impulse/'
p2013
asbasbasbag61
(g77
g63
NtRp2014
(dp2015
g66
(dp2016
sg75
g71
sg68
(lp2017
g61
(g82
g63
NtRp2018
(dp2019
g66
(dp2020
g86
g87
ssg75
g2014
sg68
(lp2021
S'function'
p2022
asbag61
(g82
g63
NtRp2023
(dp2024
g66
(dp2025
g93
g94
ssg75
g2014
sg68
(lp2026
S':'
asbag61
(g82
g63
NtRp2027
(dp2028
g66
(dp2029
sg75
g2014
sg68
(lp2030
g61
(g62
g63
NtRp2031
(dp2032
g66
(dp2033
g74
I5
ssg75
g2027
sg68
(lp2034
S'show_video_comments'
p2035
asbasbasbag61
(g77
g63
NtRp2036
(dp2037
g66
(dp2038
sg75
g71
sg68
(lp2039
g61
(g82
g63
NtRp2040
(dp2041
g66
(dp2042
g86
g87
ssg75
g2036
sg68
(lp2043
S'get_vars'
p2044
asbag61
(g82
g63
NtRp2045
(dp2046
g66
(dp2047
g93
g94
ssg75
g2036
sg68
(lp2048
S':'
asbag61
(g82
g63
NtRp2049
(dp2050
g66
(dp2051
sg75
g2036
sg68
(lp2052
g61
(g62
g63
NtRp2053
(dp2054
g66
(dp2055
g74
I5
ssg75
g2049
sg68
(lp2056
g61
(g70
g63
NtRp2057
(dp2058
g66
(dp2059
g74
I4
ssg75
Nsg68
(lp2060
sbasbasbasbag61
(g77
g63
NtRp2061
(dp2062
g66
(dp2063
sg75
g71
sg68
(lp2064
g61
(g82
g63
NtRp2065
(dp2066
g66
(dp2067
g86
g87
ssg75
g2061
sg68
(lp2068
S'global_settings'
p2069
asbag61
(g82
g63
NtRp2070
(dp2071
g66
(dp2072
g93
g94
ssg75
g2061
sg68
(lp2073
S':'
asbag61
(g82
g63
NtRp2074
(dp2075
g66
(dp2076
sg75
g2061
sg68
(lp2077
g61
(g62
g63
NtRp2078
(dp2079
g66
(dp2080
g74
I5
ssg75
g2074
sg68
(lp2081
g61
(g70
g63
NtRp2082
(dp2083
g66
(dp2084
g74
I4
ssg75
Nsg68
(lp2085
g61
(g77
g63
NtRp2086
(dp2087
g66
(dp2088
sg75
g2082
sg68
(lp2089
g61
(g82
g63
NtRp2090
(dp2091
g66
(dp2092
g86
g87
ssg75
g2086
sg68
(lp2093
g968
asbag61
(g82
g63
NtRp2094
(dp2095
g66
(dp2096
g93
g94
ssg75
g2086
sg68
(lp2097
S':'
asbag61
(g82
g63
NtRp2098
(dp2099
g66
(dp2100
sg75
g2086
sg68
(lp2101
g61
(g62
g63
NtRp2102
(dp2103
g66
(dp2104
g74
I4
ssg75
g2098
sg68
(lp2105
S"set(['/Users/abaric/Downloads/web2py/web2py.app/Contents/Resources/applications/examples/', '/Users/abaric/Downloads/web2py/web2py.app/Contents/Resources/applications/Final_Impulse/', '/Users/abaric/Downloads/web2py/web2py.app/Contents/Resources/applications/Impulse_Online2/', '/Users/abaric/Downloads/web2py/web2py.app/Contents/Resources/applications/welcome/', '/Users/abaric/Downloads/web2py/web2py.app/Contents/Resources/applications/admin/'])"
p2106
asbasbasbag61
(g77
g63
NtRp2107
(dp2108
g66
(dp2109
sg75
g2082
sg68
(lp2110
g61
(g82
g63
NtRp2111
(dp2112
g66
(dp2113
g86
g87
ssg75
g2107
sg68
(lp2114
g990
asbag61
(g82
g63
NtRp2115
(dp2116
g66
(dp2117
g93
g94
ssg75
g2107
sg68
(lp2118
S':'
asbag61
(g82
g63
NtRp2119
(dp2120
g66
(dp2121
sg75
g2107
sg68
(lp2122
g61
(g62
g63
NtRp2123
(dp2124
g66
(dp2125
g74
I4
ssg75
g2119
sg68
(lp2126
g1003
asbasbasbag61
(g77
g63
NtRp2127
(dp2128
g66
(dp2129
sg75
g2082
sg68
(lp2130
g61
(g82
g63
NtRp2131
(dp2132
g66
(dp2133
g86
g87
ssg75
g2127
sg68
(lp2134
g1012
asbag61
(g82
g63
NtRp2135
(dp2136
g66
(dp2137
g93
g94
ssg75
g2127
sg68
(lp2138
S':'
asbag61
(g82
g63
NtRp2139
(dp2140
g66
(dp2141
sg75
g2127
sg68
(lp2142
g61
(g62
g63
NtRp2143
(dp2144
g66
(dp2145
g74
I4
ssg75
g2139
sg68
(lp2146
g61
(g70
g63
NtRp2147
(dp2148
g66
(dp2149
g74
I3
ssg75
Nsg68
(lp2150
sbasbasbasbag61
(g77
g63
NtRp2151
(dp2152
g66
(dp2153
sg75
g2082
sg68
(lp2154
g61
(g82
g63
NtRp2155
(dp2156
g66
(dp2157
g86
g87
ssg75
g2151
sg68
(lp2158
g1037
asbag61
(g82
g63
NtRp2159
(dp2160
g66
(dp2161
g93
g94
ssg75
g2151
sg68
(lp2162
S':'
asbag61
(g82
g63
NtRp2163
(dp2164
g66
(dp2165
sg75
g2151
sg68
(lp2166
g61
(g62
g63
NtRp2167
(dp2168
g66
(dp2169
g74
I4
ssg75
g2163
sg68
(lp2170
S"<Values at 0x442e238: {'verbose': False, 'ip': '127.0.0.1', 'with_scheduler': False, 'ips': ['192.168.1.5'], 'shutdown_timeout': 5, 'taskbar': False, 'port': 8000, 'maxthreads': None, 'softcron': False, 'server_name': 'new-host.home', 'bpython': False, 'nogui': False, 'pid_filename': 'httpserver.pid', 'extcron': False, 'runcron': False, 'run_system_tests': False, 'test': None, 'folder': '/Users/abaric/Downloads/web2py/web2py.app/Contents/Resources', 'config': '', 'import_models': False, 'winservice': '', 'shell': None, 'run': '', 'log_filename': 'httpserver.log', 'debuglevel': 30, 'args': [''], 'socket_timeout': 5, 'ssl_ca_certificate': None, 'scheduler': None, 'profiler_filename': None, 'ssl_private_key': '', 'scheduler_groups': None, 'password': '<ask>', 'request_queue_size': 5, 'ssl_certificate': '', 'cronjob': False, 'numthreads': None, 'quiet': False, 'interfaces': None, 'minthreads': None, 'timeout': 10, 'plain': False, 'nobanner': False}>"
p2171
asbasbasbag61
(g77
g63
NtRp2172
(dp2173
g66
(dp2174
sg75
g2082
sg68
(lp2175
g61
(g82
g63
NtRp2176
(dp2177
g66
(dp2178
g86
g87
ssg75
g2172
sg68
(lp2179
g1059
asbag61
(g82
g63
NtRp2180
(dp2181
g66
(dp2182
g93
g94
ssg75
g2172
sg68
(lp2183
S':'
asbag61
(g82
g63
NtRp2184
(dp2185
g66
(dp2186
sg75
g2172
sg68
(lp2187
g61
(g62
g63
NtRp2188
(dp2189
g66
(dp2190
g74
I4
ssg75
g2184
sg68
(lp2191
S'set([])'
p2192
asbasbasbag61
(g77
g63
NtRp2193
(dp2194
g66
(dp2195
sg75
g2082
sg68
(lp2196
g61
(g82
g63
NtRp2197
(dp2198
g66
(dp2199
g86
g87
ssg75
g2193
sg68
(lp2200
g1081
asbag61
(g82
g63
NtRp2201
(dp2202
g66
(dp2203
g93
g94
ssg75
g2193
sg68
(lp2204
S':'
asbag61
(g82
g63
NtRp2205
(dp2206
g66
(dp2207
sg75
g2193
sg68
(lp2208
g61
(g62
g63
NtRp2209
(dp2210
g66
(dp2211
g74
I4
ssg75
g2205
sg68
(lp2212
g104
asbasbasbag61
(g77
g63
NtRp2213
(dp2214
g66
(dp2215
sg75
g2082
sg68
(lp2216
g61
(g82
g63
NtRp2217
(dp2218
g66
(dp2219
g86
g87
ssg75
g2213
sg68
(lp2220
g1102
asbag61
(g82
g63
NtRp2221
(dp2222
g66
(dp2223
g93
g94
ssg75
g2213
sg68
(lp2224
S':'
asbag61
(g82
g63
NtRp2225
(dp2226
g66
(dp2227
sg75
g2213
sg68
(lp2228
g61
(g62
g63
NtRp2229
(dp2230
g66
(dp2231
g74
I4
ssg75
g2225
sg68
(lp2232
g1115
asbasbasbag61
(g77
g63
NtRp2233
(dp2234
g66
(dp2235
sg75
g2082
sg68
(lp2236
g61
(g82
g63
NtRp2237
(dp2238
g66
(dp2239
g86
g87
ssg75
g2233
sg68
(lp2240
g1300
asbag61
(g82
g63
NtRp2241
(dp2242
g66
(dp2243
g93
g94
ssg75
g2233
sg68
(lp2244
S':'
asbag61
(g82
g63
NtRp2245
(dp2246
g66
(dp2247
sg75
g2233
sg68
(lp2248
g61
(g62
g63
NtRp2249
(dp2250
g66
(dp2251
g74
I4
ssg75
g2245
sg68
(lp2252
g104
asbasbasbag61
(g77
g63
NtRp2253
(dp2254
g66
(dp2255
sg75
g2082
sg68
(lp2256
g61
(g82
g63
NtRp2257
(dp2258
g66
(dp2259
g86
g87
ssg75
g2253
sg68
(lp2260
g1321
asbag61
(g82
g63
NtRp2261
(dp2262
g66
(dp2263
g93
g94
ssg75
g2253
sg68
(lp2264
S':'
asbag61
(g82
g63
NtRp2265
(dp2266
g66
(dp2267
sg75
g2253
sg68
(lp2268
g61
(g62
g63
NtRp2269
(dp2270
g66
(dp2271
g74
I4
ssg75
g2265
sg68
(lp2272
g104
asbasbasbag61
(g77
g63
NtRp2273
(dp2274
g66
(dp2275
sg75
g2082
sg68
(lp2276
g61
(g82
g63
NtRp2277
(dp2278
g66
(dp2279
g86
g87
ssg75
g2273
sg68
(lp2280
g1342
asbag61
(g82
g63
NtRp2281
(dp2282
g66
(dp2283
g93
g94
ssg75
g2273
sg68
(lp2284
S':'
asbag61
(g82
g63
NtRp2285
(dp2286
g66
(dp2287
sg75
g2273
sg68
(lp2288
g61
(g62
g63
NtRp2289
(dp2290
g66
(dp2291
g74
I4
ssg75
g2285
sg68
(lp2292
g61
(g70
g63
NtRp2293
(dp2294
g66
(dp2295
g74
I3
ssg75
Nsg68
(lp2296
g61
(g77
g63
NtRp2297
(dp2298
g66
(dp2299
sg75
g2293
sg68
(lp2300
g61
(g82
g63
NtRp2301
(dp2302
g66
(dp2303
sg75
g2297
sg68
(lp2304
g61
(g62
g63
NtRp2305
(dp2306
g66
(dp2307
g74
I3
ssg75
g2301
sg68
(lp2308
g1371
asbasbasbag61
(g77
g63
NtRp2309
(dp2310
g66
(dp2311
sg75
g2293
sg68
(lp2312
g61
(g82
g63
NtRp2313
(dp2314
g66
(dp2315
sg75
g2309
sg68
(lp2316
g61
(g62
g63
NtRp2317
(dp2318
g66
(dp2319
g74
I3
ssg75
g2313
sg68
(lp2320
g1384
asbasbasbag61
(g77
g63
NtRp2321
(dp2322
g66
(dp2323
sg75
g2293
sg68
(lp2324
g61
(g82
g63
NtRp2325
(dp2326
g66
(dp2327
sg75
g2321
sg68
(lp2328
g61
(g62
g63
NtRp2329
(dp2330
g66
(dp2331
g74
I3
ssg75
g2325
sg68
(lp2332
g1397
asbasbasbag61
(g77
g63
NtRp2333
(dp2334
g66
(dp2335
sg75
g2293
sg68
(lp2336
g61
(g82
g63
NtRp2337
(dp2338
g66
(dp2339
sg75
g2333
sg68
(lp2340
g61
(g62
g63
NtRp2341
(dp2342
g66
(dp2343
g74
I3
ssg75
g2337
sg68
(lp2344
g1410
asbasbasbag61
(g77
g63
NtRp2345
(dp2346
g66
(dp2347
sg75
g2293
sg68
(lp2348
g61
(g82
g63
NtRp2349
(dp2350
g66
(dp2351
sg75
g2345
sg68
(lp2352
g61
(g62
g63
NtRp2353
(dp2354
g66
(dp2355
g74
I3
ssg75
g2349
sg68
(lp2356
g1423
asbasbasbasbasbasbasbag61
(g77
g63
NtRp2357
(dp2358
g66
(dp2359
sg75
g2082
sg68
(lp2360
g61
(g82
g63
NtRp2361
(dp2362
g66
(dp2363
g86
g87
ssg75
g2357
sg68
(lp2364
g1690
asbag61
(g82
g63
NtRp2365
(dp2366
g66
(dp2367
g93
g94
ssg75
g2357
sg68
(lp2368
S':'
asbag61
(g82
g63
NtRp2369
(dp2370
g66
(dp2371
sg75
g2357
sg68
(lp2372
g61
(g62
g63
NtRp2373
(dp2374
g66
(dp2375
g74
I4
ssg75
g2369
sg68
(lp2376
g61
(g70
g63
NtRp2377
(dp2378
g66
(dp2379
g74
I3
ssg75
Nsg68
(lp2380
g61
(g77
g63
NtRp2381
(dp2382
g66
(dp2383
sg75
g2377
sg68
(lp2384
g61
(g82
g63
NtRp2385
(dp2386
g66
(dp2387
sg75
g2381
sg68
(lp2388
g61
(g62
g63
NtRp2389
(dp2390
g66
(dp2391
g74
I3
ssg75
g2385
sg68
(lp2392
S'2'
asbasbasbag61
(g77
g63
NtRp2393
(dp2394
g66
(dp2395
sg75
g2377
sg68
(lp2396
g61
(g82
g63
NtRp2397
(dp2398
g66
(dp2399
sg75
g2393
sg68
(lp2400
g61
(g62
g63
NtRp2401
(dp2402
g66
(dp2403
g74
I3
ssg75
g2397
sg68
(lp2404
S'2'
asbasbasbag61
(g77
g63
NtRp2405
(dp2406
g66
(dp2407
sg75
g2377
sg68
(lp2408
g61
(g82
g63
NtRp2409
(dp2410
g66
(dp2411
sg75
g2405
sg68
(lp2412
g61
(g62
g63
NtRp2413
(dp2414
g66
(dp2415
g74
I3
ssg75
g2409
sg68
(lp2416
S'1'
asbasbasbag61
(g77
g63
NtRp2417
(dp2418
g66
(dp2419
sg75
g2377
sg68
(lp2420
g61
(g82
g63
NtRp2421
(dp2422
g66
(dp2423
sg75
g2417
sg68
(lp2424
g61
(g62
g63
NtRp2425
(dp2426
g66
(dp2427
g74
I3
ssg75
g2421
sg68
(lp2428
S'datetime.datetime(2012, 10, 21, 16, 57, 4)'
p2429
asbasbasbag61
(g77
g63
NtRp2430
(dp2431
g66
(dp2432
sg75
g2377
sg68
(lp2433
g61
(g82
g63
NtRp2434
(dp2435
g66
(dp2436
sg75
g2430
sg68
(lp2437
g61
(g62
g63
NtRp2438
(dp2439
g66
(dp2440
g74
I3
ssg75
g2434
sg68
(lp2441
g1768
asbasbasbasbasbasbasbasbasbasbasbag61
(g77
g63
NtRp2442
(dp2443
g66
(dp2444
sg75
g71
sg68
(lp2445
g61
(g82
g63
NtRp2446
(dp2447
g66
(dp2448
g86
g87
ssg75
g2442
sg68
(lp2449
S'is_https'
p2450
asbag61
(g82
g63
NtRp2451
(dp2452
g66
(dp2453
g93
g94
ssg75
g2442
sg68
(lp2454
S':'
asbag61
(g82
g63
NtRp2455
(dp2456
g66
(dp2457
sg75
g2442
sg68
(lp2458
g61
(g62
g63
NtRp2459
(dp2460
g66
(dp2461
g74
I5
ssg75
g2455
sg68
(lp2462
g104
asbasbasbag61
(g77
g63
NtRp2463
(dp2464
g66
(dp2465
sg75
g71
sg68
(lp2466
g61
(g82
g63
NtRp2467
(dp2468
g66
(dp2469
g86
g87
ssg75
g2463
sg68
(lp2470
S'is_local'
p2471
asbag61
(g82
g63
NtRp2472
(dp2473
g66
(dp2474
g93
g94
ssg75
g2463
sg68
(lp2475
S':'
asbag61
(g82
g63
NtRp2476
(dp2477
g66
(dp2478
sg75
g2463
sg68
(lp2479
g61
(g62
g63
NtRp2480
(dp2481
g66
(dp2482
g74
I5
ssg75
g2476
sg68
(lp2483
g1877
asbasbasbag61
(g77
g63
NtRp2484
(dp2485
g66
(dp2486
sg75
g71
sg68
(lp2487
g61
(g82
g63
NtRp2488
(dp2489
g66
(dp2490
g86
g87
ssg75
g2484
sg68
(lp2491
S'is_restful'
p2492
asbag61
(g82
g63
NtRp2493
(dp2494
g66
(dp2495
g93
g94
ssg75
g2484
sg68
(lp2496
S':'
asbag61
(g82
g63
NtRp2497
(dp2498
g66
(dp2499
sg75
g2484
sg68
(lp2500
g61
(g62
g63
NtRp2501
(dp2502
g66
(dp2503
g74
I5
ssg75
g2497
sg68
(lp2504
g104
asbasbasbag61
(g77
g63
NtRp2505
(dp2506
g66
(dp2507
sg75
g71
sg68
(lp2508
g61
(g82
g63
NtRp2509
(dp2510
g66
(dp2511
g86
g87
ssg75
g2505
sg68
(lp2512
S'now'
p2513
asbag61
(g82
g63
NtRp2514
(dp2515
g66
(dp2516
g93
g94
ssg75
g2505
sg68
(lp2517
S':'
asbag61
(g82
g63
NtRp2518
(dp2519
g66
(dp2520
sg75
g2505
sg68
(lp2521
g61
(g62
g63
NtRp2522
(dp2523
g66
(dp2524
g74
I5
ssg75
g2518
sg68
(lp2525
S'datetime.datetime(2014, 3, 30, 0, 22, 7, 553161)'
p2526
asbasbasbag61
(g77
g63
NtRp2527
(dp2528
g66
(dp2529
sg75
g71
sg68
(lp2530
g61
(g82
g63
NtRp2531
(dp2532
g66
(dp2533
g86
g87
ssg75
g2527
sg68
(lp2534
S'post_vars'
p2535
asbag61
(g82
g63
NtRp2536
(dp2537
g66
(dp2538
g93
g94
ssg75
g2527
sg68
(lp2539
S':'
asbag61
(g82
g63
NtRp2540
(dp2541
g66
(dp2542
sg75
g2527
sg68
(lp2543
g61
(g62
g63
NtRp2544
(dp2545
g66
(dp2546
g74
I5
ssg75
g2540
sg68
(lp2547
g61
(g70
g63
NtRp2548
(dp2549
g66
(dp2550
g74
I4
ssg75
Nsg68
(lp2551
sbasbasbasbag61
(g77
g63
NtRp2552
(dp2553
g66
(dp2554
sg75
g71
sg68
(lp2555
g61
(g82
g63
NtRp2556
(dp2557
g66
(dp2558
g86
g87
ssg75
g2552
sg68
(lp2559
S'raw_args'
p2560
asbag61
(g82
g63
NtRp2561
(dp2562
g66
(dp2563
g93
g94
ssg75
g2552
sg68
(lp2564
S':'
asbag61
(g82
g63
NtRp2565
(dp2566
g66
(dp2567
sg75
g2552
sg68
(lp2568
g61
(g62
g63
NtRp2569
(dp2570
g66
(dp2571
g74
I5
ssg75
g2565
sg68
(lp2572
S''
asbasbasbag61
(g77
g63
NtRp2573
(dp2574
g66
(dp2575
sg75
g71
sg68
(lp2576
g61
(g82
g63
NtRp2577
(dp2578
g66
(dp2579
g86
g87
ssg75
g2573
sg68
(lp2580
S'raw_extension'
p2581
asbag61
(g82
g63
NtRp2582
(dp2583
g66
(dp2584
g93
g94
ssg75
g2573
sg68
(lp2585
S':'
asbag61
(g82
g63
NtRp2586
(dp2587
g66
(dp2588
sg75
g2573
sg68
(lp2589
g61
(g62
g63
NtRp2590
(dp2591
g66
(dp2592
g74
I5
ssg75
g2586
sg68
(lp2593
S'None'
p2594
asbasbasbag61
(g77
g63
NtRp2595
(dp2596
g66
(dp2597
sg75
g71
sg68
(lp2598
g61
(g82
g63
NtRp2599
(dp2600
g66
(dp2601
g86
g87
ssg75
g2595
sg68
(lp2602
S'url'
p2603
asbag61
(g82
g63
NtRp2604
(dp2605
g66
(dp2606
g93
g94
ssg75
g2595
sg68
(lp2607
S':'
asbag61
(g82
g63
NtRp2608
(dp2609
g66
(dp2610
sg75
g2595
sg68
(lp2611
g61
(g62
g63
NtRp2612
(dp2613
g66
(dp2614
g74
I5
ssg75
g2608
sg68
(lp2615
g1445
asbasbasbag61
(g77
g63
NtRp2616
(dp2617
g66
(dp2618
sg75
g71
sg68
(lp2619
g61
(g82
g63
NtRp2620
(dp2621
g66
(dp2622
g86
g87
ssg75
g2616
sg68
(lp2623
S'utcnow'
p2624
asbag61
(g82
g63
NtRp2625
(dp2626
g66
(dp2627
g93
g94
ssg75
g2616
sg68
(lp2628
S':'
asbag61
(g82
g63
NtRp2629
(dp2630
g66
(dp2631
sg75
g2616
sg68
(lp2632
g61
(g62
g63
NtRp2633
(dp2634
g66
(dp2635
g74
I5
ssg75
g2629
sg68
(lp2636
S'datetime.datetime(2014, 3, 30, 4, 22, 7, 553173)'
p2637
asbasbasbag61
(g77
g63
NtRp2638
(dp2639
g66
(dp2640
sg75
g71
sg68
(lp2641
g61
(g82
g63
NtRp2642
(dp2643
g66
(dp2644
g86
g87
ssg75
g2638
sg68
(lp2645
S'uuid'
p2646
asbag61
(g82
g63
NtRp2647
(dp2648
g66
(dp2649
g93
g94
ssg75
g2638
sg68
(lp2650
S':'
asbag61
(g82
g63
NtRp2651
(dp2652
g66
(dp2653
sg75
g2638
sg68
(lp2654
g61
(g62
g63
NtRp2655
(dp2656
g66
(dp2657
g74
I5
ssg75
g2651
sg68
(lp2658
S'Final_Impulse/127.0.0.1.2014-03-30.00-22-07.bb87f0d6-3a48-485b-8134-ba794f754cc2'
p2659
asbasbasbag61
(g77
g63
NtRp2660
(dp2661
g66
(dp2662
sg75
g71
sg68
(lp2663
g61
(g82
g63
NtRp2664
(dp2665
g66
(dp2666
g86
g87
ssg75
g2660
sg68
(lp2667
S'vars'
p2668
asbag61
(g82
g63
NtRp2669
(dp2670
g66
(dp2671
g93
g94
ssg75
g2660
sg68
(lp2672
S':'
asbag61
(g82
g63
NtRp2673
(dp2674
g66
(dp2675
sg75
g2660
sg68
(lp2676
g61
(g62
g63
NtRp2677
(dp2678
g66
(dp2679
g74
I5
ssg75
g2673
sg68
(lp2680
g61
(g70
g63
NtRp2681
(dp2682
g66
(dp2683
g74
I4
ssg75
Nsg68
(lp2684
sbasbasbasbag61
(g77
g63
NtRp2685
(dp2686
g66
(dp2687
sg75
g71
sg68
(lp2688
g61
(g82
g63
NtRp2689
(dp2690
g66
(dp2691
g86
g87
ssg75
g2685
sg68
(lp2692
S'wsgi'
p2693
asbag61
(g82
g63
NtRp2694
(dp2695
g66
(dp2696
g93
g94
ssg75
g2685
sg68
(lp2697
S':'
asbag61
(g82
g63
NtRp2698
(dp2699
g66
(dp2700
sg75
g2685
sg68
(lp2701
g61
(g62
g63
NtRp2702
(dp2703
g66
(dp2704
g74
I5
ssg75
g2698
sg68
(lp2705
g61
(g70
g63
NtRp2706
(dp2707
g66
(dp2708
g74
I4
ssg75
Nsg68
(lp2709
g61
(g77
g63
NtRp2710
(dp2711
g66
(dp2712
sg75
g2706
sg68
(lp2713
g61
(g82
g63
NtRp2714
(dp2715
g66
(dp2716
g86
g87
ssg75
g2710
sg68
(lp2717
S'environ'
p2718
asbag61
(g82
g63
NtRp2719
(dp2720
g66
(dp2721
g93
g94
ssg75
g2710
sg68
(lp2722
S':'
asbag61
(g82
g63
NtRp2723
(dp2724
g66
(dp2725
sg75
g2710
sg68
(lp2726
g61
(g62
g63
NtRp2727
(dp2728
g66
(dp2729
g74
I4
ssg75
g2723
sg68
(lp2730
g61
(g70
g63
NtRp2731
(dp2732
g66
(dp2733
g74
I3
ssg75
Nsg68
(lp2734
g61
(g77
g63
NtRp2735
(dp2736
g66
(dp2737
sg75
g2731
sg68
(lp2738
g61
(g82
g63
NtRp2739
(dp2740
g66
(dp2741
g86
g87
ssg75
g2735
sg68
(lp2742
S'HTTP_ACCEPT'
p2743
asbag61
(g82
g63
NtRp2744
(dp2745
g66
(dp2746
g93
g94
ssg75
g2735
sg68
(lp2747
S':'
asbag61
(g82
g63
NtRp2748
(dp2749
g66
(dp2750
sg75
g2735
sg68
(lp2751
g61
(g62
g63
NtRp2752
(dp2753
g66
(dp2754
g74
I3
ssg75
g2748
sg68
(lp2755
g1137
asbasbasbag61
(g77
g63
NtRp2756
(dp2757
g66
(dp2758
sg75
g2731
sg68
(lp2759
g61
(g82
g63
NtRp2760
(dp2761
g66
(dp2762
g86
g87
ssg75
g2756
sg68
(lp2763
S'HTTP_ACCEPT_ENCODING'
p2764
asbag61
(g82
g63
NtRp2765
(dp2766
g66
(dp2767
g93
g94
ssg75
g2756
sg68
(lp2768
S':'
asbag61
(g82
g63
NtRp2769
(dp2770
g66
(dp2771
sg75
g2756
sg68
(lp2772
g61
(g62
g63
NtRp2773
(dp2774
g66
(dp2775
g74
I3
ssg75
g2769
sg68
(lp2776
g1159
asbasbasbag61
(g77
g63
NtRp2777
(dp2778
g66
(dp2779
sg75
g2731
sg68
(lp2780
g61
(g82
g63
NtRp2781
(dp2782
g66
(dp2783
g86
g87
ssg75
g2777
sg68
(lp2784
S'HTTP_ACCEPT_LANGUAGE'
p2785
asbag61
(g82
g63
NtRp2786
(dp2787
g66
(dp2788
g93
g94
ssg75
g2777
sg68
(lp2789
S':'
asbag61
(g82
g63
NtRp2790
(dp2791
g66
(dp2792
sg75
g2777
sg68
(lp2793
g61
(g62
g63
NtRp2794
(dp2795
g66
(dp2796
g74
I3
ssg75
g2790
sg68
(lp2797
g1181
asbasbasbag61
(g77
g63
NtRp2798
(dp2799
g66
(dp2800
sg75
g2731
sg68
(lp2801
g61
(g82
g63
NtRp2802
(dp2803
g66
(dp2804
g86
g87
ssg75
g2798
sg68
(lp2805
S'HTTP_CONNECTION'
p2806
asbag61
(g82
g63
NtRp2807
(dp2808
g66
(dp2809
g93
g94
ssg75
g2798
sg68
(lp2810
S':'
asbag61
(g82
g63
NtRp2811
(dp2812
g66
(dp2813
sg75
g2798
sg68
(lp2814
g61
(g62
g63
NtRp2815
(dp2816
g66
(dp2817
g74
I3
ssg75
g2811
sg68
(lp2818
g1203
asbasbasbag61
(g77
g63
NtRp2819
(dp2820
g66
(dp2821
sg75
g2731
sg68
(lp2822
g61
(g82
g63
NtRp2823
(dp2824
g66
(dp2825
g86
g87
ssg75
g2819
sg68
(lp2826
S'HTTP_COOKIE'
p2827
asbag61
(g82
g63
NtRp2828
(dp2829
g66
(dp2830
g93
g94
ssg75
g2819
sg68
(lp2831
S':'
asbag61
(g82
g63
NtRp2832
(dp2833
g66
(dp2834
sg75
g2819
sg68
(lp2835
g61
(g62
g63
NtRp2836
(dp2837
g66
(dp2838
g74
I3
ssg75
g2832
sg68
(lp2839
g1225
asbasbasbag61
(g77
g63
NtRp2840
(dp2841
g66
(dp2842
sg75
g2731
sg68
(lp2843
g61
(g82
g63
NtRp2844
(dp2845
g66
(dp2846
g86
g87
ssg75
g2840
sg68
(lp2847
S'HTTP_HOST'
p2848
asbag61
(g82
g63
NtRp2849
(dp2850
g66
(dp2851
g93
g94
ssg75
g2840
sg68
(lp2852
S':'
asbag61
(g82
g63
NtRp2853
(dp2854
g66
(dp2855
sg75
g2840
sg68
(lp2856
g61
(g62
g63
NtRp2857
(dp2858
g66
(dp2859
g74
I3
ssg75
g2853
sg68
(lp2860
g1247
asbasbasbag61
(g77
g63
NtRp2861
(dp2862
g66
(dp2863
sg75
g2731
sg68
(lp2864
g61
(g82
g63
NtRp2865
(dp2866
g66
(dp2867
g86
g87
ssg75
g2861
sg68
(lp2868
S'HTTP_REFERER'
p2869
asbag61
(g82
g63
NtRp2870
(dp2871
g66
(dp2872
g93
g94
ssg75
g2861
sg68
(lp2873
S':'
asbag61
(g82
g63
NtRp2874
(dp2875
g66
(dp2876
sg75
g2861
sg68
(lp2877
g61
(g62
g63
NtRp2878
(dp2879
g66
(dp2880
g74
I3
ssg75
g2874
sg68
(lp2881
g1269
asbasbasbag61
(g77
g63
NtRp2882
(dp2883
g66
(dp2884
sg75
g2731
sg68
(lp2885
g61
(g82
g63
NtRp2886
(dp2887
g66
(dp2888
g86
g87
ssg75
g2882
sg68
(lp2889
S'HTTP_USER_AGENT'
p2890
asbag61
(g82
g63
NtRp2891
(dp2892
g66
(dp2893
g93
g94
ssg75
g2882
sg68
(lp2894
S':'
asbag61
(g82
g63
NtRp2895
(dp2896
g66
(dp2897
sg75
g2882
sg68
(lp2898
g61
(g62
g63
NtRp2899
(dp2900
g66
(dp2901
g74
I3
ssg75
g2895
sg68
(lp2902
g1291
asbasbasbag61
(g77
g63
NtRp2903
(dp2904
g66
(dp2905
sg75
g2731
sg68
(lp2906
g61
(g82
g63
NtRp2907
(dp2908
g66
(dp2909
g86
g87
ssg75
g2903
sg68
(lp2910
S'PATH_INFO'
p2911
asbag61
(g82
g63
NtRp2912
(dp2913
g66
(dp2914
g93
g94
ssg75
g2903
sg68
(lp2915
S':'
asbag61
(g82
g63
NtRp2916
(dp2917
g66
(dp2918
sg75
g2903
sg68
(lp2919
g61
(g62
g63
NtRp2920
(dp2921
g66
(dp2922
g74
I3
ssg75
g2916
sg68
(lp2923
g1445
asbasbasbag61
(g77
g63
NtRp2924
(dp2925
g66
(dp2926
sg75
g2731
sg68
(lp2927
g61
(g82
g63
NtRp2928
(dp2929
g66
(dp2930
g86
g87
ssg75
g2924
sg68
(lp2931
S'QUERY_STRING'
p2932
asbag61
(g82
g63
NtRp2933
(dp2934
g66
(dp2935
g93
g94
ssg75
g2924
sg68
(lp2936
S':'
asbag61
(g82
g63
NtRp2937
(dp2938
g66
(dp2939
sg75
g2924
sg68
(lp2940
g61
(g62
g63
NtRp2941
(dp2942
g66
(dp2943
g74
I3
ssg75
g2937
sg68
(lp2944
S''
asbasbasbag61
(g77
g63
NtRp2945
(dp2946
g66
(dp2947
sg75
g2731
sg68
(lp2948
g61
(g82
g63
NtRp2949
(dp2950
g66
(dp2951
g86
g87
ssg75
g2945
sg68
(lp2952
S'REMOTE_ADDR'
p2953
asbag61
(g82
g63
NtRp2954
(dp2955
g66
(dp2956
g93
g94
ssg75
g2945
sg68
(lp2957
S':'
asbag61
(g82
g63
NtRp2958
(dp2959
g66
(dp2960
sg75
g2945
sg68
(lp2961
g61
(g62
g63
NtRp2962
(dp2963
g66
(dp2964
g74
I3
ssg75
g2958
sg68
(lp2965
g216
asbasbasbag61
(g77
g63
NtRp2966
(dp2967
g66
(dp2968
sg75
g2731
sg68
(lp2969
g61
(g82
g63
NtRp2970
(dp2971
g66
(dp2972
g86
g87
ssg75
g2966
sg68
(lp2973
S'REMOTE_PORT'
p2974
asbag61
(g82
g63
NtRp2975
(dp2976
g66
(dp2977
g93
g94
ssg75
g2966
sg68
(lp2978
S':'
asbag61
(g82
g63
NtRp2979
(dp2980
g66
(dp2981
sg75
g2966
sg68
(lp2982
g61
(g62
g63
NtRp2983
(dp2984
g66
(dp2985
g74
I3
ssg75
g2979
sg68
(lp2986
g1509
asbasbasbag61
(g77
g63
NtRp2987
(dp2988
g66
(dp2989
sg75
g2731
sg68
(lp2990
g61
(g82
g63
NtRp2991
(dp2992
g66
(dp2993
g86
g87
ssg75
g2987
sg68
(lp2994
S'REQUEST_METHOD'
p2995
asbag61
(g82
g63
NtRp2996
(dp2997
g66
(dp2998
g93
g94
ssg75
g2987
sg68
(lp2999
S':'
asbag61
(g82
g63
NtRp3000
(dp3001
g66
(dp3002
sg75
g2987
sg68
(lp3003
g61
(g62
g63
NtRp3004
(dp3005
g66
(dp3006
g74
I3
ssg75
g3000
sg68
(lp3007
g1531
asbasbasbag61
(g77
g63
NtRp3008
(dp3009
g66
(dp3010
sg75
g2731
sg68
(lp3011
g61
(g82
g63
NtRp3012
(dp3013
g66
(dp3014
g86
g87
ssg75
g3008
sg68
(lp3015
S'REQUEST_URI'
p3016
asbag61
(g82
g63
NtRp3017
(dp3018
g66
(dp3019
g93
g94
ssg75
g3008
sg68
(lp3020
S':'
asbag61
(g82
g63
NtRp3021
(dp3022
g66
(dp3023
sg75
g3008
sg68
(lp3024
g61
(g62
g63
NtRp3025
(dp3026
g66
(dp3027
g74
I3
ssg75
g3021
sg68
(lp3028
g1445
asbasbasbag61
(g77
g63
NtRp3029
(dp3030
g66
(dp3031
sg75
g2731
sg68
(lp3032
g61
(g82
g63
NtRp3033
(dp3034
g66
(dp3035
g86
g87
ssg75
g3029
sg68
(lp3036
S'SCRIPT_NAME'
p3037
asbag61
(g82
g63
NtRp3038
(dp3039
g66
(dp3040
g93
g94
ssg75
g3029
sg68
(lp3041
S':'
asbag61
(g82
g63
NtRp3042
(dp3043
g66
(dp3044
sg75
g3029
sg68
(lp3045
g61
(g62
g63
NtRp3046
(dp3047
g66
(dp3048
g74
I3
ssg75
g3042
sg68
(lp3049
S''
asbasbasbag61
(g77
g63
NtRp3050
(dp3051
g66
(dp3052
sg75
g2731
sg68
(lp3053
g61
(g82
g63
NtRp3054
(dp3055
g66
(dp3056
g86
g87
ssg75
g3050
sg68
(lp3057
S'SERVER_NAME'
p3058
asbag61
(g82
g63
NtRp3059
(dp3060
g66
(dp3061
g93
g94
ssg75
g3050
sg68
(lp3062
S':'
asbag61
(g82
g63
NtRp3063
(dp3064
g66
(dp3065
sg75
g3050
sg68
(lp3066
g61
(g62
g63
NtRp3067
(dp3068
g66
(dp3069
g74
I3
ssg75
g3063
sg68
(lp3070
g1410
asbasbasbag61
(g77
g63
NtRp3071
(dp3072
g66
(dp3073
sg75
g2731
sg68
(lp3074
g61
(g82
g63
NtRp3075
(dp3076
g66
(dp3077
g86
g87
ssg75
g3071
sg68
(lp3078
S'SERVER_PORT'
p3079
asbag61
(g82
g63
NtRp3080
(dp3081
g66
(dp3082
g93
g94
ssg75
g3071
sg68
(lp3083
S':'
asbag61
(g82
g63
NtRp3084
(dp3085
g66
(dp3086
sg75
g3071
sg68
(lp3087
g61
(g62
g63
NtRp3088
(dp3089
g66
(dp3090
g74
I3
ssg75
g3084
sg68
(lp3091
g1616
asbasbasbag61
(g77
g63
NtRp3092
(dp3093
g66
(dp3094
sg75
g2731
sg68
(lp3095
g61
(g82
g63
NtRp3096
(dp3097
g66
(dp3098
g86
g87
ssg75
g3092
sg68
(lp3099
S'SERVER_PROTOCOL'
p3100
asbag61
(g82
g63
NtRp3101
(dp3102
g66
(dp3103
g93
g94
ssg75
g3092
sg68
(lp3104
S':'
asbag61
(g82
g63
NtRp3105
(dp3106
g66
(dp3107
sg75
g3092
sg68
(lp3108
g61
(g62
g63
NtRp3109
(dp3110
g66
(dp3111
g74
I3
ssg75
g3105
sg68
(lp3112
g1638
asbasbasbag61
(g77
g63
NtRp3113
(dp3114
g66
(dp3115
sg75
g2731
sg68
(lp3116
g61
(g82
g63
NtRp3117
(dp3118
g66
(dp3119
g86
g87
ssg75
g3113
sg68
(lp3120
S'SERVER_SOFTWARE'
p3121
asbag61
(g82
g63
NtRp3122
(dp3123
g66
(dp3124
g93
g94
ssg75
g3113
sg68
(lp3125
S':'
asbag61
(g82
g63
NtRp3126
(dp3127
g66
(dp3128
sg75
g3113
sg68
(lp3129
g61
(g62
g63
NtRp3130
(dp3131
g66
(dp3132
g74
I3
ssg75
g3126
sg68
(lp3133
g1660
asbasbasbag61
(g77
g63
NtRp3134
(dp3135
g66
(dp3136
sg75
g2731
sg68
(lp3137
g61
(g82
g63
NtRp3138
(dp3139
g66
(dp3140
g86
g87
ssg75
g3134
sg68
(lp3141
S'wsgi.errors'
p3142
asbag61
(g82
g63
NtRp3143
(dp3144
g66
(dp3145
g93
g94
ssg75
g3134
sg68
(lp3146
S':'
asbag61
(g82
g63
NtRp3147
(dp3148
g66
(dp3149
sg75
g3134
sg68
(lp3150
g61
(g62
g63
NtRp3151
(dp3152
g66
(dp3153
g74
I3
ssg75
g3147
sg68
(lp3154
S"<open file '<stderr>', mode 'w' at 0x540b0>"
p3155
asbasbasbag61
(g77
g63
NtRp3156
(dp3157
g66
(dp3158
sg75
g2731
sg68
(lp3159
g61
(g82
g63
NtRp3160
(dp3161
g66
(dp3162
g86
g87
ssg75
g3156
sg68
(lp3163
S'wsgi.file_wrapper'
p3164
asbag61
(g82
g63
NtRp3165
(dp3166
g66
(dp3167
g93
g94
ssg75
g3156
sg68
(lp3168
S':'
asbag61
(g82
g63
NtRp3169
(dp3170
g66
(dp3171
sg75
g3156
sg68
(lp3172
g61
(g62
g63
NtRp3173
(dp3174
g66
(dp3175
g74
I3
ssg75
g3169
sg68
(lp3176
S'<class wsgiref.util.FileWrapper at 0x44002d0>'
p3177
asbasbasbag61
(g77
g63
NtRp3178
(dp3179
g66
(dp3180
sg75
g2731
sg68
(lp3181
g61
(g82
g63
NtRp3182
(dp3183
g66
(dp3184
g86
g87
ssg75
g3178
sg68
(lp3185
S'wsgi.input'
p3186
asbag61
(g82
g63
NtRp3187
(dp3188
g66
(dp3189
g93
g94
ssg75
g3178
sg68
(lp3190
S':'
asbag61
(g82
g63
NtRp3191
(dp3192
g66
(dp3193
sg75
g3178
sg68
(lp3194
g61
(g62
g63
NtRp3195
(dp3196
g66
(dp3197
g74
I3
ssg75
g3191
sg68
(lp3198
S'<cStringIO.StringO object at 0x8e39a40>'
p3199
asbasbasbag61
(g77
g63
NtRp3200
(dp3201
g66
(dp3202
sg75
g2731
sg68
(lp3203
g61
(g82
g63
NtRp3204
(dp3205
g66
(dp3206
g86
g87
ssg75
g3200
sg68
(lp3207
S'wsgi.multiprocess'
p3208
asbag61
(g82
g63
NtRp3209
(dp3210
g66
(dp3211
g93
g94
ssg75
g3200
sg68
(lp3212
S':'
asbag61
(g82
g63
NtRp3213
(dp3214
g66
(dp3215
sg75
g3200
sg68
(lp3216
g61
(g62
g63
NtRp3217
(dp3218
g66
(dp3219
g74
I3
ssg75
g3213
sg68
(lp3220
g104
asbasbasbag61
(g77
g63
NtRp3221
(dp3222
g66
(dp3223
sg75
g2731
sg68
(lp3224
g61
(g82
g63
NtRp3225
(dp3226
g66
(dp3227
g86
g87
ssg75
g3221
sg68
(lp3228
S'wsgi.multithread'
p3229
asbag61
(g82
g63
NtRp3230
(dp3231
g66
(dp3232
g93
g94
ssg75
g3221
sg68
(lp3233
S':'
asbag61
(g82
g63
NtRp3234
(dp3235
g66
(dp3236
sg75
g3221
sg68
(lp3237
g61
(g62
g63
NtRp3238
(dp3239
g66
(dp3240
g74
I3
ssg75
g3234
sg68
(lp3241
g1877
asbasbasbag61
(g77
g63
NtRp3242
(dp3243
g66
(dp3244
sg75
g2731
sg68
(lp3245
g61
(g82
g63
NtRp3246
(dp3247
g66
(dp3248
g86
g87
ssg75
g3242
sg68
(lp3249
S'wsgi.run_once'
p3250
asbag61
(g82
g63
NtRp3251
(dp3252
g66
(dp3253
g93
g94
ssg75
g3242
sg68
(lp3254
S':'
asbag61
(g82
g63
NtRp3255
(dp3256
g66
(dp3257
sg75
g3242
sg68
(lp3258
g61
(g62
g63
NtRp3259
(dp3260
g66
(dp3261
g74
I3
ssg75
g3255
sg68
(lp3262
g104
asbasbasbag61
(g77
g63
NtRp3263
(dp3264
g66
(dp3265
sg75
g2731
sg68
(lp3266
g61
(g82
g63
NtRp3267
(dp3268
g66
(dp3269
g86
g87
ssg75
g3263
sg68
(lp3270
S'wsgi.url_scheme'
p3271
asbag61
(g82
g63
NtRp3272
(dp3273
g66
(dp3274
g93
g94
ssg75
g3263
sg68
(lp3275
S':'
asbag61
(g82
g63
NtRp3276
(dp3277
g66
(dp3278
sg75
g3263
sg68
(lp3279
g61
(g62
g63
NtRp3280
(dp3281
g66
(dp3282
g74
I3
ssg75
g3276
sg68
(lp3283
g1920
asbasbasbag61
(g77
g63
NtRp3284
(dp3285
g66
(dp3286
sg75
g2731
sg68
(lp3287
g61
(g82
g63
NtRp3288
(dp3289
g66
(dp3290
g86
g87
ssg75
g3284
sg68
(lp3291
S'wsgi.version'
p3292
asbag61
(g82
g63
NtRp3293
(dp3294
g66
(dp3295
g93
g94
ssg75
g3284
sg68
(lp3296
S':'
asbag61
(g82
g63
NtRp3297
(dp3298
g66
(dp3299
sg75
g3284
sg68
(lp3300
g61
(g62
g63
NtRp3301
(dp3302
g66
(dp3303
g74
I3
ssg75
g3297
sg68
(lp3304
S'1'
asbasbasbasbasbasbasbasbasbasbasbasbasbsS'frames'
p3305
(lp3306
(dp3307
S'file'
p3308
S'/Users/abaric/Downloads/web2py/web2py.app/Contents/Resources/gluon/restricted.py'
p3309
sS'dump'
p3310
(dp3311
sS'lnum'
p3312
I211
sS'lines'
p3313
(dp3314
sS'call'
p3315
S'(code=\'response.write(\\\'<!DOCTYPE html>\\\\n<!-- paulirish...."></script>\\\\n</body>\\\\n</html>\\\\n\\\\n\\\', escape=False)\', environment={\'A\': <class \'gluon.html.A\'>, \'Auth\': <class \'gluon.tools.Auth\'>, \'B\': <class \'gluon.html.B\'>, \'BEAUTIFY\': <class \'gluon.html.BEAUTIFY\'>, \'BODY\': <class \'gluon.html.BODY\'>, \'BR\': <class \'gluon.html.BR\'>, \'BUTTON\': <class \'gluon.html.BUTTON\'>, \'CAT\': <class \'gluon.html.CAT\'>, \'CENTER\': <class \'gluon.html.CENTER\'>, \'CLEANUP\': <class \'gluon.validators.CLEANUP\'>, ...}, layer=\'/Users/abaric/Downloads/web2py/web2py.app/Conten...al_Impulse/views/default/show_video_comments.html\')'
p3316
sS'func'
p3317
S'restricted'
p3318
sa(dp3319
g3308
S'/Users/abaric/Downloads/web2py/web2py.app/Contents/Resources/gluon/restricted.py'
p3320
sg3310
(dp3321
sg3312
I194
sg3313
(dp3322
sg3315
S'(code=\'response.write(\\\'<!DOCTYPE html>\\\\n<!-- paulirish...."></script>\\\\n</body>\\\\n</html>\\\\n\\\\n\\\', escape=False)\', layer=\'/Users/abaric/Downloads/web2py/web2py.app/Conten...al_Impulse/views/default/show_video_comments.html\')'
p3323
sg3317
S'compile2'
p3324
sasS'pyver'
p3325
S'Python 2.5.1: /Users/abaric/Downloads/web2py/web2py.app/Contents/MacOS/python'
p3326
sS'session'
p3327
g61
(g62
g63
NtRp3328
(dp3329
g66
(dp3330
sg68
(lp3331
g61
(g70
g63
NtRp3332
(dp3333
g66
(dp3334
g74
I5
ssg75
Nsg68
(lp3335
g61
(g77
g63
NtRp3336
(dp3337
g66
(dp3338
sg75
g3332
sg68
(lp3339
g61
(g82
g63
NtRp3340
(dp3341
g66
(dp3342
g86
g87
ssg75
g3336
sg68
(lp3343
S'last_orderby'
p3344
asbag61
(g82
g63
NtRp3345
(dp3346
g66
(dp3347
g93
g94
ssg75
g3336
sg68
(lp3348
S':'
asbag61
(g82
g63
NtRp3349
(dp3350
g66
(dp3351
sg75
g3336
sg68
(lp3352
g61
(g62
g63
NtRp3353
(dp3354
g66
(dp3355
g74
I5
ssg75
g3349
sg68
(lp3356
S'None'
p3357
asbasbasbag61
(g77
g63
NtRp3358
(dp3359
g66
(dp3360
sg75
g3332
sg68
(lp3361
g61
(g82
g63
NtRp3362
(dp3363
g66
(dp3364
g86
g87
ssg75
g3358
sg68
(lp3365
S'last_query'
p3366
asbag61
(g82
g63
NtRp3367
(dp3368
g66
(dp3369
g93
g94
ssg75
g3358
sg68
(lp3370
S':'
asbag61
(g82
g63
NtRp3371
(dp3372
g66
(dp3373
sg75
g3358
sg68
(lp3374
g61
(g62
g63
NtRp3375
(dp3376
g66
(dp3377
g74
I5
ssg75
g3371
sg68
(lp3378
S'db.video.id>0'
p3379
asbasbasbasbasbsS'etype'
p3380
S"<type 'exceptions.SyntaxError'>"
p3381
sS'date'
p3382
S'Sun Mar 30 00:22:07 2014'
p3383
sS'response'
p3384
g61
(g62
g63
NtRp3385
(dp3386
g66
(dp3387
sg68
(lp3388
g61
(g70
g63
NtRp3389
(dp3390
g66
(dp3391
g74
I5
ssg75
Nsg68
(lp3392
g61
(g77
g63
NtRp3393
(dp3394
g66
(dp3395
sg75
g3389
sg68
(lp3396
g61
(g82
g63
NtRp3397
(dp3398
g66
(dp3399
g86
g87
ssg75
g3393
sg68
(lp3400
g159
asbag61
(g82
g63
NtRp3401
(dp3402
g66
(dp3403
g93
g94
ssg75
g3393
sg68
(lp3404
S':'
asbag61
(g82
g63
NtRp3405
(dp3406
g66
(dp3407
sg75
g3393
sg68
(lp3408
g61
(g62
g63
NtRp3409
(dp3410
g66
(dp3411
g74
I5
ssg75
g3405
sg68
(lp3412
S'<cStringIO.StringO object at 0x9548240>'
p3413
asbasbasbag61
(g77
g63
NtRp3414
(dp3415
g66
(dp3416
sg75
g3389
sg68
(lp3417
g61
(g82
g63
NtRp3418
(dp3419
g66
(dp3420
g86
g87
ssg75
g3414
sg68
(lp3421
g247
asbag61
(g82
g63
NtRp3422
(dp3423
g66
(dp3424
g93
g94
ssg75
g3414
sg68
(lp3425
S':'
asbag61
(g82
g63
NtRp3426
(dp3427
g66
(dp3428
sg75
g3414
sg68
(lp3429
g61
(g62
g63
NtRp3430
(dp3431
g66
(dp3432
g74
I5
ssg75
g3426
sg68
(lp3433
g61
(g70
g63
NtRp3434
(dp3435
g66
(dp3436
g74
I4
ssg75
Nsg68
(lp3437
g61
(g77
g63
NtRp3438
(dp3439
g66
(dp3440
sg75
g3434
sg68
(lp3441
g61
(g82
g63
NtRp3442
(dp3443
g66
(dp3444
g86
g87
ssg75
g3438
sg68
(lp3445
S'session_id_final_impulse'
p3446
asbag61
(g82
g63
NtRp3447
(dp3448
g66
(dp3449
g93
g94
ssg75
g3438
sg68
(lp3450
S':'
asbag61
(g82
g63
NtRp3451
(dp3452
g66
(dp3453
sg75
g3438
sg68
(lp3454
g61
(g62
g63
NtRp3455
(dp3456
g66
(dp3457
g74
I4
ssg75
g3451
sg68
(lp3458
g458
ag61
(g70
g63
NtRp3459
(dp3460
g66
(dp3461
g74
I3
ssg75
Nsg68
(lp3462
g61
(g77
g63
NtRp3463
(dp3464
g66
(dp3465
sg75
g3459
sg68
(lp3466
g61
(g82
g63
NtRp3467
(dp3468
g66
(dp3469
g86
g87
ssg75
g3463
sg68
(lp3470
g298
asbag61
(g82
g63
NtRp3471
(dp3472
g66
(dp3473
g93
g94
ssg75
g3463
sg68
(lp3474
S':'
asbag61
(g82
g63
NtRp3475
(dp3476
g66
(dp3477
sg75
g3463
sg68
(lp3478
g61
(g62
g63
NtRp3479
(dp3480
g66
(dp3481
g74
I3
ssg75
g3475
sg68
(lp3482
S''
asbasbasbag61
(g77
g63
NtRp3483
(dp3484
g66
(dp3485
sg75
g3459
sg68
(lp3486
g61
(g82
g63
NtRp3487
(dp3488
g66
(dp3489
g86
g87
ssg75
g3483
sg68
(lp3490
g319
asbag61
(g82
g63
NtRp3491
(dp3492
g66
(dp3493
g93
g94
ssg75
g3483
sg68
(lp3494
S':'
asbag61
(g82
g63
NtRp3495
(dp3496
g66
(dp3497
sg75
g3483
sg68
(lp3498
g61
(g62
g63
NtRp3499
(dp3500
g66
(dp3501
g74
I3
ssg75
g3495
sg68
(lp3502
S''
asbasbasbag61
(g77
g63
NtRp3503
(dp3504
g66
(dp3505
sg75
g3459
sg68
(lp3506
g61
(g82
g63
NtRp3507
(dp3508
g66
(dp3509
g86
g87
ssg75
g3503
sg68
(lp3510
g340
asbag61
(g82
g63
NtRp3511
(dp3512
g66
(dp3513
g93
g94
ssg75
g3503
sg68
(lp3514
S':'
asbag61
(g82
g63
NtRp3515
(dp3516
g66
(dp3517
sg75
g3503
sg68
(lp3518
g61
(g62
g63
NtRp3519
(dp3520
g66
(dp3521
g74
I3
ssg75
g3515
sg68
(lp3522
S''
asbasbasbag61
(g77
g63
NtRp3523
(dp3524
g66
(dp3525
sg75
g3459
sg68
(lp3526
g61
(g82
g63
NtRp3527
(dp3528
g66
(dp3529
g86
g87
ssg75
g3523
sg68
(lp3530
g361
asbag61
(g82
g63
NtRp3531
(dp3532
g66
(dp3533
g93
g94
ssg75
g3523
sg68
(lp3534
S':'
asbag61
(g82
g63
NtRp3535
(dp3536
g66
(dp3537
sg75
g3523
sg68
(lp3538
g61
(g62
g63
NtRp3539
(dp3540
g66
(dp3541
g74
I3
ssg75
g3535
sg68
(lp3542
S''
asbasbasbag61
(g77
g63
NtRp3543
(dp3544
g66
(dp3545
sg75
g3459
sg68
(lp3546
g61
(g82
g63
NtRp3547
(dp3548
g66
(dp3549
g86
g87
ssg75
g3543
sg68
(lp3550
g382
asbag61
(g82
g63
NtRp3551
(dp3552
g66
(dp3553
g93
g94
ssg75
g3543
sg68
(lp3554
S':'
asbag61
(g82
g63
NtRp3555
(dp3556
g66
(dp3557
sg75
g3543
sg68
(lp3558
g61
(g62
g63
NtRp3559
(dp3560
g66
(dp3561
g74
I3
ssg75
g3555
sg68
(lp3562
S'/'
asbasbasbag61
(g77
g63
NtRp3563
(dp3564
g66
(dp3565
sg75
g3459
sg68
(lp3566
g61
(g82
g63
NtRp3567
(dp3568
g66
(dp3569
g86
g87
ssg75
g3563
sg68
(lp3570
g403
asbag61
(g82
g63
NtRp3571
(dp3572
g66
(dp3573
g93
g94
ssg75
g3563
sg68
(lp3574
S':'
asbag61
(g82
g63
NtRp3575
(dp3576
g66
(dp3577
sg75
g3563
sg68
(lp3578
g61
(g62
g63
NtRp3579
(dp3580
g66
(dp3581
g74
I3
ssg75
g3575
sg68
(lp3582
S''
asbasbasbag61
(g77
g63
NtRp3583
(dp3584
g66
(dp3585
sg75
g3459
sg68
(lp3586
g61
(g82
g63
NtRp3587
(dp3588
g66
(dp3589
g86
g87
ssg75
g3583
sg68
(lp3590
g424
asbag61
(g82
g63
NtRp3591
(dp3592
g66
(dp3593
g93
g94
ssg75
g3583
sg68
(lp3594
S':'
asbag61
(g82
g63
NtRp3595
(dp3596
g66
(dp3597
sg75
g3583
sg68
(lp3598
g61
(g62
g63
NtRp3599
(dp3600
g66
(dp3601
g74
I3
ssg75
g3595
sg68
(lp3602
S''
asbasbasbasbasbasbasbasbasbasbasbag61
(g77
g63
NtRp3603
(dp3604
g66
(dp3605
sg75
g3389
sg68
(lp3606
g61
(g82
g63
NtRp3607
(dp3608
g66
(dp3609
g86
g87
ssg75
g3603
sg68
(lp3610
S'delimiters'
p3611
asbag61
(g82
g63
NtRp3612
(dp3613
g66
(dp3614
g93
g94
ssg75
g3603
sg68
(lp3615
S':'
asbag61
(g82
g63
NtRp3616
(dp3617
g66
(dp3618
sg75
g3603
sg68
(lp3619
g61
(g62
g63
NtRp3620
(dp3621
g66
(dp3622
g74
I5
ssg75
g3616
sg68
(lp3623
g61
(g70
g63
NtRp3624
(dp3625
g66
(dp3626
g74
I4
ssg75
Nsg68
(lp3627
g61
(g77
g63
NtRp3628
(dp3629
g66
(dp3630
sg75
g3624
sg68
(lp3631
g61
(g82
g63
NtRp3632
(dp3633
g66
(dp3634
sg75
g3628
sg68
(lp3635
g61
(g62
g63
NtRp3636
(dp3637
g66
(dp3638
g74
I4
ssg75
g3632
sg68
(lp3639
S'{{'
p3640
asbasbasbag61
(g77
g63
NtRp3641
(dp3642
g66
(dp3643
sg75
g3624
sg68
(lp3644
g61
(g82
g63
NtRp3645
(dp3646
g66
(dp3647
sg75
g3641
sg68
(lp3648
g61
(g62
g63
NtRp3649
(dp3650
g66
(dp3651
g74
I4
ssg75
g3645
sg68
(lp3652
S'}}'
p3653
asbasbasbasbasbasbasbag61
(g77
g63
NtRp3654
(dp3655
g66
(dp3656
sg75
g3389
sg68
(lp3657
g61
(g82
g63
NtRp3658
(dp3659
g66
(dp3660
g86
g87
ssg75
g3654
sg68
(lp3661
S'files'
p3662
asbag61
(g82
g63
NtRp3663
(dp3664
g66
(dp3665
g93
g94
ssg75
g3654
sg68
(lp3666
S':'
asbag61
(g82
g63
NtRp3667
(dp3668
g66
(dp3669
sg75
g3654
sg68
(lp3670
g61
(g62
g63
NtRp3671
(dp3672
g66
(dp3673
g74
I5
ssg75
g3667
sg68
(lp3674
g61
(g70
g63
NtRp3675
(dp3676
g66
(dp3677
g74
I4
ssg75
Nsg68
(lp3678
sbasbasbasbag61
(g77
g63
NtRp3679
(dp3680
g66
(dp3681
sg75
g3389
sg68
(lp3682
g61
(g82
g63
NtRp3683
(dp3684
g66
(dp3685
g86
g87
ssg75
g3679
sg68
(lp3686
S'flash'
p3687
asbag61
(g82
g63
NtRp3688
(dp3689
g66
(dp3690
g93
g94
ssg75
g3679
sg68
(lp3691
S':'
asbag61
(g82
g63
NtRp3692
(dp3693
g66
(dp3694
sg75
g3679
sg68
(lp3695
g61
(g62
g63
NtRp3696
(dp3697
g66
(dp3698
g74
I5
ssg75
g3692
sg68
(lp3699
S''
asbasbasbag61
(g77
g63
NtRp3700
(dp3701
g66
(dp3702
sg75
g3389
sg68
(lp3703
g61
(g82
g63
NtRp3704
(dp3705
g66
(dp3706
g86
g87
ssg75
g3700
sg68
(lp3707
S'generic_patterns'
p3708
asbag61
(g82
g63
NtRp3709
(dp3710
g66
(dp3711
g93
g94
ssg75
g3700
sg68
(lp3712
S':'
asbag61
(g82
g63
NtRp3713
(dp3714
g66
(dp3715
sg75
g3700
sg68
(lp3716
g61
(g62
g63
NtRp3717
(dp3718
g66
(dp3719
g74
I5
ssg75
g3713
sg68
(lp3720
g61
(g70
g63
NtRp3721
(dp3722
g66
(dp3723
g74
I4
ssg75
Nsg68
(lp3724
sbasbasbasbag61
(g77
g63
NtRp3725
(dp3726
g66
(dp3727
sg75
g3389
sg68
(lp3728
g61
(g82
g63
NtRp3729
(dp3730
g66
(dp3731
g86
g87
ssg75
g3725
sg68
(lp3732
S'google_analytics_id'
p3733
asbag61
(g82
g63
NtRp3734
(dp3735
g66
(dp3736
g93
g94
ssg75
g3725
sg68
(lp3737
S':'
asbag61
(g82
g63
NtRp3738
(dp3739
g66
(dp3740
sg75
g3725
sg68
(lp3741
g61
(g62
g63
NtRp3742
(dp3743
g66
(dp3744
g74
I5
ssg75
g3738
sg68
(lp3745
S'None'
p3746
asbasbasbag61
(g77
g63
NtRp3747
(dp3748
g66
(dp3749
sg75
g3389
sg68
(lp3750
g61
(g82
g63
NtRp3751
(dp3752
g66
(dp3753
g86
g87
ssg75
g3747
sg68
(lp3754
S'headers'
p3755
asbag61
(g82
g63
NtRp3756
(dp3757
g66
(dp3758
g93
g94
ssg75
g3747
sg68
(lp3759
S':'
asbag61
(g82
g63
NtRp3760
(dp3761
g66
(dp3762
sg75
g3747
sg68
(lp3763
g61
(g62
g63
NtRp3764
(dp3765
g66
(dp3766
g74
I5
ssg75
g3760
sg68
(lp3767
g61
(g70
g63
NtRp3768
(dp3769
g66
(dp3770
g74
I4
ssg75
Nsg68
(lp3771
g61
(g77
g63
NtRp3772
(dp3773
g66
(dp3774
sg75
g3768
sg68
(lp3775
g61
(g82
g63
NtRp3776
(dp3777
g66
(dp3778
g86
g87
ssg75
g3772
sg68
(lp3779
S'X-Powered-By'
p3780
asbag61
(g82
g63
NtRp3781
(dp3782
g66
(dp3783
g93
g94
ssg75
g3772
sg68
(lp3784
S':'
asbag61
(g82
g63
NtRp3785
(dp3786
g66
(dp3787
sg75
g3772
sg68
(lp3788
g61
(g62
g63
NtRp3789
(dp3790
g66
(dp3791
g74
I4
ssg75
g3785
sg68
(lp3792
S'web2py'
p3793
asbasbasbasbasbasbasbag61
(g77
g63
NtRp3794
(dp3795
g66
(dp3796
sg75
g3389
sg68
(lp3797
g61
(g82
g63
NtRp3798
(dp3799
g66
(dp3800
g86
g87
ssg75
g3794
sg68
(lp3801
S'menu'
p3802
asbag61
(g82
g63
NtRp3803
(dp3804
g66
(dp3805
g93
g94
ssg75
g3794
sg68
(lp3806
S':'
asbag61
(g82
g63
NtRp3807
(dp3808
g66
(dp3809
sg75
g3794
sg68
(lp3810
g61
(g62
g63
NtRp3811
(dp3812
g66
(dp3813
g74
I5
ssg75
g3807
sg68
(lp3814
g61
(g70
g63
NtRp3815
(dp3816
g66
(dp3817
g74
I4
ssg75
Nsg68
(lp3818
g61
(g77
g63
NtRp3819
(dp3820
g66
(dp3821
sg75
g3815
sg68
(lp3822
g61
(g82
g63
NtRp3823
(dp3824
g66
(dp3825
sg75
g3819
sg68
(lp3826
g61
(g62
g63
NtRp3827
(dp3828
g66
(dp3829
g74
I4
ssg75
g3823
sg68
(lp3830
g61
(g70
g63
NtRp3831
(dp3832
g66
(dp3833
g74
I3
ssg75
Nsg68
(lp3834
g61
(g77
g63
NtRp3835
(dp3836
g66
(dp3837
sg75
g3831
sg68
(lp3838
g61
(g82
g63
NtRp3839
(dp3840
g66
(dp3841
sg75
g3835
sg68
(lp3842
g61
(g62
g63
NtRp3843
(dp3844
g66
(dp3845
g74
I3
ssg75
g3839
sg68
(lp3846
cgluon.languages
lazyT_unpickle
p3847
(S't\x04\x00\x00\x00Home'
tRp3848
asbasbasbag61
(g77
g63
NtRp3849
(dp3850
g66
(dp3851
sg75
g3831
sg68
(lp3852
g61
(g82
g63
NtRp3853
(dp3854
g66
(dp3855
sg75
g3849
sg68
(lp3856
g61
(g62
g63
NtRp3857
(dp3858
g66
(dp3859
g74
I3
ssg75
g3853
sg68
(lp3860
g104
asbasbasbag61
(g77
g63
NtRp3861
(dp3862
g66
(dp3863
sg75
g3831
sg68
(lp3864
g61
(g82
g63
NtRp3865
(dp3866
g66
(dp3867
sg75
g3861
sg68
(lp3868
g61
(g62
g63
NtRp3869
(dp3870
g66
(dp3871
g74
I3
ssg75
g3865
sg68
(lp3872
S'/Final_Impulse/default/index'
p3873
asbasbasbag61
(g77
g63
NtRp3874
(dp3875
g66
(dp3876
sg75
g3831
sg68
(lp3877
g61
(g82
g63
NtRp3878
(dp3879
g66
(dp3880
sg75
g3874
sg68
(lp3881
g61
(g62
g63
NtRp3882
(dp3883
g66
(dp3884
g74
I3
ssg75
g3878
sg68
(lp3885
g61
(g70
g63
NtRp3886
(dp3887
g66
(dp3888
g74
I2
ssg75
Nsg68
(lp3889
sbasbasbasbasbasbasbasbag61
(g77
g63
NtRp3890
(dp3891
g66
(dp3892
sg75
g3815
sg68
(lp3893
g61
(g82
g63
NtRp3894
(dp3895
g66
(dp3896
sg75
g3890
sg68
(lp3897
g61
(g62
g63
NtRp3898
(dp3899
g66
(dp3900
g74
I4
ssg75
g3894
sg68
(lp3901
g61
(g70
g63
NtRp3902
(dp3903
g66
(dp3904
g74
I3
ssg75
Nsg68
(lp3905
g61
(g77
g63
NtRp3906
(dp3907
g66
(dp3908
sg75
g3902
sg68
(lp3909
g61
(g82
g63
NtRp3910
(dp3911
g66
(dp3912
sg75
g3906
sg68
(lp3913
g61
(g62
g63
NtRp3914
(dp3915
g66
(dp3916
g74
I3
ssg75
g3910
sg68
(lp3917
g61
(cgluon.html
SPAN
p3918
g63
NtRp3919
(dp3920
g66
(dp3921
S'_class'
p3922
S'highlighted'
p3923
ssg75
Nsg68
(lp3924
g3793
asbasbasbasbag61
(g77
g63
NtRp3925
(dp3926
g66
(dp3927
sg75
g3902
sg68
(lp3928
g61
(g82
g63
NtRp3929
(dp3930
g66
(dp3931
sg75
g3925
sg68
(lp3932
g61
(g62
g63
NtRp3933
(dp3934
g66
(dp3935
g74
I3
ssg75
g3929
sg68
(lp3936
g104
asbasbasbag61
(g77
g63
NtRp3937
(dp3938
g66
(dp3939
sg75
g3902
sg68
(lp3940
g61
(g82
g63
NtRp3941
(dp3942
g66
(dp3943
sg75
g3937
sg68
(lp3944
g61
(g62
g63
NtRp3945
(dp3946
g66
(dp3947
g74
I3
ssg75
g3941
sg68
(lp3948
S'http://web2py.com'
p3949
asbasbasbag61
(g77
g63
NtRp3950
(dp3951
g66
(dp3952
sg75
g3902
sg68
(lp3953
g61
(g82
g63
NtRp3954
(dp3955
g66
(dp3956
sg75
g3950
sg68
(lp3957
g61
(g62
g63
NtRp3958
(dp3959
g66
(dp3960
g74
I3
ssg75
g3954
sg68
(lp3961
g61
(g70
g63
NtRp3962
(dp3963
g66
(dp3964
g74
I2
ssg75
Nsg68
(lp3965
g61
(g77
g63
NtRp3966
(dp3967
g66
(dp3968
sg75
g3962
sg68
(lp3969
g61
(g82
g63
NtRp3970
(dp3971
g66
(dp3972
sg75
g3966
sg68
(lp3973
g61
(g62
g63
NtRp3974
(dp3975
g66
(dp3976
g74
I2
ssg75
g3970
sg68
(lp3977
g61
(g70
g63
NtRp3978
(dp3979
g66
(dp3980
g74
I1
ssg75
Nsg68
(lp3981
g61
(g77
g63
NtRp3982
(dp3983
g66
(dp3984
sg75
g3978
sg68
(lp3985
g61
(g82
g63
NtRp3986
(dp3987
g66
(dp3988
sg75
g3982
sg68
(lp3989
g61
(g62
g63
NtRp3990
(dp3991
g66
(dp3992
g74
I1
ssg75
g3986
sg68
(lp3993
g3847
(S's\x08\x00\x00\x00My Sites'
tRp3994
asbasbasbag61
(g77
g63
NtRp3995
(dp3996
g66
(dp3997
sg75
g3978
sg68
(lp3998
g61
(g82
g63
NtRp3999
(dp4000
g66
(dp4001
sg75
g3995
sg68
(lp4002
g61
(g62
g63
NtRp4003
(dp4004
g66
(dp4005
g74
I1
ssg75
g3999
sg68
(lp4006
I00
asbasbasbag61
(g77
g63
NtRp4007
(dp4008
g66
(dp4009
sg75
g3978
sg68
(lp4010
g61
(g82
g63
NtRp4011
(dp4012
g66
(dp4013
sg75
g4007
sg68
(lp4014
g61
(g62
g63
NtRp4015
(dp4016
g66
(dp4017
g74
I1
ssg75
g4011
sg68
(lp4018
S'/admin/default/site'
p4019
asbasbasbasbasbasbasbag61
(g77
g63
NtRp4020
(dp4021
g66
(dp4022
sg75
g3962
sg68
(lp4023
g61
(g82
g63
NtRp4024
(dp4025
g66
(dp4026
sg75
g4020
sg68
(lp4027
g61
(g62
g63
NtRp4028
(dp4029
g66
(dp4030
g74
I2
ssg75
g4024
sg68
(lp4031
g61
(g70
g63
NtRp4032
(dp4033
g66
(dp4034
g74
I1
ssg75
Nsg68
(lp4035
g61
(g77
g63
NtRp4036
(dp4037
g66
(dp4038
sg75
g4032
sg68
(lp4039
g61
(g82
g63
NtRp4040
(dp4041
g66
(dp4042
sg75
g4036
sg68
(lp4043
g61
(g62
g63
NtRp4044
(dp4045
g66
(dp4046
g74
I1
ssg75
g4040
sg68
(lp4047
g3847
(S's\x08\x00\x00\x00This App'
tRp4048
asbasbasbag61
(g77
g63
NtRp4049
(dp4050
g66
(dp4051
sg75
g4032
sg68
(lp4052
g61
(g82
g63
NtRp4053
(dp4054
g66
(dp4055
sg75
g4049
sg68
(lp4056
g61
(g62
g63
NtRp4057
(dp4058
g66
(dp4059
g74
I1
ssg75
g4053
sg68
(lp4060
I00
asbasbasbag61
(g77
g63
NtRp4061
(dp4062
g66
(dp4063
sg75
g4032
sg68
(lp4064
g61
(g82
g63
NtRp4065
(dp4066
g66
(dp4067
sg75
g4061
sg68
(lp4068
g61
(g62
g63
NtRp4069
(dp4070
g66
(dp4071
g74
I1
ssg75
g4065
sg68
(lp4072
S'/admin/default/design/Final_Impulse'
p4073
asbasbasbag61
(g77
g63
NtRp4074
(dp4075
g66
(dp4076
sg75
g4032
sg68
(lp4077
g61
(g82
g63
NtRp4078
(dp4079
g66
(dp4080
sg75
g4074
sg68
(lp4081
g61
(g62
g63
NtRp4082
(dp4083
g66
(dp4084
g74
I1
ssg75
g4078
sg68
(lp4085
(lp4086
(g3847
(S't\n\x00\x00\x00Controller'
tRp4087
I00
S'/admin/default/edit/Final_Impulse/controllers/default.py'
tp4088
a(g3847
(S't\x04\x00\x00\x00View'
tRp4089
I00
S'/admin/default/edit/Final_Impulse/views/default/show_video_comments.html'
tp4090
a(g3847
(S't\x06\x00\x00\x00Layout'
tRp4091
I00
S'/admin/default/edit/Final_Impulse/views/layout.html'
tp4092
a(g3847
(S't\n\x00\x00\x00Stylesheet'
tRp4093
I00
S'/admin/default/edit/Final_Impulse/static/css/web2py.css'
tp4094
a(g3847
(S's\x08\x00\x00\x00DB Model'
tRp4095
I00
S'/admin/default/edit/Final_Impulse/models/db.py'
tp4096
a(g3847
(S's\n\x00\x00\x00Menu Model'
tRp4097
I00
S'/admin/default/edit/Final_Impulse/models/menu.py'
tp4098
a(g3847
(S't\x08\x00\x00\x00Database'
tRp4099
I00
S'/Final_Impulse/appadmin/index'
tp4100
a(g3847
(S't\x06\x00\x00\x00Errors'
tRp4101
I00
S'/admin/default/errors/Final_Impulse'
tp4102
a(g3847
(S't\x05\x00\x00\x00About'
tRp4103
I00
S'/admin/default/about/Final_Impulse'
tp4104
aasbasbasbasbasbasbasbag61
(g77
g63
NtRp4105
(dp4106
g66
(dp4107
sg75
g3962
sg68
(lp4108
g61
(g82
g63
NtRp4109
(dp4110
g66
(dp4111
sg75
g4105
sg68
(lp4112
g61
(g62
g63
NtRp4113
(dp4114
g66
(dp4115
g74
I2
ssg75
g4109
sg68
(lp4116
g61
(g70
g63
NtRp4117
(dp4118
g66
(dp4119
g74
I1
ssg75
Nsg68
(lp4120
g61
(g77
g63
NtRp4121
(dp4122
g66
(dp4123
sg75
g4117
sg68
(lp4124
g61
(g82
g63
NtRp4125
(dp4126
g66
(dp4127
sg75
g4121
sg68
(lp4128
g61
(g62
g63
NtRp4129
(dp4130
g66
(dp4131
g74
I1
ssg75
g4125
sg68
(lp4132
S'web2py.com'
p4133
asbasbasbag61
(g77
g63
NtRp4134
(dp4135
g66
(dp4136
sg75
g4117
sg68
(lp4137
g61
(g82
g63
NtRp4138
(dp4139
g66
(dp4140
sg75
g4134
sg68
(lp4141
g61
(g62
g63
NtRp4142
(dp4143
g66
(dp4144
g74
I1
ssg75
g4138
sg68
(lp4145
I00
asbasbasbag61
(g77
g63
NtRp4146
(dp4147
g66
(dp4148
sg75
g4117
sg68
(lp4149
g61
(g82
g63
NtRp4150
(dp4151
g66
(dp4152
sg75
g4146
sg68
(lp4153
g61
(g62
g63
NtRp4154
(dp4155
g66
(dp4156
g74
I1
ssg75
g4150
sg68
(lp4157
S'http://www.web2py.com'
p4158
asbasbasbag61
(g77
g63
NtRp4159
(dp4160
g66
(dp4161
sg75
g4117
sg68
(lp4162
g61
(g82
g63
NtRp4163
(dp4164
g66
(dp4165
sg75
g4159
sg68
(lp4166
g61
(g62
g63
NtRp4167
(dp4168
g66
(dp4169
g74
I1
ssg75
g4163
sg68
(lp4170
(lp4171
(g3847
(S't\x08\x00\x00\x00Download'
tRp4172
I00
S'http://www.web2py.com/examples/default/download'
p4173
tp4174
a(g3847
(S't\x07\x00\x00\x00Support'
tRp4175
I00
S'http://www.web2py.com/examples/default/support'
p4176
tp4177
a(g3847
(S't\x04\x00\x00\x00Demo'
tRp4178
I00
S'http://web2py.com/demo_admin'
p4179
tp4180
a(g3847
(S's\x0e\x00\x00\x00Quick Examples'
tRp4181
I00
S'http://web2py.com/examples/default/examples'
p4182
tp4183
a(g3847
(S't\x03\x00\x00\x00FAQ'
tRp4184
I00
S'http://web2py.com/AlterEgo'
p4185
tp4186
a(g3847
(S't\x06\x00\x00\x00Videos'
tRp4187
I00
S'http://www.web2py.com/examples/default/videos/'
p4188
tp4189
a(g3847
(S's\x11\x00\x00\x00Free Applications'
tRp4190
I00
S'http://web2py.com/appliances'
p4191
tp4192
a(g3847
(S't\x07\x00\x00\x00Plugins'
tRp4193
I00
S'http://web2py.com/plugins'
p4194
tp4195
a(g3847
(S't\x07\x00\x00\x00Layouts'
tRp4196
I00
S'http://web2py.com/layouts'
p4197
tp4198
a(g3847
(S't\x07\x00\x00\x00Recipes'
tRp4199
I00
S'http://web2pyslices.com/'
p4200
tp4201
a(g3847
(S't\x08\x00\x00\x00Semantic'
tRp4202
I00
S'http://web2py.com/semantic'
p4203
tp4204
aasbasbasbasbasbasbasbag61
(g77
g63
NtRp4205
(dp4206
g66
(dp4207
sg75
g3962
sg68
(lp4208
g61
(g82
g63
NtRp4209
(dp4210
g66
(dp4211
sg75
g4205
sg68
(lp4212
g61
(g62
g63
NtRp4213
(dp4214
g66
(dp4215
g74
I2
ssg75
g4209
sg68
(lp4216
g61
(g70
g63
NtRp4217
(dp4218
g66
(dp4219
g74
I1
ssg75
Nsg68
(lp4220
g61
(g77
g63
NtRp4221
(dp4222
g66
(dp4223
sg75
g4217
sg68
(lp4224
g61
(g82
g63
NtRp4225
(dp4226
g66
(dp4227
sg75
g4221
sg68
(lp4228
g61
(g62
g63
NtRp4229
(dp4230
g66
(dp4231
g74
I1
ssg75
g4225
sg68
(lp4232
g3847
(S't\r\x00\x00\x00Documentation'
tRp4233
asbasbasbag61
(g77
g63
NtRp4234
(dp4235
g66
(dp4236
sg75
g4217
sg68
(lp4237
g61
(g82
g63
NtRp4238
(dp4239
g66
(dp4240
sg75
g4234
sg68
(lp4241
g61
(g62
g63
NtRp4242
(dp4243
g66
(dp4244
g74
I1
ssg75
g4238
sg68
(lp4245
I00
asbasbasbag61
(g77
g63
NtRp4246
(dp4247
g66
(dp4248
sg75
g4217
sg68
(lp4249
g61
(g82
g63
NtRp4250
(dp4251
g66
(dp4252
sg75
g4246
sg68
(lp4253
g61
(g62
g63
NtRp4254
(dp4255
g66
(dp4256
g74
I1
ssg75
g4250
sg68
(lp4257
S'http://www.web2py.com/book'
p4258
asbasbasbag61
(g77
g63
NtRp4259
(dp4260
g66
(dp4261
sg75
g4217
sg68
(lp4262
g61
(g82
g63
NtRp4263
(dp4264
g66
(dp4265
sg75
g4259
sg68
(lp4266
g61
(g62
g63
NtRp4267
(dp4268
g66
(dp4269
g74
I1
ssg75
g4263
sg68
(lp4270
(lp4271
(g3847
(S't\x07\x00\x00\x00Preface'
tRp4272
I00
S'http://www.web2py.com/book/default/chapter/00'
p4273
tp4274
a(g3847
(S't\x0c\x00\x00\x00Introduction'
tRp4275
I00
S'http://www.web2py.com/book/default/chapter/01'
p4276
tp4277
a(g3847
(S't\x06\x00\x00\x00Python'
tRp4278
I00
S'http://www.web2py.com/book/default/chapter/02'
p4279
tp4280
a(g3847
(S't\x08\x00\x00\x00Overview'
tRp4281
I00
S'http://www.web2py.com/book/default/chapter/03'
p4282
tp4283
a(g3847
(S's\x08\x00\x00\x00The Core'
tRp4284
I00
S'http://www.web2py.com/book/default/chapter/04'
p4285
tp4286
a(g3847
(S's\t\x00\x00\x00The Views'
tRp4287
I00
S'http://www.web2py.com/book/default/chapter/05'
p4288
tp4289
a(g3847
(S't\x08\x00\x00\x00Database'
tRp4290
I00
S'http://www.web2py.com/book/default/chapter/06'
p4291
tp4292
a(g3847
(S's\x14\x00\x00\x00Forms and Validators'
tRp4293
I00
S'http://www.web2py.com/book/default/chapter/07'
p4294
tp4295
a(g3847
(S's\r\x00\x00\x00Email and SMS'
tRp4296
I00
S'http://www.web2py.com/book/default/chapter/08'
p4297
tp4298
a(g3847
(S's\x0e\x00\x00\x00Access Control'
tRp4299
I00
S'http://www.web2py.com/book/default/chapter/09'
p4300
tp4301
a(g3847
(S't\x08\x00\x00\x00Services'
tRp4302
I00
S'http://www.web2py.com/book/default/chapter/10'
p4303
tp4304
a(g3847
(S's\x0c\x00\x00\x00Ajax Recipes'
tRp4305
I00
S'http://www.web2py.com/book/default/chapter/11'
p4306
tp4307
a(g3847
(S's\x16\x00\x00\x00Components and Plugins'
tRp4308
I00
S'http://www.web2py.com/book/default/chapter/12'
p4309
tp4310
a(g3847
(S's\x12\x00\x00\x00Deployment Recipes'
tRp4311
I00
S'http://www.web2py.com/book/default/chapter/13'
p4312
tp4313
a(g3847
(S's\r\x00\x00\x00Other Recipes'
tRp4314
I00
S'http://www.web2py.com/book/default/chapter/14'
p4315
tp4316
a(g3847
(S's\r\x00\x00\x00Buy this book'
tRp4317
I00
S'http://stores.lulu.com/web2py'
p4318
tp4319
aasbasbasbasbasbasbasbag61
(g77
g63
NtRp4320
(dp4321
g66
(dp4322
sg75
g3962
sg68
(lp4323
g61
(g82
g63
NtRp4324
(dp4325
g66
(dp4326
sg75
g4320
sg68
(lp4327
g61
(g62
g63
NtRp4328
(dp4329
g66
(dp4330
g74
I2
ssg75
g4324
sg68
(lp4331
g61
(g70
g63
NtRp4332
(dp4333
g66
(dp4334
g74
I1
ssg75
Nsg68
(lp4335
g61
(g77
g63
NtRp4336
(dp4337
g66
(dp4338
sg75
g4332
sg68
(lp4339
g61
(g82
g63
NtRp4340
(dp4341
g66
(dp4342
sg75
g4336
sg68
(lp4343
g61
(g62
g63
NtRp4344
(dp4345
g66
(dp4346
g74
I1
ssg75
g4340
sg68
(lp4347
g3847
(S't\t\x00\x00\x00Community'
tRp4348
asbasbasbag61
(g77
g63
NtRp4349
(dp4350
g66
(dp4351
sg75
g4332
sg68
(lp4352
g61
(g82
g63
NtRp4353
(dp4354
g66
(dp4355
sg75
g4349
sg68
(lp4356
g61
(g62
g63
NtRp4357
(dp4358
g66
(dp4359
g74
I1
ssg75
g4353
sg68
(lp4360
I00
asbasbasbag61
(g77
g63
NtRp4361
(dp4362
g66
(dp4363
sg75
g4332
sg68
(lp4364
g61
(g82
g63
NtRp4365
(dp4366
g66
(dp4367
sg75
g4361
sg68
(lp4368
g61
(g62
g63
NtRp4369
(dp4370
g66
(dp4371
g74
I1
ssg75
g4365
sg68
(lp4372
Nasbasbasbag61
(g77
g63
NtRp4373
(dp4374
g66
(dp4375
sg75
g4332
sg68
(lp4376
g61
(g82
g63
NtRp4377
(dp4378
g66
(dp4379
sg75
g4373
sg68
(lp4380
g61
(g62
g63
NtRp4381
(dp4382
g66
(dp4383
g74
I1
ssg75
g4377
sg68
(lp4384
(lp4385
(g3847
(S't\x06\x00\x00\x00Groups'
tRp4386
I00
S'http://www.web2py.com/examples/default/usergroups'
p4387
tp4388
a(g3847
(S't\x07\x00\x00\x00Twitter'
tRp4389
I00
S'http://twitter.com/web2py'
p4390
tp4391
a(g3847
(S's\t\x00\x00\x00Live Chat'
tRp4392
I00
S'http://webchat.freenode.net/?channels=web2py'
p4393
tp4394
aasbasbasbasbasbasbasbag61
(g77
g63
NtRp4395
(dp4396
g66
(dp4397
sg75
g3962
sg68
(lp4398
g61
(g82
g63
NtRp4399
(dp4400
g66
(dp4401
sg75
g4395
sg68
(lp4402
g61
(g62
g63
NtRp4403
(dp4404
g66
(dp4405
g74
I2
ssg75
g4399
sg68
(lp4406
g61
(g70
g63
NtRp4407
(dp4408
g66
(dp4409
g74
I1
ssg75
Nsg68
(lp4410
g61
(g77
g63
NtRp4411
(dp4412
g66
(dp4413
sg75
g4407
sg68
(lp4414
g61
(g82
g63
NtRp4415
(dp4416
g66
(dp4417
sg75
g4411
sg68
(lp4418
g61
(g62
g63
NtRp4419
(dp4420
g66
(dp4421
g74
I1
ssg75
g4415
sg68
(lp4422
g3847
(S't\x07\x00\x00\x00Plugins'
tRp4423
asbasbasbag61
(g77
g63
NtRp4424
(dp4425
g66
(dp4426
sg75
g4407
sg68
(lp4427
g61
(g82
g63
NtRp4428
(dp4429
g66
(dp4430
sg75
g4424
sg68
(lp4431
g61
(g62
g63
NtRp4432
(dp4433
g66
(dp4434
g74
I1
ssg75
g4428
sg68
(lp4435
I00
asbasbasbag61
(g77
g63
NtRp4436
(dp4437
g66
(dp4438
sg75
g4407
sg68
(lp4439
g61
(g82
g63
NtRp4440
(dp4441
g66
(dp4442
sg75
g4436
sg68
(lp4443
g61
(g62
g63
NtRp4444
(dp4445
g66
(dp4446
g74
I1
ssg75
g4440
sg68
(lp4447
Nasbasbasbag61
(g77
g63
NtRp4448
(dp4449
g66
(dp4450
sg75
g4407
sg68
(lp4451
g61
(g82
g63
NtRp4452
(dp4453
g66
(dp4454
sg75
g4448
sg68
(lp4455
g61
(g62
g63
NtRp4456
(dp4457
g66
(dp4458
g74
I1
ssg75
g4452
sg68
(lp4459
(lp4460
(S'plugin_wiki'
p4461
I00
S'http://web2py.com/examples/default/download'
p4462
tp4463
a(g3847
(S's\r\x00\x00\x00Other Plugins'
tRp4464
I00
g4194
tp4465
a(g3847
(S's\x0e\x00\x00\x00Layout Plugins'
tRp4466
I00
g4197
tp4467
aasbasbasbasbasbasbasbasbasbasbasbasbasbasbasbasbasbasbasbag61
(g77
g63
NtRp4468
(dp4469
g66
(dp4470
sg75
g3389
sg68
(lp4471
g61
(g82
g63
NtRp4472
(dp4473
g66
(dp4474
g86
g87
ssg75
g4468
sg68
(lp4475
S'meta'
p4476
asbag61
(g82
g63
NtRp4477
(dp4478
g66
(dp4479
g93
g94
ssg75
g4468
sg68
(lp4480
S':'
asbag61
(g82
g63
NtRp4481
(dp4482
g66
(dp4483
sg75
g4468
sg68
(lp4484
g61
(g62
g63
NtRp4485
(dp4486
g66
(dp4487
g74
I5
ssg75
g4481
sg68
(lp4488
g61
(g70
g63
NtRp4489
(dp4490
g66
(dp4491
g74
I4
ssg75
Nsg68
(lp4492
g61
(g77
g63
NtRp4493
(dp4494
g66
(dp4495
sg75
g4489
sg68
(lp4496
g61
(g82
g63
NtRp4497
(dp4498
g66
(dp4499
g86
g87
ssg75
g4493
sg68
(lp4500
S'author'
p4501
asbag61
(g82
g63
NtRp4502
(dp4503
g66
(dp4504
g93
g94
ssg75
g4493
sg68
(lp4505
S':'
asbag61
(g82
g63
NtRp4506
(dp4507
g66
(dp4508
sg75
g4493
sg68
(lp4509
g61
(g62
g63
NtRp4510
(dp4511
g66
(dp4512
g74
I4
ssg75
g4506
sg68
(lp4513
S'Your Name <you@example.com>'
p4514
asbasbasbag61
(g77
g63
NtRp4515
(dp4516
g66
(dp4517
sg75
g4489
sg68
(lp4518
g61
(g82
g63
NtRp4519
(dp4520
g66
(dp4521
g86
g87
ssg75
g4515
sg68
(lp4522
S'description'
p4523
asbag61
(g82
g63
NtRp4524
(dp4525
g66
(dp4526
g93
g94
ssg75
g4515
sg68
(lp4527
S':'
asbag61
(g82
g63
NtRp4528
(dp4529
g66
(dp4530
sg75
g4515
sg68
(lp4531
g61
(g62
g63
NtRp4532
(dp4533
g66
(dp4534
g74
I4
ssg75
g4528
sg68
(lp4535
S'a cool new app'
p4536
asbasbasbag61
(g77
g63
NtRp4537
(dp4538
g66
(dp4539
sg75
g4489
sg68
(lp4540
g61
(g82
g63
NtRp4541
(dp4542
g66
(dp4543
g86
g87
ssg75
g4537
sg68
(lp4544
S'generator'
p4545
asbag61
(g82
g63
NtRp4546
(dp4547
g66
(dp4548
g93
g94
ssg75
g4537
sg68
(lp4549
S':'
asbag61
(g82
g63
NtRp4550
(dp4551
g66
(dp4552
sg75
g4537
sg68
(lp4553
g61
(g62
g63
NtRp4554
(dp4555
g66
(dp4556
g74
I4
ssg75
g4550
sg68
(lp4557
S'Web2py Web Framework'
p4558
asbasbasbag61
(g77
g63
NtRp4559
(dp4560
g66
(dp4561
sg75
g4489
sg68
(lp4562
g61
(g82
g63
NtRp4563
(dp4564
g66
(dp4565
g86
g87
ssg75
g4559
sg68
(lp4566
S'keywords'
p4567
asbag61
(g82
g63
NtRp4568
(dp4569
g66
(dp4570
g93
g94
ssg75
g4559
sg68
(lp4571
S':'
asbag61
(g82
g63
NtRp4572
(dp4573
g66
(dp4574
sg75
g4559
sg68
(lp4575
g61
(g62
g63
NtRp4576
(dp4577
g66
(dp4578
g74
I4
ssg75
g4572
sg68
(lp4579
S'web2py, python, framework'
p4580
asbasbasbasbasbasbasbag61
(g77
g63
NtRp4581
(dp4582
g66
(dp4583
sg75
g3389
sg68
(lp4584
g61
(g82
g63
NtRp4585
(dp4586
g66
(dp4587
g86
g87
ssg75
g4581
sg68
(lp4588
S'models_to_run'
p4589
asbag61
(g82
g63
NtRp4590
(dp4591
g66
(dp4592
g93
g94
ssg75
g4581
sg68
(lp4593
S':'
asbag61
(g82
g63
NtRp4594
(dp4595
g66
(dp4596
sg75
g4581
sg68
(lp4597
g61
(g62
g63
NtRp4598
(dp4599
g66
(dp4600
g74
I5
ssg75
g4594
sg68
(lp4601
g61
(g70
g63
NtRp4602
(dp4603
g66
(dp4604
g74
I4
ssg75
Nsg68
(lp4605
g61
(g77
g63
NtRp4606
(dp4607
g66
(dp4608
sg75
g4602
sg68
(lp4609
g61
(g82
g63
NtRp4610
(dp4611
g66
(dp4612
sg75
g4606
sg68
(lp4613
g61
(g62
g63
NtRp4614
(dp4615
g66
(dp4616
g74
I4
ssg75
g4610
sg68
(lp4617
S'^\\w+\\.py$'
p4618
asbasbasbag61
(g77
g63
NtRp4619
(dp4620
g66
(dp4621
sg75
g4602
sg68
(lp4622
g61
(g82
g63
NtRp4623
(dp4624
g66
(dp4625
sg75
g4619
sg68
(lp4626
g61
(g62
g63
NtRp4627
(dp4628
g66
(dp4629
g74
I4
ssg75
g4623
sg68
(lp4630
S'^default/\\w+\\.py$'
p4631
asbasbasbag61
(g77
g63
NtRp4632
(dp4633
g66
(dp4634
sg75
g4602
sg68
(lp4635
g61
(g82
g63
NtRp4636
(dp4637
g66
(dp4638
sg75
g4632
sg68
(lp4639
g61
(g62
g63
NtRp4640
(dp4641
g66
(dp4642
g74
I4
ssg75
g4636
sg68
(lp4643
S'^default/show_video_comments/\\w+\\.py$'
p4644
asbasbasbasbasbasbasbag61
(g77
g63
NtRp4645
(dp4646
g66
(dp4647
sg75
g3389
sg68
(lp4648
g61
(g82
g63
NtRp4649
(dp4650
g66
(dp4651
g86
g87
ssg75
g4645
sg68
(lp4652
S'postprocessing'
p4653
asbag61
(g82
g63
NtRp4654
(dp4655
g66
(dp4656
g93
g94
ssg75
g4645
sg68
(lp4657
S':'
asbag61
(g82
g63
NtRp4658
(dp4659
g66
(dp4660
sg75
g4645
sg68
(lp4661
g61
(g62
g63
NtRp4662
(dp4663
g66
(dp4664
g74
I5
ssg75
g4658
sg68
(lp4665
g61
(g70
g63
NtRp4666
(dp4667
g66
(dp4668
g74
I4
ssg75
Nsg68
(lp4669
sbasbasbasbag61
(g77
g63
NtRp4670
(dp4671
g66
(dp4672
sg75
g3389
sg68
(lp4673
g61
(g82
g63
NtRp4674
(dp4675
g66
(dp4676
g86
g87
ssg75
g4670
sg68
(lp4677
S'session_cookie_expires'
p4678
asbag61
(g82
g63
NtRp4679
(dp4680
g66
(dp4681
g93
g94
ssg75
g4670
sg68
(lp4682
S':'
asbag61
(g82
g63
NtRp4683
(dp4684
g66
(dp4685
sg75
g4670
sg68
(lp4686
g61
(g62
g63
NtRp4687
(dp4688
g66
(dp4689
g74
I5
ssg75
g4683
sg68
(lp4690
S'None'
p4691
asbasbasbag61
(g77
g63
NtRp4692
(dp4693
g66
(dp4694
sg75
g3389
sg68
(lp4695
g61
(g82
g63
NtRp4696
(dp4697
g66
(dp4698
g86
g87
ssg75
g4692
sg68
(lp4699
S'session_data_name'
p4700
asbag61
(g82
g63
NtRp4701
(dp4702
g66
(dp4703
g93
g94
ssg75
g4692
sg68
(lp4704
S':'
asbag61
(g82
g63
NtRp4705
(dp4706
g66
(dp4707
sg75
g4692
sg68
(lp4708
g61
(g62
g63
NtRp4709
(dp4710
g66
(dp4711
g74
I5
ssg75
g4705
sg68
(lp4712
S'session_data_final_impulse'
p4713
asbasbasbag61
(g77
g63
NtRp4714
(dp4715
g66
(dp4716
sg75
g3389
sg68
(lp4717
g61
(g82
g63
NtRp4718
(dp4719
g66
(dp4720
g86
g87
ssg75
g4714
sg68
(lp4721
S'session_file'
p4722
asbag61
(g82
g63
NtRp4723
(dp4724
g66
(dp4725
g93
g94
ssg75
g4714
sg68
(lp4726
S':'
asbag61
(g82
g63
NtRp4727
(dp4728
g66
(dp4729
sg75
g4714
sg68
(lp4730
g61
(g62
g63
NtRp4731
(dp4732
g66
(dp4733
g74
I5
ssg75
g4727
sg68
(lp4734
S"<open file '/Users/abaric/Downloads/web2py/web2py.app/Contents/Resources/applications/Final_Impulse/sessions/127.0.0.1-fe54df76-3eba-4359-ae6d-98727f24814f', mode 'rb+' at 0x92ea530>"
p4735
asbasbasbag61
(g77
g63
NtRp4736
(dp4737
g66
(dp4738
sg75
g3389
sg68
(lp4739
g61
(g82
g63
NtRp4740
(dp4741
g66
(dp4742
g86
g87
ssg75
g4736
sg68
(lp4743
S'session_filename'
p4744
asbag61
(g82
g63
NtRp4745
(dp4746
g66
(dp4747
g93
g94
ssg75
g4736
sg68
(lp4748
S':'
asbag61
(g82
g63
NtRp4749
(dp4750
g66
(dp4751
sg75
g4736
sg68
(lp4752
g61
(g62
g63
NtRp4753
(dp4754
g66
(dp4755
g74
I5
ssg75
g4749
sg68
(lp4756
S'/Users/abaric/Downloads/web2py/web2py.app/Contents/Resources/applications/Final_Impulse/sessions/127.0.0.1-fe54df76-3eba-4359-ae6d-98727f24814f'
p4757
asbasbasbag61
(g77
g63
NtRp4758
(dp4759
g66
(dp4760
sg75
g3389
sg68
(lp4761
g61
(g82
g63
NtRp4762
(dp4763
g66
(dp4764
g86
g87
ssg75
g4758
sg68
(lp4765
S'session_id'
p4766
asbag61
(g82
g63
NtRp4767
(dp4768
g66
(dp4769
g93
g94
ssg75
g4758
sg68
(lp4770
S':'
asbag61
(g82
g63
NtRp4771
(dp4772
g66
(dp4773
sg75
g4758
sg68
(lp4774
g61
(g62
g63
NtRp4775
(dp4776
g66
(dp4777
g74
I5
ssg75
g4771
sg68
(lp4778
g458
asbasbasbag61
(g77
g63
NtRp4779
(dp4780
g66
(dp4781
sg75
g3389
sg68
(lp4782
g61
(g82
g63
NtRp4783
(dp4784
g66
(dp4785
g86
g87
ssg75
g4779
sg68
(lp4786
S'session_id_name'
p4787
asbag61
(g82
g63
NtRp4788
(dp4789
g66
(dp4790
g93
g94
ssg75
g4779
sg68
(lp4791
S':'
asbag61
(g82
g63
NtRp4792
(dp4793
g66
(dp4794
sg75
g4779
sg68
(lp4795
g61
(g62
g63
NtRp4796
(dp4797
g66
(dp4798
g74
I5
ssg75
g4792
sg68
(lp4799
g3446
asbasbasbag61
(g77
g63
NtRp4800
(dp4801
g66
(dp4802
sg75
g3389
sg68
(lp4803
g61
(g82
g63
NtRp4804
(dp4805
g66
(dp4806
g86
g87
ssg75
g4800
sg68
(lp4807
S'session_locked'
p4808
asbag61
(g82
g63
NtRp4809
(dp4810
g66
(dp4811
g93
g94
ssg75
g4800
sg68
(lp4812
S':'
asbag61
(g82
g63
NtRp4813
(dp4814
g66
(dp4815
sg75
g4800
sg68
(lp4816
g61
(g62
g63
NtRp4817
(dp4818
g66
(dp4819
g74
I5
ssg75
g4813
sg68
(lp4820
g1877
asbasbasbag61
(g77
g63
NtRp4821
(dp4822
g66
(dp4823
sg75
g3389
sg68
(lp4824
g61
(g82
g63
NtRp4825
(dp4826
g66
(dp4827
g86
g87
ssg75
g4821
sg68
(lp4828
S'session_new'
p4829
asbag61
(g82
g63
NtRp4830
(dp4831
g66
(dp4832
g93
g94
ssg75
g4821
sg68
(lp4833
S':'
asbag61
(g82
g63
NtRp4834
(dp4835
g66
(dp4836
sg75
g4821
sg68
(lp4837
g61
(g62
g63
NtRp4838
(dp4839
g66
(dp4840
g74
I5
ssg75
g4834
sg68
(lp4841
g104
asbasbasbag61
(g77
g63
NtRp4842
(dp4843
g66
(dp4844
sg75
g3389
sg68
(lp4845
g61
(g82
g63
NtRp4846
(dp4847
g66
(dp4848
g86
g87
ssg75
g4842
sg68
(lp4849
S'session_storage_type'
p4850
asbag61
(g82
g63
NtRp4851
(dp4852
g66
(dp4853
g93
g94
ssg75
g4842
sg68
(lp4854
S':'
asbag61
(g82
g63
NtRp4855
(dp4856
g66
(dp4857
sg75
g4842
sg68
(lp4858
g61
(g62
g63
NtRp4859
(dp4860
g66
(dp4861
g74
I5
ssg75
g4855
sg68
(lp4862
g3308
asbasbasbag61
(g77
g63
NtRp4863
(dp4864
g66
(dp4865
sg75
g3389
sg68
(lp4866
g61
(g82
g63
NtRp4867
(dp4868
g66
(dp4869
g86
g87
ssg75
g4863
sg68
(lp4870
S'status'
p4871
asbag61
(g82
g63
NtRp4872
(dp4873
g66
(dp4874
g93
g94
ssg75
g4863
sg68
(lp4875
S':'
asbag61
(g82
g63
NtRp4876
(dp4877
g66
(dp4878
sg75
g4863
sg68
(lp4879
g61
(g62
g63
NtRp4880
(dp4881
g66
(dp4882
g74
I5
ssg75
g4876
sg68
(lp4883
S'200'
p4884
asbasbasbag61
(g77
g63
NtRp4885
(dp4886
g66
(dp4887
sg75
g3389
sg68
(lp4888
g61
(g82
g63
NtRp4889
(dp4890
g66
(dp4891
g86
g87
ssg75
g4885
sg68
(lp4892
S'subtitle'
p4893
asbag61
(g82
g63
NtRp4894
(dp4895
g66
(dp4896
g93
g94
ssg75
g4885
sg68
(lp4897
S':'
asbag61
(g82
g63
NtRp4898
(dp4899
g66
(dp4900
sg75
g4885
sg68
(lp4901
g61
(g62
g63
NtRp4902
(dp4903
g66
(dp4904
g74
I5
ssg75
g4898
sg68
(lp4905
g3847
(S's\r\x00\x00\x00customize me!'
tRp4906
asbasbasbag61
(g77
g63
NtRp4907
(dp4908
g66
(dp4909
sg75
g3389
sg68
(lp4910
g61
(g82
g63
NtRp4911
(dp4912
g66
(dp4913
g86
g87
ssg75
g4907
sg68
(lp4914
S'title'
p4915
asbag61
(g82
g63
NtRp4916
(dp4917
g66
(dp4918
g93
g94
ssg75
g4907
sg68
(lp4919
S':'
asbag61
(g82
g63
NtRp4920
(dp4921
g66
(dp4922
sg75
g4907
sg68
(lp4923
g61
(g62
g63
NtRp4924
(dp4925
g66
(dp4926
g74
I5
ssg75
g4920
sg68
(lp4927
S'Final Impulse'
p4928
asbasbasbag61
(g77
g63
NtRp4929
(dp4930
g66
(dp4931
sg75
g3389
sg68
(lp4932
g61
(g82
g63
NtRp4933
(dp4934
g66
(dp4935
g86
g87
ssg75
g4929
sg68
(lp4936
S'view'
p4937
asbag61
(g82
g63
NtRp4938
(dp4939
g66
(dp4940
g93
g94
ssg75
g4929
sg68
(lp4941
S':'
asbag61
(g82
g63
NtRp4942
(dp4943
g66
(dp4944
sg75
g4929
sg68
(lp4945
g61
(g62
g63
NtRp4946
(dp4947
g66
(dp4948
g74
I5
ssg75
g4942
sg68
(lp4949
S'default/show_video_comments.html'
p4950
asbasbasbasbasbsS'locals'
p4951
(dp4952
g4
S"'/Users/abaric/Downloads/web2py/web2py.app/Conten...al_Impulse/views/default/show_video_comments.html'"
p4953
sg6
S'\'response.write(\\\'<!DOCTYPE html>\\\\n<!-- paulirish...."></script>\\\\n</body>\\\\n</html>\\\\n\\\\n\\\', escape=False)\''
p4954
sssS'traceback'
p4955
S'Traceback (most recent call last):\n  File "gluon/restricted.py", line 211, in restricted\n  File "gluon/restricted.py", line 194, in compile2\n  File "/Users/abaric/Downloads/web2py/web2py.app/Contents/Resources/applications/Final_Impulse/views/default/show_video_comments.html", line 93\n    else\n       ^\nSyntaxError: invalid syntax\n'
p4956
s.