(dp1
S'output'
p2
S"<type 'exceptions.UnboundLocalError'> local variable 'image' referenced before assignment"
p3
sS'layer'
p4
S'/Users/abaric/Downloads/web2py/web2py.app/Contents/Resources/applications/Final_Impulse/controllers/default.py'
p5
sS'code'
p6
S'from gluon.tools import datetime\n\ndef user():\n    return dict(form=auth())\n    \n#def load_roles():\n #  session.user_name=auth.user.first_name\n  # session.roles=[]\n   #     \n    #    if auth.has_membership(\'teacher\'):\n     #       session.user_teacher_id=db(db.teacher.email==auth.user.email).select().first().id\n      #      t=(\'teacher\',\'load_courses\',session.user_teacher_id)\n       #     session.roles.append(t)\n        #    \n        #if auth.has_membership(\'advisor\'):\n          #  session.user_advisor_id=db(db.advisor.email==auth.user.email).select().first().id\n           # a=(\'advisor\',\'load_advisees\',session.user_advisor_id)\n            #session.roles.append(a)\n            #\n        #if auth.has_membership(\'division_level\'):\n         #   session.user_division_level_id=db(db.division_level.email==auth.user.email).select().first().id\n          #  divl=(\'division level\',\'load_departments\',session.user_division_level_id)\n           # session.roles.append(divl)\n                                      \ndef index():\n    #images = db().select(db.image.ALL, orderby=db.image.title)\n    #writings = db().select(db.writing.ALL, orderby=db.writing.title)\n    #videos = db().select(db.video.ALL, orderby=db.video.title)\n    return locals()\n\ndef download():\n    return response.download(request, db)\n\ndef show_image_comments():\n    images=db(db.writing).select()\n    d={}\n    for image in images:\n        comments=db((db.image_comment.image_id==image.id) &\\\n                   (db.auth_user.id==db.image_comment.author_id)).select() \n        tuple_list=[]       \n        for comment in comments:\n            author=(\'%s %s\')%(comment.auth_user.first_name,comment.auth_user.last_name)\n            body=(\'%s\')%(comment.image_comment.body)\n            t=(author,body)\n            tuple_list.append(t)\n        d[image.id]=tuple_list\n  \n    form = SQLFORM(db.writing_comment)\n    if form.process().accepted:\n        response.flash = \'your comment is posted\'\n    images = db(db.image_comment.image_id==image.id).select()\n    return locals()\n    \ndef show_writing_comments():\n    writings = db().select(db.writing.ALL, orderby=db.writing.id)\n    d={}\n    for writing in writings:\n        comments=db((db.writing_comment.writing_id==writing.id) &\\\n                   (db.auth_user.id==db.writing_comment.author_id)).select() \n        tuple_list=[]       \n        for comment in comments:\n            author=(\'%s %s\')%(comment.auth_user.first_name,comment.auth_user.last_name)\n            body=(\'%s\')%(comment.writing_comment.body)\n            t=(author,body)\n            tuple_list.append(t)\n        d[writing.id]=tuple_list\n  \n    form = SQLFORM(db.writing_comment)\n    if form.process().accepted:\n        response.flash = \'your comment is posted\'\n    comments = db(db.writing_comment.writing_id==writing.id).select()\n    return locals()\n\ndef show_video_comments():\n    video = db.video(request.args(0))\n    videos=db().select(db.video.ALL, orderby=db.video.id)\n    video_comment=db.video_comment(request.args(0))\n    d={}\n    for video in videos:\n        comments=db((db.video_comment.video_id==video.id) &\\\n                   (db.auth_user.id==db.video_comment.author_id)).select() \n        tuple_list=[]       \n        for comment in comments:\n            author=(\'%s %s\')%(comment.auth_user.first_name,comment.auth_user.last_name)\n            body=(\'%s\')%(comment.video_comment.body)\n            t=(author,body)\n            tuple_list.append(t)\n        d[video.id]=tuple_list\n    form = SQLFORM(db.video_comment)\n    if form.process().accepted:\n        response.flash = \'your comment is posted\'\n    return locals()   \n\ndef insert_vid_comment():\n    \n    video_id=request.args(0)\n    video_comment=db.video_comment(video_comment_id)\n    ##sequel_id=request.post_vars.seq\n    \n    db.comment.insert(video_id=video_id,video_comment_id=video_comment_id)\n    \n    db.video_comment.insert(comment_text="%s says %s"%(session.user_name,\n                                                       video_comment.body),\n                                                       date_of_entry=datetime.datetime.now())\n    \n    db.commit()\n    redirect(URL(\'index\',args=video.id))\n    return locals()\n\nresponse._vars=response._caller(show_image_comments)\n'
p7
sS'snapshot'
p8
(dp9
S'exception'
p10
(dp11
S'__hash__'
p12
S"<method-wrapper '__hash__' of exceptions.UnboundLocalError object at 0x95b1cb0>"
p13
sS'__setattr__'
p14
S"<method-wrapper '__setattr__' of exceptions.UnboundLocalError object at 0x95b1cb0>"
p15
sS'__reduce_ex__'
p16
S'<built-in method __reduce_ex__ of exceptions.UnboundLocalError object at 0x95b1cb0>'
p17
sS'__getslice__'
p18
S"<method-wrapper '__getslice__' of exceptions.UnboundLocalError object at 0x95b1cb0>"
p19
sS'__getitem__'
p20
S"<method-wrapper '__getitem__' of exceptions.UnboundLocalError object at 0x95b1cb0>"
p21
sS'__setstate__'
p22
S'<built-in method __setstate__ of exceptions.UnboundLocalError object at 0x95b1cb0>'
p23
sS'__reduce__'
p24
S'<built-in method __reduce__ of exceptions.UnboundLocalError object at 0x95b1cb0>'
p25
sS'__str__'
p26
S"<method-wrapper '__str__' of exceptions.UnboundLocalError object at 0x95b1cb0>"
p27
sS'args'
p28
S'("local variable \'image\' referenced before assignment",)'
p29
sS'__getattribute__'
p30
S"<method-wrapper '__getattribute__' of exceptions.UnboundLocalError object at 0x95b1cb0>"
p31
sS'__class__'
p32
S"<type 'exceptions.UnboundLocalError'>"
p33
sS'__delattr__'
p34
S"<method-wrapper '__delattr__' of exceptions.UnboundLocalError object at 0x95b1cb0>"
p35
sS'__repr__'
p36
S"<method-wrapper '__repr__' of exceptions.UnboundLocalError object at 0x95b1cb0>"
p37
sS'__dict__'
p38
S'{}'
p39
sS'__doc__'
p40
S"'Local name referenced but not bound to a value.'"
p41
sS'__init__'
p42
S"<method-wrapper '__init__' of exceptions.UnboundLocalError object at 0x95b1cb0>"
p43
sS'__new__'
p44
S'<built-in method __new__ of type object at 0x5f9580>'
p45
ssS'evalue'
p46
S"local variable 'image' referenced before assignment"
p47
sS'request'
p48
ccopy_reg
_reconstructor
p49
(cgluon.html
BEAUTIFY
p50
c__builtin__
object
p51
NtRp52
(dp53
S'attributes'
p54
(dp55
sS'components'
p56
(lp57
g49
(cgluon.html
TABLE
p58
g51
NtRp59
(dp60
g54
(dp61
S'level'
p62
I5
ssS'parent'
p63
Nsg56
(lp64
g49
(cgluon.html
TR
p65
g51
NtRp66
(dp67
g54
(dp68
sg63
g59
sg56
(lp69
g49
(cgluon.html
TD
p70
g51
NtRp71
(dp72
g54
(dp73
S'_style'
p74
S'font-weight:bold;vertical-align:top'
p75
ssg63
g66
sg56
(lp76
S'ajax'
p77
asbag49
(g70
g51
NtRp78
(dp79
g54
(dp80
S'_valign'
p81
S'top'
p82
ssg63
g66
sg56
(lp83
S':'
asbag49
(g70
g51
NtRp84
(dp85
g54
(dp86
sg63
g66
sg56
(lp87
g49
(g50
g51
NtRp88
(dp89
g54
(dp90
g62
I5
ssg63
g84
sg56
(lp91
S'False'
p92
asbasbasbag49
(g65
g51
NtRp93
(dp94
g54
(dp95
sg63
g59
sg56
(lp96
g49
(g70
g51
NtRp97
(dp98
g54
(dp99
g74
g75
ssg63
g93
sg56
(lp100
S'application'
p101
asbag49
(g70
g51
NtRp102
(dp103
g54
(dp104
g81
g82
ssg63
g93
sg56
(lp105
S':'
asbag49
(g70
g51
NtRp106
(dp107
g54
(dp108
sg63
g93
sg56
(lp109
g49
(g50
g51
NtRp110
(dp111
g54
(dp112
g62
I5
ssg63
g106
sg56
(lp113
S'Final_Impulse'
p114
asbasbasbag49
(g65
g51
NtRp115
(dp116
g54
(dp117
sg63
g59
sg56
(lp118
g49
(g70
g51
NtRp119
(dp120
g54
(dp121
g74
g75
ssg63
g115
sg56
(lp122
g28
asbag49
(g70
g51
NtRp123
(dp124
g54
(dp125
g81
g82
ssg63
g115
sg56
(lp126
S':'
asbag49
(g70
g51
NtRp127
(dp128
g54
(dp129
sg63
g115
sg56
(lp130
g49
(g50
g51
NtRp131
(dp132
g54
(dp133
g62
I5
ssg63
g127
sg56
(lp134
g49
(g58
g51
NtRp135
(dp136
g54
(dp137
g62
I4
ssg63
Nsg56
(lp138
sbasbasbasbag49
(g65
g51
NtRp139
(dp140
g54
(dp141
sg63
g59
sg56
(lp142
g49
(g70
g51
NtRp143
(dp144
g54
(dp145
g74
g75
ssg63
g139
sg56
(lp146
S'body'
p147
asbag49
(g70
g51
NtRp148
(dp149
g54
(dp150
g81
g82
ssg63
g139
sg56
(lp151
S':'
asbag49
(g70
g51
NtRp152
(dp153
g54
(dp154
sg63
g139
sg56
(lp155
g49
(g50
g51
NtRp156
(dp157
g54
(dp158
g62
I5
ssg63
g152
sg56
(lp159
S'<cStringIO.StringO object at 0x98d6460>'
p160
asbasbasbag49
(g65
g51
NtRp161
(dp162
g54
(dp163
sg63
g59
sg56
(lp164
g49
(g70
g51
NtRp165
(dp166
g54
(dp167
g74
g75
ssg63
g161
sg56
(lp168
S'cid'
p169
asbag49
(g70
g51
NtRp170
(dp171
g54
(dp172
g81
g82
ssg63
g161
sg56
(lp173
S':'
asbag49
(g70
g51
NtRp174
(dp175
g54
(dp176
sg63
g161
sg56
(lp177
g49
(g50
g51
NtRp178
(dp179
g54
(dp180
g62
I5
ssg63
g174
sg56
(lp181
S'None'
p182
asbasbasbag49
(g65
g51
NtRp183
(dp184
g54
(dp185
sg63
g59
sg56
(lp186
g49
(g70
g51
NtRp187
(dp188
g54
(dp189
g74
g75
ssg63
g183
sg56
(lp190
S'client'
p191
asbag49
(g70
g51
NtRp192
(dp193
g54
(dp194
g81
g82
ssg63
g183
sg56
(lp195
S':'
asbag49
(g70
g51
NtRp196
(dp197
g54
(dp198
sg63
g183
sg56
(lp199
g49
(g50
g51
NtRp200
(dp201
g54
(dp202
g62
I5
ssg63
g196
sg56
(lp203
S'127.0.0.1'
p204
asbasbasbag49
(g65
g51
NtRp205
(dp206
g54
(dp207
sg63
g59
sg56
(lp208
g49
(g70
g51
NtRp209
(dp210
g54
(dp211
g74
g75
ssg63
g205
sg56
(lp212
S'controller'
p213
asbag49
(g70
g51
NtRp214
(dp215
g54
(dp216
g81
g82
ssg63
g205
sg56
(lp217
S':'
asbag49
(g70
g51
NtRp218
(dp219
g54
(dp220
sg63
g205
sg56
(lp221
g49
(g50
g51
NtRp222
(dp223
g54
(dp224
g62
I5
ssg63
g218
sg56
(lp225
S'default'
p226
asbasbasbag49
(g65
g51
NtRp227
(dp228
g54
(dp229
sg63
g59
sg56
(lp230
g49
(g70
g51
NtRp231
(dp232
g54
(dp233
g74
g75
ssg63
g227
sg56
(lp234
S'cookies'
p235
asbag49
(g70
g51
NtRp236
(dp237
g54
(dp238
g81
g82
ssg63
g227
sg56
(lp239
S':'
asbag49
(g70
g51
NtRp240
(dp241
g54
(dp242
sg63
g227
sg56
(lp243
g49
(g50
g51
NtRp244
(dp245
g54
(dp246
g62
I5
ssg63
g240
sg56
(lp247
g49
(g58
g51
NtRp248
(dp249
g54
(dp250
g62
I4
ssg63
Nsg56
(lp251
g49
(g65
g51
NtRp252
(dp253
g54
(dp254
sg63
g248
sg56
(lp255
g49
(g70
g51
NtRp256
(dp257
g54
(dp258
g74
g75
ssg63
g252
sg56
(lp259
S'session_id_admin'
p260
asbag49
(g70
g51
NtRp261
(dp262
g54
(dp263
g81
g82
ssg63
g252
sg56
(lp264
S':'
asbag49
(g70
g51
NtRp265
(dp266
g54
(dp267
sg63
g252
sg56
(lp268
g49
(g50
g51
NtRp269
(dp270
g54
(dp271
g62
I4
ssg63
g265
sg56
(lp272
S'127.0.0.1-67e1670c-9cb7-4c81-83d1-b44ab2b28c6e'
p273
ag49
(g58
g51
NtRp274
(dp275
g54
(dp276
g62
I3
ssg63
Nsg56
(lp277
g49
(g65
g51
NtRp278
(dp279
g54
(dp280
sg63
g274
sg56
(lp281
g49
(g70
g51
NtRp282
(dp283
g54
(dp284
g74
g75
ssg63
g278
sg56
(lp285
S'comment'
p286
asbag49
(g70
g51
NtRp287
(dp288
g54
(dp289
g81
g82
ssg63
g278
sg56
(lp290
S':'
asbag49
(g70
g51
NtRp291
(dp292
g54
(dp293
sg63
g278
sg56
(lp294
g49
(g50
g51
NtRp295
(dp296
g54
(dp297
g62
I3
ssg63
g291
sg56
(lp298
S''
asbasbasbag49
(g65
g51
NtRp299
(dp300
g54
(dp301
sg63
g274
sg56
(lp302
g49
(g70
g51
NtRp303
(dp304
g54
(dp305
g74
g75
ssg63
g299
sg56
(lp306
S'domain'
p307
asbag49
(g70
g51
NtRp308
(dp309
g54
(dp310
g81
g82
ssg63
g299
sg56
(lp311
S':'
asbag49
(g70
g51
NtRp312
(dp313
g54
(dp314
sg63
g299
sg56
(lp315
g49
(g50
g51
NtRp316
(dp317
g54
(dp318
g62
I3
ssg63
g312
sg56
(lp319
S''
asbasbasbag49
(g65
g51
NtRp320
(dp321
g54
(dp322
sg63
g274
sg56
(lp323
g49
(g70
g51
NtRp324
(dp325
g54
(dp326
g74
g75
ssg63
g320
sg56
(lp327
S'expires'
p328
asbag49
(g70
g51
NtRp329
(dp330
g54
(dp331
g81
g82
ssg63
g320
sg56
(lp332
S':'
asbag49
(g70
g51
NtRp333
(dp334
g54
(dp335
sg63
g320
sg56
(lp336
g49
(g50
g51
NtRp337
(dp338
g54
(dp339
g62
I3
ssg63
g333
sg56
(lp340
S''
asbasbasbag49
(g65
g51
NtRp341
(dp342
g54
(dp343
sg63
g274
sg56
(lp344
g49
(g70
g51
NtRp345
(dp346
g54
(dp347
g74
g75
ssg63
g341
sg56
(lp348
S'max-age'
p349
asbag49
(g70
g51
NtRp350
(dp351
g54
(dp352
g81
g82
ssg63
g341
sg56
(lp353
S':'
asbag49
(g70
g51
NtRp354
(dp355
g54
(dp356
sg63
g341
sg56
(lp357
g49
(g50
g51
NtRp358
(dp359
g54
(dp360
g62
I3
ssg63
g354
sg56
(lp361
S''
asbasbasbag49
(g65
g51
NtRp362
(dp363
g54
(dp364
sg63
g274
sg56
(lp365
g49
(g70
g51
NtRp366
(dp367
g54
(dp368
g74
g75
ssg63
g362
sg56
(lp369
S'path'
p370
asbag49
(g70
g51
NtRp371
(dp372
g54
(dp373
g81
g82
ssg63
g362
sg56
(lp374
S':'
asbag49
(g70
g51
NtRp375
(dp376
g54
(dp377
sg63
g362
sg56
(lp378
g49
(g50
g51
NtRp379
(dp380
g54
(dp381
g62
I3
ssg63
g375
sg56
(lp382
S''
asbasbasbag49
(g65
g51
NtRp383
(dp384
g54
(dp385
sg63
g274
sg56
(lp386
g49
(g70
g51
NtRp387
(dp388
g54
(dp389
g74
g75
ssg63
g383
sg56
(lp390
S'secure'
p391
asbag49
(g70
g51
NtRp392
(dp393
g54
(dp394
g81
g82
ssg63
g383
sg56
(lp395
S':'
asbag49
(g70
g51
NtRp396
(dp397
g54
(dp398
sg63
g383
sg56
(lp399
g49
(g50
g51
NtRp400
(dp401
g54
(dp402
g62
I3
ssg63
g396
sg56
(lp403
S''
asbasbasbag49
(g65
g51
NtRp404
(dp405
g54
(dp406
sg63
g274
sg56
(lp407
g49
(g70
g51
NtRp408
(dp409
g54
(dp410
g74
g75
ssg63
g404
sg56
(lp411
S'version'
p412
asbag49
(g70
g51
NtRp413
(dp414
g54
(dp415
g81
g82
ssg63
g404
sg56
(lp416
S':'
asbag49
(g70
g51
NtRp417
(dp418
g54
(dp419
sg63
g404
sg56
(lp420
g49
(g50
g51
NtRp421
(dp422
g54
(dp423
g62
I3
ssg63
g417
sg56
(lp424
S''
asbasbasbasbasbasbasbag49
(g65
g51
NtRp425
(dp426
g54
(dp427
sg63
g248
sg56
(lp428
g49
(g70
g51
NtRp429
(dp430
g54
(dp431
g74
g75
ssg63
g425
sg56
(lp432
S'session_id_final_impulse'
p433
asbag49
(g70
g51
NtRp434
(dp435
g54
(dp436
g81
g82
ssg63
g425
sg56
(lp437
S':'
asbag49
(g70
g51
NtRp438
(dp439
g54
(dp440
sg63
g425
sg56
(lp441
g49
(g50
g51
NtRp442
(dp443
g54
(dp444
g62
I4
ssg63
g438
sg56
(lp445
S'127.0.0.1-fe54df76-3eba-4359-ae6d-98727f24814f'
p446
ag49
(g58
g51
NtRp447
(dp448
g54
(dp449
g62
I3
ssg63
Nsg56
(lp450
g49
(g65
g51
NtRp451
(dp452
g54
(dp453
sg63
g447
sg56
(lp454
g49
(g70
g51
NtRp455
(dp456
g54
(dp457
g74
g75
ssg63
g451
sg56
(lp458
g286
asbag49
(g70
g51
NtRp459
(dp460
g54
(dp461
g81
g82
ssg63
g451
sg56
(lp462
S':'
asbag49
(g70
g51
NtRp463
(dp464
g54
(dp465
sg63
g451
sg56
(lp466
g49
(g50
g51
NtRp467
(dp468
g54
(dp469
g62
I3
ssg63
g463
sg56
(lp470
S''
asbasbasbag49
(g65
g51
NtRp471
(dp472
g54
(dp473
sg63
g447
sg56
(lp474
g49
(g70
g51
NtRp475
(dp476
g54
(dp477
g74
g75
ssg63
g471
sg56
(lp478
g307
asbag49
(g70
g51
NtRp479
(dp480
g54
(dp481
g81
g82
ssg63
g471
sg56
(lp482
S':'
asbag49
(g70
g51
NtRp483
(dp484
g54
(dp485
sg63
g471
sg56
(lp486
g49
(g50
g51
NtRp487
(dp488
g54
(dp489
g62
I3
ssg63
g483
sg56
(lp490
S''
asbasbasbag49
(g65
g51
NtRp491
(dp492
g54
(dp493
sg63
g447
sg56
(lp494
g49
(g70
g51
NtRp495
(dp496
g54
(dp497
g74
g75
ssg63
g491
sg56
(lp498
g328
asbag49
(g70
g51
NtRp499
(dp500
g54
(dp501
g81
g82
ssg63
g491
sg56
(lp502
S':'
asbag49
(g70
g51
NtRp503
(dp504
g54
(dp505
sg63
g491
sg56
(lp506
g49
(g50
g51
NtRp507
(dp508
g54
(dp509
g62
I3
ssg63
g503
sg56
(lp510
S''
asbasbasbag49
(g65
g51
NtRp511
(dp512
g54
(dp513
sg63
g447
sg56
(lp514
g49
(g70
g51
NtRp515
(dp516
g54
(dp517
g74
g75
ssg63
g511
sg56
(lp518
g349
asbag49
(g70
g51
NtRp519
(dp520
g54
(dp521
g81
g82
ssg63
g511
sg56
(lp522
S':'
asbag49
(g70
g51
NtRp523
(dp524
g54
(dp525
sg63
g511
sg56
(lp526
g49
(g50
g51
NtRp527
(dp528
g54
(dp529
g62
I3
ssg63
g523
sg56
(lp530
S''
asbasbasbag49
(g65
g51
NtRp531
(dp532
g54
(dp533
sg63
g447
sg56
(lp534
g49
(g70
g51
NtRp535
(dp536
g54
(dp537
g74
g75
ssg63
g531
sg56
(lp538
g370
asbag49
(g70
g51
NtRp539
(dp540
g54
(dp541
g81
g82
ssg63
g531
sg56
(lp542
S':'
asbag49
(g70
g51
NtRp543
(dp544
g54
(dp545
sg63
g531
sg56
(lp546
g49
(g50
g51
NtRp547
(dp548
g54
(dp549
g62
I3
ssg63
g543
sg56
(lp550
S''
asbasbasbag49
(g65
g51
NtRp551
(dp552
g54
(dp553
sg63
g447
sg56
(lp554
g49
(g70
g51
NtRp555
(dp556
g54
(dp557
g74
g75
ssg63
g551
sg56
(lp558
g391
asbag49
(g70
g51
NtRp559
(dp560
g54
(dp561
g81
g82
ssg63
g551
sg56
(lp562
S':'
asbag49
(g70
g51
NtRp563
(dp564
g54
(dp565
sg63
g551
sg56
(lp566
g49
(g50
g51
NtRp567
(dp568
g54
(dp569
g62
I3
ssg63
g563
sg56
(lp570
S''
asbasbasbag49
(g65
g51
NtRp571
(dp572
g54
(dp573
sg63
g447
sg56
(lp574
g49
(g70
g51
NtRp575
(dp576
g54
(dp577
g74
g75
ssg63
g571
sg56
(lp578
g412
asbag49
(g70
g51
NtRp579
(dp580
g54
(dp581
g81
g82
ssg63
g571
sg56
(lp582
S':'
asbag49
(g70
g51
NtRp583
(dp584
g54
(dp585
sg63
g571
sg56
(lp586
g49
(g50
g51
NtRp587
(dp588
g54
(dp589
g62
I3
ssg63
g583
sg56
(lp590
S''
asbasbasbasbasbasbasbag49
(g65
g51
NtRp591
(dp592
g54
(dp593
sg63
g248
sg56
(lp594
g49
(g70
g51
NtRp595
(dp596
g54
(dp597
g74
g75
ssg63
g591
sg56
(lp598
S'session_id_impulse_online2'
p599
asbag49
(g70
g51
NtRp600
(dp601
g54
(dp602
g81
g82
ssg63
g591
sg56
(lp603
S':'
asbag49
(g70
g51
NtRp604
(dp605
g54
(dp606
sg63
g591
sg56
(lp607
g49
(g50
g51
NtRp608
(dp609
g54
(dp610
g62
I4
ssg63
g604
sg56
(lp611
S'127.0.0.1-37fb8c7e-69a3-434e-9537-3c2b0516f29b'
p612
ag49
(g58
g51
NtRp613
(dp614
g54
(dp615
g62
I3
ssg63
Nsg56
(lp616
g49
(g65
g51
NtRp617
(dp618
g54
(dp619
sg63
g613
sg56
(lp620
g49
(g70
g51
NtRp621
(dp622
g54
(dp623
g74
g75
ssg63
g617
sg56
(lp624
g286
asbag49
(g70
g51
NtRp625
(dp626
g54
(dp627
g81
g82
ssg63
g617
sg56
(lp628
S':'
asbag49
(g70
g51
NtRp629
(dp630
g54
(dp631
sg63
g617
sg56
(lp632
g49
(g50
g51
NtRp633
(dp634
g54
(dp635
g62
I3
ssg63
g629
sg56
(lp636
S''
asbasbasbag49
(g65
g51
NtRp637
(dp638
g54
(dp639
sg63
g613
sg56
(lp640
g49
(g70
g51
NtRp641
(dp642
g54
(dp643
g74
g75
ssg63
g637
sg56
(lp644
g307
asbag49
(g70
g51
NtRp645
(dp646
g54
(dp647
g81
g82
ssg63
g637
sg56
(lp648
S':'
asbag49
(g70
g51
NtRp649
(dp650
g54
(dp651
sg63
g637
sg56
(lp652
g49
(g50
g51
NtRp653
(dp654
g54
(dp655
g62
I3
ssg63
g649
sg56
(lp656
S''
asbasbasbag49
(g65
g51
NtRp657
(dp658
g54
(dp659
sg63
g613
sg56
(lp660
g49
(g70
g51
NtRp661
(dp662
g54
(dp663
g74
g75
ssg63
g657
sg56
(lp664
g328
asbag49
(g70
g51
NtRp665
(dp666
g54
(dp667
g81
g82
ssg63
g657
sg56
(lp668
S':'
asbag49
(g70
g51
NtRp669
(dp670
g54
(dp671
sg63
g657
sg56
(lp672
g49
(g50
g51
NtRp673
(dp674
g54
(dp675
g62
I3
ssg63
g669
sg56
(lp676
S''
asbasbasbag49
(g65
g51
NtRp677
(dp678
g54
(dp679
sg63
g613
sg56
(lp680
g49
(g70
g51
NtRp681
(dp682
g54
(dp683
g74
g75
ssg63
g677
sg56
(lp684
g349
asbag49
(g70
g51
NtRp685
(dp686
g54
(dp687
g81
g82
ssg63
g677
sg56
(lp688
S':'
asbag49
(g70
g51
NtRp689
(dp690
g54
(dp691
sg63
g677
sg56
(lp692
g49
(g50
g51
NtRp693
(dp694
g54
(dp695
g62
I3
ssg63
g689
sg56
(lp696
S''
asbasbasbag49
(g65
g51
NtRp697
(dp698
g54
(dp699
sg63
g613
sg56
(lp700
g49
(g70
g51
NtRp701
(dp702
g54
(dp703
g74
g75
ssg63
g697
sg56
(lp704
g370
asbag49
(g70
g51
NtRp705
(dp706
g54
(dp707
g81
g82
ssg63
g697
sg56
(lp708
S':'
asbag49
(g70
g51
NtRp709
(dp710
g54
(dp711
sg63
g697
sg56
(lp712
g49
(g50
g51
NtRp713
(dp714
g54
(dp715
g62
I3
ssg63
g709
sg56
(lp716
S''
asbasbasbag49
(g65
g51
NtRp717
(dp718
g54
(dp719
sg63
g613
sg56
(lp720
g49
(g70
g51
NtRp721
(dp722
g54
(dp723
g74
g75
ssg63
g717
sg56
(lp724
g391
asbag49
(g70
g51
NtRp725
(dp726
g54
(dp727
g81
g82
ssg63
g717
sg56
(lp728
S':'
asbag49
(g70
g51
NtRp729
(dp730
g54
(dp731
sg63
g717
sg56
(lp732
g49
(g50
g51
NtRp733
(dp734
g54
(dp735
g62
I3
ssg63
g729
sg56
(lp736
S''
asbasbasbag49
(g65
g51
NtRp737
(dp738
g54
(dp739
sg63
g613
sg56
(lp740
g49
(g70
g51
NtRp741
(dp742
g54
(dp743
g74
g75
ssg63
g737
sg56
(lp744
g412
asbag49
(g70
g51
NtRp745
(dp746
g54
(dp747
g81
g82
ssg63
g737
sg56
(lp748
S':'
asbag49
(g70
g51
NtRp749
(dp750
g54
(dp751
sg63
g737
sg56
(lp752
g49
(g50
g51
NtRp753
(dp754
g54
(dp755
g62
I3
ssg63
g749
sg56
(lp756
S''
asbasbasbasbasbasbasbag49
(g65
g51
NtRp757
(dp758
g54
(dp759
sg63
g248
sg56
(lp760
g49
(g70
g51
NtRp761
(dp762
g54
(dp763
g74
g75
ssg63
g757
sg56
(lp764
S'session_id_welcome'
p765
asbag49
(g70
g51
NtRp766
(dp767
g54
(dp768
g81
g82
ssg63
g757
sg56
(lp769
S':'
asbag49
(g70
g51
NtRp770
(dp771
g54
(dp772
sg63
g757
sg56
(lp773
g49
(g50
g51
NtRp774
(dp775
g54
(dp776
g62
I4
ssg63
g770
sg56
(lp777
S'127.0.0.1-5868511e-f888-4dcb-9511-6b25cf572dee'
p778
ag49
(g58
g51
NtRp779
(dp780
g54
(dp781
g62
I3
ssg63
Nsg56
(lp782
g49
(g65
g51
NtRp783
(dp784
g54
(dp785
sg63
g779
sg56
(lp786
g49
(g70
g51
NtRp787
(dp788
g54
(dp789
g74
g75
ssg63
g783
sg56
(lp790
g286
asbag49
(g70
g51
NtRp791
(dp792
g54
(dp793
g81
g82
ssg63
g783
sg56
(lp794
S':'
asbag49
(g70
g51
NtRp795
(dp796
g54
(dp797
sg63
g783
sg56
(lp798
g49
(g50
g51
NtRp799
(dp800
g54
(dp801
g62
I3
ssg63
g795
sg56
(lp802
S''
asbasbasbag49
(g65
g51
NtRp803
(dp804
g54
(dp805
sg63
g779
sg56
(lp806
g49
(g70
g51
NtRp807
(dp808
g54
(dp809
g74
g75
ssg63
g803
sg56
(lp810
g307
asbag49
(g70
g51
NtRp811
(dp812
g54
(dp813
g81
g82
ssg63
g803
sg56
(lp814
S':'
asbag49
(g70
g51
NtRp815
(dp816
g54
(dp817
sg63
g803
sg56
(lp818
g49
(g50
g51
NtRp819
(dp820
g54
(dp821
g62
I3
ssg63
g815
sg56
(lp822
S''
asbasbasbag49
(g65
g51
NtRp823
(dp824
g54
(dp825
sg63
g779
sg56
(lp826
g49
(g70
g51
NtRp827
(dp828
g54
(dp829
g74
g75
ssg63
g823
sg56
(lp830
g328
asbag49
(g70
g51
NtRp831
(dp832
g54
(dp833
g81
g82
ssg63
g823
sg56
(lp834
S':'
asbag49
(g70
g51
NtRp835
(dp836
g54
(dp837
sg63
g823
sg56
(lp838
g49
(g50
g51
NtRp839
(dp840
g54
(dp841
g62
I3
ssg63
g835
sg56
(lp842
S''
asbasbasbag49
(g65
g51
NtRp843
(dp844
g54
(dp845
sg63
g779
sg56
(lp846
g49
(g70
g51
NtRp847
(dp848
g54
(dp849
g74
g75
ssg63
g843
sg56
(lp850
g349
asbag49
(g70
g51
NtRp851
(dp852
g54
(dp853
g81
g82
ssg63
g843
sg56
(lp854
S':'
asbag49
(g70
g51
NtRp855
(dp856
g54
(dp857
sg63
g843
sg56
(lp858
g49
(g50
g51
NtRp859
(dp860
g54
(dp861
g62
I3
ssg63
g855
sg56
(lp862
S''
asbasbasbag49
(g65
g51
NtRp863
(dp864
g54
(dp865
sg63
g779
sg56
(lp866
g49
(g70
g51
NtRp867
(dp868
g54
(dp869
g74
g75
ssg63
g863
sg56
(lp870
g370
asbag49
(g70
g51
NtRp871
(dp872
g54
(dp873
g81
g82
ssg63
g863
sg56
(lp874
S':'
asbag49
(g70
g51
NtRp875
(dp876
g54
(dp877
sg63
g863
sg56
(lp878
g49
(g50
g51
NtRp879
(dp880
g54
(dp881
g62
I3
ssg63
g875
sg56
(lp882
S''
asbasbasbag49
(g65
g51
NtRp883
(dp884
g54
(dp885
sg63
g779
sg56
(lp886
g49
(g70
g51
NtRp887
(dp888
g54
(dp889
g74
g75
ssg63
g883
sg56
(lp890
g391
asbag49
(g70
g51
NtRp891
(dp892
g54
(dp893
g81
g82
ssg63
g883
sg56
(lp894
S':'
asbag49
(g70
g51
NtRp895
(dp896
g54
(dp897
sg63
g883
sg56
(lp898
g49
(g50
g51
NtRp899
(dp900
g54
(dp901
g62
I3
ssg63
g895
sg56
(lp902
S''
asbasbasbag49
(g65
g51
NtRp903
(dp904
g54
(dp905
sg63
g779
sg56
(lp906
g49
(g70
g51
NtRp907
(dp908
g54
(dp909
g74
g75
ssg63
g903
sg56
(lp910
g412
asbag49
(g70
g51
NtRp911
(dp912
g54
(dp913
g81
g82
ssg63
g903
sg56
(lp914
S':'
asbag49
(g70
g51
NtRp915
(dp916
g54
(dp917
sg63
g903
sg56
(lp918
g49
(g50
g51
NtRp919
(dp920
g54
(dp921
g62
I3
ssg63
g915
sg56
(lp922
S''
asbasbasbasbasbasbasbasbasbasbasbag49
(g65
g51
NtRp923
(dp924
g54
(dp925
sg63
g59
sg56
(lp926
g49
(g70
g51
NtRp927
(dp928
g54
(dp929
g74
g75
ssg63
g923
sg56
(lp930
S'env'
p931
asbag49
(g70
g51
NtRp932
(dp933
g54
(dp934
g81
g82
ssg63
g923
sg56
(lp935
S':'
asbag49
(g70
g51
NtRp936
(dp937
g54
(dp938
sg63
g923
sg56
(lp939
g49
(g50
g51
NtRp940
(dp941
g54
(dp942
g62
I5
ssg63
g936
sg56
(lp943
g49
(g58
g51
NtRp944
(dp945
g54
(dp946
g62
I4
ssg63
Nsg56
(lp947
g49
(g65
g51
NtRp948
(dp949
g54
(dp950
sg63
g944
sg56
(lp951
g49
(g70
g51
NtRp952
(dp953
g54
(dp954
g74
g75
ssg63
g948
sg56
(lp955
S'app_folders'
p956
asbag49
(g70
g51
NtRp957
(dp958
g54
(dp959
g81
g82
ssg63
g948
sg56
(lp960
S':'
asbag49
(g70
g51
NtRp961
(dp962
g54
(dp963
sg63
g948
sg56
(lp964
g49
(g50
g51
NtRp965
(dp966
g54
(dp967
g62
I4
ssg63
g961
sg56
(lp968
S"set(['/Users/abaric/Downloads/web2py/web2py.app/Contents/Resources/applications/examples/', '/Users/abaric/Downloads/web2py/web2py.app/Contents/Resources/applications/Final_Impulse/', '/Users/abaric/Downloads/web2py/web2py.app/Contents/Resources/applications/Impulse_Online2/', '/Users/abaric/Downloads/web2py/web2py.app/Contents/Resources/applications/welcome/', '/Users/abaric/Downloads/web2py/web2py.app/Contents/Resources/applications/admin/'])"
p969
asbasbasbag49
(g65
g51
NtRp970
(dp971
g54
(dp972
sg63
g944
sg56
(lp973
g49
(g70
g51
NtRp974
(dp975
g54
(dp976
g74
g75
ssg63
g970
sg56
(lp977
S'applications_parent'
p978
asbag49
(g70
g51
NtRp979
(dp980
g54
(dp981
g81
g82
ssg63
g970
sg56
(lp982
S':'
asbag49
(g70
g51
NtRp983
(dp984
g54
(dp985
sg63
g970
sg56
(lp986
g49
(g50
g51
NtRp987
(dp988
g54
(dp989
g62
I4
ssg63
g983
sg56
(lp990
S'/Users/abaric/Downloads/web2py/web2py.app/Contents/Resources'
p991
asbasbasbag49
(g65
g51
NtRp992
(dp993
g54
(dp994
sg63
g944
sg56
(lp995
g49
(g70
g51
NtRp996
(dp997
g54
(dp998
g74
g75
ssg63
g992
sg56
(lp999
S'cmd_args'
p1000
asbag49
(g70
g51
NtRp1001
(dp1002
g54
(dp1003
g81
g82
ssg63
g992
sg56
(lp1004
S':'
asbag49
(g70
g51
NtRp1005
(dp1006
g54
(dp1007
sg63
g992
sg56
(lp1008
g49
(g50
g51
NtRp1009
(dp1010
g54
(dp1011
g62
I4
ssg63
g1005
sg56
(lp1012
g49
(g58
g51
NtRp1013
(dp1014
g54
(dp1015
g62
I3
ssg63
Nsg56
(lp1016
sbasbasbasbag49
(g65
g51
NtRp1017
(dp1018
g54
(dp1019
sg63
g944
sg56
(lp1020
g49
(g70
g51
NtRp1021
(dp1022
g54
(dp1023
g74
g75
ssg63
g1017
sg56
(lp1024
S'cmd_options'
p1025
asbag49
(g70
g51
NtRp1026
(dp1027
g54
(dp1028
g81
g82
ssg63
g1017
sg56
(lp1029
S':'
asbag49
(g70
g51
NtRp1030
(dp1031
g54
(dp1032
sg63
g1017
sg56
(lp1033
g49
(g50
g51
NtRp1034
(dp1035
g54
(dp1036
g62
I4
ssg63
g1030
sg56
(lp1037
S"<Values at 0x442e238: {'verbose': False, 'ip': '127.0.0.1', 'with_scheduler': False, 'ips': ['192.168.1.5'], 'shutdown_timeout': 5, 'taskbar': False, 'port': 8000, 'maxthreads': None, 'softcron': False, 'server_name': 'new-host.home', 'bpython': False, 'nogui': False, 'pid_filename': 'httpserver.pid', 'extcron': False, 'runcron': False, 'run_system_tests': False, 'test': None, 'folder': '/Users/abaric/Downloads/web2py/web2py.app/Contents/Resources', 'config': '', 'import_models': False, 'winservice': '', 'shell': None, 'run': '', 'log_filename': 'httpserver.log', 'debuglevel': 30, 'args': [''], 'socket_timeout': 5, 'ssl_ca_certificate': None, 'scheduler': None, 'profiler_filename': None, 'ssl_private_key': '', 'scheduler_groups': None, 'password': '<ask>', 'request_queue_size': 5, 'ssl_certificate': '', 'cronjob': False, 'numthreads': None, 'quiet': False, 'interfaces': None, 'minthreads': None, 'timeout': 10, 'plain': False, 'nobanner': False}>"
p1038
asbasbasbag49
(g65
g51
NtRp1039
(dp1040
g54
(dp1041
sg63
g944
sg56
(lp1042
g49
(g70
g51
NtRp1043
(dp1044
g54
(dp1045
g74
g75
ssg63
g1039
sg56
(lp1046
S'db_sessions'
p1047
asbag49
(g70
g51
NtRp1048
(dp1049
g54
(dp1050
g81
g82
ssg63
g1039
sg56
(lp1051
S':'
asbag49
(g70
g51
NtRp1052
(dp1053
g54
(dp1054
sg63
g1039
sg56
(lp1055
g49
(g50
g51
NtRp1056
(dp1057
g54
(dp1058
g62
I4
ssg63
g1052
sg56
(lp1059
S'set([])'
p1060
asbasbasbag49
(g65
g51
NtRp1061
(dp1062
g54
(dp1063
sg63
g944
sg56
(lp1064
g49
(g70
g51
NtRp1065
(dp1066
g54
(dp1067
g74
g75
ssg63
g1061
sg56
(lp1068
S'debugging'
p1069
asbag49
(g70
g51
NtRp1070
(dp1071
g54
(dp1072
g81
g82
ssg63
g1061
sg56
(lp1073
S':'
asbag49
(g70
g51
NtRp1074
(dp1075
g54
(dp1076
sg63
g1061
sg56
(lp1077
g49
(g50
g51
NtRp1078
(dp1079
g54
(dp1080
g62
I4
ssg63
g1074
sg56
(lp1081
g92
asbasbasbag49
(g65
g51
NtRp1082
(dp1083
g54
(dp1084
sg63
g944
sg56
(lp1085
g49
(g70
g51
NtRp1086
(dp1087
g54
(dp1088
g74
g75
ssg63
g1082
sg56
(lp1089
S'gluon_parent'
p1090
asbag49
(g70
g51
NtRp1091
(dp1092
g54
(dp1093
g81
g82
ssg63
g1082
sg56
(lp1094
S':'
asbag49
(g70
g51
NtRp1095
(dp1096
g54
(dp1097
sg63
g1082
sg56
(lp1098
g49
(g50
g51
NtRp1099
(dp1100
g54
(dp1101
g62
I4
ssg63
g1095
sg56
(lp1102
S'/Users/abaric/Downloads/web2py/web2py.app/Contents/Resources'
p1103
asbasbasbag49
(g65
g51
NtRp1104
(dp1105
g54
(dp1106
sg63
g944
sg56
(lp1107
g49
(g70
g51
NtRp1108
(dp1109
g54
(dp1110
g74
g75
ssg63
g1104
sg56
(lp1111
S'http_accept'
p1112
asbag49
(g70
g51
NtRp1113
(dp1114
g54
(dp1115
g81
g82
ssg63
g1104
sg56
(lp1116
S':'
asbag49
(g70
g51
NtRp1117
(dp1118
g54
(dp1119
sg63
g1104
sg56
(lp1120
g49
(g50
g51
NtRp1121
(dp1122
g54
(dp1123
g62
I4
ssg63
g1117
sg56
(lp1124
S'text/html,application/xhtml+xml,application/xml;q=0.9,*/*;q=0.8'
p1125
asbasbasbag49
(g65
g51
NtRp1126
(dp1127
g54
(dp1128
sg63
g944
sg56
(lp1129
g49
(g70
g51
NtRp1130
(dp1131
g54
(dp1132
g74
g75
ssg63
g1126
sg56
(lp1133
S'http_accept_encoding'
p1134
asbag49
(g70
g51
NtRp1135
(dp1136
g54
(dp1137
g81
g82
ssg63
g1126
sg56
(lp1138
S':'
asbag49
(g70
g51
NtRp1139
(dp1140
g54
(dp1141
sg63
g1126
sg56
(lp1142
g49
(g50
g51
NtRp1143
(dp1144
g54
(dp1145
g62
I4
ssg63
g1139
sg56
(lp1146
S'gzip, deflate'
p1147
asbasbasbag49
(g65
g51
NtRp1148
(dp1149
g54
(dp1150
sg63
g944
sg56
(lp1151
g49
(g70
g51
NtRp1152
(dp1153
g54
(dp1154
g74
g75
ssg63
g1148
sg56
(lp1155
S'http_accept_language'
p1156
asbag49
(g70
g51
NtRp1157
(dp1158
g54
(dp1159
g81
g82
ssg63
g1148
sg56
(lp1160
S':'
asbag49
(g70
g51
NtRp1161
(dp1162
g54
(dp1163
sg63
g1148
sg56
(lp1164
g49
(g50
g51
NtRp1165
(dp1166
g54
(dp1167
g62
I4
ssg63
g1161
sg56
(lp1168
S'en-us'
p1169
asbasbasbag49
(g65
g51
NtRp1170
(dp1171
g54
(dp1172
sg63
g944
sg56
(lp1173
g49
(g70
g51
NtRp1174
(dp1175
g54
(dp1176
g74
g75
ssg63
g1170
sg56
(lp1177
S'http_connection'
p1178
asbag49
(g70
g51
NtRp1179
(dp1180
g54
(dp1181
g81
g82
ssg63
g1170
sg56
(lp1182
S':'
asbag49
(g70
g51
NtRp1183
(dp1184
g54
(dp1185
sg63
g1170
sg56
(lp1186
g49
(g50
g51
NtRp1187
(dp1188
g54
(dp1189
g62
I4
ssg63
g1183
sg56
(lp1190
S'keep-alive'
p1191
asbasbasbag49
(g65
g51
NtRp1192
(dp1193
g54
(dp1194
sg63
g944
sg56
(lp1195
g49
(g70
g51
NtRp1196
(dp1197
g54
(dp1198
g74
g75
ssg63
g1192
sg56
(lp1199
S'http_cookie'
p1200
asbag49
(g70
g51
NtRp1201
(dp1202
g54
(dp1203
g81
g82
ssg63
g1192
sg56
(lp1204
S':'
asbag49
(g70
g51
NtRp1205
(dp1206
g54
(dp1207
sg63
g1192
sg56
(lp1208
g49
(g50
g51
NtRp1209
(dp1210
g54
(dp1211
g62
I4
ssg63
g1205
sg56
(lp1212
S'session_id_final_impulse=127.0.0.1-fe54df76-3eba-4359-ae6d-98727f24814f; session_id_admin=127.0.0.1-67e1670c-9cb7-4c81-83d1-b44ab2b28c6e; session_id_impulse_online2=127.0.0.1-37fb8c7e-69a3-434e-9537-3c2b0516f29b; session_id_welcome=127.0.0.1-5868511e-f888-4dcb-9511-6b25cf572dee'
p1213
asbasbasbag49
(g65
g51
NtRp1214
(dp1215
g54
(dp1216
sg63
g944
sg56
(lp1217
g49
(g70
g51
NtRp1218
(dp1219
g54
(dp1220
g74
g75
ssg63
g1214
sg56
(lp1221
S'http_host'
p1222
asbag49
(g70
g51
NtRp1223
(dp1224
g54
(dp1225
g81
g82
ssg63
g1214
sg56
(lp1226
S':'
asbag49
(g70
g51
NtRp1227
(dp1228
g54
(dp1229
sg63
g1214
sg56
(lp1230
g49
(g50
g51
NtRp1231
(dp1232
g54
(dp1233
g62
I4
ssg63
g1227
sg56
(lp1234
S'127.0.0.1:8000'
p1235
asbasbasbag49
(g65
g51
NtRp1236
(dp1237
g54
(dp1238
sg63
g944
sg56
(lp1239
g49
(g70
g51
NtRp1240
(dp1241
g54
(dp1242
g74
g75
ssg63
g1236
sg56
(lp1243
S'http_referer'
p1244
asbag49
(g70
g51
NtRp1245
(dp1246
g54
(dp1247
g81
g82
ssg63
g1236
sg56
(lp1248
S':'
asbag49
(g70
g51
NtRp1249
(dp1250
g54
(dp1251
sg63
g1236
sg56
(lp1252
g49
(g50
g51
NtRp1253
(dp1254
g54
(dp1255
g62
I4
ssg63
g1249
sg56
(lp1256
S'http://127.0.0.1:8000/Final_Impulse/default/index'
p1257
asbasbasbag49
(g65
g51
NtRp1258
(dp1259
g54
(dp1260
sg63
g944
sg56
(lp1261
g49
(g70
g51
NtRp1262
(dp1263
g54
(dp1264
g74
g75
ssg63
g1258
sg56
(lp1265
S'http_user_agent'
p1266
asbag49
(g70
g51
NtRp1267
(dp1268
g54
(dp1269
g81
g82
ssg63
g1258
sg56
(lp1270
S':'
asbag49
(g70
g51
NtRp1271
(dp1272
g54
(dp1273
sg63
g1258
sg56
(lp1274
g49
(g50
g51
NtRp1275
(dp1276
g54
(dp1277
g62
I4
ssg63
g1271
sg56
(lp1278
S'Mozilla/5.0 (Macintosh; Intel Mac OS X 10_8_4) AppleWebKit/536.30.1 (KHTML, like Gecko) Version/6.0.5 Safari/536.30.1'
p1279
asbasbasbag49
(g65
g51
NtRp1280
(dp1281
g54
(dp1282
sg63
g944
sg56
(lp1283
g49
(g70
g51
NtRp1284
(dp1285
g54
(dp1286
g74
g75
ssg63
g1280
sg56
(lp1287
S'is_jython'
p1288
asbag49
(g70
g51
NtRp1289
(dp1290
g54
(dp1291
g81
g82
ssg63
g1280
sg56
(lp1292
S':'
asbag49
(g70
g51
NtRp1293
(dp1294
g54
(dp1295
sg63
g1280
sg56
(lp1296
g49
(g50
g51
NtRp1297
(dp1298
g54
(dp1299
g62
I4
ssg63
g1293
sg56
(lp1300
g92
asbasbasbag49
(g65
g51
NtRp1301
(dp1302
g54
(dp1303
sg63
g944
sg56
(lp1304
g49
(g70
g51
NtRp1305
(dp1306
g54
(dp1307
g74
g75
ssg63
g1301
sg56
(lp1308
S'is_pypy'
p1309
asbag49
(g70
g51
NtRp1310
(dp1311
g54
(dp1312
g81
g82
ssg63
g1301
sg56
(lp1313
S':'
asbag49
(g70
g51
NtRp1314
(dp1315
g54
(dp1316
sg63
g1301
sg56
(lp1317
g49
(g50
g51
NtRp1318
(dp1319
g54
(dp1320
g62
I4
ssg63
g1314
sg56
(lp1321
g92
asbasbasbag49
(g65
g51
NtRp1322
(dp1323
g54
(dp1324
sg63
g944
sg56
(lp1325
g49
(g70
g51
NtRp1326
(dp1327
g54
(dp1328
g74
g75
ssg63
g1322
sg56
(lp1329
S'local_hosts'
p1330
asbag49
(g70
g51
NtRp1331
(dp1332
g54
(dp1333
g81
g82
ssg63
g1322
sg56
(lp1334
S':'
asbag49
(g70
g51
NtRp1335
(dp1336
g54
(dp1337
sg63
g1322
sg56
(lp1338
g49
(g50
g51
NtRp1339
(dp1340
g54
(dp1341
g62
I4
ssg63
g1335
sg56
(lp1342
g49
(g58
g51
NtRp1343
(dp1344
g54
(dp1345
g62
I3
ssg63
Nsg56
(lp1346
g49
(g65
g51
NtRp1347
(dp1348
g54
(dp1349
sg63
g1343
sg56
(lp1350
g49
(g70
g51
NtRp1351
(dp1352
g54
(dp1353
sg63
g1347
sg56
(lp1354
g49
(g50
g51
NtRp1355
(dp1356
g54
(dp1357
g62
I3
ssg63
g1351
sg56
(lp1358
S'127.0.0.1'
p1359
asbasbasbag49
(g65
g51
NtRp1360
(dp1361
g54
(dp1362
sg63
g1343
sg56
(lp1363
g49
(g70
g51
NtRp1364
(dp1365
g54
(dp1366
sg63
g1360
sg56
(lp1367
g49
(g50
g51
NtRp1368
(dp1369
g54
(dp1370
g62
I3
ssg63
g1364
sg56
(lp1371
S'::ffff:127.0.0.1'
p1372
asbasbasbag49
(g65
g51
NtRp1373
(dp1374
g54
(dp1375
sg63
g1343
sg56
(lp1376
g49
(g70
g51
NtRp1377
(dp1378
g54
(dp1379
sg63
g1373
sg56
(lp1380
g49
(g50
g51
NtRp1381
(dp1382
g54
(dp1383
g62
I3
ssg63
g1377
sg56
(lp1384
S'new-host.home'
p1385
asbasbasbag49
(g65
g51
NtRp1386
(dp1387
g54
(dp1388
sg63
g1343
sg56
(lp1389
g49
(g70
g51
NtRp1390
(dp1391
g54
(dp1392
sg63
g1386
sg56
(lp1393
g49
(g50
g51
NtRp1394
(dp1395
g54
(dp1396
g62
I3
ssg63
g1390
sg56
(lp1397
S'new-host.home'
p1398
asbasbasbag49
(g65
g51
NtRp1399
(dp1400
g54
(dp1401
sg63
g1343
sg56
(lp1402
g49
(g70
g51
NtRp1403
(dp1404
g54
(dp1405
sg63
g1399
sg56
(lp1406
g49
(g50
g51
NtRp1407
(dp1408
g54
(dp1409
g62
I3
ssg63
g1403
sg56
(lp1410
S'192.168.1.5'
p1411
asbasbasbasbasbasbasbag49
(g65
g51
NtRp1412
(dp1413
g54
(dp1414
sg63
g944
sg56
(lp1415
g49
(g70
g51
NtRp1416
(dp1417
g54
(dp1418
g74
g75
ssg63
g1412
sg56
(lp1419
S'path_info'
p1420
asbag49
(g70
g51
NtRp1421
(dp1422
g54
(dp1423
g81
g82
ssg63
g1412
sg56
(lp1424
S':'
asbag49
(g70
g51
NtRp1425
(dp1426
g54
(dp1427
sg63
g1412
sg56
(lp1428
g49
(g50
g51
NtRp1429
(dp1430
g54
(dp1431
g62
I4
ssg63
g1425
sg56
(lp1432
S'/Final_Impulse/default/show_image_comments'
p1433
asbasbasbag49
(g65
g51
NtRp1434
(dp1435
g54
(dp1436
sg63
g944
sg56
(lp1437
g49
(g70
g51
NtRp1438
(dp1439
g54
(dp1440
g74
g75
ssg63
g1434
sg56
(lp1441
S'query_string'
p1442
asbag49
(g70
g51
NtRp1443
(dp1444
g54
(dp1445
g81
g82
ssg63
g1434
sg56
(lp1446
S':'
asbag49
(g70
g51
NtRp1447
(dp1448
g54
(dp1449
sg63
g1434
sg56
(lp1450
g49
(g50
g51
NtRp1451
(dp1452
g54
(dp1453
g62
I4
ssg63
g1447
sg56
(lp1454
S''
asbasbasbag49
(g65
g51
NtRp1455
(dp1456
g54
(dp1457
sg63
g944
sg56
(lp1458
g49
(g70
g51
NtRp1459
(dp1460
g54
(dp1461
g74
g75
ssg63
g1455
sg56
(lp1462
S'remote_addr'
p1463
asbag49
(g70
g51
NtRp1464
(dp1465
g54
(dp1466
g81
g82
ssg63
g1455
sg56
(lp1467
S':'
asbag49
(g70
g51
NtRp1468
(dp1469
g54
(dp1470
sg63
g1455
sg56
(lp1471
g49
(g50
g51
NtRp1472
(dp1473
g54
(dp1474
g62
I4
ssg63
g1468
sg56
(lp1475
g204
asbasbasbag49
(g65
g51
NtRp1476
(dp1477
g54
(dp1478
sg63
g944
sg56
(lp1479
g49
(g70
g51
NtRp1480
(dp1481
g54
(dp1482
g74
g75
ssg63
g1476
sg56
(lp1483
S'remote_port'
p1484
asbag49
(g70
g51
NtRp1485
(dp1486
g54
(dp1487
g81
g82
ssg63
g1476
sg56
(lp1488
S':'
asbag49
(g70
g51
NtRp1489
(dp1490
g54
(dp1491
sg63
g1476
sg56
(lp1492
g49
(g50
g51
NtRp1493
(dp1494
g54
(dp1495
g62
I4
ssg63
g1489
sg56
(lp1496
S'62885'
p1497
asbasbasbag49
(g65
g51
NtRp1498
(dp1499
g54
(dp1500
sg63
g944
sg56
(lp1501
g49
(g70
g51
NtRp1502
(dp1503
g54
(dp1504
g74
g75
ssg63
g1498
sg56
(lp1505
S'request_method'
p1506
asbag49
(g70
g51
NtRp1507
(dp1508
g54
(dp1509
g81
g82
ssg63
g1498
sg56
(lp1510
S':'
asbag49
(g70
g51
NtRp1511
(dp1512
g54
(dp1513
sg63
g1498
sg56
(lp1514
g49
(g50
g51
NtRp1515
(dp1516
g54
(dp1517
g62
I4
ssg63
g1511
sg56
(lp1518
S'GET'
p1519
asbasbasbag49
(g65
g51
NtRp1520
(dp1521
g54
(dp1522
sg63
g944
sg56
(lp1523
g49
(g70
g51
NtRp1524
(dp1525
g54
(dp1526
g74
g75
ssg63
g1520
sg56
(lp1527
S'request_uri'
p1528
asbag49
(g70
g51
NtRp1529
(dp1530
g54
(dp1531
g81
g82
ssg63
g1520
sg56
(lp1532
S':'
asbag49
(g70
g51
NtRp1533
(dp1534
g54
(dp1535
sg63
g1520
sg56
(lp1536
g49
(g50
g51
NtRp1537
(dp1538
g54
(dp1539
g62
I4
ssg63
g1533
sg56
(lp1540
g1433
asbasbasbag49
(g65
g51
NtRp1541
(dp1542
g54
(dp1543
sg63
g944
sg56
(lp1544
g49
(g70
g51
NtRp1545
(dp1546
g54
(dp1547
g74
g75
ssg63
g1541
sg56
(lp1548
S'script_name'
p1549
asbag49
(g70
g51
NtRp1550
(dp1551
g54
(dp1552
g81
g82
ssg63
g1541
sg56
(lp1553
S':'
asbag49
(g70
g51
NtRp1554
(dp1555
g54
(dp1556
sg63
g1541
sg56
(lp1557
g49
(g50
g51
NtRp1558
(dp1559
g54
(dp1560
g62
I4
ssg63
g1554
sg56
(lp1561
S''
asbasbasbag49
(g65
g51
NtRp1562
(dp1563
g54
(dp1564
sg63
g944
sg56
(lp1565
g49
(g70
g51
NtRp1566
(dp1567
g54
(dp1568
g74
g75
ssg63
g1562
sg56
(lp1569
S'server_name'
p1570
asbag49
(g70
g51
NtRp1571
(dp1572
g54
(dp1573
g81
g82
ssg63
g1562
sg56
(lp1574
S':'
asbag49
(g70
g51
NtRp1575
(dp1576
g54
(dp1577
sg63
g1562
sg56
(lp1578
g49
(g50
g51
NtRp1579
(dp1580
g54
(dp1581
g62
I4
ssg63
g1575
sg56
(lp1582
g1398
asbasbasbag49
(g65
g51
NtRp1583
(dp1584
g54
(dp1585
sg63
g944
sg56
(lp1586
g49
(g70
g51
NtRp1587
(dp1588
g54
(dp1589
g74
g75
ssg63
g1583
sg56
(lp1590
S'server_port'
p1591
asbag49
(g70
g51
NtRp1592
(dp1593
g54
(dp1594
g81
g82
ssg63
g1583
sg56
(lp1595
S':'
asbag49
(g70
g51
NtRp1596
(dp1597
g54
(dp1598
sg63
g1583
sg56
(lp1599
g49
(g50
g51
NtRp1600
(dp1601
g54
(dp1602
g62
I4
ssg63
g1596
sg56
(lp1603
S'8000'
p1604
asbasbasbag49
(g65
g51
NtRp1605
(dp1606
g54
(dp1607
sg63
g944
sg56
(lp1608
g49
(g70
g51
NtRp1609
(dp1610
g54
(dp1611
g74
g75
ssg63
g1605
sg56
(lp1612
S'server_protocol'
p1613
asbag49
(g70
g51
NtRp1614
(dp1615
g54
(dp1616
g81
g82
ssg63
g1605
sg56
(lp1617
S':'
asbag49
(g70
g51
NtRp1618
(dp1619
g54
(dp1620
sg63
g1605
sg56
(lp1621
g49
(g50
g51
NtRp1622
(dp1623
g54
(dp1624
g62
I4
ssg63
g1618
sg56
(lp1625
S'HTTP/1.1'
p1626
asbasbasbag49
(g65
g51
NtRp1627
(dp1628
g54
(dp1629
sg63
g944
sg56
(lp1630
g49
(g70
g51
NtRp1631
(dp1632
g54
(dp1633
g74
g75
ssg63
g1627
sg56
(lp1634
S'server_software'
p1635
asbag49
(g70
g51
NtRp1636
(dp1637
g54
(dp1638
g81
g82
ssg63
g1627
sg56
(lp1639
S':'
asbag49
(g70
g51
NtRp1640
(dp1641
g54
(dp1642
sg63
g1627
sg56
(lp1643
g49
(g50
g51
NtRp1644
(dp1645
g54
(dp1646
g62
I4
ssg63
g1640
sg56
(lp1647
S'Rocket 1.2.5'
p1648
asbasbasbag49
(g65
g51
NtRp1649
(dp1650
g54
(dp1651
sg63
g944
sg56
(lp1652
g49
(g70
g51
NtRp1653
(dp1654
g54
(dp1655
g74
g75
ssg63
g1649
sg56
(lp1656
S'web2py_path'
p1657
asbag49
(g70
g51
NtRp1658
(dp1659
g54
(dp1660
g81
g82
ssg63
g1649
sg56
(lp1661
S':'
asbag49
(g70
g51
NtRp1662
(dp1663
g54
(dp1664
sg63
g1649
sg56
(lp1665
g49
(g50
g51
NtRp1666
(dp1667
g54
(dp1668
g62
I4
ssg63
g1662
sg56
(lp1669
g991
asbasbasbag49
(g65
g51
NtRp1670
(dp1671
g54
(dp1672
sg63
g944
sg56
(lp1673
g49
(g70
g51
NtRp1674
(dp1675
g54
(dp1676
g74
g75
ssg63
g1670
sg56
(lp1677
S'web2py_version'
p1678
asbag49
(g70
g51
NtRp1679
(dp1680
g54
(dp1681
g81
g82
ssg63
g1670
sg56
(lp1682
S':'
asbag49
(g70
g51
NtRp1683
(dp1684
g54
(dp1685
sg63
g1670
sg56
(lp1686
g49
(g50
g51
NtRp1687
(dp1688
g54
(dp1689
g62
I4
ssg63
g1683
sg56
(lp1690
g49
(g58
g51
NtRp1691
(dp1692
g54
(dp1693
g62
I3
ssg63
Nsg56
(lp1694
g49
(g65
g51
NtRp1695
(dp1696
g54
(dp1697
sg63
g1691
sg56
(lp1698
g49
(g70
g51
NtRp1699
(dp1700
g54
(dp1701
sg63
g1695
sg56
(lp1702
g49
(g50
g51
NtRp1703
(dp1704
g54
(dp1705
g62
I3
ssg63
g1699
sg56
(lp1706
S'2'
asbasbasbag49
(g65
g51
NtRp1707
(dp1708
g54
(dp1709
sg63
g1691
sg56
(lp1710
g49
(g70
g51
NtRp1711
(dp1712
g54
(dp1713
sg63
g1707
sg56
(lp1714
g49
(g50
g51
NtRp1715
(dp1716
g54
(dp1717
g62
I3
ssg63
g1711
sg56
(lp1718
S'2'
asbasbasbag49
(g65
g51
NtRp1719
(dp1720
g54
(dp1721
sg63
g1691
sg56
(lp1722
g49
(g70
g51
NtRp1723
(dp1724
g54
(dp1725
sg63
g1719
sg56
(lp1726
g49
(g50
g51
NtRp1727
(dp1728
g54
(dp1729
g62
I3
ssg63
g1723
sg56
(lp1730
S'1'
asbasbasbag49
(g65
g51
NtRp1731
(dp1732
g54
(dp1733
sg63
g1691
sg56
(lp1734
g49
(g70
g51
NtRp1735
(dp1736
g54
(dp1737
sg63
g1731
sg56
(lp1738
g49
(g50
g51
NtRp1739
(dp1740
g54
(dp1741
g62
I3
ssg63
g1735
sg56
(lp1742
S'datetime.datetime(2012, 10, 21, 16, 57, 4)'
p1743
asbasbasbag49
(g65
g51
NtRp1744
(dp1745
g54
(dp1746
sg63
g1691
sg56
(lp1747
g49
(g70
g51
NtRp1748
(dp1749
g54
(dp1750
sg63
g1744
sg56
(lp1751
g49
(g50
g51
NtRp1752
(dp1753
g54
(dp1754
g62
I3
ssg63
g1748
sg56
(lp1755
S'stable'
p1756
asbasbasbasbasbasbasbag49
(g65
g51
NtRp1757
(dp1758
g54
(dp1759
sg63
g944
sg56
(lp1760
g49
(g70
g51
NtRp1761
(dp1762
g54
(dp1763
g74
g75
ssg63
g1757
sg56
(lp1764
S'wsgi_errors'
p1765
asbag49
(g70
g51
NtRp1766
(dp1767
g54
(dp1768
g81
g82
ssg63
g1757
sg56
(lp1769
S':'
asbag49
(g70
g51
NtRp1770
(dp1771
g54
(dp1772
sg63
g1757
sg56
(lp1773
g49
(g50
g51
NtRp1774
(dp1775
g54
(dp1776
g62
I4
ssg63
g1770
sg56
(lp1777
S"<open file '<stderr>', mode 'w' at 0x540b0>"
p1778
asbasbasbag49
(g65
g51
NtRp1779
(dp1780
g54
(dp1781
sg63
g944
sg56
(lp1782
g49
(g70
g51
NtRp1783
(dp1784
g54
(dp1785
g74
g75
ssg63
g1779
sg56
(lp1786
S'wsgi_file_wrapper'
p1787
asbag49
(g70
g51
NtRp1788
(dp1789
g54
(dp1790
g81
g82
ssg63
g1779
sg56
(lp1791
S':'
asbag49
(g70
g51
NtRp1792
(dp1793
g54
(dp1794
sg63
g1779
sg56
(lp1795
g49
(g50
g51
NtRp1796
(dp1797
g54
(dp1798
g62
I4
ssg63
g1792
sg56
(lp1799
S'<class wsgiref.util.FileWrapper at 0x44002d0>'
p1800
asbasbasbag49
(g65
g51
NtRp1801
(dp1802
g54
(dp1803
sg63
g944
sg56
(lp1804
g49
(g70
g51
NtRp1805
(dp1806
g54
(dp1807
g74
g75
ssg63
g1801
sg56
(lp1808
S'wsgi_input'
p1809
asbag49
(g70
g51
NtRp1810
(dp1811
g54
(dp1812
g81
g82
ssg63
g1801
sg56
(lp1813
S':'
asbag49
(g70
g51
NtRp1814
(dp1815
g54
(dp1816
sg63
g1801
sg56
(lp1817
g49
(g50
g51
NtRp1818
(dp1819
g54
(dp1820
g62
I4
ssg63
g1814
sg56
(lp1821
S'<socket._fileobject object at 0x96092b0>'
p1822
asbasbasbag49
(g65
g51
NtRp1823
(dp1824
g54
(dp1825
sg63
g944
sg56
(lp1826
g49
(g70
g51
NtRp1827
(dp1828
g54
(dp1829
g74
g75
ssg63
g1823
sg56
(lp1830
S'wsgi_multiprocess'
p1831
asbag49
(g70
g51
NtRp1832
(dp1833
g54
(dp1834
g81
g82
ssg63
g1823
sg56
(lp1835
S':'
asbag49
(g70
g51
NtRp1836
(dp1837
g54
(dp1838
sg63
g1823
sg56
(lp1839
g49
(g50
g51
NtRp1840
(dp1841
g54
(dp1842
g62
I4
ssg63
g1836
sg56
(lp1843
g92
asbasbasbag49
(g65
g51
NtRp1844
(dp1845
g54
(dp1846
sg63
g944
sg56
(lp1847
g49
(g70
g51
NtRp1848
(dp1849
g54
(dp1850
g74
g75
ssg63
g1844
sg56
(lp1851
S'wsgi_multithread'
p1852
asbag49
(g70
g51
NtRp1853
(dp1854
g54
(dp1855
g81
g82
ssg63
g1844
sg56
(lp1856
S':'
asbag49
(g70
g51
NtRp1857
(dp1858
g54
(dp1859
sg63
g1844
sg56
(lp1860
g49
(g50
g51
NtRp1861
(dp1862
g54
(dp1863
g62
I4
ssg63
g1857
sg56
(lp1864
S'True'
p1865
asbasbasbag49
(g65
g51
NtRp1866
(dp1867
g54
(dp1868
sg63
g944
sg56
(lp1869
g49
(g70
g51
NtRp1870
(dp1871
g54
(dp1872
g74
g75
ssg63
g1866
sg56
(lp1873
S'wsgi_run_once'
p1874
asbag49
(g70
g51
NtRp1875
(dp1876
g54
(dp1877
g81
g82
ssg63
g1866
sg56
(lp1878
S':'
asbag49
(g70
g51
NtRp1879
(dp1880
g54
(dp1881
sg63
g1866
sg56
(lp1882
g49
(g50
g51
NtRp1883
(dp1884
g54
(dp1885
g62
I4
ssg63
g1879
sg56
(lp1886
g92
asbasbasbag49
(g65
g51
NtRp1887
(dp1888
g54
(dp1889
sg63
g944
sg56
(lp1890
g49
(g70
g51
NtRp1891
(dp1892
g54
(dp1893
g74
g75
ssg63
g1887
sg56
(lp1894
S'wsgi_url_scheme'
p1895
asbag49
(g70
g51
NtRp1896
(dp1897
g54
(dp1898
g81
g82
ssg63
g1887
sg56
(lp1899
S':'
asbag49
(g70
g51
NtRp1900
(dp1901
g54
(dp1902
sg63
g1887
sg56
(lp1903
g49
(g50
g51
NtRp1904
(dp1905
g54
(dp1906
g62
I4
ssg63
g1900
sg56
(lp1907
S'http'
p1908
asbasbasbag49
(g65
g51
NtRp1909
(dp1910
g54
(dp1911
sg63
g944
sg56
(lp1912
g49
(g70
g51
NtRp1913
(dp1914
g54
(dp1915
g74
g75
ssg63
g1909
sg56
(lp1916
S'wsgi_version'
p1917
asbag49
(g70
g51
NtRp1918
(dp1919
g54
(dp1920
g81
g82
ssg63
g1909
sg56
(lp1921
S':'
asbag49
(g70
g51
NtRp1922
(dp1923
g54
(dp1924
sg63
g1909
sg56
(lp1925
g49
(g50
g51
NtRp1926
(dp1927
g54
(dp1928
g62
I4
ssg63
g1922
sg56
(lp1929
g49
(g58
g51
NtRp1930
(dp1931
g54
(dp1932
g62
I3
ssg63
Nsg56
(lp1933
g49
(g65
g51
NtRp1934
(dp1935
g54
(dp1936
sg63
g1930
sg56
(lp1937
g49
(g70
g51
NtRp1938
(dp1939
g54
(dp1940
sg63
g1934
sg56
(lp1941
g49
(g50
g51
NtRp1942
(dp1943
g54
(dp1944
g62
I3
ssg63
g1938
sg56
(lp1945
S'1'
asbasbasbag49
(g65
g51
NtRp1946
(dp1947
g54
(dp1948
sg63
g1930
sg56
(lp1949
g49
(g70
g51
NtRp1950
(dp1951
g54
(dp1952
sg63
g1946
sg56
(lp1953
g49
(g50
g51
NtRp1954
(dp1955
g54
(dp1956
g62
I3
ssg63
g1950
sg56
(lp1957
S'0'
asbasbasbasbasbasbasbasbasbasbasbag49
(g65
g51
NtRp1958
(dp1959
g54
(dp1960
sg63
g59
sg56
(lp1961
g49
(g70
g51
NtRp1962
(dp1963
g54
(dp1964
g74
g75
ssg63
g1958
sg56
(lp1965
S'extension'
p1966
asbag49
(g70
g51
NtRp1967
(dp1968
g54
(dp1969
g81
g82
ssg63
g1958
sg56
(lp1970
S':'
asbag49
(g70
g51
NtRp1971
(dp1972
g54
(dp1973
sg63
g1958
sg56
(lp1974
g49
(g50
g51
NtRp1975
(dp1976
g54
(dp1977
g62
I5
ssg63
g1971
sg56
(lp1978
S'html'
p1979
asbasbasbag49
(g65
g51
NtRp1980
(dp1981
g54
(dp1982
sg63
g59
sg56
(lp1983
g49
(g70
g51
NtRp1984
(dp1985
g54
(dp1986
g74
g75
ssg63
g1980
sg56
(lp1987
S'folder'
p1988
asbag49
(g70
g51
NtRp1989
(dp1990
g54
(dp1991
g81
g82
ssg63
g1980
sg56
(lp1992
S':'
asbag49
(g70
g51
NtRp1993
(dp1994
g54
(dp1995
sg63
g1980
sg56
(lp1996
g49
(g50
g51
NtRp1997
(dp1998
g54
(dp1999
g62
I5
ssg63
g1993
sg56
(lp2000
S'/Users/abaric/Downloads/web2py/web2py.app/Contents/Resources/applications/Final_Impulse/'
p2001
asbasbasbag49
(g65
g51
NtRp2002
(dp2003
g54
(dp2004
sg63
g59
sg56
(lp2005
g49
(g70
g51
NtRp2006
(dp2007
g54
(dp2008
g74
g75
ssg63
g2002
sg56
(lp2009
S'function'
p2010
asbag49
(g70
g51
NtRp2011
(dp2012
g54
(dp2013
g81
g82
ssg63
g2002
sg56
(lp2014
S':'
asbag49
(g70
g51
NtRp2015
(dp2016
g54
(dp2017
sg63
g2002
sg56
(lp2018
g49
(g50
g51
NtRp2019
(dp2020
g54
(dp2021
g62
I5
ssg63
g2015
sg56
(lp2022
S'show_image_comments'
p2023
asbasbasbag49
(g65
g51
NtRp2024
(dp2025
g54
(dp2026
sg63
g59
sg56
(lp2027
g49
(g70
g51
NtRp2028
(dp2029
g54
(dp2030
g74
g75
ssg63
g2024
sg56
(lp2031
S'get_vars'
p2032
asbag49
(g70
g51
NtRp2033
(dp2034
g54
(dp2035
g81
g82
ssg63
g2024
sg56
(lp2036
S':'
asbag49
(g70
g51
NtRp2037
(dp2038
g54
(dp2039
sg63
g2024
sg56
(lp2040
g49
(g50
g51
NtRp2041
(dp2042
g54
(dp2043
g62
I5
ssg63
g2037
sg56
(lp2044
g49
(g58
g51
NtRp2045
(dp2046
g54
(dp2047
g62
I4
ssg63
Nsg56
(lp2048
sbasbasbasbag49
(g65
g51
NtRp2049
(dp2050
g54
(dp2051
sg63
g59
sg56
(lp2052
g49
(g70
g51
NtRp2053
(dp2054
g54
(dp2055
g74
g75
ssg63
g2049
sg56
(lp2056
S'global_settings'
p2057
asbag49
(g70
g51
NtRp2058
(dp2059
g54
(dp2060
g81
g82
ssg63
g2049
sg56
(lp2061
S':'
asbag49
(g70
g51
NtRp2062
(dp2063
g54
(dp2064
sg63
g2049
sg56
(lp2065
g49
(g50
g51
NtRp2066
(dp2067
g54
(dp2068
g62
I5
ssg63
g2062
sg56
(lp2069
g49
(g58
g51
NtRp2070
(dp2071
g54
(dp2072
g62
I4
ssg63
Nsg56
(lp2073
g49
(g65
g51
NtRp2074
(dp2075
g54
(dp2076
sg63
g2070
sg56
(lp2077
g49
(g70
g51
NtRp2078
(dp2079
g54
(dp2080
g74
g75
ssg63
g2074
sg56
(lp2081
g956
asbag49
(g70
g51
NtRp2082
(dp2083
g54
(dp2084
g81
g82
ssg63
g2074
sg56
(lp2085
S':'
asbag49
(g70
g51
NtRp2086
(dp2087
g54
(dp2088
sg63
g2074
sg56
(lp2089
g49
(g50
g51
NtRp2090
(dp2091
g54
(dp2092
g62
I4
ssg63
g2086
sg56
(lp2093
S"set(['/Users/abaric/Downloads/web2py/web2py.app/Contents/Resources/applications/examples/', '/Users/abaric/Downloads/web2py/web2py.app/Contents/Resources/applications/Final_Impulse/', '/Users/abaric/Downloads/web2py/web2py.app/Contents/Resources/applications/Impulse_Online2/', '/Users/abaric/Downloads/web2py/web2py.app/Contents/Resources/applications/welcome/', '/Users/abaric/Downloads/web2py/web2py.app/Contents/Resources/applications/admin/'])"
p2094
asbasbasbag49
(g65
g51
NtRp2095
(dp2096
g54
(dp2097
sg63
g2070
sg56
(lp2098
g49
(g70
g51
NtRp2099
(dp2100
g54
(dp2101
g74
g75
ssg63
g2095
sg56
(lp2102
g978
asbag49
(g70
g51
NtRp2103
(dp2104
g54
(dp2105
g81
g82
ssg63
g2095
sg56
(lp2106
S':'
asbag49
(g70
g51
NtRp2107
(dp2108
g54
(dp2109
sg63
g2095
sg56
(lp2110
g49
(g50
g51
NtRp2111
(dp2112
g54
(dp2113
g62
I4
ssg63
g2107
sg56
(lp2114
g991
asbasbasbag49
(g65
g51
NtRp2115
(dp2116
g54
(dp2117
sg63
g2070
sg56
(lp2118
g49
(g70
g51
NtRp2119
(dp2120
g54
(dp2121
g74
g75
ssg63
g2115
sg56
(lp2122
g1000
asbag49
(g70
g51
NtRp2123
(dp2124
g54
(dp2125
g81
g82
ssg63
g2115
sg56
(lp2126
S':'
asbag49
(g70
g51
NtRp2127
(dp2128
g54
(dp2129
sg63
g2115
sg56
(lp2130
g49
(g50
g51
NtRp2131
(dp2132
g54
(dp2133
g62
I4
ssg63
g2127
sg56
(lp2134
g49
(g58
g51
NtRp2135
(dp2136
g54
(dp2137
g62
I3
ssg63
Nsg56
(lp2138
sbasbasbasbag49
(g65
g51
NtRp2139
(dp2140
g54
(dp2141
sg63
g2070
sg56
(lp2142
g49
(g70
g51
NtRp2143
(dp2144
g54
(dp2145
g74
g75
ssg63
g2139
sg56
(lp2146
g1025
asbag49
(g70
g51
NtRp2147
(dp2148
g54
(dp2149
g81
g82
ssg63
g2139
sg56
(lp2150
S':'
asbag49
(g70
g51
NtRp2151
(dp2152
g54
(dp2153
sg63
g2139
sg56
(lp2154
g49
(g50
g51
NtRp2155
(dp2156
g54
(dp2157
g62
I4
ssg63
g2151
sg56
(lp2158
S"<Values at 0x442e238: {'verbose': False, 'ip': '127.0.0.1', 'with_scheduler': False, 'ips': ['192.168.1.5'], 'shutdown_timeout': 5, 'taskbar': False, 'port': 8000, 'maxthreads': None, 'softcron': False, 'server_name': 'new-host.home', 'bpython': False, 'nogui': False, 'pid_filename': 'httpserver.pid', 'extcron': False, 'runcron': False, 'run_system_tests': False, 'test': None, 'folder': '/Users/abaric/Downloads/web2py/web2py.app/Contents/Resources', 'config': '', 'import_models': False, 'winservice': '', 'shell': None, 'run': '', 'log_filename': 'httpserver.log', 'debuglevel': 30, 'args': [''], 'socket_timeout': 5, 'ssl_ca_certificate': None, 'scheduler': None, 'profiler_filename': None, 'ssl_private_key': '', 'scheduler_groups': None, 'password': '<ask>', 'request_queue_size': 5, 'ssl_certificate': '', 'cronjob': False, 'numthreads': None, 'quiet': False, 'interfaces': None, 'minthreads': None, 'timeout': 10, 'plain': False, 'nobanner': False}>"
p2159
asbasbasbag49
(g65
g51
NtRp2160
(dp2161
g54
(dp2162
sg63
g2070
sg56
(lp2163
g49
(g70
g51
NtRp2164
(dp2165
g54
(dp2166
g74
g75
ssg63
g2160
sg56
(lp2167
g1047
asbag49
(g70
g51
NtRp2168
(dp2169
g54
(dp2170
g81
g82
ssg63
g2160
sg56
(lp2171
S':'
asbag49
(g70
g51
NtRp2172
(dp2173
g54
(dp2174
sg63
g2160
sg56
(lp2175
g49
(g50
g51
NtRp2176
(dp2177
g54
(dp2178
g62
I4
ssg63
g2172
sg56
(lp2179
S'set([])'
p2180
asbasbasbag49
(g65
g51
NtRp2181
(dp2182
g54
(dp2183
sg63
g2070
sg56
(lp2184
g49
(g70
g51
NtRp2185
(dp2186
g54
(dp2187
g74
g75
ssg63
g2181
sg56
(lp2188
g1069
asbag49
(g70
g51
NtRp2189
(dp2190
g54
(dp2191
g81
g82
ssg63
g2181
sg56
(lp2192
S':'
asbag49
(g70
g51
NtRp2193
(dp2194
g54
(dp2195
sg63
g2181
sg56
(lp2196
g49
(g50
g51
NtRp2197
(dp2198
g54
(dp2199
g62
I4
ssg63
g2193
sg56
(lp2200
g92
asbasbasbag49
(g65
g51
NtRp2201
(dp2202
g54
(dp2203
sg63
g2070
sg56
(lp2204
g49
(g70
g51
NtRp2205
(dp2206
g54
(dp2207
g74
g75
ssg63
g2201
sg56
(lp2208
g1090
asbag49
(g70
g51
NtRp2209
(dp2210
g54
(dp2211
g81
g82
ssg63
g2201
sg56
(lp2212
S':'
asbag49
(g70
g51
NtRp2213
(dp2214
g54
(dp2215
sg63
g2201
sg56
(lp2216
g49
(g50
g51
NtRp2217
(dp2218
g54
(dp2219
g62
I4
ssg63
g2213
sg56
(lp2220
g1103
asbasbasbag49
(g65
g51
NtRp2221
(dp2222
g54
(dp2223
sg63
g2070
sg56
(lp2224
g49
(g70
g51
NtRp2225
(dp2226
g54
(dp2227
g74
g75
ssg63
g2221
sg56
(lp2228
g1288
asbag49
(g70
g51
NtRp2229
(dp2230
g54
(dp2231
g81
g82
ssg63
g2221
sg56
(lp2232
S':'
asbag49
(g70
g51
NtRp2233
(dp2234
g54
(dp2235
sg63
g2221
sg56
(lp2236
g49
(g50
g51
NtRp2237
(dp2238
g54
(dp2239
g62
I4
ssg63
g2233
sg56
(lp2240
g92
asbasbasbag49
(g65
g51
NtRp2241
(dp2242
g54
(dp2243
sg63
g2070
sg56
(lp2244
g49
(g70
g51
NtRp2245
(dp2246
g54
(dp2247
g74
g75
ssg63
g2241
sg56
(lp2248
g1309
asbag49
(g70
g51
NtRp2249
(dp2250
g54
(dp2251
g81
g82
ssg63
g2241
sg56
(lp2252
S':'
asbag49
(g70
g51
NtRp2253
(dp2254
g54
(dp2255
sg63
g2241
sg56
(lp2256
g49
(g50
g51
NtRp2257
(dp2258
g54
(dp2259
g62
I4
ssg63
g2253
sg56
(lp2260
g92
asbasbasbag49
(g65
g51
NtRp2261
(dp2262
g54
(dp2263
sg63
g2070
sg56
(lp2264
g49
(g70
g51
NtRp2265
(dp2266
g54
(dp2267
g74
g75
ssg63
g2261
sg56
(lp2268
g1330
asbag49
(g70
g51
NtRp2269
(dp2270
g54
(dp2271
g81
g82
ssg63
g2261
sg56
(lp2272
S':'
asbag49
(g70
g51
NtRp2273
(dp2274
g54
(dp2275
sg63
g2261
sg56
(lp2276
g49
(g50
g51
NtRp2277
(dp2278
g54
(dp2279
g62
I4
ssg63
g2273
sg56
(lp2280
g49
(g58
g51
NtRp2281
(dp2282
g54
(dp2283
g62
I3
ssg63
Nsg56
(lp2284
g49
(g65
g51
NtRp2285
(dp2286
g54
(dp2287
sg63
g2281
sg56
(lp2288
g49
(g70
g51
NtRp2289
(dp2290
g54
(dp2291
sg63
g2285
sg56
(lp2292
g49
(g50
g51
NtRp2293
(dp2294
g54
(dp2295
g62
I3
ssg63
g2289
sg56
(lp2296
g1359
asbasbasbag49
(g65
g51
NtRp2297
(dp2298
g54
(dp2299
sg63
g2281
sg56
(lp2300
g49
(g70
g51
NtRp2301
(dp2302
g54
(dp2303
sg63
g2297
sg56
(lp2304
g49
(g50
g51
NtRp2305
(dp2306
g54
(dp2307
g62
I3
ssg63
g2301
sg56
(lp2308
g1372
asbasbasbag49
(g65
g51
NtRp2309
(dp2310
g54
(dp2311
sg63
g2281
sg56
(lp2312
g49
(g70
g51
NtRp2313
(dp2314
g54
(dp2315
sg63
g2309
sg56
(lp2316
g49
(g50
g51
NtRp2317
(dp2318
g54
(dp2319
g62
I3
ssg63
g2313
sg56
(lp2320
g1385
asbasbasbag49
(g65
g51
NtRp2321
(dp2322
g54
(dp2323
sg63
g2281
sg56
(lp2324
g49
(g70
g51
NtRp2325
(dp2326
g54
(dp2327
sg63
g2321
sg56
(lp2328
g49
(g50
g51
NtRp2329
(dp2330
g54
(dp2331
g62
I3
ssg63
g2325
sg56
(lp2332
g1398
asbasbasbag49
(g65
g51
NtRp2333
(dp2334
g54
(dp2335
sg63
g2281
sg56
(lp2336
g49
(g70
g51
NtRp2337
(dp2338
g54
(dp2339
sg63
g2333
sg56
(lp2340
g49
(g50
g51
NtRp2341
(dp2342
g54
(dp2343
g62
I3
ssg63
g2337
sg56
(lp2344
g1411
asbasbasbasbasbasbasbag49
(g65
g51
NtRp2345
(dp2346
g54
(dp2347
sg63
g2070
sg56
(lp2348
g49
(g70
g51
NtRp2349
(dp2350
g54
(dp2351
g74
g75
ssg63
g2345
sg56
(lp2352
g1678
asbag49
(g70
g51
NtRp2353
(dp2354
g54
(dp2355
g81
g82
ssg63
g2345
sg56
(lp2356
S':'
asbag49
(g70
g51
NtRp2357
(dp2358
g54
(dp2359
sg63
g2345
sg56
(lp2360
g49
(g50
g51
NtRp2361
(dp2362
g54
(dp2363
g62
I4
ssg63
g2357
sg56
(lp2364
g49
(g58
g51
NtRp2365
(dp2366
g54
(dp2367
g62
I3
ssg63
Nsg56
(lp2368
g49
(g65
g51
NtRp2369
(dp2370
g54
(dp2371
sg63
g2365
sg56
(lp2372
g49
(g70
g51
NtRp2373
(dp2374
g54
(dp2375
sg63
g2369
sg56
(lp2376
g49
(g50
g51
NtRp2377
(dp2378
g54
(dp2379
g62
I3
ssg63
g2373
sg56
(lp2380
S'2'
asbasbasbag49
(g65
g51
NtRp2381
(dp2382
g54
(dp2383
sg63
g2365
sg56
(lp2384
g49
(g70
g51
NtRp2385
(dp2386
g54
(dp2387
sg63
g2381
sg56
(lp2388
g49
(g50
g51
NtRp2389
(dp2390
g54
(dp2391
g62
I3
ssg63
g2385
sg56
(lp2392
S'2'
asbasbasbag49
(g65
g51
NtRp2393
(dp2394
g54
(dp2395
sg63
g2365
sg56
(lp2396
g49
(g70
g51
NtRp2397
(dp2398
g54
(dp2399
sg63
g2393
sg56
(lp2400
g49
(g50
g51
NtRp2401
(dp2402
g54
(dp2403
g62
I3
ssg63
g2397
sg56
(lp2404
S'1'
asbasbasbag49
(g65
g51
NtRp2405
(dp2406
g54
(dp2407
sg63
g2365
sg56
(lp2408
g49
(g70
g51
NtRp2409
(dp2410
g54
(dp2411
sg63
g2405
sg56
(lp2412
g49
(g50
g51
NtRp2413
(dp2414
g54
(dp2415
g62
I3
ssg63
g2409
sg56
(lp2416
S'datetime.datetime(2012, 10, 21, 16, 57, 4)'
p2417
asbasbasbag49
(g65
g51
NtRp2418
(dp2419
g54
(dp2420
sg63
g2365
sg56
(lp2421
g49
(g70
g51
NtRp2422
(dp2423
g54
(dp2424
sg63
g2418
sg56
(lp2425
g49
(g50
g51
NtRp2426
(dp2427
g54
(dp2428
g62
I3
ssg63
g2422
sg56
(lp2429
g1756
asbasbasbasbasbasbasbasbasbasbasbag49
(g65
g51
NtRp2430
(dp2431
g54
(dp2432
sg63
g59
sg56
(lp2433
g49
(g70
g51
NtRp2434
(dp2435
g54
(dp2436
g74
g75
ssg63
g2430
sg56
(lp2437
S'is_https'
p2438
asbag49
(g70
g51
NtRp2439
(dp2440
g54
(dp2441
g81
g82
ssg63
g2430
sg56
(lp2442
S':'
asbag49
(g70
g51
NtRp2443
(dp2444
g54
(dp2445
sg63
g2430
sg56
(lp2446
g49
(g50
g51
NtRp2447
(dp2448
g54
(dp2449
g62
I5
ssg63
g2443
sg56
(lp2450
g92
asbasbasbag49
(g65
g51
NtRp2451
(dp2452
g54
(dp2453
sg63
g59
sg56
(lp2454
g49
(g70
g51
NtRp2455
(dp2456
g54
(dp2457
g74
g75
ssg63
g2451
sg56
(lp2458
S'is_local'
p2459
asbag49
(g70
g51
NtRp2460
(dp2461
g54
(dp2462
g81
g82
ssg63
g2451
sg56
(lp2463
S':'
asbag49
(g70
g51
NtRp2464
(dp2465
g54
(dp2466
sg63
g2451
sg56
(lp2467
g49
(g50
g51
NtRp2468
(dp2469
g54
(dp2470
g62
I5
ssg63
g2464
sg56
(lp2471
g1865
asbasbasbag49
(g65
g51
NtRp2472
(dp2473
g54
(dp2474
sg63
g59
sg56
(lp2475
g49
(g70
g51
NtRp2476
(dp2477
g54
(dp2478
g74
g75
ssg63
g2472
sg56
(lp2479
S'is_restful'
p2480
asbag49
(g70
g51
NtRp2481
(dp2482
g54
(dp2483
g81
g82
ssg63
g2472
sg56
(lp2484
S':'
asbag49
(g70
g51
NtRp2485
(dp2486
g54
(dp2487
sg63
g2472
sg56
(lp2488
g49
(g50
g51
NtRp2489
(dp2490
g54
(dp2491
g62
I5
ssg63
g2485
sg56
(lp2492
g92
asbasbasbag49
(g65
g51
NtRp2493
(dp2494
g54
(dp2495
sg63
g59
sg56
(lp2496
g49
(g70
g51
NtRp2497
(dp2498
g54
(dp2499
g74
g75
ssg63
g2493
sg56
(lp2500
S'now'
p2501
asbag49
(g70
g51
NtRp2502
(dp2503
g54
(dp2504
g81
g82
ssg63
g2493
sg56
(lp2505
S':'
asbag49
(g70
g51
NtRp2506
(dp2507
g54
(dp2508
sg63
g2493
sg56
(lp2509
g49
(g50
g51
NtRp2510
(dp2511
g54
(dp2512
g62
I5
ssg63
g2506
sg56
(lp2513
S'datetime.datetime(2014, 3, 30, 0, 7, 58, 571071)'
p2514
asbasbasbag49
(g65
g51
NtRp2515
(dp2516
g54
(dp2517
sg63
g59
sg56
(lp2518
g49
(g70
g51
NtRp2519
(dp2520
g54
(dp2521
g74
g75
ssg63
g2515
sg56
(lp2522
S'post_vars'
p2523
asbag49
(g70
g51
NtRp2524
(dp2525
g54
(dp2526
g81
g82
ssg63
g2515
sg56
(lp2527
S':'
asbag49
(g70
g51
NtRp2528
(dp2529
g54
(dp2530
sg63
g2515
sg56
(lp2531
g49
(g50
g51
NtRp2532
(dp2533
g54
(dp2534
g62
I5
ssg63
g2528
sg56
(lp2535
g49
(g58
g51
NtRp2536
(dp2537
g54
(dp2538
g62
I4
ssg63
Nsg56
(lp2539
sbasbasbasbag49
(g65
g51
NtRp2540
(dp2541
g54
(dp2542
sg63
g59
sg56
(lp2543
g49
(g70
g51
NtRp2544
(dp2545
g54
(dp2546
g74
g75
ssg63
g2540
sg56
(lp2547
S'raw_args'
p2548
asbag49
(g70
g51
NtRp2549
(dp2550
g54
(dp2551
g81
g82
ssg63
g2540
sg56
(lp2552
S':'
asbag49
(g70
g51
NtRp2553
(dp2554
g54
(dp2555
sg63
g2540
sg56
(lp2556
g49
(g50
g51
NtRp2557
(dp2558
g54
(dp2559
g62
I5
ssg63
g2553
sg56
(lp2560
S''
asbasbasbag49
(g65
g51
NtRp2561
(dp2562
g54
(dp2563
sg63
g59
sg56
(lp2564
g49
(g70
g51
NtRp2565
(dp2566
g54
(dp2567
g74
g75
ssg63
g2561
sg56
(lp2568
S'raw_extension'
p2569
asbag49
(g70
g51
NtRp2570
(dp2571
g54
(dp2572
g81
g82
ssg63
g2561
sg56
(lp2573
S':'
asbag49
(g70
g51
NtRp2574
(dp2575
g54
(dp2576
sg63
g2561
sg56
(lp2577
g49
(g50
g51
NtRp2578
(dp2579
g54
(dp2580
g62
I5
ssg63
g2574
sg56
(lp2581
S'None'
p2582
asbasbasbag49
(g65
g51
NtRp2583
(dp2584
g54
(dp2585
sg63
g59
sg56
(lp2586
g49
(g70
g51
NtRp2587
(dp2588
g54
(dp2589
g74
g75
ssg63
g2583
sg56
(lp2590
S'url'
p2591
asbag49
(g70
g51
NtRp2592
(dp2593
g54
(dp2594
g81
g82
ssg63
g2583
sg56
(lp2595
S':'
asbag49
(g70
g51
NtRp2596
(dp2597
g54
(dp2598
sg63
g2583
sg56
(lp2599
g49
(g50
g51
NtRp2600
(dp2601
g54
(dp2602
g62
I5
ssg63
g2596
sg56
(lp2603
g1433
asbasbasbag49
(g65
g51
NtRp2604
(dp2605
g54
(dp2606
sg63
g59
sg56
(lp2607
g49
(g70
g51
NtRp2608
(dp2609
g54
(dp2610
g74
g75
ssg63
g2604
sg56
(lp2611
S'utcnow'
p2612
asbag49
(g70
g51
NtRp2613
(dp2614
g54
(dp2615
g81
g82
ssg63
g2604
sg56
(lp2616
S':'
asbag49
(g70
g51
NtRp2617
(dp2618
g54
(dp2619
sg63
g2604
sg56
(lp2620
g49
(g50
g51
NtRp2621
(dp2622
g54
(dp2623
g62
I5
ssg63
g2617
sg56
(lp2624
S'datetime.datetime(2014, 3, 30, 4, 7, 58, 571087)'
p2625
asbasbasbag49
(g65
g51
NtRp2626
(dp2627
g54
(dp2628
sg63
g59
sg56
(lp2629
g49
(g70
g51
NtRp2630
(dp2631
g54
(dp2632
g74
g75
ssg63
g2626
sg56
(lp2633
S'uuid'
p2634
asbag49
(g70
g51
NtRp2635
(dp2636
g54
(dp2637
g81
g82
ssg63
g2626
sg56
(lp2638
S':'
asbag49
(g70
g51
NtRp2639
(dp2640
g54
(dp2641
sg63
g2626
sg56
(lp2642
g49
(g50
g51
NtRp2643
(dp2644
g54
(dp2645
g62
I5
ssg63
g2639
sg56
(lp2646
S'Final_Impulse/127.0.0.1.2014-03-30.00-07-58.b40f8349-b3aa-4993-89d8-4d7c2e8f6e4c'
p2647
asbasbasbag49
(g65
g51
NtRp2648
(dp2649
g54
(dp2650
sg63
g59
sg56
(lp2651
g49
(g70
g51
NtRp2652
(dp2653
g54
(dp2654
g74
g75
ssg63
g2648
sg56
(lp2655
S'vars'
p2656
asbag49
(g70
g51
NtRp2657
(dp2658
g54
(dp2659
g81
g82
ssg63
g2648
sg56
(lp2660
S':'
asbag49
(g70
g51
NtRp2661
(dp2662
g54
(dp2663
sg63
g2648
sg56
(lp2664
g49
(g50
g51
NtRp2665
(dp2666
g54
(dp2667
g62
I5
ssg63
g2661
sg56
(lp2668
g49
(g58
g51
NtRp2669
(dp2670
g54
(dp2671
g62
I4
ssg63
Nsg56
(lp2672
sbasbasbasbag49
(g65
g51
NtRp2673
(dp2674
g54
(dp2675
sg63
g59
sg56
(lp2676
g49
(g70
g51
NtRp2677
(dp2678
g54
(dp2679
g74
g75
ssg63
g2673
sg56
(lp2680
S'wsgi'
p2681
asbag49
(g70
g51
NtRp2682
(dp2683
g54
(dp2684
g81
g82
ssg63
g2673
sg56
(lp2685
S':'
asbag49
(g70
g51
NtRp2686
(dp2687
g54
(dp2688
sg63
g2673
sg56
(lp2689
g49
(g50
g51
NtRp2690
(dp2691
g54
(dp2692
g62
I5
ssg63
g2686
sg56
(lp2693
g49
(g58
g51
NtRp2694
(dp2695
g54
(dp2696
g62
I4
ssg63
Nsg56
(lp2697
g49
(g65
g51
NtRp2698
(dp2699
g54
(dp2700
sg63
g2694
sg56
(lp2701
g49
(g70
g51
NtRp2702
(dp2703
g54
(dp2704
g74
g75
ssg63
g2698
sg56
(lp2705
S'environ'
p2706
asbag49
(g70
g51
NtRp2707
(dp2708
g54
(dp2709
g81
g82
ssg63
g2698
sg56
(lp2710
S':'
asbag49
(g70
g51
NtRp2711
(dp2712
g54
(dp2713
sg63
g2698
sg56
(lp2714
g49
(g50
g51
NtRp2715
(dp2716
g54
(dp2717
g62
I4
ssg63
g2711
sg56
(lp2718
g49
(g58
g51
NtRp2719
(dp2720
g54
(dp2721
g62
I3
ssg63
Nsg56
(lp2722
g49
(g65
g51
NtRp2723
(dp2724
g54
(dp2725
sg63
g2719
sg56
(lp2726
g49
(g70
g51
NtRp2727
(dp2728
g54
(dp2729
g74
g75
ssg63
g2723
sg56
(lp2730
S'HTTP_ACCEPT'
p2731
asbag49
(g70
g51
NtRp2732
(dp2733
g54
(dp2734
g81
g82
ssg63
g2723
sg56
(lp2735
S':'
asbag49
(g70
g51
NtRp2736
(dp2737
g54
(dp2738
sg63
g2723
sg56
(lp2739
g49
(g50
g51
NtRp2740
(dp2741
g54
(dp2742
g62
I3
ssg63
g2736
sg56
(lp2743
g1125
asbasbasbag49
(g65
g51
NtRp2744
(dp2745
g54
(dp2746
sg63
g2719
sg56
(lp2747
g49
(g70
g51
NtRp2748
(dp2749
g54
(dp2750
g74
g75
ssg63
g2744
sg56
(lp2751
S'HTTP_ACCEPT_ENCODING'
p2752
asbag49
(g70
g51
NtRp2753
(dp2754
g54
(dp2755
g81
g82
ssg63
g2744
sg56
(lp2756
S':'
asbag49
(g70
g51
NtRp2757
(dp2758
g54
(dp2759
sg63
g2744
sg56
(lp2760
g49
(g50
g51
NtRp2761
(dp2762
g54
(dp2763
g62
I3
ssg63
g2757
sg56
(lp2764
g1147
asbasbasbag49
(g65
g51
NtRp2765
(dp2766
g54
(dp2767
sg63
g2719
sg56
(lp2768
g49
(g70
g51
NtRp2769
(dp2770
g54
(dp2771
g74
g75
ssg63
g2765
sg56
(lp2772
S'HTTP_ACCEPT_LANGUAGE'
p2773
asbag49
(g70
g51
NtRp2774
(dp2775
g54
(dp2776
g81
g82
ssg63
g2765
sg56
(lp2777
S':'
asbag49
(g70
g51
NtRp2778
(dp2779
g54
(dp2780
sg63
g2765
sg56
(lp2781
g49
(g50
g51
NtRp2782
(dp2783
g54
(dp2784
g62
I3
ssg63
g2778
sg56
(lp2785
g1169
asbasbasbag49
(g65
g51
NtRp2786
(dp2787
g54
(dp2788
sg63
g2719
sg56
(lp2789
g49
(g70
g51
NtRp2790
(dp2791
g54
(dp2792
g74
g75
ssg63
g2786
sg56
(lp2793
S'HTTP_CONNECTION'
p2794
asbag49
(g70
g51
NtRp2795
(dp2796
g54
(dp2797
g81
g82
ssg63
g2786
sg56
(lp2798
S':'
asbag49
(g70
g51
NtRp2799
(dp2800
g54
(dp2801
sg63
g2786
sg56
(lp2802
g49
(g50
g51
NtRp2803
(dp2804
g54
(dp2805
g62
I3
ssg63
g2799
sg56
(lp2806
g1191
asbasbasbag49
(g65
g51
NtRp2807
(dp2808
g54
(dp2809
sg63
g2719
sg56
(lp2810
g49
(g70
g51
NtRp2811
(dp2812
g54
(dp2813
g74
g75
ssg63
g2807
sg56
(lp2814
S'HTTP_COOKIE'
p2815
asbag49
(g70
g51
NtRp2816
(dp2817
g54
(dp2818
g81
g82
ssg63
g2807
sg56
(lp2819
S':'
asbag49
(g70
g51
NtRp2820
(dp2821
g54
(dp2822
sg63
g2807
sg56
(lp2823
g49
(g50
g51
NtRp2824
(dp2825
g54
(dp2826
g62
I3
ssg63
g2820
sg56
(lp2827
g1213
asbasbasbag49
(g65
g51
NtRp2828
(dp2829
g54
(dp2830
sg63
g2719
sg56
(lp2831
g49
(g70
g51
NtRp2832
(dp2833
g54
(dp2834
g74
g75
ssg63
g2828
sg56
(lp2835
S'HTTP_HOST'
p2836
asbag49
(g70
g51
NtRp2837
(dp2838
g54
(dp2839
g81
g82
ssg63
g2828
sg56
(lp2840
S':'
asbag49
(g70
g51
NtRp2841
(dp2842
g54
(dp2843
sg63
g2828
sg56
(lp2844
g49
(g50
g51
NtRp2845
(dp2846
g54
(dp2847
g62
I3
ssg63
g2841
sg56
(lp2848
g1235
asbasbasbag49
(g65
g51
NtRp2849
(dp2850
g54
(dp2851
sg63
g2719
sg56
(lp2852
g49
(g70
g51
NtRp2853
(dp2854
g54
(dp2855
g74
g75
ssg63
g2849
sg56
(lp2856
S'HTTP_REFERER'
p2857
asbag49
(g70
g51
NtRp2858
(dp2859
g54
(dp2860
g81
g82
ssg63
g2849
sg56
(lp2861
S':'
asbag49
(g70
g51
NtRp2862
(dp2863
g54
(dp2864
sg63
g2849
sg56
(lp2865
g49
(g50
g51
NtRp2866
(dp2867
g54
(dp2868
g62
I3
ssg63
g2862
sg56
(lp2869
g1257
asbasbasbag49
(g65
g51
NtRp2870
(dp2871
g54
(dp2872
sg63
g2719
sg56
(lp2873
g49
(g70
g51
NtRp2874
(dp2875
g54
(dp2876
g74
g75
ssg63
g2870
sg56
(lp2877
S'HTTP_USER_AGENT'
p2878
asbag49
(g70
g51
NtRp2879
(dp2880
g54
(dp2881
g81
g82
ssg63
g2870
sg56
(lp2882
S':'
asbag49
(g70
g51
NtRp2883
(dp2884
g54
(dp2885
sg63
g2870
sg56
(lp2886
g49
(g50
g51
NtRp2887
(dp2888
g54
(dp2889
g62
I3
ssg63
g2883
sg56
(lp2890
g1279
asbasbasbag49
(g65
g51
NtRp2891
(dp2892
g54
(dp2893
sg63
g2719
sg56
(lp2894
g49
(g70
g51
NtRp2895
(dp2896
g54
(dp2897
g74
g75
ssg63
g2891
sg56
(lp2898
S'PATH_INFO'
p2899
asbag49
(g70
g51
NtRp2900
(dp2901
g54
(dp2902
g81
g82
ssg63
g2891
sg56
(lp2903
S':'
asbag49
(g70
g51
NtRp2904
(dp2905
g54
(dp2906
sg63
g2891
sg56
(lp2907
g49
(g50
g51
NtRp2908
(dp2909
g54
(dp2910
g62
I3
ssg63
g2904
sg56
(lp2911
g1433
asbasbasbag49
(g65
g51
NtRp2912
(dp2913
g54
(dp2914
sg63
g2719
sg56
(lp2915
g49
(g70
g51
NtRp2916
(dp2917
g54
(dp2918
g74
g75
ssg63
g2912
sg56
(lp2919
S'QUERY_STRING'
p2920
asbag49
(g70
g51
NtRp2921
(dp2922
g54
(dp2923
g81
g82
ssg63
g2912
sg56
(lp2924
S':'
asbag49
(g70
g51
NtRp2925
(dp2926
g54
(dp2927
sg63
g2912
sg56
(lp2928
g49
(g50
g51
NtRp2929
(dp2930
g54
(dp2931
g62
I3
ssg63
g2925
sg56
(lp2932
S''
asbasbasbag49
(g65
g51
NtRp2933
(dp2934
g54
(dp2935
sg63
g2719
sg56
(lp2936
g49
(g70
g51
NtRp2937
(dp2938
g54
(dp2939
g74
g75
ssg63
g2933
sg56
(lp2940
S'REMOTE_ADDR'
p2941
asbag49
(g70
g51
NtRp2942
(dp2943
g54
(dp2944
g81
g82
ssg63
g2933
sg56
(lp2945
S':'
asbag49
(g70
g51
NtRp2946
(dp2947
g54
(dp2948
sg63
g2933
sg56
(lp2949
g49
(g50
g51
NtRp2950
(dp2951
g54
(dp2952
g62
I3
ssg63
g2946
sg56
(lp2953
g204
asbasbasbag49
(g65
g51
NtRp2954
(dp2955
g54
(dp2956
sg63
g2719
sg56
(lp2957
g49
(g70
g51
NtRp2958
(dp2959
g54
(dp2960
g74
g75
ssg63
g2954
sg56
(lp2961
S'REMOTE_PORT'
p2962
asbag49
(g70
g51
NtRp2963
(dp2964
g54
(dp2965
g81
g82
ssg63
g2954
sg56
(lp2966
S':'
asbag49
(g70
g51
NtRp2967
(dp2968
g54
(dp2969
sg63
g2954
sg56
(lp2970
g49
(g50
g51
NtRp2971
(dp2972
g54
(dp2973
g62
I3
ssg63
g2967
sg56
(lp2974
g1497
asbasbasbag49
(g65
g51
NtRp2975
(dp2976
g54
(dp2977
sg63
g2719
sg56
(lp2978
g49
(g70
g51
NtRp2979
(dp2980
g54
(dp2981
g74
g75
ssg63
g2975
sg56
(lp2982
S'REQUEST_METHOD'
p2983
asbag49
(g70
g51
NtRp2984
(dp2985
g54
(dp2986
g81
g82
ssg63
g2975
sg56
(lp2987
S':'
asbag49
(g70
g51
NtRp2988
(dp2989
g54
(dp2990
sg63
g2975
sg56
(lp2991
g49
(g50
g51
NtRp2992
(dp2993
g54
(dp2994
g62
I3
ssg63
g2988
sg56
(lp2995
g1519
asbasbasbag49
(g65
g51
NtRp2996
(dp2997
g54
(dp2998
sg63
g2719
sg56
(lp2999
g49
(g70
g51
NtRp3000
(dp3001
g54
(dp3002
g74
g75
ssg63
g2996
sg56
(lp3003
S'REQUEST_URI'
p3004
asbag49
(g70
g51
NtRp3005
(dp3006
g54
(dp3007
g81
g82
ssg63
g2996
sg56
(lp3008
S':'
asbag49
(g70
g51
NtRp3009
(dp3010
g54
(dp3011
sg63
g2996
sg56
(lp3012
g49
(g50
g51
NtRp3013
(dp3014
g54
(dp3015
g62
I3
ssg63
g3009
sg56
(lp3016
g1433
asbasbasbag49
(g65
g51
NtRp3017
(dp3018
g54
(dp3019
sg63
g2719
sg56
(lp3020
g49
(g70
g51
NtRp3021
(dp3022
g54
(dp3023
g74
g75
ssg63
g3017
sg56
(lp3024
S'SCRIPT_NAME'
p3025
asbag49
(g70
g51
NtRp3026
(dp3027
g54
(dp3028
g81
g82
ssg63
g3017
sg56
(lp3029
S':'
asbag49
(g70
g51
NtRp3030
(dp3031
g54
(dp3032
sg63
g3017
sg56
(lp3033
g49
(g50
g51
NtRp3034
(dp3035
g54
(dp3036
g62
I3
ssg63
g3030
sg56
(lp3037
S''
asbasbasbag49
(g65
g51
NtRp3038
(dp3039
g54
(dp3040
sg63
g2719
sg56
(lp3041
g49
(g70
g51
NtRp3042
(dp3043
g54
(dp3044
g74
g75
ssg63
g3038
sg56
(lp3045
S'SERVER_NAME'
p3046
asbag49
(g70
g51
NtRp3047
(dp3048
g54
(dp3049
g81
g82
ssg63
g3038
sg56
(lp3050
S':'
asbag49
(g70
g51
NtRp3051
(dp3052
g54
(dp3053
sg63
g3038
sg56
(lp3054
g49
(g50
g51
NtRp3055
(dp3056
g54
(dp3057
g62
I3
ssg63
g3051
sg56
(lp3058
g1398
asbasbasbag49
(g65
g51
NtRp3059
(dp3060
g54
(dp3061
sg63
g2719
sg56
(lp3062
g49
(g70
g51
NtRp3063
(dp3064
g54
(dp3065
g74
g75
ssg63
g3059
sg56
(lp3066
S'SERVER_PORT'
p3067
asbag49
(g70
g51
NtRp3068
(dp3069
g54
(dp3070
g81
g82
ssg63
g3059
sg56
(lp3071
S':'
asbag49
(g70
g51
NtRp3072
(dp3073
g54
(dp3074
sg63
g3059
sg56
(lp3075
g49
(g50
g51
NtRp3076
(dp3077
g54
(dp3078
g62
I3
ssg63
g3072
sg56
(lp3079
g1604
asbasbasbag49
(g65
g51
NtRp3080
(dp3081
g54
(dp3082
sg63
g2719
sg56
(lp3083
g49
(g70
g51
NtRp3084
(dp3085
g54
(dp3086
g74
g75
ssg63
g3080
sg56
(lp3087
S'SERVER_PROTOCOL'
p3088
asbag49
(g70
g51
NtRp3089
(dp3090
g54
(dp3091
g81
g82
ssg63
g3080
sg56
(lp3092
S':'
asbag49
(g70
g51
NtRp3093
(dp3094
g54
(dp3095
sg63
g3080
sg56
(lp3096
g49
(g50
g51
NtRp3097
(dp3098
g54
(dp3099
g62
I3
ssg63
g3093
sg56
(lp3100
g1626
asbasbasbag49
(g65
g51
NtRp3101
(dp3102
g54
(dp3103
sg63
g2719
sg56
(lp3104
g49
(g70
g51
NtRp3105
(dp3106
g54
(dp3107
g74
g75
ssg63
g3101
sg56
(lp3108
S'SERVER_SOFTWARE'
p3109
asbag49
(g70
g51
NtRp3110
(dp3111
g54
(dp3112
g81
g82
ssg63
g3101
sg56
(lp3113
S':'
asbag49
(g70
g51
NtRp3114
(dp3115
g54
(dp3116
sg63
g3101
sg56
(lp3117
g49
(g50
g51
NtRp3118
(dp3119
g54
(dp3120
g62
I3
ssg63
g3114
sg56
(lp3121
g1648
asbasbasbag49
(g65
g51
NtRp3122
(dp3123
g54
(dp3124
sg63
g2719
sg56
(lp3125
g49
(g70
g51
NtRp3126
(dp3127
g54
(dp3128
g74
g75
ssg63
g3122
sg56
(lp3129
S'wsgi.errors'
p3130
asbag49
(g70
g51
NtRp3131
(dp3132
g54
(dp3133
g81
g82
ssg63
g3122
sg56
(lp3134
S':'
asbag49
(g70
g51
NtRp3135
(dp3136
g54
(dp3137
sg63
g3122
sg56
(lp3138
g49
(g50
g51
NtRp3139
(dp3140
g54
(dp3141
g62
I3
ssg63
g3135
sg56
(lp3142
S"<open file '<stderr>', mode 'w' at 0x540b0>"
p3143
asbasbasbag49
(g65
g51
NtRp3144
(dp3145
g54
(dp3146
sg63
g2719
sg56
(lp3147
g49
(g70
g51
NtRp3148
(dp3149
g54
(dp3150
g74
g75
ssg63
g3144
sg56
(lp3151
S'wsgi.file_wrapper'
p3152
asbag49
(g70
g51
NtRp3153
(dp3154
g54
(dp3155
g81
g82
ssg63
g3144
sg56
(lp3156
S':'
asbag49
(g70
g51
NtRp3157
(dp3158
g54
(dp3159
sg63
g3144
sg56
(lp3160
g49
(g50
g51
NtRp3161
(dp3162
g54
(dp3163
g62
I3
ssg63
g3157
sg56
(lp3164
S'<class wsgiref.util.FileWrapper at 0x44002d0>'
p3165
asbasbasbag49
(g65
g51
NtRp3166
(dp3167
g54
(dp3168
sg63
g2719
sg56
(lp3169
g49
(g70
g51
NtRp3170
(dp3171
g54
(dp3172
g74
g75
ssg63
g3166
sg56
(lp3173
S'wsgi.input'
p3174
asbag49
(g70
g51
NtRp3175
(dp3176
g54
(dp3177
g81
g82
ssg63
g3166
sg56
(lp3178
S':'
asbag49
(g70
g51
NtRp3179
(dp3180
g54
(dp3181
sg63
g3166
sg56
(lp3182
g49
(g50
g51
NtRp3183
(dp3184
g54
(dp3185
g62
I3
ssg63
g3179
sg56
(lp3186
S'<cStringIO.StringO object at 0x98d6460>'
p3187
asbasbasbag49
(g65
g51
NtRp3188
(dp3189
g54
(dp3190
sg63
g2719
sg56
(lp3191
g49
(g70
g51
NtRp3192
(dp3193
g54
(dp3194
g74
g75
ssg63
g3188
sg56
(lp3195
S'wsgi.multiprocess'
p3196
asbag49
(g70
g51
NtRp3197
(dp3198
g54
(dp3199
g81
g82
ssg63
g3188
sg56
(lp3200
S':'
asbag49
(g70
g51
NtRp3201
(dp3202
g54
(dp3203
sg63
g3188
sg56
(lp3204
g49
(g50
g51
NtRp3205
(dp3206
g54
(dp3207
g62
I3
ssg63
g3201
sg56
(lp3208
g92
asbasbasbag49
(g65
g51
NtRp3209
(dp3210
g54
(dp3211
sg63
g2719
sg56
(lp3212
g49
(g70
g51
NtRp3213
(dp3214
g54
(dp3215
g74
g75
ssg63
g3209
sg56
(lp3216
S'wsgi.multithread'
p3217
asbag49
(g70
g51
NtRp3218
(dp3219
g54
(dp3220
g81
g82
ssg63
g3209
sg56
(lp3221
S':'
asbag49
(g70
g51
NtRp3222
(dp3223
g54
(dp3224
sg63
g3209
sg56
(lp3225
g49
(g50
g51
NtRp3226
(dp3227
g54
(dp3228
g62
I3
ssg63
g3222
sg56
(lp3229
g1865
asbasbasbag49
(g65
g51
NtRp3230
(dp3231
g54
(dp3232
sg63
g2719
sg56
(lp3233
g49
(g70
g51
NtRp3234
(dp3235
g54
(dp3236
g74
g75
ssg63
g3230
sg56
(lp3237
S'wsgi.run_once'
p3238
asbag49
(g70
g51
NtRp3239
(dp3240
g54
(dp3241
g81
g82
ssg63
g3230
sg56
(lp3242
S':'
asbag49
(g70
g51
NtRp3243
(dp3244
g54
(dp3245
sg63
g3230
sg56
(lp3246
g49
(g50
g51
NtRp3247
(dp3248
g54
(dp3249
g62
I3
ssg63
g3243
sg56
(lp3250
g92
asbasbasbag49
(g65
g51
NtRp3251
(dp3252
g54
(dp3253
sg63
g2719
sg56
(lp3254
g49
(g70
g51
NtRp3255
(dp3256
g54
(dp3257
g74
g75
ssg63
g3251
sg56
(lp3258
S'wsgi.url_scheme'
p3259
asbag49
(g70
g51
NtRp3260
(dp3261
g54
(dp3262
g81
g82
ssg63
g3251
sg56
(lp3263
S':'
asbag49
(g70
g51
NtRp3264
(dp3265
g54
(dp3266
sg63
g3251
sg56
(lp3267
g49
(g50
g51
NtRp3268
(dp3269
g54
(dp3270
g62
I3
ssg63
g3264
sg56
(lp3271
g1908
asbasbasbag49
(g65
g51
NtRp3272
(dp3273
g54
(dp3274
sg63
g2719
sg56
(lp3275
g49
(g70
g51
NtRp3276
(dp3277
g54
(dp3278
g74
g75
ssg63
g3272
sg56
(lp3279
S'wsgi.version'
p3280
asbag49
(g70
g51
NtRp3281
(dp3282
g54
(dp3283
g81
g82
ssg63
g3272
sg56
(lp3284
S':'
asbag49
(g70
g51
NtRp3285
(dp3286
g54
(dp3287
sg63
g3272
sg56
(lp3288
g49
(g50
g51
NtRp3289
(dp3290
g54
(dp3291
g62
I3
ssg63
g3285
sg56
(lp3292
S'1'
asbasbasbasbasbasbasbasbasbasbasbasbasbsS'frames'
p3293
(lp3294
(dp3295
S'file'
p3296
S'/Users/abaric/Downloads/web2py/web2py.app/Contents/Resources/gluon/restricted.py'
p3297
sS'dump'
p3298
(dp3299
sS'lnum'
p3300
I212
sS'lines'
p3301
(dp3302
sS'call'
p3303
S"(code='from gluon.tools import datetime\\n\\ndef user():\\n  ...onse._vars=response._caller(show_image_comments)\\n', environment={'A': <class 'gluon.html.A'>, 'Auth': <class 'gluon.tools.Auth'>, 'B': <class 'gluon.html.B'>, 'BEAUTIFY': <class 'gluon.html.BEAUTIFY'>, 'BODY': <class 'gluon.html.BODY'>, 'BR': <class 'gluon.html.BR'>, 'BUTTON': <class 'gluon.html.BUTTON'>, 'CAT': <class 'gluon.html.CAT'>, 'CENTER': <class 'gluon.html.CENTER'>, 'CLEANUP': <class 'gluon.validators.CLEANUP'>, ...}, layer='/Users/abaric/Downloads/web2py/web2py.app/Conten...applications/Final_Impulse/controllers/default.py')"
p3304
sS'func'
p3305
S'restricted'
p3306
sa(dp3307
g3296
S'/Users/abaric/Downloads/web2py/web2py.app/Contents/Resources/applications/Final_Impulse/controllers/default.py'
p3308
sg3298
(dp3309
sg3300
I110
sg3301
(dp3310
I99
S''
sI100
S'    db.comment.insert(video_id=video_id,video_comment_id=video_comment_id)'
p3311
sI101
S''
sI102
S'    db.video_comment.insert(comment_text="%s says %s"%(session.user_name,'
p3312
sI103
S'                                                       video_comment.body),'
p3313
sI104
S'                                                       date_of_entry=datetime.datetime.now())'
p3314
sI105
S''
sI106
S'    db.commit()'
p3315
sI107
S"    redirect(URL('index',args=video.id))"
p3316
sI108
S'    return locals()'
p3317
ssg3303
S'()'
p3318
sg3305
S'<module>'
p3319
sa(dp3320
g3296
S'/Users/abaric/Downloads/web2py/web2py.app/Contents/Resources/gluon/globals.py'
p3321
sg3298
(dp3322
sg3300
I188
sg3301
(dp3323
sg3303
S'(f=<function show_image_comments at 0x998e1f0>)'
p3324
sg3305
S'<lambda>'
p3325
sa(dp3326
g3296
S'/Users/abaric/Downloads/web2py/web2py.app/Contents/Resources/applications/Final_Impulse/controllers/default.py'
p3327
sg3298
(dp3328
sg3300
I51
sg3301
(dp3329
I46
S'        d[image.id]=tuple_list'
p3330
sI47
S''
sI48
S'    form = SQLFORM(db.writing_comment)'
p3331
sI49
S'    if form.process().accepted:'
p3332
sI50
S"        response.flash = 'your comment is posted'"
p3333
sI51
S'    images = db(db.image_comment.image_id==image.id).select()'
p3334
sI52
S'    return locals()'
p3335
sI53
S''
sI54
S'def show_writing_comments():'
p3336
sI55
S'    writings = db().select(db.writing.ALL, orderby=db.writing.id)'
p3337
ssg3303
S'()'
p3338
sg3305
S'show_image_comments'
p3339
sasS'pyver'
p3340
S'Python 2.5.1: /Users/abaric/Downloads/web2py/web2py.app/Contents/MacOS/python'
p3341
sS'session'
p3342
g49
(g50
g51
NtRp3343
(dp3344
g54
(dp3345
sg56
(lp3346
g49
(g58
g51
NtRp3347
(dp3348
g54
(dp3349
g62
I5
ssg63
Nsg56
(lp3350
sbasbsS'etype'
p3351
S"<type 'exceptions.UnboundLocalError'>"
p3352
sS'date'
p3353
S'Sun Mar 30 00:07:58 2014'
p3354
sS'response'
p3355
g49
(g50
g51
NtRp3356
(dp3357
g54
(dp3358
sg56
(lp3359
g49
(g58
g51
NtRp3360
(dp3361
g54
(dp3362
g62
I5
ssg63
Nsg56
(lp3363
g49
(g65
g51
NtRp3364
(dp3365
g54
(dp3366
sg63
g3360
sg56
(lp3367
g49
(g70
g51
NtRp3368
(dp3369
g54
(dp3370
g74
g75
ssg63
g3364
sg56
(lp3371
g147
asbag49
(g70
g51
NtRp3372
(dp3373
g54
(dp3374
g81
g82
ssg63
g3364
sg56
(lp3375
S':'
asbag49
(g70
g51
NtRp3376
(dp3377
g54
(dp3378
sg63
g3364
sg56
(lp3379
g49
(g50
g51
NtRp3380
(dp3381
g54
(dp3382
g62
I5
ssg63
g3376
sg56
(lp3383
S'<cStringIO.StringO object at 0x98d6fa0>'
p3384
asbasbasbag49
(g65
g51
NtRp3385
(dp3386
g54
(dp3387
sg63
g3360
sg56
(lp3388
g49
(g70
g51
NtRp3389
(dp3390
g54
(dp3391
g74
g75
ssg63
g3385
sg56
(lp3392
g235
asbag49
(g70
g51
NtRp3393
(dp3394
g54
(dp3395
g81
g82
ssg63
g3385
sg56
(lp3396
S':'
asbag49
(g70
g51
NtRp3397
(dp3398
g54
(dp3399
sg63
g3385
sg56
(lp3400
g49
(g50
g51
NtRp3401
(dp3402
g54
(dp3403
g62
I5
ssg63
g3397
sg56
(lp3404
g49
(g58
g51
NtRp3405
(dp3406
g54
(dp3407
g62
I4
ssg63
Nsg56
(lp3408
g49
(g65
g51
NtRp3409
(dp3410
g54
(dp3411
sg63
g3405
sg56
(lp3412
g49
(g70
g51
NtRp3413
(dp3414
g54
(dp3415
g74
g75
ssg63
g3409
sg56
(lp3416
S'session_id_final_impulse'
p3417
asbag49
(g70
g51
NtRp3418
(dp3419
g54
(dp3420
g81
g82
ssg63
g3409
sg56
(lp3421
S':'
asbag49
(g70
g51
NtRp3422
(dp3423
g54
(dp3424
sg63
g3409
sg56
(lp3425
g49
(g50
g51
NtRp3426
(dp3427
g54
(dp3428
g62
I4
ssg63
g3422
sg56
(lp3429
g446
ag49
(g58
g51
NtRp3430
(dp3431
g54
(dp3432
g62
I3
ssg63
Nsg56
(lp3433
g49
(g65
g51
NtRp3434
(dp3435
g54
(dp3436
sg63
g3430
sg56
(lp3437
g49
(g70
g51
NtRp3438
(dp3439
g54
(dp3440
g74
g75
ssg63
g3434
sg56
(lp3441
g286
asbag49
(g70
g51
NtRp3442
(dp3443
g54
(dp3444
g81
g82
ssg63
g3434
sg56
(lp3445
S':'
asbag49
(g70
g51
NtRp3446
(dp3447
g54
(dp3448
sg63
g3434
sg56
(lp3449
g49
(g50
g51
NtRp3450
(dp3451
g54
(dp3452
g62
I3
ssg63
g3446
sg56
(lp3453
S''
asbasbasbag49
(g65
g51
NtRp3454
(dp3455
g54
(dp3456
sg63
g3430
sg56
(lp3457
g49
(g70
g51
NtRp3458
(dp3459
g54
(dp3460
g74
g75
ssg63
g3454
sg56
(lp3461
g307
asbag49
(g70
g51
NtRp3462
(dp3463
g54
(dp3464
g81
g82
ssg63
g3454
sg56
(lp3465
S':'
asbag49
(g70
g51
NtRp3466
(dp3467
g54
(dp3468
sg63
g3454
sg56
(lp3469
g49
(g50
g51
NtRp3470
(dp3471
g54
(dp3472
g62
I3
ssg63
g3466
sg56
(lp3473
S''
asbasbasbag49
(g65
g51
NtRp3474
(dp3475
g54
(dp3476
sg63
g3430
sg56
(lp3477
g49
(g70
g51
NtRp3478
(dp3479
g54
(dp3480
g74
g75
ssg63
g3474
sg56
(lp3481
g328
asbag49
(g70
g51
NtRp3482
(dp3483
g54
(dp3484
g81
g82
ssg63
g3474
sg56
(lp3485
S':'
asbag49
(g70
g51
NtRp3486
(dp3487
g54
(dp3488
sg63
g3474
sg56
(lp3489
g49
(g50
g51
NtRp3490
(dp3491
g54
(dp3492
g62
I3
ssg63
g3486
sg56
(lp3493
S''
asbasbasbag49
(g65
g51
NtRp3494
(dp3495
g54
(dp3496
sg63
g3430
sg56
(lp3497
g49
(g70
g51
NtRp3498
(dp3499
g54
(dp3500
g74
g75
ssg63
g3494
sg56
(lp3501
g349
asbag49
(g70
g51
NtRp3502
(dp3503
g54
(dp3504
g81
g82
ssg63
g3494
sg56
(lp3505
S':'
asbag49
(g70
g51
NtRp3506
(dp3507
g54
(dp3508
sg63
g3494
sg56
(lp3509
g49
(g50
g51
NtRp3510
(dp3511
g54
(dp3512
g62
I3
ssg63
g3506
sg56
(lp3513
S''
asbasbasbag49
(g65
g51
NtRp3514
(dp3515
g54
(dp3516
sg63
g3430
sg56
(lp3517
g49
(g70
g51
NtRp3518
(dp3519
g54
(dp3520
g74
g75
ssg63
g3514
sg56
(lp3521
g370
asbag49
(g70
g51
NtRp3522
(dp3523
g54
(dp3524
g81
g82
ssg63
g3514
sg56
(lp3525
S':'
asbag49
(g70
g51
NtRp3526
(dp3527
g54
(dp3528
sg63
g3514
sg56
(lp3529
g49
(g50
g51
NtRp3530
(dp3531
g54
(dp3532
g62
I3
ssg63
g3526
sg56
(lp3533
S'/'
asbasbasbag49
(g65
g51
NtRp3534
(dp3535
g54
(dp3536
sg63
g3430
sg56
(lp3537
g49
(g70
g51
NtRp3538
(dp3539
g54
(dp3540
g74
g75
ssg63
g3534
sg56
(lp3541
g391
asbag49
(g70
g51
NtRp3542
(dp3543
g54
(dp3544
g81
g82
ssg63
g3534
sg56
(lp3545
S':'
asbag49
(g70
g51
NtRp3546
(dp3547
g54
(dp3548
sg63
g3534
sg56
(lp3549
g49
(g50
g51
NtRp3550
(dp3551
g54
(dp3552
g62
I3
ssg63
g3546
sg56
(lp3553
S''
asbasbasbag49
(g65
g51
NtRp3554
(dp3555
g54
(dp3556
sg63
g3430
sg56
(lp3557
g49
(g70
g51
NtRp3558
(dp3559
g54
(dp3560
g74
g75
ssg63
g3554
sg56
(lp3561
g412
asbag49
(g70
g51
NtRp3562
(dp3563
g54
(dp3564
g81
g82
ssg63
g3554
sg56
(lp3565
S':'
asbag49
(g70
g51
NtRp3566
(dp3567
g54
(dp3568
sg63
g3554
sg56
(lp3569
g49
(g50
g51
NtRp3570
(dp3571
g54
(dp3572
g62
I3
ssg63
g3566
sg56
(lp3573
S''
asbasbasbasbasbasbasbasbasbasbasbag49
(g65
g51
NtRp3574
(dp3575
g54
(dp3576
sg63
g3360
sg56
(lp3577
g49
(g70
g51
NtRp3578
(dp3579
g54
(dp3580
g74
g75
ssg63
g3574
sg56
(lp3581
S'delimiters'
p3582
asbag49
(g70
g51
NtRp3583
(dp3584
g54
(dp3585
g81
g82
ssg63
g3574
sg56
(lp3586
S':'
asbag49
(g70
g51
NtRp3587
(dp3588
g54
(dp3589
sg63
g3574
sg56
(lp3590
g49
(g50
g51
NtRp3591
(dp3592
g54
(dp3593
g62
I5
ssg63
g3587
sg56
(lp3594
g49
(g58
g51
NtRp3595
(dp3596
g54
(dp3597
g62
I4
ssg63
Nsg56
(lp3598
g49
(g65
g51
NtRp3599
(dp3600
g54
(dp3601
sg63
g3595
sg56
(lp3602
g49
(g70
g51
NtRp3603
(dp3604
g54
(dp3605
sg63
g3599
sg56
(lp3606
g49
(g50
g51
NtRp3607
(dp3608
g54
(dp3609
g62
I4
ssg63
g3603
sg56
(lp3610
S'{{'
p3611
asbasbasbag49
(g65
g51
NtRp3612
(dp3613
g54
(dp3614
sg63
g3595
sg56
(lp3615
g49
(g70
g51
NtRp3616
(dp3617
g54
(dp3618
sg63
g3612
sg56
(lp3619
g49
(g50
g51
NtRp3620
(dp3621
g54
(dp3622
g62
I4
ssg63
g3616
sg56
(lp3623
S'}}'
p3624
asbasbasbasbasbasbasbag49
(g65
g51
NtRp3625
(dp3626
g54
(dp3627
sg63
g3360
sg56
(lp3628
g49
(g70
g51
NtRp3629
(dp3630
g54
(dp3631
g74
g75
ssg63
g3625
sg56
(lp3632
S'files'
p3633
asbag49
(g70
g51
NtRp3634
(dp3635
g54
(dp3636
g81
g82
ssg63
g3625
sg56
(lp3637
S':'
asbag49
(g70
g51
NtRp3638
(dp3639
g54
(dp3640
sg63
g3625
sg56
(lp3641
g49
(g50
g51
NtRp3642
(dp3643
g54
(dp3644
g62
I5
ssg63
g3638
sg56
(lp3645
g49
(g58
g51
NtRp3646
(dp3647
g54
(dp3648
g62
I4
ssg63
Nsg56
(lp3649
sbasbasbasbag49
(g65
g51
NtRp3650
(dp3651
g54
(dp3652
sg63
g3360
sg56
(lp3653
g49
(g70
g51
NtRp3654
(dp3655
g54
(dp3656
g74
g75
ssg63
g3650
sg56
(lp3657
S'flash'
p3658
asbag49
(g70
g51
NtRp3659
(dp3660
g54
(dp3661
g81
g82
ssg63
g3650
sg56
(lp3662
S':'
asbag49
(g70
g51
NtRp3663
(dp3664
g54
(dp3665
sg63
g3650
sg56
(lp3666
g49
(g50
g51
NtRp3667
(dp3668
g54
(dp3669
g62
I5
ssg63
g3663
sg56
(lp3670
S''
asbasbasbag49
(g65
g51
NtRp3671
(dp3672
g54
(dp3673
sg63
g3360
sg56
(lp3674
g49
(g70
g51
NtRp3675
(dp3676
g54
(dp3677
g74
g75
ssg63
g3671
sg56
(lp3678
S'generic_patterns'
p3679
asbag49
(g70
g51
NtRp3680
(dp3681
g54
(dp3682
g81
g82
ssg63
g3671
sg56
(lp3683
S':'
asbag49
(g70
g51
NtRp3684
(dp3685
g54
(dp3686
sg63
g3671
sg56
(lp3687
g49
(g50
g51
NtRp3688
(dp3689
g54
(dp3690
g62
I5
ssg63
g3684
sg56
(lp3691
g49
(g58
g51
NtRp3692
(dp3693
g54
(dp3694
g62
I4
ssg63
Nsg56
(lp3695
sbasbasbasbag49
(g65
g51
NtRp3696
(dp3697
g54
(dp3698
sg63
g3360
sg56
(lp3699
g49
(g70
g51
NtRp3700
(dp3701
g54
(dp3702
g74
g75
ssg63
g3696
sg56
(lp3703
S'google_analytics_id'
p3704
asbag49
(g70
g51
NtRp3705
(dp3706
g54
(dp3707
g81
g82
ssg63
g3696
sg56
(lp3708
S':'
asbag49
(g70
g51
NtRp3709
(dp3710
g54
(dp3711
sg63
g3696
sg56
(lp3712
g49
(g50
g51
NtRp3713
(dp3714
g54
(dp3715
g62
I5
ssg63
g3709
sg56
(lp3716
S'None'
p3717
asbasbasbag49
(g65
g51
NtRp3718
(dp3719
g54
(dp3720
sg63
g3360
sg56
(lp3721
g49
(g70
g51
NtRp3722
(dp3723
g54
(dp3724
g74
g75
ssg63
g3718
sg56
(lp3725
S'headers'
p3726
asbag49
(g70
g51
NtRp3727
(dp3728
g54
(dp3729
g81
g82
ssg63
g3718
sg56
(lp3730
S':'
asbag49
(g70
g51
NtRp3731
(dp3732
g54
(dp3733
sg63
g3718
sg56
(lp3734
g49
(g50
g51
NtRp3735
(dp3736
g54
(dp3737
g62
I5
ssg63
g3731
sg56
(lp3738
g49
(g58
g51
NtRp3739
(dp3740
g54
(dp3741
g62
I4
ssg63
Nsg56
(lp3742
g49
(g65
g51
NtRp3743
(dp3744
g54
(dp3745
sg63
g3739
sg56
(lp3746
g49
(g70
g51
NtRp3747
(dp3748
g54
(dp3749
g74
g75
ssg63
g3743
sg56
(lp3750
S'X-Powered-By'
p3751
asbag49
(g70
g51
NtRp3752
(dp3753
g54
(dp3754
g81
g82
ssg63
g3743
sg56
(lp3755
S':'
asbag49
(g70
g51
NtRp3756
(dp3757
g54
(dp3758
sg63
g3743
sg56
(lp3759
g49
(g50
g51
NtRp3760
(dp3761
g54
(dp3762
g62
I4
ssg63
g3756
sg56
(lp3763
S'web2py'
p3764
asbasbasbasbasbasbasbag49
(g65
g51
NtRp3765
(dp3766
g54
(dp3767
sg63
g3360
sg56
(lp3768
g49
(g70
g51
NtRp3769
(dp3770
g54
(dp3771
g74
g75
ssg63
g3765
sg56
(lp3772
S'menu'
p3773
asbag49
(g70
g51
NtRp3774
(dp3775
g54
(dp3776
g81
g82
ssg63
g3765
sg56
(lp3777
S':'
asbag49
(g70
g51
NtRp3778
(dp3779
g54
(dp3780
sg63
g3765
sg56
(lp3781
g49
(g50
g51
NtRp3782
(dp3783
g54
(dp3784
g62
I5
ssg63
g3778
sg56
(lp3785
g49
(g58
g51
NtRp3786
(dp3787
g54
(dp3788
g62
I4
ssg63
Nsg56
(lp3789
g49
(g65
g51
NtRp3790
(dp3791
g54
(dp3792
sg63
g3786
sg56
(lp3793
g49
(g70
g51
NtRp3794
(dp3795
g54
(dp3796
sg63
g3790
sg56
(lp3797
g49
(g50
g51
NtRp3798
(dp3799
g54
(dp3800
g62
I4
ssg63
g3794
sg56
(lp3801
g49
(g58
g51
NtRp3802
(dp3803
g54
(dp3804
g62
I3
ssg63
Nsg56
(lp3805
g49
(g65
g51
NtRp3806
(dp3807
g54
(dp3808
sg63
g3802
sg56
(lp3809
g49
(g70
g51
NtRp3810
(dp3811
g54
(dp3812
sg63
g3806
sg56
(lp3813
g49
(g50
g51
NtRp3814
(dp3815
g54
(dp3816
g62
I3
ssg63
g3810
sg56
(lp3817
cgluon.languages
lazyT_unpickle
p3818
(S't\x04\x00\x00\x00Home'
tRp3819
asbasbasbag49
(g65
g51
NtRp3820
(dp3821
g54
(dp3822
sg63
g3802
sg56
(lp3823
g49
(g70
g51
NtRp3824
(dp3825
g54
(dp3826
sg63
g3820
sg56
(lp3827
g49
(g50
g51
NtRp3828
(dp3829
g54
(dp3830
g62
I3
ssg63
g3824
sg56
(lp3831
g92
asbasbasbag49
(g65
g51
NtRp3832
(dp3833
g54
(dp3834
sg63
g3802
sg56
(lp3835
g49
(g70
g51
NtRp3836
(dp3837
g54
(dp3838
sg63
g3832
sg56
(lp3839
g49
(g50
g51
NtRp3840
(dp3841
g54
(dp3842
g62
I3
ssg63
g3836
sg56
(lp3843
S'/Final_Impulse/default/index'
p3844
asbasbasbag49
(g65
g51
NtRp3845
(dp3846
g54
(dp3847
sg63
g3802
sg56
(lp3848
g49
(g70
g51
NtRp3849
(dp3850
g54
(dp3851
sg63
g3845
sg56
(lp3852
g49
(g50
g51
NtRp3853
(dp3854
g54
(dp3855
g62
I3
ssg63
g3849
sg56
(lp3856
g49
(g58
g51
NtRp3857
(dp3858
g54
(dp3859
g62
I2
ssg63
Nsg56
(lp3860
sbasbasbasbasbasbasbasbag49
(g65
g51
NtRp3861
(dp3862
g54
(dp3863
sg63
g3786
sg56
(lp3864
g49
(g70
g51
NtRp3865
(dp3866
g54
(dp3867
sg63
g3861
sg56
(lp3868
g49
(g50
g51
NtRp3869
(dp3870
g54
(dp3871
g62
I4
ssg63
g3865
sg56
(lp3872
g49
(g58
g51
NtRp3873
(dp3874
g54
(dp3875
g62
I3
ssg63
Nsg56
(lp3876
g49
(g65
g51
NtRp3877
(dp3878
g54
(dp3879
sg63
g3873
sg56
(lp3880
g49
(g70
g51
NtRp3881
(dp3882
g54
(dp3883
sg63
g3877
sg56
(lp3884
g49
(g50
g51
NtRp3885
(dp3886
g54
(dp3887
g62
I3
ssg63
g3881
sg56
(lp3888
g49
(cgluon.html
SPAN
p3889
g51
NtRp3890
(dp3891
g54
(dp3892
S'_class'
p3893
S'highlighted'
p3894
ssg63
Nsg56
(lp3895
g3764
asbasbasbasbag49
(g65
g51
NtRp3896
(dp3897
g54
(dp3898
sg63
g3873
sg56
(lp3899
g49
(g70
g51
NtRp3900
(dp3901
g54
(dp3902
sg63
g3896
sg56
(lp3903
g49
(g50
g51
NtRp3904
(dp3905
g54
(dp3906
g62
I3
ssg63
g3900
sg56
(lp3907
g92
asbasbasbag49
(g65
g51
NtRp3908
(dp3909
g54
(dp3910
sg63
g3873
sg56
(lp3911
g49
(g70
g51
NtRp3912
(dp3913
g54
(dp3914
sg63
g3908
sg56
(lp3915
g49
(g50
g51
NtRp3916
(dp3917
g54
(dp3918
g62
I3
ssg63
g3912
sg56
(lp3919
S'http://web2py.com'
p3920
asbasbasbag49
(g65
g51
NtRp3921
(dp3922
g54
(dp3923
sg63
g3873
sg56
(lp3924
g49
(g70
g51
NtRp3925
(dp3926
g54
(dp3927
sg63
g3921
sg56
(lp3928
g49
(g50
g51
NtRp3929
(dp3930
g54
(dp3931
g62
I3
ssg63
g3925
sg56
(lp3932
g49
(g58
g51
NtRp3933
(dp3934
g54
(dp3935
g62
I2
ssg63
Nsg56
(lp3936
g49
(g65
g51
NtRp3937
(dp3938
g54
(dp3939
sg63
g3933
sg56
(lp3940
g49
(g70
g51
NtRp3941
(dp3942
g54
(dp3943
sg63
g3937
sg56
(lp3944
g49
(g50
g51
NtRp3945
(dp3946
g54
(dp3947
g62
I2
ssg63
g3941
sg56
(lp3948
g49
(g58
g51
NtRp3949
(dp3950
g54
(dp3951
g62
I1
ssg63
Nsg56
(lp3952
g49
(g65
g51
NtRp3953
(dp3954
g54
(dp3955
sg63
g3949
sg56
(lp3956
g49
(g70
g51
NtRp3957
(dp3958
g54
(dp3959
sg63
g3953
sg56
(lp3960
g49
(g50
g51
NtRp3961
(dp3962
g54
(dp3963
g62
I1
ssg63
g3957
sg56
(lp3964
g3818
(S's\x08\x00\x00\x00My Sites'
tRp3965
asbasbasbag49
(g65
g51
NtRp3966
(dp3967
g54
(dp3968
sg63
g3949
sg56
(lp3969
g49
(g70
g51
NtRp3970
(dp3971
g54
(dp3972
sg63
g3966
sg56
(lp3973
g49
(g50
g51
NtRp3974
(dp3975
g54
(dp3976
g62
I1
ssg63
g3970
sg56
(lp3977
I00
asbasbasbag49
(g65
g51
NtRp3978
(dp3979
g54
(dp3980
sg63
g3949
sg56
(lp3981
g49
(g70
g51
NtRp3982
(dp3983
g54
(dp3984
sg63
g3978
sg56
(lp3985
g49
(g50
g51
NtRp3986
(dp3987
g54
(dp3988
g62
I1
ssg63
g3982
sg56
(lp3989
S'/admin/default/site'
p3990
asbasbasbasbasbasbasbag49
(g65
g51
NtRp3991
(dp3992
g54
(dp3993
sg63
g3933
sg56
(lp3994
g49
(g70
g51
NtRp3995
(dp3996
g54
(dp3997
sg63
g3991
sg56
(lp3998
g49
(g50
g51
NtRp3999
(dp4000
g54
(dp4001
g62
I2
ssg63
g3995
sg56
(lp4002
g49
(g58
g51
NtRp4003
(dp4004
g54
(dp4005
g62
I1
ssg63
Nsg56
(lp4006
g49
(g65
g51
NtRp4007
(dp4008
g54
(dp4009
sg63
g4003
sg56
(lp4010
g49
(g70
g51
NtRp4011
(dp4012
g54
(dp4013
sg63
g4007
sg56
(lp4014
g49
(g50
g51
NtRp4015
(dp4016
g54
(dp4017
g62
I1
ssg63
g4011
sg56
(lp4018
g3818
(S's\x08\x00\x00\x00This App'
tRp4019
asbasbasbag49
(g65
g51
NtRp4020
(dp4021
g54
(dp4022
sg63
g4003
sg56
(lp4023
g49
(g70
g51
NtRp4024
(dp4025
g54
(dp4026
sg63
g4020
sg56
(lp4027
g49
(g50
g51
NtRp4028
(dp4029
g54
(dp4030
g62
I1
ssg63
g4024
sg56
(lp4031
I00
asbasbasbag49
(g65
g51
NtRp4032
(dp4033
g54
(dp4034
sg63
g4003
sg56
(lp4035
g49
(g70
g51
NtRp4036
(dp4037
g54
(dp4038
sg63
g4032
sg56
(lp4039
g49
(g50
g51
NtRp4040
(dp4041
g54
(dp4042
g62
I1
ssg63
g4036
sg56
(lp4043
S'/admin/default/design/Final_Impulse'
p4044
asbasbasbag49
(g65
g51
NtRp4045
(dp4046
g54
(dp4047
sg63
g4003
sg56
(lp4048
g49
(g70
g51
NtRp4049
(dp4050
g54
(dp4051
sg63
g4045
sg56
(lp4052
g49
(g50
g51
NtRp4053
(dp4054
g54
(dp4055
g62
I1
ssg63
g4049
sg56
(lp4056
(lp4057
(g3818
(S't\n\x00\x00\x00Controller'
tRp4058
I00
S'/admin/default/edit/Final_Impulse/controllers/default.py'
tp4059
a(g3818
(S't\x04\x00\x00\x00View'
tRp4060
I00
S'/admin/default/edit/Final_Impulse/views/default/show_image_comments.html'
tp4061
a(g3818
(S't\x06\x00\x00\x00Layout'
tRp4062
I00
S'/admin/default/edit/Final_Impulse/views/layout.html'
tp4063
a(g3818
(S't\n\x00\x00\x00Stylesheet'
tRp4064
I00
S'/admin/default/edit/Final_Impulse/static/css/web2py.css'
tp4065
a(g3818
(S's\x08\x00\x00\x00DB Model'
tRp4066
I00
S'/admin/default/edit/Final_Impulse/models/db.py'
tp4067
a(g3818
(S's\n\x00\x00\x00Menu Model'
tRp4068
I00
S'/admin/default/edit/Final_Impulse/models/menu.py'
tp4069
a(g3818
(S't\x08\x00\x00\x00Database'
tRp4070
I00
S'/Final_Impulse/appadmin/index'
tp4071
a(g3818
(S't\x06\x00\x00\x00Errors'
tRp4072
I00
S'/admin/default/errors/Final_Impulse'
tp4073
a(g3818
(S't\x05\x00\x00\x00About'
tRp4074
I00
S'/admin/default/about/Final_Impulse'
tp4075
aasbasbasbasbasbasbasbag49
(g65
g51
NtRp4076
(dp4077
g54
(dp4078
sg63
g3933
sg56
(lp4079
g49
(g70
g51
NtRp4080
(dp4081
g54
(dp4082
sg63
g4076
sg56
(lp4083
g49
(g50
g51
NtRp4084
(dp4085
g54
(dp4086
g62
I2
ssg63
g4080
sg56
(lp4087
g49
(g58
g51
NtRp4088
(dp4089
g54
(dp4090
g62
I1
ssg63
Nsg56
(lp4091
g49
(g65
g51
NtRp4092
(dp4093
g54
(dp4094
sg63
g4088
sg56
(lp4095
g49
(g70
g51
NtRp4096
(dp4097
g54
(dp4098
sg63
g4092
sg56
(lp4099
g49
(g50
g51
NtRp4100
(dp4101
g54
(dp4102
g62
I1
ssg63
g4096
sg56
(lp4103
S'web2py.com'
p4104
asbasbasbag49
(g65
g51
NtRp4105
(dp4106
g54
(dp4107
sg63
g4088
sg56
(lp4108
g49
(g70
g51
NtRp4109
(dp4110
g54
(dp4111
sg63
g4105
sg56
(lp4112
g49
(g50
g51
NtRp4113
(dp4114
g54
(dp4115
g62
I1
ssg63
g4109
sg56
(lp4116
I00
asbasbasbag49
(g65
g51
NtRp4117
(dp4118
g54
(dp4119
sg63
g4088
sg56
(lp4120
g49
(g70
g51
NtRp4121
(dp4122
g54
(dp4123
sg63
g4117
sg56
(lp4124
g49
(g50
g51
NtRp4125
(dp4126
g54
(dp4127
g62
I1
ssg63
g4121
sg56
(lp4128
S'http://www.web2py.com'
p4129
asbasbasbag49
(g65
g51
NtRp4130
(dp4131
g54
(dp4132
sg63
g4088
sg56
(lp4133
g49
(g70
g51
NtRp4134
(dp4135
g54
(dp4136
sg63
g4130
sg56
(lp4137
g49
(g50
g51
NtRp4138
(dp4139
g54
(dp4140
g62
I1
ssg63
g4134
sg56
(lp4141
(lp4142
(g3818
(S't\x08\x00\x00\x00Download'
tRp4143
I00
S'http://www.web2py.com/examples/default/download'
p4144
tp4145
a(g3818
(S't\x07\x00\x00\x00Support'
tRp4146
I00
S'http://www.web2py.com/examples/default/support'
p4147
tp4148
a(g3818
(S't\x04\x00\x00\x00Demo'
tRp4149
I00
S'http://web2py.com/demo_admin'
p4150
tp4151
a(g3818
(S's\x0e\x00\x00\x00Quick Examples'
tRp4152
I00
S'http://web2py.com/examples/default/examples'
p4153
tp4154
a(g3818
(S't\x03\x00\x00\x00FAQ'
tRp4155
I00
S'http://web2py.com/AlterEgo'
p4156
tp4157
a(g3818
(S't\x06\x00\x00\x00Videos'
tRp4158
I00
S'http://www.web2py.com/examples/default/videos/'
p4159
tp4160
a(g3818
(S's\x11\x00\x00\x00Free Applications'
tRp4161
I00
S'http://web2py.com/appliances'
p4162
tp4163
a(g3818
(S't\x07\x00\x00\x00Plugins'
tRp4164
I00
S'http://web2py.com/plugins'
p4165
tp4166
a(g3818
(S't\x07\x00\x00\x00Layouts'
tRp4167
I00
S'http://web2py.com/layouts'
p4168
tp4169
a(g3818
(S't\x07\x00\x00\x00Recipes'
tRp4170
I00
S'http://web2pyslices.com/'
p4171
tp4172
a(g3818
(S't\x08\x00\x00\x00Semantic'
tRp4173
I00
S'http://web2py.com/semantic'
p4174
tp4175
aasbasbasbasbasbasbasbag49
(g65
g51
NtRp4176
(dp4177
g54
(dp4178
sg63
g3933
sg56
(lp4179
g49
(g70
g51
NtRp4180
(dp4181
g54
(dp4182
sg63
g4176
sg56
(lp4183
g49
(g50
g51
NtRp4184
(dp4185
g54
(dp4186
g62
I2
ssg63
g4180
sg56
(lp4187
g49
(g58
g51
NtRp4188
(dp4189
g54
(dp4190
g62
I1
ssg63
Nsg56
(lp4191
g49
(g65
g51
NtRp4192
(dp4193
g54
(dp4194
sg63
g4188
sg56
(lp4195
g49
(g70
g51
NtRp4196
(dp4197
g54
(dp4198
sg63
g4192
sg56
(lp4199
g49
(g50
g51
NtRp4200
(dp4201
g54
(dp4202
g62
I1
ssg63
g4196
sg56
(lp4203
g3818
(S't\r\x00\x00\x00Documentation'
tRp4204
asbasbasbag49
(g65
g51
NtRp4205
(dp4206
g54
(dp4207
sg63
g4188
sg56
(lp4208
g49
(g70
g51
NtRp4209
(dp4210
g54
(dp4211
sg63
g4205
sg56
(lp4212
g49
(g50
g51
NtRp4213
(dp4214
g54
(dp4215
g62
I1
ssg63
g4209
sg56
(lp4216
I00
asbasbasbag49
(g65
g51
NtRp4217
(dp4218
g54
(dp4219
sg63
g4188
sg56
(lp4220
g49
(g70
g51
NtRp4221
(dp4222
g54
(dp4223
sg63
g4217
sg56
(lp4224
g49
(g50
g51
NtRp4225
(dp4226
g54
(dp4227
g62
I1
ssg63
g4221
sg56
(lp4228
S'http://www.web2py.com/book'
p4229
asbasbasbag49
(g65
g51
NtRp4230
(dp4231
g54
(dp4232
sg63
g4188
sg56
(lp4233
g49
(g70
g51
NtRp4234
(dp4235
g54
(dp4236
sg63
g4230
sg56
(lp4237
g49
(g50
g51
NtRp4238
(dp4239
g54
(dp4240
g62
I1
ssg63
g4234
sg56
(lp4241
(lp4242
(g3818
(S't\x07\x00\x00\x00Preface'
tRp4243
I00
S'http://www.web2py.com/book/default/chapter/00'
p4244
tp4245
a(g3818
(S't\x0c\x00\x00\x00Introduction'
tRp4246
I00
S'http://www.web2py.com/book/default/chapter/01'
p4247
tp4248
a(g3818
(S't\x06\x00\x00\x00Python'
tRp4249
I00
S'http://www.web2py.com/book/default/chapter/02'
p4250
tp4251
a(g3818
(S't\x08\x00\x00\x00Overview'
tRp4252
I00
S'http://www.web2py.com/book/default/chapter/03'
p4253
tp4254
a(g3818
(S's\x08\x00\x00\x00The Core'
tRp4255
I00
S'http://www.web2py.com/book/default/chapter/04'
p4256
tp4257
a(g3818
(S's\t\x00\x00\x00The Views'
tRp4258
I00
S'http://www.web2py.com/book/default/chapter/05'
p4259
tp4260
a(g3818
(S't\x08\x00\x00\x00Database'
tRp4261
I00
S'http://www.web2py.com/book/default/chapter/06'
p4262
tp4263
a(g3818
(S's\x14\x00\x00\x00Forms and Validators'
tRp4264
I00
S'http://www.web2py.com/book/default/chapter/07'
p4265
tp4266
a(g3818
(S's\r\x00\x00\x00Email and SMS'
tRp4267
I00
S'http://www.web2py.com/book/default/chapter/08'
p4268
tp4269
a(g3818
(S's\x0e\x00\x00\x00Access Control'
tRp4270
I00
S'http://www.web2py.com/book/default/chapter/09'
p4271
tp4272
a(g3818
(S't\x08\x00\x00\x00Services'
tRp4273
I00
S'http://www.web2py.com/book/default/chapter/10'
p4274
tp4275
a(g3818
(S's\x0c\x00\x00\x00Ajax Recipes'
tRp4276
I00
S'http://www.web2py.com/book/default/chapter/11'
p4277
tp4278
a(g3818
(S's\x16\x00\x00\x00Components and Plugins'
tRp4279
I00
S'http://www.web2py.com/book/default/chapter/12'
p4280
tp4281
a(g3818
(S's\x12\x00\x00\x00Deployment Recipes'
tRp4282
I00
S'http://www.web2py.com/book/default/chapter/13'
p4283
tp4284
a(g3818
(S's\r\x00\x00\x00Other Recipes'
tRp4285
I00
S'http://www.web2py.com/book/default/chapter/14'
p4286
tp4287
a(g3818
(S's\r\x00\x00\x00Buy this book'
tRp4288
I00
S'http://stores.lulu.com/web2py'
p4289
tp4290
aasbasbasbasbasbasbasbag49
(g65
g51
NtRp4291
(dp4292
g54
(dp4293
sg63
g3933
sg56
(lp4294
g49
(g70
g51
NtRp4295
(dp4296
g54
(dp4297
sg63
g4291
sg56
(lp4298
g49
(g50
g51
NtRp4299
(dp4300
g54
(dp4301
g62
I2
ssg63
g4295
sg56
(lp4302
g49
(g58
g51
NtRp4303
(dp4304
g54
(dp4305
g62
I1
ssg63
Nsg56
(lp4306
g49
(g65
g51
NtRp4307
(dp4308
g54
(dp4309
sg63
g4303
sg56
(lp4310
g49
(g70
g51
NtRp4311
(dp4312
g54
(dp4313
sg63
g4307
sg56
(lp4314
g49
(g50
g51
NtRp4315
(dp4316
g54
(dp4317
g62
I1
ssg63
g4311
sg56
(lp4318
g3818
(S't\t\x00\x00\x00Community'
tRp4319
asbasbasbag49
(g65
g51
NtRp4320
(dp4321
g54
(dp4322
sg63
g4303
sg56
(lp4323
g49
(g70
g51
NtRp4324
(dp4325
g54
(dp4326
sg63
g4320
sg56
(lp4327
g49
(g50
g51
NtRp4328
(dp4329
g54
(dp4330
g62
I1
ssg63
g4324
sg56
(lp4331
I00
asbasbasbag49
(g65
g51
NtRp4332
(dp4333
g54
(dp4334
sg63
g4303
sg56
(lp4335
g49
(g70
g51
NtRp4336
(dp4337
g54
(dp4338
sg63
g4332
sg56
(lp4339
g49
(g50
g51
NtRp4340
(dp4341
g54
(dp4342
g62
I1
ssg63
g4336
sg56
(lp4343
Nasbasbasbag49
(g65
g51
NtRp4344
(dp4345
g54
(dp4346
sg63
g4303
sg56
(lp4347
g49
(g70
g51
NtRp4348
(dp4349
g54
(dp4350
sg63
g4344
sg56
(lp4351
g49
(g50
g51
NtRp4352
(dp4353
g54
(dp4354
g62
I1
ssg63
g4348
sg56
(lp4355
(lp4356
(g3818
(S't\x06\x00\x00\x00Groups'
tRp4357
I00
S'http://www.web2py.com/examples/default/usergroups'
p4358
tp4359
a(g3818
(S't\x07\x00\x00\x00Twitter'
tRp4360
I00
S'http://twitter.com/web2py'
p4361
tp4362
a(g3818
(S's\t\x00\x00\x00Live Chat'
tRp4363
I00
S'http://webchat.freenode.net/?channels=web2py'
p4364
tp4365
aasbasbasbasbasbasbasbag49
(g65
g51
NtRp4366
(dp4367
g54
(dp4368
sg63
g3933
sg56
(lp4369
g49
(g70
g51
NtRp4370
(dp4371
g54
(dp4372
sg63
g4366
sg56
(lp4373
g49
(g50
g51
NtRp4374
(dp4375
g54
(dp4376
g62
I2
ssg63
g4370
sg56
(lp4377
g49
(g58
g51
NtRp4378
(dp4379
g54
(dp4380
g62
I1
ssg63
Nsg56
(lp4381
g49
(g65
g51
NtRp4382
(dp4383
g54
(dp4384
sg63
g4378
sg56
(lp4385
g49
(g70
g51
NtRp4386
(dp4387
g54
(dp4388
sg63
g4382
sg56
(lp4389
g49
(g50
g51
NtRp4390
(dp4391
g54
(dp4392
g62
I1
ssg63
g4386
sg56
(lp4393
g3818
(S't\x07\x00\x00\x00Plugins'
tRp4394
asbasbasbag49
(g65
g51
NtRp4395
(dp4396
g54
(dp4397
sg63
g4378
sg56
(lp4398
g49
(g70
g51
NtRp4399
(dp4400
g54
(dp4401
sg63
g4395
sg56
(lp4402
g49
(g50
g51
NtRp4403
(dp4404
g54
(dp4405
g62
I1
ssg63
g4399
sg56
(lp4406
I00
asbasbasbag49
(g65
g51
NtRp4407
(dp4408
g54
(dp4409
sg63
g4378
sg56
(lp4410
g49
(g70
g51
NtRp4411
(dp4412
g54
(dp4413
sg63
g4407
sg56
(lp4414
g49
(g50
g51
NtRp4415
(dp4416
g54
(dp4417
g62
I1
ssg63
g4411
sg56
(lp4418
Nasbasbasbag49
(g65
g51
NtRp4419
(dp4420
g54
(dp4421
sg63
g4378
sg56
(lp4422
g49
(g70
g51
NtRp4423
(dp4424
g54
(dp4425
sg63
g4419
sg56
(lp4426
g49
(g50
g51
NtRp4427
(dp4428
g54
(dp4429
g62
I1
ssg63
g4423
sg56
(lp4430
(lp4431
(S'plugin_wiki'
p4432
I00
S'http://web2py.com/examples/default/download'
p4433
tp4434
a(g3818
(S's\r\x00\x00\x00Other Plugins'
tRp4435
I00
g4165
tp4436
a(g3818
(S's\x0e\x00\x00\x00Layout Plugins'
tRp4437
I00
g4168
tp4438
aasbasbasbasbasbasbasbasbasbasbasbasbasbasbasbasbasbasbasbag49
(g65
g51
NtRp4439
(dp4440
g54
(dp4441
sg63
g3360
sg56
(lp4442
g49
(g70
g51
NtRp4443
(dp4444
g54
(dp4445
g74
g75
ssg63
g4439
sg56
(lp4446
S'meta'
p4447
asbag49
(g70
g51
NtRp4448
(dp4449
g54
(dp4450
g81
g82
ssg63
g4439
sg56
(lp4451
S':'
asbag49
(g70
g51
NtRp4452
(dp4453
g54
(dp4454
sg63
g4439
sg56
(lp4455
g49
(g50
g51
NtRp4456
(dp4457
g54
(dp4458
g62
I5
ssg63
g4452
sg56
(lp4459
g49
(g58
g51
NtRp4460
(dp4461
g54
(dp4462
g62
I4
ssg63
Nsg56
(lp4463
g49
(g65
g51
NtRp4464
(dp4465
g54
(dp4466
sg63
g4460
sg56
(lp4467
g49
(g70
g51
NtRp4468
(dp4469
g54
(dp4470
g74
g75
ssg63
g4464
sg56
(lp4471
S'author'
p4472
asbag49
(g70
g51
NtRp4473
(dp4474
g54
(dp4475
g81
g82
ssg63
g4464
sg56
(lp4476
S':'
asbag49
(g70
g51
NtRp4477
(dp4478
g54
(dp4479
sg63
g4464
sg56
(lp4480
g49
(g50
g51
NtRp4481
(dp4482
g54
(dp4483
g62
I4
ssg63
g4477
sg56
(lp4484
S'Your Name <you@example.com>'
p4485
asbasbasbag49
(g65
g51
NtRp4486
(dp4487
g54
(dp4488
sg63
g4460
sg56
(lp4489
g49
(g70
g51
NtRp4490
(dp4491
g54
(dp4492
g74
g75
ssg63
g4486
sg56
(lp4493
S'description'
p4494
asbag49
(g70
g51
NtRp4495
(dp4496
g54
(dp4497
g81
g82
ssg63
g4486
sg56
(lp4498
S':'
asbag49
(g70
g51
NtRp4499
(dp4500
g54
(dp4501
sg63
g4486
sg56
(lp4502
g49
(g50
g51
NtRp4503
(dp4504
g54
(dp4505
g62
I4
ssg63
g4499
sg56
(lp4506
S'a cool new app'
p4507
asbasbasbag49
(g65
g51
NtRp4508
(dp4509
g54
(dp4510
sg63
g4460
sg56
(lp4511
g49
(g70
g51
NtRp4512
(dp4513
g54
(dp4514
g74
g75
ssg63
g4508
sg56
(lp4515
S'generator'
p4516
asbag49
(g70
g51
NtRp4517
(dp4518
g54
(dp4519
g81
g82
ssg63
g4508
sg56
(lp4520
S':'
asbag49
(g70
g51
NtRp4521
(dp4522
g54
(dp4523
sg63
g4508
sg56
(lp4524
g49
(g50
g51
NtRp4525
(dp4526
g54
(dp4527
g62
I4
ssg63
g4521
sg56
(lp4528
S'Web2py Web Framework'
p4529
asbasbasbag49
(g65
g51
NtRp4530
(dp4531
g54
(dp4532
sg63
g4460
sg56
(lp4533
g49
(g70
g51
NtRp4534
(dp4535
g54
(dp4536
g74
g75
ssg63
g4530
sg56
(lp4537
S'keywords'
p4538
asbag49
(g70
g51
NtRp4539
(dp4540
g54
(dp4541
g81
g82
ssg63
g4530
sg56
(lp4542
S':'
asbag49
(g70
g51
NtRp4543
(dp4544
g54
(dp4545
sg63
g4530
sg56
(lp4546
g49
(g50
g51
NtRp4547
(dp4548
g54
(dp4549
g62
I4
ssg63
g4543
sg56
(lp4550
S'web2py, python, framework'
p4551
asbasbasbasbasbasbasbag49
(g65
g51
NtRp4552
(dp4553
g54
(dp4554
sg63
g3360
sg56
(lp4555
g49
(g70
g51
NtRp4556
(dp4557
g54
(dp4558
g74
g75
ssg63
g4552
sg56
(lp4559
S'models_to_run'
p4560
asbag49
(g70
g51
NtRp4561
(dp4562
g54
(dp4563
g81
g82
ssg63
g4552
sg56
(lp4564
S':'
asbag49
(g70
g51
NtRp4565
(dp4566
g54
(dp4567
sg63
g4552
sg56
(lp4568
g49
(g50
g51
NtRp4569
(dp4570
g54
(dp4571
g62
I5
ssg63
g4565
sg56
(lp4572
g49
(g58
g51
NtRp4573
(dp4574
g54
(dp4575
g62
I4
ssg63
Nsg56
(lp4576
g49
(g65
g51
NtRp4577
(dp4578
g54
(dp4579
sg63
g4573
sg56
(lp4580
g49
(g70
g51
NtRp4581
(dp4582
g54
(dp4583
sg63
g4577
sg56
(lp4584
g49
(g50
g51
NtRp4585
(dp4586
g54
(dp4587
g62
I4
ssg63
g4581
sg56
(lp4588
S'^\\w+\\.py$'
p4589
asbasbasbag49
(g65
g51
NtRp4590
(dp4591
g54
(dp4592
sg63
g4573
sg56
(lp4593
g49
(g70
g51
NtRp4594
(dp4595
g54
(dp4596
sg63
g4590
sg56
(lp4597
g49
(g50
g51
NtRp4598
(dp4599
g54
(dp4600
g62
I4
ssg63
g4594
sg56
(lp4601
S'^default/\\w+\\.py$'
p4602
asbasbasbag49
(g65
g51
NtRp4603
(dp4604
g54
(dp4605
sg63
g4573
sg56
(lp4606
g49
(g70
g51
NtRp4607
(dp4608
g54
(dp4609
sg63
g4603
sg56
(lp4610
g49
(g50
g51
NtRp4611
(dp4612
g54
(dp4613
g62
I4
ssg63
g4607
sg56
(lp4614
S'^default/show_image_comments/\\w+\\.py$'
p4615
asbasbasbasbasbasbasbag49
(g65
g51
NtRp4616
(dp4617
g54
(dp4618
sg63
g3360
sg56
(lp4619
g49
(g70
g51
NtRp4620
(dp4621
g54
(dp4622
g74
g75
ssg63
g4616
sg56
(lp4623
S'postprocessing'
p4624
asbag49
(g70
g51
NtRp4625
(dp4626
g54
(dp4627
g81
g82
ssg63
g4616
sg56
(lp4628
S':'
asbag49
(g70
g51
NtRp4629
(dp4630
g54
(dp4631
sg63
g4616
sg56
(lp4632
g49
(g50
g51
NtRp4633
(dp4634
g54
(dp4635
g62
I5
ssg63
g4629
sg56
(lp4636
g49
(g58
g51
NtRp4637
(dp4638
g54
(dp4639
g62
I4
ssg63
Nsg56
(lp4640
sbasbasbasbag49
(g65
g51
NtRp4641
(dp4642
g54
(dp4643
sg63
g3360
sg56
(lp4644
g49
(g70
g51
NtRp4645
(dp4646
g54
(dp4647
g74
g75
ssg63
g4641
sg56
(lp4648
S'session_cookie_expires'
p4649
asbag49
(g70
g51
NtRp4650
(dp4651
g54
(dp4652
g81
g82
ssg63
g4641
sg56
(lp4653
S':'
asbag49
(g70
g51
NtRp4654
(dp4655
g54
(dp4656
sg63
g4641
sg56
(lp4657
g49
(g50
g51
NtRp4658
(dp4659
g54
(dp4660
g62
I5
ssg63
g4654
sg56
(lp4661
S'None'
p4662
asbasbasbag49
(g65
g51
NtRp4663
(dp4664
g54
(dp4665
sg63
g3360
sg56
(lp4666
g49
(g70
g51
NtRp4667
(dp4668
g54
(dp4669
g74
g75
ssg63
g4663
sg56
(lp4670
S'session_data_name'
p4671
asbag49
(g70
g51
NtRp4672
(dp4673
g54
(dp4674
g81
g82
ssg63
g4663
sg56
(lp4675
S':'
asbag49
(g70
g51
NtRp4676
(dp4677
g54
(dp4678
sg63
g4663
sg56
(lp4679
g49
(g50
g51
NtRp4680
(dp4681
g54
(dp4682
g62
I5
ssg63
g4676
sg56
(lp4683
S'session_data_final_impulse'
p4684
asbasbasbag49
(g65
g51
NtRp4685
(dp4686
g54
(dp4687
sg63
g3360
sg56
(lp4688
g49
(g70
g51
NtRp4689
(dp4690
g54
(dp4691
g74
g75
ssg63
g4685
sg56
(lp4692
S'session_file'
p4693
asbag49
(g70
g51
NtRp4694
(dp4695
g54
(dp4696
g81
g82
ssg63
g4685
sg56
(lp4697
S':'
asbag49
(g70
g51
NtRp4698
(dp4699
g54
(dp4700
sg63
g4685
sg56
(lp4701
g49
(g50
g51
NtRp4702
(dp4703
g54
(dp4704
g62
I5
ssg63
g4698
sg56
(lp4705
S"<open file '/Users/abaric/Downloads/web2py/web2py.app/Contents/Resources/applications/Final_Impulse/sessions/127.0.0.1-fe54df76-3eba-4359-ae6d-98727f24814f', mode 'rb+' at 0x9593020>"
p4706
asbasbasbag49
(g65
g51
NtRp4707
(dp4708
g54
(dp4709
sg63
g3360
sg56
(lp4710
g49
(g70
g51
NtRp4711
(dp4712
g54
(dp4713
g74
g75
ssg63
g4707
sg56
(lp4714
S'session_filename'
p4715
asbag49
(g70
g51
NtRp4716
(dp4717
g54
(dp4718
g81
g82
ssg63
g4707
sg56
(lp4719
S':'
asbag49
(g70
g51
NtRp4720
(dp4721
g54
(dp4722
sg63
g4707
sg56
(lp4723
g49
(g50
g51
NtRp4724
(dp4725
g54
(dp4726
g62
I5
ssg63
g4720
sg56
(lp4727
S'/Users/abaric/Downloads/web2py/web2py.app/Contents/Resources/applications/Final_Impulse/sessions/127.0.0.1-fe54df76-3eba-4359-ae6d-98727f24814f'
p4728
asbasbasbag49
(g65
g51
NtRp4729
(dp4730
g54
(dp4731
sg63
g3360
sg56
(lp4732
g49
(g70
g51
NtRp4733
(dp4734
g54
(dp4735
g74
g75
ssg63
g4729
sg56
(lp4736
S'session_id'
p4737
asbag49
(g70
g51
NtRp4738
(dp4739
g54
(dp4740
g81
g82
ssg63
g4729
sg56
(lp4741
S':'
asbag49
(g70
g51
NtRp4742
(dp4743
g54
(dp4744
sg63
g4729
sg56
(lp4745
g49
(g50
g51
NtRp4746
(dp4747
g54
(dp4748
g62
I5
ssg63
g4742
sg56
(lp4749
g446
asbasbasbag49
(g65
g51
NtRp4750
(dp4751
g54
(dp4752
sg63
g3360
sg56
(lp4753
g49
(g70
g51
NtRp4754
(dp4755
g54
(dp4756
g74
g75
ssg63
g4750
sg56
(lp4757
S'session_id_name'
p4758
asbag49
(g70
g51
NtRp4759
(dp4760
g54
(dp4761
g81
g82
ssg63
g4750
sg56
(lp4762
S':'
asbag49
(g70
g51
NtRp4763
(dp4764
g54
(dp4765
sg63
g4750
sg56
(lp4766
g49
(g50
g51
NtRp4767
(dp4768
g54
(dp4769
g62
I5
ssg63
g4763
sg56
(lp4770
g3417
asbasbasbag49
(g65
g51
NtRp4771
(dp4772
g54
(dp4773
sg63
g3360
sg56
(lp4774
g49
(g70
g51
NtRp4775
(dp4776
g54
(dp4777
g74
g75
ssg63
g4771
sg56
(lp4778
S'session_locked'
p4779
asbag49
(g70
g51
NtRp4780
(dp4781
g54
(dp4782
g81
g82
ssg63
g4771
sg56
(lp4783
S':'
asbag49
(g70
g51
NtRp4784
(dp4785
g54
(dp4786
sg63
g4771
sg56
(lp4787
g49
(g50
g51
NtRp4788
(dp4789
g54
(dp4790
g62
I5
ssg63
g4784
sg56
(lp4791
g1865
asbasbasbag49
(g65
g51
NtRp4792
(dp4793
g54
(dp4794
sg63
g3360
sg56
(lp4795
g49
(g70
g51
NtRp4796
(dp4797
g54
(dp4798
g74
g75
ssg63
g4792
sg56
(lp4799
S'session_new'
p4800
asbag49
(g70
g51
NtRp4801
(dp4802
g54
(dp4803
g81
g82
ssg63
g4792
sg56
(lp4804
S':'
asbag49
(g70
g51
NtRp4805
(dp4806
g54
(dp4807
sg63
g4792
sg56
(lp4808
g49
(g50
g51
NtRp4809
(dp4810
g54
(dp4811
g62
I5
ssg63
g4805
sg56
(lp4812
g92
asbasbasbag49
(g65
g51
NtRp4813
(dp4814
g54
(dp4815
sg63
g3360
sg56
(lp4816
g49
(g70
g51
NtRp4817
(dp4818
g54
(dp4819
g74
g75
ssg63
g4813
sg56
(lp4820
S'session_storage_type'
p4821
asbag49
(g70
g51
NtRp4822
(dp4823
g54
(dp4824
g81
g82
ssg63
g4813
sg56
(lp4825
S':'
asbag49
(g70
g51
NtRp4826
(dp4827
g54
(dp4828
sg63
g4813
sg56
(lp4829
g49
(g50
g51
NtRp4830
(dp4831
g54
(dp4832
g62
I5
ssg63
g4826
sg56
(lp4833
g3296
asbasbasbag49
(g65
g51
NtRp4834
(dp4835
g54
(dp4836
sg63
g3360
sg56
(lp4837
g49
(g70
g51
NtRp4838
(dp4839
g54
(dp4840
g74
g75
ssg63
g4834
sg56
(lp4841
S'status'
p4842
asbag49
(g70
g51
NtRp4843
(dp4844
g54
(dp4845
g81
g82
ssg63
g4834
sg56
(lp4846
S':'
asbag49
(g70
g51
NtRp4847
(dp4848
g54
(dp4849
sg63
g4834
sg56
(lp4850
g49
(g50
g51
NtRp4851
(dp4852
g54
(dp4853
g62
I5
ssg63
g4847
sg56
(lp4854
S'200'
p4855
asbasbasbag49
(g65
g51
NtRp4856
(dp4857
g54
(dp4858
sg63
g3360
sg56
(lp4859
g49
(g70
g51
NtRp4860
(dp4861
g54
(dp4862
g74
g75
ssg63
g4856
sg56
(lp4863
S'subtitle'
p4864
asbag49
(g70
g51
NtRp4865
(dp4866
g54
(dp4867
g81
g82
ssg63
g4856
sg56
(lp4868
S':'
asbag49
(g70
g51
NtRp4869
(dp4870
g54
(dp4871
sg63
g4856
sg56
(lp4872
g49
(g50
g51
NtRp4873
(dp4874
g54
(dp4875
g62
I5
ssg63
g4869
sg56
(lp4876
g3818
(S's\r\x00\x00\x00customize me!'
tRp4877
asbasbasbag49
(g65
g51
NtRp4878
(dp4879
g54
(dp4880
sg63
g3360
sg56
(lp4881
g49
(g70
g51
NtRp4882
(dp4883
g54
(dp4884
g74
g75
ssg63
g4878
sg56
(lp4885
S'title'
p4886
asbag49
(g70
g51
NtRp4887
(dp4888
g54
(dp4889
g81
g82
ssg63
g4878
sg56
(lp4890
S':'
asbag49
(g70
g51
NtRp4891
(dp4892
g54
(dp4893
sg63
g4878
sg56
(lp4894
g49
(g50
g51
NtRp4895
(dp4896
g54
(dp4897
g62
I5
ssg63
g4891
sg56
(lp4898
S'Final Impulse'
p4899
asbasbasbag49
(g65
g51
NtRp4900
(dp4901
g54
(dp4902
sg63
g3360
sg56
(lp4903
g49
(g70
g51
NtRp4904
(dp4905
g54
(dp4906
g74
g75
ssg63
g4900
sg56
(lp4907
S'view'
p4908
asbag49
(g70
g51
NtRp4909
(dp4910
g54
(dp4911
g81
g82
ssg63
g4900
sg56
(lp4912
S':'
asbag49
(g70
g51
NtRp4913
(dp4914
g54
(dp4915
sg63
g4900
sg56
(lp4916
g49
(g50
g51
NtRp4917
(dp4918
g54
(dp4919
g62
I5
ssg63
g4913
sg56
(lp4920
S'default/show_image_comments.html'
p4921
asbasbasbasbasbsS'locals'
p4922
(dp4923
S'images'
p4924
S'<Rows (0)>'
p4925
sS'd'
g39
sS'form'
p4926
S'<gluon.sqlhtml.SQLFORM object at 0x9589cd0>'
p4927
sssS'traceback'
p4928
S'Traceback (most recent call last):\n  File "gluon/restricted.py", line 212, in restricted\n  File "/Users/abaric/Downloads/web2py/web2py.app/Contents/Resources/applications/Final_Impulse/controllers/default.py", line 110, in <module>\n  File "gluon/globals.py", line 188, in <lambda>\n  File "/Users/abaric/Downloads/web2py/web2py.app/Contents/Resources/applications/Final_Impulse/controllers/default.py", line 51, in show_image_comments\nUnboundLocalError: local variable \'image\' referenced before assignment\n'
p4929
s.