(dp1
S'output'
p2
S"<type 'exceptions.AttributeError'> 'NoneType' object has no attribute 'id'"
p3
sS'layer'
p4
S'/Users/abaric/Downloads/web2py/web2py.app/Contents/Resources/applications/Final_Impulse/controllers/default.py'
p5
sS'code'
p6
S"from gluon.tools import datetime\nfrom gluon.tools import Auth\n        \n@auth.requires_login()\n\ndef user():\n    return dict(form=auth())\n    \n#def load_roles():\n #  session.user_name=auth.user.first_name\n  # session.roles=[]\n   #     \n    #    if auth.has_membership('teacher'):\n     #       session.user_teacher_id=db(db.teacher.email==auth.user.email).select().first().id\n      #      t=('teacher','load_courses',session.user_teacher_id)\n       #     session.roles.append(t)\n        #    \n        #if auth.has_membership('advisor'):\n          #  session.user_advisor_id=db(db.advisor.email==auth.user.email).select().first().id\n           # a=('advisor','load_advisees',session.user_advisor_id)\n            #session.roles.append(a)\n            #\n        #if auth.has_membership('division_level'):\n         #   session.user_division_level_id=db(db.division_level.email==auth.user.email).select().first().id\n          #  divl=('division level','load_departments',session.user_division_level_id)\n           # session.roles.append(divl)\n                                      \ndef index():\n    return locals()\n\ndef download():\n    return response.download(request, db)\n\ndef show_image_comments():\n    image_form=SQLFORM(db.image,fields=['title','file'],labels={'file':'Your Image'})\n    image_form.vars.author_id=auth.user.id\n    if image_form.process().accepted:\n        response.flash='image submitted!'\n    images=db(db.image).select(db.image.ALL, orderby=db.image.id)\n    d={}\n    for image in images:\n        comments=db((db.image_comment.image_id==image.id) &\\\n                   (db.auth_user.id==db.image_comment.author_id)).select() \n        tuple_list=[]       \n        for comment in comments:\n            author=('%s %s')%(comment.auth_user.first_name,comment.auth_user.last_name)\n            body=('%s')%(comment.image_comment.body)\n            t=(author,body)\n            tuple_list.append(t)\n        d[image.id]=tuple_list\n  \n    form = SQLFORM(db.writing_comment)\n    if form.process().accepted:\n        response.flash = 'your comment is posted'\n    #images = db(db.image_comment.image_id==image.id).select()\n    return locals()\n    \ndef show_writing_comments():\n    writings = db().select(db.writing.ALL, orderby=db.writing.id)\n    d={}\n    for writing in writings:\n        comments=db((db.writing_comment.writing_id==writing.id) &\\\n                   (db.auth_user.id==db.writing_comment.author_id)).select() \n        tuple_list=[]       \n        for comment in comments:\n            author=('%s %s')%(comment.auth_user.first_name,comment.auth_user.last_name)\n            body=('%s')%(comment.writing_comment.body)\n            t=(author,body)\n            tuple_list.append(t)\n        d[writing.id]=tuple_list\n  \n    form = SQLFORM(db.writing_comment)\n    if form.process().accepted:\n        response.flash = 'your comment is posted'\n    #comments = db(db.writing_comment.writing_id==writing.id).select()\n    return locals()\n\ndef show_video_comments():\n    video = db.video(request.args(0))\n    videos=db().select(db.video.ALL, orderby=db.video.id)\n    video_comment=db.video_comment(request.args(0))\n    d={}\n    for video in videos:\n        comments=db((db.video_comment.video_id==video.id) &\\\n                   (db.auth_user.id==db.video_comment.author_id)).select() \n        tuple_list=[]       \n        for comment in comments:\n            author=('%s %s')%(comment.auth_user.first_name,comment.auth_user.last_name)\n            body=('%s')%(comment.video_comment.body)\n            t=(author,body)\n            tuple_list.append(t)\n        d[video.id]=tuple_list\n    form = SQLFORM(db.video_comment)\n    if form.process().accepted:\n        response.flash = 'your comment is posted'\n    return locals()  \n\ndef insert_writing_comment():\n    if auth.user:\n        writing_comment=request.post_vars.writing_comment\n       # db.writing_comment.insert(video_id=video_id,video_comment_id=video_comment_id, author_id=author_id,email=email,body=body)\n        writing_id=request.args(0)\n        db.writing_comment.insert(author_id=auth.user.id,\n                                  writing_id=writing_id,\n                                  email=None,\n                                  body=writing_comment,\n                                  date_of_entry=datetime.datetime.today())\n        db.commit()\n       \n    else:\n        session.flash='You must log in to post a comment.'\n    redirect(URL('show_writing_comments'))\n    return locals()\n\n\ndef insert_image_comment():\n    if auth.user:\n        image_comment=request.post_vars.image_comment\n       # db.writing_comment.insert(video_id=video_id,video_comment_id=video_comment_id, author_id=author_id,email=email,body=body)\n        image_id=request.args(0)\n        db.image_comment.insert(author_id=auth.user.id,\n                                  image_id=image_id,\n                                  email=None,\n                                  body=image_comment,\n                                  date_of_entry=datetime.datetime.today())\n        db.commit()\n       \n    else:\n        session.flash='You must log in to post a comment.'\n    redirect(URL('show_image_comments'))\n    return locals()\n    \ndef insert_video_comment():\n    if auth.user:\n        video_comment=request.post_vars.video_comment\n        video_id=request.args(0)\n        db.video_comment.insert(author_id=auth.user.id,\n                                  video_id=video_id,\n                                  email=None,\n                                  body=video_comment,\n                                  date_of_entry=datetime.datetime.today())\n        db.commit()\n       \n    else:\n        session.flash='You must log in to post a comment.'\n    redirect(URL('show_video_comments'))\n    return locals()\n\nresponse._vars=response._caller(show_image_comments)\n"
p7
sS'snapshot'
p8
(dp9
S'exception'
p10
(dp11
S'__hash__'
p12
S"<method-wrapper '__hash__' of exceptions.AttributeError object at 0x756daa8>"
p13
sS'__setattr__'
p14
S"<method-wrapper '__setattr__' of exceptions.AttributeError object at 0x756daa8>"
p15
sS'__reduce_ex__'
p16
S'<built-in method __reduce_ex__ of exceptions.AttributeError object at 0x756daa8>'
p17
sS'__getslice__'
p18
S"<method-wrapper '__getslice__' of exceptions.AttributeError object at 0x756daa8>"
p19
sS'__getitem__'
p20
S"<method-wrapper '__getitem__' of exceptions.AttributeError object at 0x756daa8>"
p21
sS'__setstate__'
p22
S'<built-in method __setstate__ of exceptions.AttributeError object at 0x756daa8>'
p23
sS'__reduce__'
p24
S'<built-in method __reduce__ of exceptions.AttributeError object at 0x756daa8>'
p25
sS'__str__'
p26
S"<method-wrapper '__str__' of exceptions.AttributeError object at 0x756daa8>"
p27
sS'args'
p28
S'("\'NoneType\' object has no attribute \'id\'",)'
p29
sS'__getattribute__'
p30
S"<method-wrapper '__getattribute__' of exceptions.AttributeError object at 0x756daa8>"
p31
sS'__class__'
p32
S"<type 'exceptions.AttributeError'>"
p33
sS'__delattr__'
p34
S"<method-wrapper '__delattr__' of exceptions.AttributeError object at 0x756daa8>"
p35
sS'__repr__'
p36
S"<method-wrapper '__repr__' of exceptions.AttributeError object at 0x756daa8>"
p37
sS'__dict__'
p38
S'{}'
p39
sS'__doc__'
p40
S"'Attribute not found.'"
p41
sS'__init__'
p42
S"<method-wrapper '__init__' of exceptions.AttributeError object at 0x756daa8>"
p43
sS'__new__'
p44
S'<built-in method __new__ of type object at 0x5f94a0>'
p45
ssS'evalue'
p46
S"'NoneType' object has no attribute 'id'"
p47
sS'request'
p48
ccopy_reg
_reconstructor
p49
(cgluon.html
BEAUTIFY
p50
c__builtin__
object
p51
NtRp52
(dp53
S'attributes'
p54
(dp55
sS'components'
p56
(lp57
g49
(cgluon.html
TABLE
p58
g51
NtRp59
(dp60
g54
(dp61
S'level'
p62
I5
ssS'parent'
p63
Nsg56
(lp64
g49
(cgluon.html
TR
p65
g51
NtRp66
(dp67
g54
(dp68
sg63
g59
sg56
(lp69
g49
(cgluon.html
TD
p70
g51
NtRp71
(dp72
g54
(dp73
S'_style'
p74
S'font-weight:bold;vertical-align:top'
p75
ssg63
g66
sg56
(lp76
S'ajax'
p77
asbag49
(g70
g51
NtRp78
(dp79
g54
(dp80
S'_valign'
p81
S'top'
p82
ssg63
g66
sg56
(lp83
S':'
asbag49
(g70
g51
NtRp84
(dp85
g54
(dp86
sg63
g66
sg56
(lp87
g49
(g50
g51
NtRp88
(dp89
g54
(dp90
g62
I5
ssg63
g84
sg56
(lp91
S'False'
p92
asbasbasbag49
(g65
g51
NtRp93
(dp94
g54
(dp95
sg63
g59
sg56
(lp96
g49
(g70
g51
NtRp97
(dp98
g54
(dp99
g74
g75
ssg63
g93
sg56
(lp100
S'application'
p101
asbag49
(g70
g51
NtRp102
(dp103
g54
(dp104
g81
g82
ssg63
g93
sg56
(lp105
S':'
asbag49
(g70
g51
NtRp106
(dp107
g54
(dp108
sg63
g93
sg56
(lp109
g49
(g50
g51
NtRp110
(dp111
g54
(dp112
g62
I5
ssg63
g106
sg56
(lp113
S'Final_Impulse'
p114
asbasbasbag49
(g65
g51
NtRp115
(dp116
g54
(dp117
sg63
g59
sg56
(lp118
g49
(g70
g51
NtRp119
(dp120
g54
(dp121
g74
g75
ssg63
g115
sg56
(lp122
g28
asbag49
(g70
g51
NtRp123
(dp124
g54
(dp125
g81
g82
ssg63
g115
sg56
(lp126
S':'
asbag49
(g70
g51
NtRp127
(dp128
g54
(dp129
sg63
g115
sg56
(lp130
g49
(g50
g51
NtRp131
(dp132
g54
(dp133
g62
I5
ssg63
g127
sg56
(lp134
g49
(g58
g51
NtRp135
(dp136
g54
(dp137
g62
I4
ssg63
Nsg56
(lp138
sbasbasbasbag49
(g65
g51
NtRp139
(dp140
g54
(dp141
sg63
g59
sg56
(lp142
g49
(g70
g51
NtRp143
(dp144
g54
(dp145
g74
g75
ssg63
g139
sg56
(lp146
S'body'
p147
asbag49
(g70
g51
NtRp148
(dp149
g54
(dp150
g81
g82
ssg63
g139
sg56
(lp151
S':'
asbag49
(g70
g51
NtRp152
(dp153
g54
(dp154
sg63
g139
sg56
(lp155
g49
(g50
g51
NtRp156
(dp157
g54
(dp158
g62
I5
ssg63
g152
sg56
(lp159
S'<cStringIO.StringO object at 0x756c040>'
p160
asbasbasbag49
(g65
g51
NtRp161
(dp162
g54
(dp163
sg63
g59
sg56
(lp164
g49
(g70
g51
NtRp165
(dp166
g54
(dp167
g74
g75
ssg63
g161
sg56
(lp168
S'cid'
p169
asbag49
(g70
g51
NtRp170
(dp171
g54
(dp172
g81
g82
ssg63
g161
sg56
(lp173
S':'
asbag49
(g70
g51
NtRp174
(dp175
g54
(dp176
sg63
g161
sg56
(lp177
g49
(g50
g51
NtRp178
(dp179
g54
(dp180
g62
I5
ssg63
g174
sg56
(lp181
S'None'
p182
asbasbasbag49
(g65
g51
NtRp183
(dp184
g54
(dp185
sg63
g59
sg56
(lp186
g49
(g70
g51
NtRp187
(dp188
g54
(dp189
g74
g75
ssg63
g183
sg56
(lp190
S'client'
p191
asbag49
(g70
g51
NtRp192
(dp193
g54
(dp194
g81
g82
ssg63
g183
sg56
(lp195
S':'
asbag49
(g70
g51
NtRp196
(dp197
g54
(dp198
sg63
g183
sg56
(lp199
g49
(g50
g51
NtRp200
(dp201
g54
(dp202
g62
I5
ssg63
g196
sg56
(lp203
S'127.0.0.1'
p204
asbasbasbag49
(g65
g51
NtRp205
(dp206
g54
(dp207
sg63
g59
sg56
(lp208
g49
(g70
g51
NtRp209
(dp210
g54
(dp211
g74
g75
ssg63
g205
sg56
(lp212
S'controller'
p213
asbag49
(g70
g51
NtRp214
(dp215
g54
(dp216
g81
g82
ssg63
g205
sg56
(lp217
S':'
asbag49
(g70
g51
NtRp218
(dp219
g54
(dp220
sg63
g205
sg56
(lp221
g49
(g50
g51
NtRp222
(dp223
g54
(dp224
g62
I5
ssg63
g218
sg56
(lp225
S'default'
p226
asbasbasbag49
(g65
g51
NtRp227
(dp228
g54
(dp229
sg63
g59
sg56
(lp230
g49
(g70
g51
NtRp231
(dp232
g54
(dp233
g74
g75
ssg63
g227
sg56
(lp234
S'cookies'
p235
asbag49
(g70
g51
NtRp236
(dp237
g54
(dp238
g81
g82
ssg63
g227
sg56
(lp239
S':'
asbag49
(g70
g51
NtRp240
(dp241
g54
(dp242
sg63
g227
sg56
(lp243
g49
(g50
g51
NtRp244
(dp245
g54
(dp246
g62
I5
ssg63
g240
sg56
(lp247
g49
(g58
g51
NtRp248
(dp249
g54
(dp250
g62
I4
ssg63
Nsg56
(lp251
g49
(g65
g51
NtRp252
(dp253
g54
(dp254
sg63
g248
sg56
(lp255
g49
(g70
g51
NtRp256
(dp257
g54
(dp258
g74
g75
ssg63
g252
sg56
(lp259
S'session_id_admin'
p260
asbag49
(g70
g51
NtRp261
(dp262
g54
(dp263
g81
g82
ssg63
g252
sg56
(lp264
S':'
asbag49
(g70
g51
NtRp265
(dp266
g54
(dp267
sg63
g252
sg56
(lp268
g49
(g50
g51
NtRp269
(dp270
g54
(dp271
g62
I4
ssg63
g265
sg56
(lp272
S'127.0.0.1-d4f35d9e-5002-4260-ab26-41de03943f95'
p273
ag49
(g58
g51
NtRp274
(dp275
g54
(dp276
g62
I3
ssg63
Nsg56
(lp277
g49
(g65
g51
NtRp278
(dp279
g54
(dp280
sg63
g274
sg56
(lp281
g49
(g70
g51
NtRp282
(dp283
g54
(dp284
g74
g75
ssg63
g278
sg56
(lp285
S'comment'
p286
asbag49
(g70
g51
NtRp287
(dp288
g54
(dp289
g81
g82
ssg63
g278
sg56
(lp290
S':'
asbag49
(g70
g51
NtRp291
(dp292
g54
(dp293
sg63
g278
sg56
(lp294
g49
(g50
g51
NtRp295
(dp296
g54
(dp297
g62
I3
ssg63
g291
sg56
(lp298
S''
asbasbasbag49
(g65
g51
NtRp299
(dp300
g54
(dp301
sg63
g274
sg56
(lp302
g49
(g70
g51
NtRp303
(dp304
g54
(dp305
g74
g75
ssg63
g299
sg56
(lp306
S'domain'
p307
asbag49
(g70
g51
NtRp308
(dp309
g54
(dp310
g81
g82
ssg63
g299
sg56
(lp311
S':'
asbag49
(g70
g51
NtRp312
(dp313
g54
(dp314
sg63
g299
sg56
(lp315
g49
(g50
g51
NtRp316
(dp317
g54
(dp318
g62
I3
ssg63
g312
sg56
(lp319
S''
asbasbasbag49
(g65
g51
NtRp320
(dp321
g54
(dp322
sg63
g274
sg56
(lp323
g49
(g70
g51
NtRp324
(dp325
g54
(dp326
g74
g75
ssg63
g320
sg56
(lp327
S'expires'
p328
asbag49
(g70
g51
NtRp329
(dp330
g54
(dp331
g81
g82
ssg63
g320
sg56
(lp332
S':'
asbag49
(g70
g51
NtRp333
(dp334
g54
(dp335
sg63
g320
sg56
(lp336
g49
(g50
g51
NtRp337
(dp338
g54
(dp339
g62
I3
ssg63
g333
sg56
(lp340
S''
asbasbasbag49
(g65
g51
NtRp341
(dp342
g54
(dp343
sg63
g274
sg56
(lp344
g49
(g70
g51
NtRp345
(dp346
g54
(dp347
g74
g75
ssg63
g341
sg56
(lp348
S'max-age'
p349
asbag49
(g70
g51
NtRp350
(dp351
g54
(dp352
g81
g82
ssg63
g341
sg56
(lp353
S':'
asbag49
(g70
g51
NtRp354
(dp355
g54
(dp356
sg63
g341
sg56
(lp357
g49
(g50
g51
NtRp358
(dp359
g54
(dp360
g62
I3
ssg63
g354
sg56
(lp361
S''
asbasbasbag49
(g65
g51
NtRp362
(dp363
g54
(dp364
sg63
g274
sg56
(lp365
g49
(g70
g51
NtRp366
(dp367
g54
(dp368
g74
g75
ssg63
g362
sg56
(lp369
S'path'
p370
asbag49
(g70
g51
NtRp371
(dp372
g54
(dp373
g81
g82
ssg63
g362
sg56
(lp374
S':'
asbag49
(g70
g51
NtRp375
(dp376
g54
(dp377
sg63
g362
sg56
(lp378
g49
(g50
g51
NtRp379
(dp380
g54
(dp381
g62
I3
ssg63
g375
sg56
(lp382
S''
asbasbasbag49
(g65
g51
NtRp383
(dp384
g54
(dp385
sg63
g274
sg56
(lp386
g49
(g70
g51
NtRp387
(dp388
g54
(dp389
g74
g75
ssg63
g383
sg56
(lp390
S'secure'
p391
asbag49
(g70
g51
NtRp392
(dp393
g54
(dp394
g81
g82
ssg63
g383
sg56
(lp395
S':'
asbag49
(g70
g51
NtRp396
(dp397
g54
(dp398
sg63
g383
sg56
(lp399
g49
(g50
g51
NtRp400
(dp401
g54
(dp402
g62
I3
ssg63
g396
sg56
(lp403
S''
asbasbasbag49
(g65
g51
NtRp404
(dp405
g54
(dp406
sg63
g274
sg56
(lp407
g49
(g70
g51
NtRp408
(dp409
g54
(dp410
g74
g75
ssg63
g404
sg56
(lp411
S'version'
p412
asbag49
(g70
g51
NtRp413
(dp414
g54
(dp415
g81
g82
ssg63
g404
sg56
(lp416
S':'
asbag49
(g70
g51
NtRp417
(dp418
g54
(dp419
sg63
g404
sg56
(lp420
g49
(g50
g51
NtRp421
(dp422
g54
(dp423
g62
I3
ssg63
g417
sg56
(lp424
S''
asbasbasbasbasbasbasbag49
(g65
g51
NtRp425
(dp426
g54
(dp427
sg63
g248
sg56
(lp428
g49
(g70
g51
NtRp429
(dp430
g54
(dp431
g74
g75
ssg63
g425
sg56
(lp432
S'session_id_final_impulse'
p433
asbag49
(g70
g51
NtRp434
(dp435
g54
(dp436
g81
g82
ssg63
g425
sg56
(lp437
S':'
asbag49
(g70
g51
NtRp438
(dp439
g54
(dp440
sg63
g425
sg56
(lp441
g49
(g50
g51
NtRp442
(dp443
g54
(dp444
g62
I4
ssg63
g438
sg56
(lp445
S'127.0.0.1-9ec1eaa7-e960-4ffd-b185-8aa1d4348b8d'
p446
ag49
(g58
g51
NtRp447
(dp448
g54
(dp449
g62
I3
ssg63
Nsg56
(lp450
g49
(g65
g51
NtRp451
(dp452
g54
(dp453
sg63
g447
sg56
(lp454
g49
(g70
g51
NtRp455
(dp456
g54
(dp457
g74
g75
ssg63
g451
sg56
(lp458
g286
asbag49
(g70
g51
NtRp459
(dp460
g54
(dp461
g81
g82
ssg63
g451
sg56
(lp462
S':'
asbag49
(g70
g51
NtRp463
(dp464
g54
(dp465
sg63
g451
sg56
(lp466
g49
(g50
g51
NtRp467
(dp468
g54
(dp469
g62
I3
ssg63
g463
sg56
(lp470
S''
asbasbasbag49
(g65
g51
NtRp471
(dp472
g54
(dp473
sg63
g447
sg56
(lp474
g49
(g70
g51
NtRp475
(dp476
g54
(dp477
g74
g75
ssg63
g471
sg56
(lp478
g307
asbag49
(g70
g51
NtRp479
(dp480
g54
(dp481
g81
g82
ssg63
g471
sg56
(lp482
S':'
asbag49
(g70
g51
NtRp483
(dp484
g54
(dp485
sg63
g471
sg56
(lp486
g49
(g50
g51
NtRp487
(dp488
g54
(dp489
g62
I3
ssg63
g483
sg56
(lp490
S''
asbasbasbag49
(g65
g51
NtRp491
(dp492
g54
(dp493
sg63
g447
sg56
(lp494
g49
(g70
g51
NtRp495
(dp496
g54
(dp497
g74
g75
ssg63
g491
sg56
(lp498
g328
asbag49
(g70
g51
NtRp499
(dp500
g54
(dp501
g81
g82
ssg63
g491
sg56
(lp502
S':'
asbag49
(g70
g51
NtRp503
(dp504
g54
(dp505
sg63
g491
sg56
(lp506
g49
(g50
g51
NtRp507
(dp508
g54
(dp509
g62
I3
ssg63
g503
sg56
(lp510
S''
asbasbasbag49
(g65
g51
NtRp511
(dp512
g54
(dp513
sg63
g447
sg56
(lp514
g49
(g70
g51
NtRp515
(dp516
g54
(dp517
g74
g75
ssg63
g511
sg56
(lp518
g349
asbag49
(g70
g51
NtRp519
(dp520
g54
(dp521
g81
g82
ssg63
g511
sg56
(lp522
S':'
asbag49
(g70
g51
NtRp523
(dp524
g54
(dp525
sg63
g511
sg56
(lp526
g49
(g50
g51
NtRp527
(dp528
g54
(dp529
g62
I3
ssg63
g523
sg56
(lp530
S''
asbasbasbag49
(g65
g51
NtRp531
(dp532
g54
(dp533
sg63
g447
sg56
(lp534
g49
(g70
g51
NtRp535
(dp536
g54
(dp537
g74
g75
ssg63
g531
sg56
(lp538
g370
asbag49
(g70
g51
NtRp539
(dp540
g54
(dp541
g81
g82
ssg63
g531
sg56
(lp542
S':'
asbag49
(g70
g51
NtRp543
(dp544
g54
(dp545
sg63
g531
sg56
(lp546
g49
(g50
g51
NtRp547
(dp548
g54
(dp549
g62
I3
ssg63
g543
sg56
(lp550
S''
asbasbasbag49
(g65
g51
NtRp551
(dp552
g54
(dp553
sg63
g447
sg56
(lp554
g49
(g70
g51
NtRp555
(dp556
g54
(dp557
g74
g75
ssg63
g551
sg56
(lp558
g391
asbag49
(g70
g51
NtRp559
(dp560
g54
(dp561
g81
g82
ssg63
g551
sg56
(lp562
S':'
asbag49
(g70
g51
NtRp563
(dp564
g54
(dp565
sg63
g551
sg56
(lp566
g49
(g50
g51
NtRp567
(dp568
g54
(dp569
g62
I3
ssg63
g563
sg56
(lp570
S''
asbasbasbag49
(g65
g51
NtRp571
(dp572
g54
(dp573
sg63
g447
sg56
(lp574
g49
(g70
g51
NtRp575
(dp576
g54
(dp577
g74
g75
ssg63
g571
sg56
(lp578
g412
asbag49
(g70
g51
NtRp579
(dp580
g54
(dp581
g81
g82
ssg63
g571
sg56
(lp582
S':'
asbag49
(g70
g51
NtRp583
(dp584
g54
(dp585
sg63
g571
sg56
(lp586
g49
(g50
g51
NtRp587
(dp588
g54
(dp589
g62
I3
ssg63
g583
sg56
(lp590
S''
asbasbasbasbasbasbasbag49
(g65
g51
NtRp591
(dp592
g54
(dp593
sg63
g248
sg56
(lp594
g49
(g70
g51
NtRp595
(dp596
g54
(dp597
g74
g75
ssg63
g591
sg56
(lp598
S'session_id_welcome'
p599
asbag49
(g70
g51
NtRp600
(dp601
g54
(dp602
g81
g82
ssg63
g591
sg56
(lp603
S':'
asbag49
(g70
g51
NtRp604
(dp605
g54
(dp606
sg63
g591
sg56
(lp607
g49
(g50
g51
NtRp608
(dp609
g54
(dp610
g62
I4
ssg63
g604
sg56
(lp611
S'127.0.0.1-7ae0b734-5aae-4df8-9ac9-d69e05f81f9c'
p612
ag49
(g58
g51
NtRp613
(dp614
g54
(dp615
g62
I3
ssg63
Nsg56
(lp616
g49
(g65
g51
NtRp617
(dp618
g54
(dp619
sg63
g613
sg56
(lp620
g49
(g70
g51
NtRp621
(dp622
g54
(dp623
g74
g75
ssg63
g617
sg56
(lp624
g286
asbag49
(g70
g51
NtRp625
(dp626
g54
(dp627
g81
g82
ssg63
g617
sg56
(lp628
S':'
asbag49
(g70
g51
NtRp629
(dp630
g54
(dp631
sg63
g617
sg56
(lp632
g49
(g50
g51
NtRp633
(dp634
g54
(dp635
g62
I3
ssg63
g629
sg56
(lp636
S''
asbasbasbag49
(g65
g51
NtRp637
(dp638
g54
(dp639
sg63
g613
sg56
(lp640
g49
(g70
g51
NtRp641
(dp642
g54
(dp643
g74
g75
ssg63
g637
sg56
(lp644
g307
asbag49
(g70
g51
NtRp645
(dp646
g54
(dp647
g81
g82
ssg63
g637
sg56
(lp648
S':'
asbag49
(g70
g51
NtRp649
(dp650
g54
(dp651
sg63
g637
sg56
(lp652
g49
(g50
g51
NtRp653
(dp654
g54
(dp655
g62
I3
ssg63
g649
sg56
(lp656
S''
asbasbasbag49
(g65
g51
NtRp657
(dp658
g54
(dp659
sg63
g613
sg56
(lp660
g49
(g70
g51
NtRp661
(dp662
g54
(dp663
g74
g75
ssg63
g657
sg56
(lp664
g328
asbag49
(g70
g51
NtRp665
(dp666
g54
(dp667
g81
g82
ssg63
g657
sg56
(lp668
S':'
asbag49
(g70
g51
NtRp669
(dp670
g54
(dp671
sg63
g657
sg56
(lp672
g49
(g50
g51
NtRp673
(dp674
g54
(dp675
g62
I3
ssg63
g669
sg56
(lp676
S''
asbasbasbag49
(g65
g51
NtRp677
(dp678
g54
(dp679
sg63
g613
sg56
(lp680
g49
(g70
g51
NtRp681
(dp682
g54
(dp683
g74
g75
ssg63
g677
sg56
(lp684
g349
asbag49
(g70
g51
NtRp685
(dp686
g54
(dp687
g81
g82
ssg63
g677
sg56
(lp688
S':'
asbag49
(g70
g51
NtRp689
(dp690
g54
(dp691
sg63
g677
sg56
(lp692
g49
(g50
g51
NtRp693
(dp694
g54
(dp695
g62
I3
ssg63
g689
sg56
(lp696
S''
asbasbasbag49
(g65
g51
NtRp697
(dp698
g54
(dp699
sg63
g613
sg56
(lp700
g49
(g70
g51
NtRp701
(dp702
g54
(dp703
g74
g75
ssg63
g697
sg56
(lp704
g370
asbag49
(g70
g51
NtRp705
(dp706
g54
(dp707
g81
g82
ssg63
g697
sg56
(lp708
S':'
asbag49
(g70
g51
NtRp709
(dp710
g54
(dp711
sg63
g697
sg56
(lp712
g49
(g50
g51
NtRp713
(dp714
g54
(dp715
g62
I3
ssg63
g709
sg56
(lp716
S''
asbasbasbag49
(g65
g51
NtRp717
(dp718
g54
(dp719
sg63
g613
sg56
(lp720
g49
(g70
g51
NtRp721
(dp722
g54
(dp723
g74
g75
ssg63
g717
sg56
(lp724
g391
asbag49
(g70
g51
NtRp725
(dp726
g54
(dp727
g81
g82
ssg63
g717
sg56
(lp728
S':'
asbag49
(g70
g51
NtRp729
(dp730
g54
(dp731
sg63
g717
sg56
(lp732
g49
(g50
g51
NtRp733
(dp734
g54
(dp735
g62
I3
ssg63
g729
sg56
(lp736
S''
asbasbasbag49
(g65
g51
NtRp737
(dp738
g54
(dp739
sg63
g613
sg56
(lp740
g49
(g70
g51
NtRp741
(dp742
g54
(dp743
g74
g75
ssg63
g737
sg56
(lp744
g412
asbag49
(g70
g51
NtRp745
(dp746
g54
(dp747
g81
g82
ssg63
g737
sg56
(lp748
S':'
asbag49
(g70
g51
NtRp749
(dp750
g54
(dp751
sg63
g737
sg56
(lp752
g49
(g50
g51
NtRp753
(dp754
g54
(dp755
g62
I3
ssg63
g749
sg56
(lp756
S''
asbasbasbasbasbasbasbasbasbasbasbag49
(g65
g51
NtRp757
(dp758
g54
(dp759
sg63
g59
sg56
(lp760
g49
(g70
g51
NtRp761
(dp762
g54
(dp763
g74
g75
ssg63
g757
sg56
(lp764
S'env'
p765
asbag49
(g70
g51
NtRp766
(dp767
g54
(dp768
g81
g82
ssg63
g757
sg56
(lp769
S':'
asbag49
(g70
g51
NtRp770
(dp771
g54
(dp772
sg63
g757
sg56
(lp773
g49
(g50
g51
NtRp774
(dp775
g54
(dp776
g62
I5
ssg63
g770
sg56
(lp777
g49
(g58
g51
NtRp778
(dp779
g54
(dp780
g62
I4
ssg63
Nsg56
(lp781
g49
(g65
g51
NtRp782
(dp783
g54
(dp784
sg63
g778
sg56
(lp785
g49
(g70
g51
NtRp786
(dp787
g54
(dp788
g74
g75
ssg63
g782
sg56
(lp789
S'app_folders'
p790
asbag49
(g70
g51
NtRp791
(dp792
g54
(dp793
g81
g82
ssg63
g782
sg56
(lp794
S':'
asbag49
(g70
g51
NtRp795
(dp796
g54
(dp797
sg63
g782
sg56
(lp798
g49
(g50
g51
NtRp799
(dp800
g54
(dp801
g62
I4
ssg63
g795
sg56
(lp802
S"set(['/Users/abaric/Downloads/web2py/web2py.app/Contents/Resources/applications/Final_Impulse/', '/Users/abaric/Downloads/web2py/web2py.app/Contents/Resources/applications/welcome/', '/Users/abaric/Downloads/web2py/web2py.app/Contents/Resources/applications/admin/'])"
p803
asbasbasbag49
(g65
g51
NtRp804
(dp805
g54
(dp806
sg63
g778
sg56
(lp807
g49
(g70
g51
NtRp808
(dp809
g54
(dp810
g74
g75
ssg63
g804
sg56
(lp811
S'applications_parent'
p812
asbag49
(g70
g51
NtRp813
(dp814
g54
(dp815
g81
g82
ssg63
g804
sg56
(lp816
S':'
asbag49
(g70
g51
NtRp817
(dp818
g54
(dp819
sg63
g804
sg56
(lp820
g49
(g50
g51
NtRp821
(dp822
g54
(dp823
g62
I4
ssg63
g817
sg56
(lp824
S'/Users/abaric/Downloads/web2py/web2py.app/Contents/Resources'
p825
asbasbasbag49
(g65
g51
NtRp826
(dp827
g54
(dp828
sg63
g778
sg56
(lp829
g49
(g70
g51
NtRp830
(dp831
g54
(dp832
g74
g75
ssg63
g826
sg56
(lp833
S'cmd_args'
p834
asbag49
(g70
g51
NtRp835
(dp836
g54
(dp837
g81
g82
ssg63
g826
sg56
(lp838
S':'
asbag49
(g70
g51
NtRp839
(dp840
g54
(dp841
sg63
g826
sg56
(lp842
g49
(g50
g51
NtRp843
(dp844
g54
(dp845
g62
I4
ssg63
g839
sg56
(lp846
g49
(g58
g51
NtRp847
(dp848
g54
(dp849
g62
I3
ssg63
Nsg56
(lp850
sbasbasbasbag49
(g65
g51
NtRp851
(dp852
g54
(dp853
sg63
g778
sg56
(lp854
g49
(g70
g51
NtRp855
(dp856
g54
(dp857
g74
g75
ssg63
g851
sg56
(lp858
S'cmd_options'
p859
asbag49
(g70
g51
NtRp860
(dp861
g54
(dp862
g81
g82
ssg63
g851
sg56
(lp863
S':'
asbag49
(g70
g51
NtRp864
(dp865
g54
(dp866
sg63
g851
sg56
(lp867
g49
(g50
g51
NtRp868
(dp869
g54
(dp870
g62
I4
ssg63
g864
sg56
(lp871
S"<Values at 0x446d1c0: {'verbose': False, 'ip': '127.0.0.1', 'with_scheduler': False, 'ips': ['10.1.9.199'], 'shutdown_timeout': 5, 'taskbar': False, 'port': 8000, 'maxthreads': None, 'softcron': False, 'server_name': 'Andrea-Barics-MacBook-Pro.local', 'bpython': False, 'nogui': False, 'pid_filename': 'httpserver.pid', 'extcron': False, 'runcron': False, 'run_system_tests': False, 'test': None, 'folder': '/Users/abaric/Downloads/web2py/web2py.app/Contents/Resources', 'config': '', 'import_models': False, 'winservice': '', 'shell': None, 'run': '', 'log_filename': 'httpserver.log', 'debuglevel': 30, 'args': [''], 'socket_timeout': 5, 'ssl_ca_certificate': None, 'scheduler': None, 'profiler_filename': None, 'ssl_private_key': '', 'scheduler_groups': None, 'password': '<ask>', 'request_queue_size': 5, 'ssl_certificate': '', 'cronjob': False, 'numthreads': None, 'quiet': False, 'interfaces': None, 'minthreads': None, 'timeout': 10, 'plain': False, 'nobanner': False}>"
p872
asbasbasbag49
(g65
g51
NtRp873
(dp874
g54
(dp875
sg63
g778
sg56
(lp876
g49
(g70
g51
NtRp877
(dp878
g54
(dp879
g74
g75
ssg63
g873
sg56
(lp880
S'db_sessions'
p881
asbag49
(g70
g51
NtRp882
(dp883
g54
(dp884
g81
g82
ssg63
g873
sg56
(lp885
S':'
asbag49
(g70
g51
NtRp886
(dp887
g54
(dp888
sg63
g873
sg56
(lp889
g49
(g50
g51
NtRp890
(dp891
g54
(dp892
g62
I4
ssg63
g886
sg56
(lp893
S'set([])'
p894
asbasbasbag49
(g65
g51
NtRp895
(dp896
g54
(dp897
sg63
g778
sg56
(lp898
g49
(g70
g51
NtRp899
(dp900
g54
(dp901
g74
g75
ssg63
g895
sg56
(lp902
S'debugging'
p903
asbag49
(g70
g51
NtRp904
(dp905
g54
(dp906
g81
g82
ssg63
g895
sg56
(lp907
S':'
asbag49
(g70
g51
NtRp908
(dp909
g54
(dp910
sg63
g895
sg56
(lp911
g49
(g50
g51
NtRp912
(dp913
g54
(dp914
g62
I4
ssg63
g908
sg56
(lp915
g92
asbasbasbag49
(g65
g51
NtRp916
(dp917
g54
(dp918
sg63
g778
sg56
(lp919
g49
(g70
g51
NtRp920
(dp921
g54
(dp922
g74
g75
ssg63
g916
sg56
(lp923
S'gluon_parent'
p924
asbag49
(g70
g51
NtRp925
(dp926
g54
(dp927
g81
g82
ssg63
g916
sg56
(lp928
S':'
asbag49
(g70
g51
NtRp929
(dp930
g54
(dp931
sg63
g916
sg56
(lp932
g49
(g50
g51
NtRp933
(dp934
g54
(dp935
g62
I4
ssg63
g929
sg56
(lp936
S'/Users/abaric/Downloads/web2py/web2py.app/Contents/Resources'
p937
asbasbasbag49
(g65
g51
NtRp938
(dp939
g54
(dp940
sg63
g778
sg56
(lp941
g49
(g70
g51
NtRp942
(dp943
g54
(dp944
g74
g75
ssg63
g938
sg56
(lp945
S'http_accept'
p946
asbag49
(g70
g51
NtRp947
(dp948
g54
(dp949
g81
g82
ssg63
g938
sg56
(lp950
S':'
asbag49
(g70
g51
NtRp951
(dp952
g54
(dp953
sg63
g938
sg56
(lp954
g49
(g50
g51
NtRp955
(dp956
g54
(dp957
g62
I4
ssg63
g951
sg56
(lp958
S'text/html,application/xhtml+xml,application/xml;q=0.9,*/*;q=0.8'
p959
asbasbasbag49
(g65
g51
NtRp960
(dp961
g54
(dp962
sg63
g778
sg56
(lp963
g49
(g70
g51
NtRp964
(dp965
g54
(dp966
g74
g75
ssg63
g960
sg56
(lp967
S'http_accept_encoding'
p968
asbag49
(g70
g51
NtRp969
(dp970
g54
(dp971
g81
g82
ssg63
g960
sg56
(lp972
S':'
asbag49
(g70
g51
NtRp973
(dp974
g54
(dp975
sg63
g960
sg56
(lp976
g49
(g50
g51
NtRp977
(dp978
g54
(dp979
g62
I4
ssg63
g973
sg56
(lp980
S'gzip, deflate'
p981
asbasbasbag49
(g65
g51
NtRp982
(dp983
g54
(dp984
sg63
g778
sg56
(lp985
g49
(g70
g51
NtRp986
(dp987
g54
(dp988
g74
g75
ssg63
g982
sg56
(lp989
S'http_accept_language'
p990
asbag49
(g70
g51
NtRp991
(dp992
g54
(dp993
g81
g82
ssg63
g982
sg56
(lp994
S':'
asbag49
(g70
g51
NtRp995
(dp996
g54
(dp997
sg63
g982
sg56
(lp998
g49
(g50
g51
NtRp999
(dp1000
g54
(dp1001
g62
I4
ssg63
g995
sg56
(lp1002
S'en-us'
p1003
asbasbasbag49
(g65
g51
NtRp1004
(dp1005
g54
(dp1006
sg63
g778
sg56
(lp1007
g49
(g70
g51
NtRp1008
(dp1009
g54
(dp1010
g74
g75
ssg63
g1004
sg56
(lp1011
S'http_connection'
p1012
asbag49
(g70
g51
NtRp1013
(dp1014
g54
(dp1015
g81
g82
ssg63
g1004
sg56
(lp1016
S':'
asbag49
(g70
g51
NtRp1017
(dp1018
g54
(dp1019
sg63
g1004
sg56
(lp1020
g49
(g50
g51
NtRp1021
(dp1022
g54
(dp1023
g62
I4
ssg63
g1017
sg56
(lp1024
S'keep-alive'
p1025
asbasbasbag49
(g65
g51
NtRp1026
(dp1027
g54
(dp1028
sg63
g778
sg56
(lp1029
g49
(g70
g51
NtRp1030
(dp1031
g54
(dp1032
g74
g75
ssg63
g1026
sg56
(lp1033
S'http_cookie'
p1034
asbag49
(g70
g51
NtRp1035
(dp1036
g54
(dp1037
g81
g82
ssg63
g1026
sg56
(lp1038
S':'
asbag49
(g70
g51
NtRp1039
(dp1040
g54
(dp1041
sg63
g1026
sg56
(lp1042
g49
(g50
g51
NtRp1043
(dp1044
g54
(dp1045
g62
I4
ssg63
g1039
sg56
(lp1046
S'session_id_final_impulse=127.0.0.1-9ec1eaa7-e960-4ffd-b185-8aa1d4348b8d; session_id_admin=127.0.0.1-d4f35d9e-5002-4260-ab26-41de03943f95; session_id_welcome=127.0.0.1-7ae0b734-5aae-4df8-9ac9-d69e05f81f9c'
p1047
asbasbasbag49
(g65
g51
NtRp1048
(dp1049
g54
(dp1050
sg63
g778
sg56
(lp1051
g49
(g70
g51
NtRp1052
(dp1053
g54
(dp1054
g74
g75
ssg63
g1048
sg56
(lp1055
S'http_host'
p1056
asbag49
(g70
g51
NtRp1057
(dp1058
g54
(dp1059
g81
g82
ssg63
g1048
sg56
(lp1060
S':'
asbag49
(g70
g51
NtRp1061
(dp1062
g54
(dp1063
sg63
g1048
sg56
(lp1064
g49
(g50
g51
NtRp1065
(dp1066
g54
(dp1067
g62
I4
ssg63
g1061
sg56
(lp1068
S'127.0.0.1:8000'
p1069
asbasbasbag49
(g65
g51
NtRp1070
(dp1071
g54
(dp1072
sg63
g778
sg56
(lp1073
g49
(g70
g51
NtRp1074
(dp1075
g54
(dp1076
g74
g75
ssg63
g1070
sg56
(lp1077
S'http_user_agent'
p1078
asbag49
(g70
g51
NtRp1079
(dp1080
g54
(dp1081
g81
g82
ssg63
g1070
sg56
(lp1082
S':'
asbag49
(g70
g51
NtRp1083
(dp1084
g54
(dp1085
sg63
g1070
sg56
(lp1086
g49
(g50
g51
NtRp1087
(dp1088
g54
(dp1089
g62
I4
ssg63
g1083
sg56
(lp1090
S'Mozilla/5.0 (Macintosh; Intel Mac OS X 10_8_4) AppleWebKit/536.30.1 (KHTML, like Gecko) Version/6.0.5 Safari/536.30.1'
p1091
asbasbasbag49
(g65
g51
NtRp1092
(dp1093
g54
(dp1094
sg63
g778
sg56
(lp1095
g49
(g70
g51
NtRp1096
(dp1097
g54
(dp1098
g74
g75
ssg63
g1092
sg56
(lp1099
S'is_jython'
p1100
asbag49
(g70
g51
NtRp1101
(dp1102
g54
(dp1103
g81
g82
ssg63
g1092
sg56
(lp1104
S':'
asbag49
(g70
g51
NtRp1105
(dp1106
g54
(dp1107
sg63
g1092
sg56
(lp1108
g49
(g50
g51
NtRp1109
(dp1110
g54
(dp1111
g62
I4
ssg63
g1105
sg56
(lp1112
g92
asbasbasbag49
(g65
g51
NtRp1113
(dp1114
g54
(dp1115
sg63
g778
sg56
(lp1116
g49
(g70
g51
NtRp1117
(dp1118
g54
(dp1119
g74
g75
ssg63
g1113
sg56
(lp1120
S'is_pypy'
p1121
asbag49
(g70
g51
NtRp1122
(dp1123
g54
(dp1124
g81
g82
ssg63
g1113
sg56
(lp1125
S':'
asbag49
(g70
g51
NtRp1126
(dp1127
g54
(dp1128
sg63
g1113
sg56
(lp1129
g49
(g50
g51
NtRp1130
(dp1131
g54
(dp1132
g62
I4
ssg63
g1126
sg56
(lp1133
g92
asbasbasbag49
(g65
g51
NtRp1134
(dp1135
g54
(dp1136
sg63
g778
sg56
(lp1137
g49
(g70
g51
NtRp1138
(dp1139
g54
(dp1140
g74
g75
ssg63
g1134
sg56
(lp1141
S'local_hosts'
p1142
asbag49
(g70
g51
NtRp1143
(dp1144
g54
(dp1145
g81
g82
ssg63
g1134
sg56
(lp1146
S':'
asbag49
(g70
g51
NtRp1147
(dp1148
g54
(dp1149
sg63
g1134
sg56
(lp1150
g49
(g50
g51
NtRp1151
(dp1152
g54
(dp1153
g62
I4
ssg63
g1147
sg56
(lp1154
g49
(g58
g51
NtRp1155
(dp1156
g54
(dp1157
g62
I3
ssg63
Nsg56
(lp1158
g49
(g65
g51
NtRp1159
(dp1160
g54
(dp1161
sg63
g1155
sg56
(lp1162
g49
(g70
g51
NtRp1163
(dp1164
g54
(dp1165
sg63
g1159
sg56
(lp1166
g49
(g50
g51
NtRp1167
(dp1168
g54
(dp1169
g62
I3
ssg63
g1163
sg56
(lp1170
S'127.0.0.1'
p1171
asbasbasbag49
(g65
g51
NtRp1172
(dp1173
g54
(dp1174
sg63
g1155
sg56
(lp1175
g49
(g70
g51
NtRp1176
(dp1177
g54
(dp1178
sg63
g1172
sg56
(lp1179
g49
(g50
g51
NtRp1180
(dp1181
g54
(dp1182
g62
I3
ssg63
g1176
sg56
(lp1183
S'::ffff:127.0.0.1'
p1184
asbasbasbag49
(g65
g51
NtRp1185
(dp1186
g54
(dp1187
sg63
g1155
sg56
(lp1188
g49
(g70
g51
NtRp1189
(dp1190
g54
(dp1191
sg63
g1185
sg56
(lp1192
g49
(g50
g51
NtRp1193
(dp1194
g54
(dp1195
g62
I3
ssg63
g1189
sg56
(lp1196
S'Andrea-Barics-MacBook-Pro.local'
p1197
asbasbasbag49
(g65
g51
NtRp1198
(dp1199
g54
(dp1200
sg63
g1155
sg56
(lp1201
g49
(g70
g51
NtRp1202
(dp1203
g54
(dp1204
sg63
g1198
sg56
(lp1205
g49
(g50
g51
NtRp1206
(dp1207
g54
(dp1208
g62
I3
ssg63
g1202
sg56
(lp1209
S'Andrea-Barics-MacBook-Pro.local'
p1210
asbasbasbag49
(g65
g51
NtRp1211
(dp1212
g54
(dp1213
sg63
g1155
sg56
(lp1214
g49
(g70
g51
NtRp1215
(dp1216
g54
(dp1217
sg63
g1211
sg56
(lp1218
g49
(g50
g51
NtRp1219
(dp1220
g54
(dp1221
g62
I3
ssg63
g1215
sg56
(lp1222
S'10.1.9.199'
p1223
asbasbasbasbasbasbasbag49
(g65
g51
NtRp1224
(dp1225
g54
(dp1226
sg63
g778
sg56
(lp1227
g49
(g70
g51
NtRp1228
(dp1229
g54
(dp1230
g74
g75
ssg63
g1224
sg56
(lp1231
S'path_info'
p1232
asbag49
(g70
g51
NtRp1233
(dp1234
g54
(dp1235
g81
g82
ssg63
g1224
sg56
(lp1236
S':'
asbag49
(g70
g51
NtRp1237
(dp1238
g54
(dp1239
sg63
g1224
sg56
(lp1240
g49
(g50
g51
NtRp1241
(dp1242
g54
(dp1243
g62
I4
ssg63
g1237
sg56
(lp1244
S'/Final_Impulse/default/show_image_comments'
p1245
asbasbasbag49
(g65
g51
NtRp1246
(dp1247
g54
(dp1248
sg63
g778
sg56
(lp1249
g49
(g70
g51
NtRp1250
(dp1251
g54
(dp1252
g74
g75
ssg63
g1246
sg56
(lp1253
S'query_string'
p1254
asbag49
(g70
g51
NtRp1255
(dp1256
g54
(dp1257
g81
g82
ssg63
g1246
sg56
(lp1258
S':'
asbag49
(g70
g51
NtRp1259
(dp1260
g54
(dp1261
sg63
g1246
sg56
(lp1262
g49
(g50
g51
NtRp1263
(dp1264
g54
(dp1265
g62
I4
ssg63
g1259
sg56
(lp1266
S''
asbasbasbag49
(g65
g51
NtRp1267
(dp1268
g54
(dp1269
sg63
g778
sg56
(lp1270
g49
(g70
g51
NtRp1271
(dp1272
g54
(dp1273
g74
g75
ssg63
g1267
sg56
(lp1274
S'remote_addr'
p1275
asbag49
(g70
g51
NtRp1276
(dp1277
g54
(dp1278
g81
g82
ssg63
g1267
sg56
(lp1279
S':'
asbag49
(g70
g51
NtRp1280
(dp1281
g54
(dp1282
sg63
g1267
sg56
(lp1283
g49
(g50
g51
NtRp1284
(dp1285
g54
(dp1286
g62
I4
ssg63
g1280
sg56
(lp1287
g204
asbasbasbag49
(g65
g51
NtRp1288
(dp1289
g54
(dp1290
sg63
g778
sg56
(lp1291
g49
(g70
g51
NtRp1292
(dp1293
g54
(dp1294
g74
g75
ssg63
g1288
sg56
(lp1295
S'remote_port'
p1296
asbag49
(g70
g51
NtRp1297
(dp1298
g54
(dp1299
g81
g82
ssg63
g1288
sg56
(lp1300
S':'
asbag49
(g70
g51
NtRp1301
(dp1302
g54
(dp1303
sg63
g1288
sg56
(lp1304
g49
(g50
g51
NtRp1305
(dp1306
g54
(dp1307
g62
I4
ssg63
g1301
sg56
(lp1308
S'52385'
p1309
asbasbasbag49
(g65
g51
NtRp1310
(dp1311
g54
(dp1312
sg63
g778
sg56
(lp1313
g49
(g70
g51
NtRp1314
(dp1315
g54
(dp1316
g74
g75
ssg63
g1310
sg56
(lp1317
S'request_method'
p1318
asbag49
(g70
g51
NtRp1319
(dp1320
g54
(dp1321
g81
g82
ssg63
g1310
sg56
(lp1322
S':'
asbag49
(g70
g51
NtRp1323
(dp1324
g54
(dp1325
sg63
g1310
sg56
(lp1326
g49
(g50
g51
NtRp1327
(dp1328
g54
(dp1329
g62
I4
ssg63
g1323
sg56
(lp1330
S'GET'
p1331
asbasbasbag49
(g65
g51
NtRp1332
(dp1333
g54
(dp1334
sg63
g778
sg56
(lp1335
g49
(g70
g51
NtRp1336
(dp1337
g54
(dp1338
g74
g75
ssg63
g1332
sg56
(lp1339
S'request_uri'
p1340
asbag49
(g70
g51
NtRp1341
(dp1342
g54
(dp1343
g81
g82
ssg63
g1332
sg56
(lp1344
S':'
asbag49
(g70
g51
NtRp1345
(dp1346
g54
(dp1347
sg63
g1332
sg56
(lp1348
g49
(g50
g51
NtRp1349
(dp1350
g54
(dp1351
g62
I4
ssg63
g1345
sg56
(lp1352
g1245
asbasbasbag49
(g65
g51
NtRp1353
(dp1354
g54
(dp1355
sg63
g778
sg56
(lp1356
g49
(g70
g51
NtRp1357
(dp1358
g54
(dp1359
g74
g75
ssg63
g1353
sg56
(lp1360
S'script_name'
p1361
asbag49
(g70
g51
NtRp1362
(dp1363
g54
(dp1364
g81
g82
ssg63
g1353
sg56
(lp1365
S':'
asbag49
(g70
g51
NtRp1366
(dp1367
g54
(dp1368
sg63
g1353
sg56
(lp1369
g49
(g50
g51
NtRp1370
(dp1371
g54
(dp1372
g62
I4
ssg63
g1366
sg56
(lp1373
S''
asbasbasbag49
(g65
g51
NtRp1374
(dp1375
g54
(dp1376
sg63
g778
sg56
(lp1377
g49
(g70
g51
NtRp1378
(dp1379
g54
(dp1380
g74
g75
ssg63
g1374
sg56
(lp1381
S'server_name'
p1382
asbag49
(g70
g51
NtRp1383
(dp1384
g54
(dp1385
g81
g82
ssg63
g1374
sg56
(lp1386
S':'
asbag49
(g70
g51
NtRp1387
(dp1388
g54
(dp1389
sg63
g1374
sg56
(lp1390
g49
(g50
g51
NtRp1391
(dp1392
g54
(dp1393
g62
I4
ssg63
g1387
sg56
(lp1394
g1210
asbasbasbag49
(g65
g51
NtRp1395
(dp1396
g54
(dp1397
sg63
g778
sg56
(lp1398
g49
(g70
g51
NtRp1399
(dp1400
g54
(dp1401
g74
g75
ssg63
g1395
sg56
(lp1402
S'server_port'
p1403
asbag49
(g70
g51
NtRp1404
(dp1405
g54
(dp1406
g81
g82
ssg63
g1395
sg56
(lp1407
S':'
asbag49
(g70
g51
NtRp1408
(dp1409
g54
(dp1410
sg63
g1395
sg56
(lp1411
g49
(g50
g51
NtRp1412
(dp1413
g54
(dp1414
g62
I4
ssg63
g1408
sg56
(lp1415
S'8000'
p1416
asbasbasbag49
(g65
g51
NtRp1417
(dp1418
g54
(dp1419
sg63
g778
sg56
(lp1420
g49
(g70
g51
NtRp1421
(dp1422
g54
(dp1423
g74
g75
ssg63
g1417
sg56
(lp1424
S'server_protocol'
p1425
asbag49
(g70
g51
NtRp1426
(dp1427
g54
(dp1428
g81
g82
ssg63
g1417
sg56
(lp1429
S':'
asbag49
(g70
g51
NtRp1430
(dp1431
g54
(dp1432
sg63
g1417
sg56
(lp1433
g49
(g50
g51
NtRp1434
(dp1435
g54
(dp1436
g62
I4
ssg63
g1430
sg56
(lp1437
S'HTTP/1.1'
p1438
asbasbasbag49
(g65
g51
NtRp1439
(dp1440
g54
(dp1441
sg63
g778
sg56
(lp1442
g49
(g70
g51
NtRp1443
(dp1444
g54
(dp1445
g74
g75
ssg63
g1439
sg56
(lp1446
S'server_software'
p1447
asbag49
(g70
g51
NtRp1448
(dp1449
g54
(dp1450
g81
g82
ssg63
g1439
sg56
(lp1451
S':'
asbag49
(g70
g51
NtRp1452
(dp1453
g54
(dp1454
sg63
g1439
sg56
(lp1455
g49
(g50
g51
NtRp1456
(dp1457
g54
(dp1458
g62
I4
ssg63
g1452
sg56
(lp1459
S'Rocket 1.2.5'
p1460
asbasbasbag49
(g65
g51
NtRp1461
(dp1462
g54
(dp1463
sg63
g778
sg56
(lp1464
g49
(g70
g51
NtRp1465
(dp1466
g54
(dp1467
g74
g75
ssg63
g1461
sg56
(lp1468
S'web2py_path'
p1469
asbag49
(g70
g51
NtRp1470
(dp1471
g54
(dp1472
g81
g82
ssg63
g1461
sg56
(lp1473
S':'
asbag49
(g70
g51
NtRp1474
(dp1475
g54
(dp1476
sg63
g1461
sg56
(lp1477
g49
(g50
g51
NtRp1478
(dp1479
g54
(dp1480
g62
I4
ssg63
g1474
sg56
(lp1481
g825
asbasbasbag49
(g65
g51
NtRp1482
(dp1483
g54
(dp1484
sg63
g778
sg56
(lp1485
g49
(g70
g51
NtRp1486
(dp1487
g54
(dp1488
g74
g75
ssg63
g1482
sg56
(lp1489
S'web2py_version'
p1490
asbag49
(g70
g51
NtRp1491
(dp1492
g54
(dp1493
g81
g82
ssg63
g1482
sg56
(lp1494
S':'
asbag49
(g70
g51
NtRp1495
(dp1496
g54
(dp1497
sg63
g1482
sg56
(lp1498
g49
(g50
g51
NtRp1499
(dp1500
g54
(dp1501
g62
I4
ssg63
g1495
sg56
(lp1502
g49
(g58
g51
NtRp1503
(dp1504
g54
(dp1505
g62
I3
ssg63
Nsg56
(lp1506
g49
(g65
g51
NtRp1507
(dp1508
g54
(dp1509
sg63
g1503
sg56
(lp1510
g49
(g70
g51
NtRp1511
(dp1512
g54
(dp1513
sg63
g1507
sg56
(lp1514
g49
(g50
g51
NtRp1515
(dp1516
g54
(dp1517
g62
I3
ssg63
g1511
sg56
(lp1518
S'2'
asbasbasbag49
(g65
g51
NtRp1519
(dp1520
g54
(dp1521
sg63
g1503
sg56
(lp1522
g49
(g70
g51
NtRp1523
(dp1524
g54
(dp1525
sg63
g1519
sg56
(lp1526
g49
(g50
g51
NtRp1527
(dp1528
g54
(dp1529
g62
I3
ssg63
g1523
sg56
(lp1530
S'2'
asbasbasbag49
(g65
g51
NtRp1531
(dp1532
g54
(dp1533
sg63
g1503
sg56
(lp1534
g49
(g70
g51
NtRp1535
(dp1536
g54
(dp1537
sg63
g1531
sg56
(lp1538
g49
(g50
g51
NtRp1539
(dp1540
g54
(dp1541
g62
I3
ssg63
g1535
sg56
(lp1542
S'1'
asbasbasbag49
(g65
g51
NtRp1543
(dp1544
g54
(dp1545
sg63
g1503
sg56
(lp1546
g49
(g70
g51
NtRp1547
(dp1548
g54
(dp1549
sg63
g1543
sg56
(lp1550
g49
(g50
g51
NtRp1551
(dp1552
g54
(dp1553
g62
I3
ssg63
g1547
sg56
(lp1554
S'datetime.datetime(2012, 10, 21, 16, 57, 4)'
p1555
asbasbasbag49
(g65
g51
NtRp1556
(dp1557
g54
(dp1558
sg63
g1503
sg56
(lp1559
g49
(g70
g51
NtRp1560
(dp1561
g54
(dp1562
sg63
g1556
sg56
(lp1563
g49
(g50
g51
NtRp1564
(dp1565
g54
(dp1566
g62
I3
ssg63
g1560
sg56
(lp1567
S'stable'
p1568
asbasbasbasbasbasbasbag49
(g65
g51
NtRp1569
(dp1570
g54
(dp1571
sg63
g778
sg56
(lp1572
g49
(g70
g51
NtRp1573
(dp1574
g54
(dp1575
g74
g75
ssg63
g1569
sg56
(lp1576
S'wsgi_errors'
p1577
asbag49
(g70
g51
NtRp1578
(dp1579
g54
(dp1580
g81
g82
ssg63
g1569
sg56
(lp1581
S':'
asbag49
(g70
g51
NtRp1582
(dp1583
g54
(dp1584
sg63
g1569
sg56
(lp1585
g49
(g50
g51
NtRp1586
(dp1587
g54
(dp1588
g62
I4
ssg63
g1582
sg56
(lp1589
S"<open file '<stderr>', mode 'w' at 0x540b0>"
p1590
asbasbasbag49
(g65
g51
NtRp1591
(dp1592
g54
(dp1593
sg63
g778
sg56
(lp1594
g49
(g70
g51
NtRp1595
(dp1596
g54
(dp1597
g74
g75
ssg63
g1591
sg56
(lp1598
S'wsgi_file_wrapper'
p1599
asbag49
(g70
g51
NtRp1600
(dp1601
g54
(dp1602
g81
g82
ssg63
g1591
sg56
(lp1603
S':'
asbag49
(g70
g51
NtRp1604
(dp1605
g54
(dp1606
sg63
g1591
sg56
(lp1607
g49
(g50
g51
NtRp1608
(dp1609
g54
(dp1610
g62
I4
ssg63
g1604
sg56
(lp1611
S'<class wsgiref.util.FileWrapper at 0x443f2d0>'
p1612
asbasbasbag49
(g65
g51
NtRp1613
(dp1614
g54
(dp1615
sg63
g778
sg56
(lp1616
g49
(g70
g51
NtRp1617
(dp1618
g54
(dp1619
g74
g75
ssg63
g1613
sg56
(lp1620
S'wsgi_input'
p1621
asbag49
(g70
g51
NtRp1622
(dp1623
g54
(dp1624
g81
g82
ssg63
g1613
sg56
(lp1625
S':'
asbag49
(g70
g51
NtRp1626
(dp1627
g54
(dp1628
sg63
g1613
sg56
(lp1629
g49
(g50
g51
NtRp1630
(dp1631
g54
(dp1632
g62
I4
ssg63
g1626
sg56
(lp1633
S'<socket._fileobject object at 0x89919b0>'
p1634
asbasbasbag49
(g65
g51
NtRp1635
(dp1636
g54
(dp1637
sg63
g778
sg56
(lp1638
g49
(g70
g51
NtRp1639
(dp1640
g54
(dp1641
g74
g75
ssg63
g1635
sg56
(lp1642
S'wsgi_multiprocess'
p1643
asbag49
(g70
g51
NtRp1644
(dp1645
g54
(dp1646
g81
g82
ssg63
g1635
sg56
(lp1647
S':'
asbag49
(g70
g51
NtRp1648
(dp1649
g54
(dp1650
sg63
g1635
sg56
(lp1651
g49
(g50
g51
NtRp1652
(dp1653
g54
(dp1654
g62
I4
ssg63
g1648
sg56
(lp1655
g92
asbasbasbag49
(g65
g51
NtRp1656
(dp1657
g54
(dp1658
sg63
g778
sg56
(lp1659
g49
(g70
g51
NtRp1660
(dp1661
g54
(dp1662
g74
g75
ssg63
g1656
sg56
(lp1663
S'wsgi_multithread'
p1664
asbag49
(g70
g51
NtRp1665
(dp1666
g54
(dp1667
g81
g82
ssg63
g1656
sg56
(lp1668
S':'
asbag49
(g70
g51
NtRp1669
(dp1670
g54
(dp1671
sg63
g1656
sg56
(lp1672
g49
(g50
g51
NtRp1673
(dp1674
g54
(dp1675
g62
I4
ssg63
g1669
sg56
(lp1676
S'True'
p1677
asbasbasbag49
(g65
g51
NtRp1678
(dp1679
g54
(dp1680
sg63
g778
sg56
(lp1681
g49
(g70
g51
NtRp1682
(dp1683
g54
(dp1684
g74
g75
ssg63
g1678
sg56
(lp1685
S'wsgi_run_once'
p1686
asbag49
(g70
g51
NtRp1687
(dp1688
g54
(dp1689
g81
g82
ssg63
g1678
sg56
(lp1690
S':'
asbag49
(g70
g51
NtRp1691
(dp1692
g54
(dp1693
sg63
g1678
sg56
(lp1694
g49
(g50
g51
NtRp1695
(dp1696
g54
(dp1697
g62
I4
ssg63
g1691
sg56
(lp1698
g92
asbasbasbag49
(g65
g51
NtRp1699
(dp1700
g54
(dp1701
sg63
g778
sg56
(lp1702
g49
(g70
g51
NtRp1703
(dp1704
g54
(dp1705
g74
g75
ssg63
g1699
sg56
(lp1706
S'wsgi_url_scheme'
p1707
asbag49
(g70
g51
NtRp1708
(dp1709
g54
(dp1710
g81
g82
ssg63
g1699
sg56
(lp1711
S':'
asbag49
(g70
g51
NtRp1712
(dp1713
g54
(dp1714
sg63
g1699
sg56
(lp1715
g49
(g50
g51
NtRp1716
(dp1717
g54
(dp1718
g62
I4
ssg63
g1712
sg56
(lp1719
S'http'
p1720
asbasbasbag49
(g65
g51
NtRp1721
(dp1722
g54
(dp1723
sg63
g778
sg56
(lp1724
g49
(g70
g51
NtRp1725
(dp1726
g54
(dp1727
g74
g75
ssg63
g1721
sg56
(lp1728
S'wsgi_version'
p1729
asbag49
(g70
g51
NtRp1730
(dp1731
g54
(dp1732
g81
g82
ssg63
g1721
sg56
(lp1733
S':'
asbag49
(g70
g51
NtRp1734
(dp1735
g54
(dp1736
sg63
g1721
sg56
(lp1737
g49
(g50
g51
NtRp1738
(dp1739
g54
(dp1740
g62
I4
ssg63
g1734
sg56
(lp1741
g49
(g58
g51
NtRp1742
(dp1743
g54
(dp1744
g62
I3
ssg63
Nsg56
(lp1745
g49
(g65
g51
NtRp1746
(dp1747
g54
(dp1748
sg63
g1742
sg56
(lp1749
g49
(g70
g51
NtRp1750
(dp1751
g54
(dp1752
sg63
g1746
sg56
(lp1753
g49
(g50
g51
NtRp1754
(dp1755
g54
(dp1756
g62
I3
ssg63
g1750
sg56
(lp1757
S'1'
asbasbasbag49
(g65
g51
NtRp1758
(dp1759
g54
(dp1760
sg63
g1742
sg56
(lp1761
g49
(g70
g51
NtRp1762
(dp1763
g54
(dp1764
sg63
g1758
sg56
(lp1765
g49
(g50
g51
NtRp1766
(dp1767
g54
(dp1768
g62
I3
ssg63
g1762
sg56
(lp1769
S'0'
asbasbasbasbasbasbasbasbasbasbasbag49
(g65
g51
NtRp1770
(dp1771
g54
(dp1772
sg63
g59
sg56
(lp1773
g49
(g70
g51
NtRp1774
(dp1775
g54
(dp1776
g74
g75
ssg63
g1770
sg56
(lp1777
S'extension'
p1778
asbag49
(g70
g51
NtRp1779
(dp1780
g54
(dp1781
g81
g82
ssg63
g1770
sg56
(lp1782
S':'
asbag49
(g70
g51
NtRp1783
(dp1784
g54
(dp1785
sg63
g1770
sg56
(lp1786
g49
(g50
g51
NtRp1787
(dp1788
g54
(dp1789
g62
I5
ssg63
g1783
sg56
(lp1790
S'html'
p1791
asbasbasbag49
(g65
g51
NtRp1792
(dp1793
g54
(dp1794
sg63
g59
sg56
(lp1795
g49
(g70
g51
NtRp1796
(dp1797
g54
(dp1798
g74
g75
ssg63
g1792
sg56
(lp1799
S'folder'
p1800
asbag49
(g70
g51
NtRp1801
(dp1802
g54
(dp1803
g81
g82
ssg63
g1792
sg56
(lp1804
S':'
asbag49
(g70
g51
NtRp1805
(dp1806
g54
(dp1807
sg63
g1792
sg56
(lp1808
g49
(g50
g51
NtRp1809
(dp1810
g54
(dp1811
g62
I5
ssg63
g1805
sg56
(lp1812
S'/Users/abaric/Downloads/web2py/web2py.app/Contents/Resources/applications/Final_Impulse/'
p1813
asbasbasbag49
(g65
g51
NtRp1814
(dp1815
g54
(dp1816
sg63
g59
sg56
(lp1817
g49
(g70
g51
NtRp1818
(dp1819
g54
(dp1820
g74
g75
ssg63
g1814
sg56
(lp1821
S'function'
p1822
asbag49
(g70
g51
NtRp1823
(dp1824
g54
(dp1825
g81
g82
ssg63
g1814
sg56
(lp1826
S':'
asbag49
(g70
g51
NtRp1827
(dp1828
g54
(dp1829
sg63
g1814
sg56
(lp1830
g49
(g50
g51
NtRp1831
(dp1832
g54
(dp1833
g62
I5
ssg63
g1827
sg56
(lp1834
S'show_image_comments'
p1835
asbasbasbag49
(g65
g51
NtRp1836
(dp1837
g54
(dp1838
sg63
g59
sg56
(lp1839
g49
(g70
g51
NtRp1840
(dp1841
g54
(dp1842
g74
g75
ssg63
g1836
sg56
(lp1843
S'get_vars'
p1844
asbag49
(g70
g51
NtRp1845
(dp1846
g54
(dp1847
g81
g82
ssg63
g1836
sg56
(lp1848
S':'
asbag49
(g70
g51
NtRp1849
(dp1850
g54
(dp1851
sg63
g1836
sg56
(lp1852
g49
(g50
g51
NtRp1853
(dp1854
g54
(dp1855
g62
I5
ssg63
g1849
sg56
(lp1856
g49
(g58
g51
NtRp1857
(dp1858
g54
(dp1859
g62
I4
ssg63
Nsg56
(lp1860
sbasbasbasbag49
(g65
g51
NtRp1861
(dp1862
g54
(dp1863
sg63
g59
sg56
(lp1864
g49
(g70
g51
NtRp1865
(dp1866
g54
(dp1867
g74
g75
ssg63
g1861
sg56
(lp1868
S'global_settings'
p1869
asbag49
(g70
g51
NtRp1870
(dp1871
g54
(dp1872
g81
g82
ssg63
g1861
sg56
(lp1873
S':'
asbag49
(g70
g51
NtRp1874
(dp1875
g54
(dp1876
sg63
g1861
sg56
(lp1877
g49
(g50
g51
NtRp1878
(dp1879
g54
(dp1880
g62
I5
ssg63
g1874
sg56
(lp1881
g49
(g58
g51
NtRp1882
(dp1883
g54
(dp1884
g62
I4
ssg63
Nsg56
(lp1885
g49
(g65
g51
NtRp1886
(dp1887
g54
(dp1888
sg63
g1882
sg56
(lp1889
g49
(g70
g51
NtRp1890
(dp1891
g54
(dp1892
g74
g75
ssg63
g1886
sg56
(lp1893
g790
asbag49
(g70
g51
NtRp1894
(dp1895
g54
(dp1896
g81
g82
ssg63
g1886
sg56
(lp1897
S':'
asbag49
(g70
g51
NtRp1898
(dp1899
g54
(dp1900
sg63
g1886
sg56
(lp1901
g49
(g50
g51
NtRp1902
(dp1903
g54
(dp1904
g62
I4
ssg63
g1898
sg56
(lp1905
S"set(['/Users/abaric/Downloads/web2py/web2py.app/Contents/Resources/applications/Final_Impulse/', '/Users/abaric/Downloads/web2py/web2py.app/Contents/Resources/applications/welcome/', '/Users/abaric/Downloads/web2py/web2py.app/Contents/Resources/applications/admin/'])"
p1906
asbasbasbag49
(g65
g51
NtRp1907
(dp1908
g54
(dp1909
sg63
g1882
sg56
(lp1910
g49
(g70
g51
NtRp1911
(dp1912
g54
(dp1913
g74
g75
ssg63
g1907
sg56
(lp1914
g812
asbag49
(g70
g51
NtRp1915
(dp1916
g54
(dp1917
g81
g82
ssg63
g1907
sg56
(lp1918
S':'
asbag49
(g70
g51
NtRp1919
(dp1920
g54
(dp1921
sg63
g1907
sg56
(lp1922
g49
(g50
g51
NtRp1923
(dp1924
g54
(dp1925
g62
I4
ssg63
g1919
sg56
(lp1926
g825
asbasbasbag49
(g65
g51
NtRp1927
(dp1928
g54
(dp1929
sg63
g1882
sg56
(lp1930
g49
(g70
g51
NtRp1931
(dp1932
g54
(dp1933
g74
g75
ssg63
g1927
sg56
(lp1934
g834
asbag49
(g70
g51
NtRp1935
(dp1936
g54
(dp1937
g81
g82
ssg63
g1927
sg56
(lp1938
S':'
asbag49
(g70
g51
NtRp1939
(dp1940
g54
(dp1941
sg63
g1927
sg56
(lp1942
g49
(g50
g51
NtRp1943
(dp1944
g54
(dp1945
g62
I4
ssg63
g1939
sg56
(lp1946
g49
(g58
g51
NtRp1947
(dp1948
g54
(dp1949
g62
I3
ssg63
Nsg56
(lp1950
sbasbasbasbag49
(g65
g51
NtRp1951
(dp1952
g54
(dp1953
sg63
g1882
sg56
(lp1954
g49
(g70
g51
NtRp1955
(dp1956
g54
(dp1957
g74
g75
ssg63
g1951
sg56
(lp1958
g859
asbag49
(g70
g51
NtRp1959
(dp1960
g54
(dp1961
g81
g82
ssg63
g1951
sg56
(lp1962
S':'
asbag49
(g70
g51
NtRp1963
(dp1964
g54
(dp1965
sg63
g1951
sg56
(lp1966
g49
(g50
g51
NtRp1967
(dp1968
g54
(dp1969
g62
I4
ssg63
g1963
sg56
(lp1970
S"<Values at 0x446d1c0: {'verbose': False, 'ip': '127.0.0.1', 'with_scheduler': False, 'ips': ['10.1.9.199'], 'shutdown_timeout': 5, 'taskbar': False, 'port': 8000, 'maxthreads': None, 'softcron': False, 'server_name': 'Andrea-Barics-MacBook-Pro.local', 'bpython': False, 'nogui': False, 'pid_filename': 'httpserver.pid', 'extcron': False, 'runcron': False, 'run_system_tests': False, 'test': None, 'folder': '/Users/abaric/Downloads/web2py/web2py.app/Contents/Resources', 'config': '', 'import_models': False, 'winservice': '', 'shell': None, 'run': '', 'log_filename': 'httpserver.log', 'debuglevel': 30, 'args': [''], 'socket_timeout': 5, 'ssl_ca_certificate': None, 'scheduler': None, 'profiler_filename': None, 'ssl_private_key': '', 'scheduler_groups': None, 'password': '<ask>', 'request_queue_size': 5, 'ssl_certificate': '', 'cronjob': False, 'numthreads': None, 'quiet': False, 'interfaces': None, 'minthreads': None, 'timeout': 10, 'plain': False, 'nobanner': False}>"
p1971
asbasbasbag49
(g65
g51
NtRp1972
(dp1973
g54
(dp1974
sg63
g1882
sg56
(lp1975
g49
(g70
g51
NtRp1976
(dp1977
g54
(dp1978
g74
g75
ssg63
g1972
sg56
(lp1979
g881
asbag49
(g70
g51
NtRp1980
(dp1981
g54
(dp1982
g81
g82
ssg63
g1972
sg56
(lp1983
S':'
asbag49
(g70
g51
NtRp1984
(dp1985
g54
(dp1986
sg63
g1972
sg56
(lp1987
g49
(g50
g51
NtRp1988
(dp1989
g54
(dp1990
g62
I4
ssg63
g1984
sg56
(lp1991
S'set([])'
p1992
asbasbasbag49
(g65
g51
NtRp1993
(dp1994
g54
(dp1995
sg63
g1882
sg56
(lp1996
g49
(g70
g51
NtRp1997
(dp1998
g54
(dp1999
g74
g75
ssg63
g1993
sg56
(lp2000
g903
asbag49
(g70
g51
NtRp2001
(dp2002
g54
(dp2003
g81
g82
ssg63
g1993
sg56
(lp2004
S':'
asbag49
(g70
g51
NtRp2005
(dp2006
g54
(dp2007
sg63
g1993
sg56
(lp2008
g49
(g50
g51
NtRp2009
(dp2010
g54
(dp2011
g62
I4
ssg63
g2005
sg56
(lp2012
g92
asbasbasbag49
(g65
g51
NtRp2013
(dp2014
g54
(dp2015
sg63
g1882
sg56
(lp2016
g49
(g70
g51
NtRp2017
(dp2018
g54
(dp2019
g74
g75
ssg63
g2013
sg56
(lp2020
g924
asbag49
(g70
g51
NtRp2021
(dp2022
g54
(dp2023
g81
g82
ssg63
g2013
sg56
(lp2024
S':'
asbag49
(g70
g51
NtRp2025
(dp2026
g54
(dp2027
sg63
g2013
sg56
(lp2028
g49
(g50
g51
NtRp2029
(dp2030
g54
(dp2031
g62
I4
ssg63
g2025
sg56
(lp2032
g937
asbasbasbag49
(g65
g51
NtRp2033
(dp2034
g54
(dp2035
sg63
g1882
sg56
(lp2036
g49
(g70
g51
NtRp2037
(dp2038
g54
(dp2039
g74
g75
ssg63
g2033
sg56
(lp2040
g1100
asbag49
(g70
g51
NtRp2041
(dp2042
g54
(dp2043
g81
g82
ssg63
g2033
sg56
(lp2044
S':'
asbag49
(g70
g51
NtRp2045
(dp2046
g54
(dp2047
sg63
g2033
sg56
(lp2048
g49
(g50
g51
NtRp2049
(dp2050
g54
(dp2051
g62
I4
ssg63
g2045
sg56
(lp2052
g92
asbasbasbag49
(g65
g51
NtRp2053
(dp2054
g54
(dp2055
sg63
g1882
sg56
(lp2056
g49
(g70
g51
NtRp2057
(dp2058
g54
(dp2059
g74
g75
ssg63
g2053
sg56
(lp2060
g1121
asbag49
(g70
g51
NtRp2061
(dp2062
g54
(dp2063
g81
g82
ssg63
g2053
sg56
(lp2064
S':'
asbag49
(g70
g51
NtRp2065
(dp2066
g54
(dp2067
sg63
g2053
sg56
(lp2068
g49
(g50
g51
NtRp2069
(dp2070
g54
(dp2071
g62
I4
ssg63
g2065
sg56
(lp2072
g92
asbasbasbag49
(g65
g51
NtRp2073
(dp2074
g54
(dp2075
sg63
g1882
sg56
(lp2076
g49
(g70
g51
NtRp2077
(dp2078
g54
(dp2079
g74
g75
ssg63
g2073
sg56
(lp2080
g1142
asbag49
(g70
g51
NtRp2081
(dp2082
g54
(dp2083
g81
g82
ssg63
g2073
sg56
(lp2084
S':'
asbag49
(g70
g51
NtRp2085
(dp2086
g54
(dp2087
sg63
g2073
sg56
(lp2088
g49
(g50
g51
NtRp2089
(dp2090
g54
(dp2091
g62
I4
ssg63
g2085
sg56
(lp2092
g49
(g58
g51
NtRp2093
(dp2094
g54
(dp2095
g62
I3
ssg63
Nsg56
(lp2096
g49
(g65
g51
NtRp2097
(dp2098
g54
(dp2099
sg63
g2093
sg56
(lp2100
g49
(g70
g51
NtRp2101
(dp2102
g54
(dp2103
sg63
g2097
sg56
(lp2104
g49
(g50
g51
NtRp2105
(dp2106
g54
(dp2107
g62
I3
ssg63
g2101
sg56
(lp2108
g1171
asbasbasbag49
(g65
g51
NtRp2109
(dp2110
g54
(dp2111
sg63
g2093
sg56
(lp2112
g49
(g70
g51
NtRp2113
(dp2114
g54
(dp2115
sg63
g2109
sg56
(lp2116
g49
(g50
g51
NtRp2117
(dp2118
g54
(dp2119
g62
I3
ssg63
g2113
sg56
(lp2120
g1184
asbasbasbag49
(g65
g51
NtRp2121
(dp2122
g54
(dp2123
sg63
g2093
sg56
(lp2124
g49
(g70
g51
NtRp2125
(dp2126
g54
(dp2127
sg63
g2121
sg56
(lp2128
g49
(g50
g51
NtRp2129
(dp2130
g54
(dp2131
g62
I3
ssg63
g2125
sg56
(lp2132
g1197
asbasbasbag49
(g65
g51
NtRp2133
(dp2134
g54
(dp2135
sg63
g2093
sg56
(lp2136
g49
(g70
g51
NtRp2137
(dp2138
g54
(dp2139
sg63
g2133
sg56
(lp2140
g49
(g50
g51
NtRp2141
(dp2142
g54
(dp2143
g62
I3
ssg63
g2137
sg56
(lp2144
g1210
asbasbasbag49
(g65
g51
NtRp2145
(dp2146
g54
(dp2147
sg63
g2093
sg56
(lp2148
g49
(g70
g51
NtRp2149
(dp2150
g54
(dp2151
sg63
g2145
sg56
(lp2152
g49
(g50
g51
NtRp2153
(dp2154
g54
(dp2155
g62
I3
ssg63
g2149
sg56
(lp2156
g1223
asbasbasbasbasbasbasbag49
(g65
g51
NtRp2157
(dp2158
g54
(dp2159
sg63
g1882
sg56
(lp2160
g49
(g70
g51
NtRp2161
(dp2162
g54
(dp2163
g74
g75
ssg63
g2157
sg56
(lp2164
g1490
asbag49
(g70
g51
NtRp2165
(dp2166
g54
(dp2167
g81
g82
ssg63
g2157
sg56
(lp2168
S':'
asbag49
(g70
g51
NtRp2169
(dp2170
g54
(dp2171
sg63
g2157
sg56
(lp2172
g49
(g50
g51
NtRp2173
(dp2174
g54
(dp2175
g62
I4
ssg63
g2169
sg56
(lp2176
g49
(g58
g51
NtRp2177
(dp2178
g54
(dp2179
g62
I3
ssg63
Nsg56
(lp2180
g49
(g65
g51
NtRp2181
(dp2182
g54
(dp2183
sg63
g2177
sg56
(lp2184
g49
(g70
g51
NtRp2185
(dp2186
g54
(dp2187
sg63
g2181
sg56
(lp2188
g49
(g50
g51
NtRp2189
(dp2190
g54
(dp2191
g62
I3
ssg63
g2185
sg56
(lp2192
S'2'
asbasbasbag49
(g65
g51
NtRp2193
(dp2194
g54
(dp2195
sg63
g2177
sg56
(lp2196
g49
(g70
g51
NtRp2197
(dp2198
g54
(dp2199
sg63
g2193
sg56
(lp2200
g49
(g50
g51
NtRp2201
(dp2202
g54
(dp2203
g62
I3
ssg63
g2197
sg56
(lp2204
S'2'
asbasbasbag49
(g65
g51
NtRp2205
(dp2206
g54
(dp2207
sg63
g2177
sg56
(lp2208
g49
(g70
g51
NtRp2209
(dp2210
g54
(dp2211
sg63
g2205
sg56
(lp2212
g49
(g50
g51
NtRp2213
(dp2214
g54
(dp2215
g62
I3
ssg63
g2209
sg56
(lp2216
S'1'
asbasbasbag49
(g65
g51
NtRp2217
(dp2218
g54
(dp2219
sg63
g2177
sg56
(lp2220
g49
(g70
g51
NtRp2221
(dp2222
g54
(dp2223
sg63
g2217
sg56
(lp2224
g49
(g50
g51
NtRp2225
(dp2226
g54
(dp2227
g62
I3
ssg63
g2221
sg56
(lp2228
S'datetime.datetime(2012, 10, 21, 16, 57, 4)'
p2229
asbasbasbag49
(g65
g51
NtRp2230
(dp2231
g54
(dp2232
sg63
g2177
sg56
(lp2233
g49
(g70
g51
NtRp2234
(dp2235
g54
(dp2236
sg63
g2230
sg56
(lp2237
g49
(g50
g51
NtRp2238
(dp2239
g54
(dp2240
g62
I3
ssg63
g2234
sg56
(lp2241
g1568
asbasbasbasbasbasbasbasbasbasbasbag49
(g65
g51
NtRp2242
(dp2243
g54
(dp2244
sg63
g59
sg56
(lp2245
g49
(g70
g51
NtRp2246
(dp2247
g54
(dp2248
g74
g75
ssg63
g2242
sg56
(lp2249
S'is_https'
p2250
asbag49
(g70
g51
NtRp2251
(dp2252
g54
(dp2253
g81
g82
ssg63
g2242
sg56
(lp2254
S':'
asbag49
(g70
g51
NtRp2255
(dp2256
g54
(dp2257
sg63
g2242
sg56
(lp2258
g49
(g50
g51
NtRp2259
(dp2260
g54
(dp2261
g62
I5
ssg63
g2255
sg56
(lp2262
g92
asbasbasbag49
(g65
g51
NtRp2263
(dp2264
g54
(dp2265
sg63
g59
sg56
(lp2266
g49
(g70
g51
NtRp2267
(dp2268
g54
(dp2269
g74
g75
ssg63
g2263
sg56
(lp2270
S'is_local'
p2271
asbag49
(g70
g51
NtRp2272
(dp2273
g54
(dp2274
g81
g82
ssg63
g2263
sg56
(lp2275
S':'
asbag49
(g70
g51
NtRp2276
(dp2277
g54
(dp2278
sg63
g2263
sg56
(lp2279
g49
(g50
g51
NtRp2280
(dp2281
g54
(dp2282
g62
I5
ssg63
g2276
sg56
(lp2283
g1677
asbasbasbag49
(g65
g51
NtRp2284
(dp2285
g54
(dp2286
sg63
g59
sg56
(lp2287
g49
(g70
g51
NtRp2288
(dp2289
g54
(dp2290
g74
g75
ssg63
g2284
sg56
(lp2291
S'is_restful'
p2292
asbag49
(g70
g51
NtRp2293
(dp2294
g54
(dp2295
g81
g82
ssg63
g2284
sg56
(lp2296
S':'
asbag49
(g70
g51
NtRp2297
(dp2298
g54
(dp2299
sg63
g2284
sg56
(lp2300
g49
(g50
g51
NtRp2301
(dp2302
g54
(dp2303
g62
I5
ssg63
g2297
sg56
(lp2304
g92
asbasbasbag49
(g65
g51
NtRp2305
(dp2306
g54
(dp2307
sg63
g59
sg56
(lp2308
g49
(g70
g51
NtRp2309
(dp2310
g54
(dp2311
g74
g75
ssg63
g2305
sg56
(lp2312
S'now'
p2313
asbag49
(g70
g51
NtRp2314
(dp2315
g54
(dp2316
g81
g82
ssg63
g2305
sg56
(lp2317
S':'
asbag49
(g70
g51
NtRp2318
(dp2319
g54
(dp2320
sg63
g2305
sg56
(lp2321
g49
(g50
g51
NtRp2322
(dp2323
g54
(dp2324
g62
I5
ssg63
g2318
sg56
(lp2325
S'datetime.datetime(2014, 6, 5, 14, 40, 35, 353982)'
p2326
asbasbasbag49
(g65
g51
NtRp2327
(dp2328
g54
(dp2329
sg63
g59
sg56
(lp2330
g49
(g70
g51
NtRp2331
(dp2332
g54
(dp2333
g74
g75
ssg63
g2327
sg56
(lp2334
S'post_vars'
p2335
asbag49
(g70
g51
NtRp2336
(dp2337
g54
(dp2338
g81
g82
ssg63
g2327
sg56
(lp2339
S':'
asbag49
(g70
g51
NtRp2340
(dp2341
g54
(dp2342
sg63
g2327
sg56
(lp2343
g49
(g50
g51
NtRp2344
(dp2345
g54
(dp2346
g62
I5
ssg63
g2340
sg56
(lp2347
g49
(g58
g51
NtRp2348
(dp2349
g54
(dp2350
g62
I4
ssg63
Nsg56
(lp2351
sbasbasbasbag49
(g65
g51
NtRp2352
(dp2353
g54
(dp2354
sg63
g59
sg56
(lp2355
g49
(g70
g51
NtRp2356
(dp2357
g54
(dp2358
g74
g75
ssg63
g2352
sg56
(lp2359
S'raw_args'
p2360
asbag49
(g70
g51
NtRp2361
(dp2362
g54
(dp2363
g81
g82
ssg63
g2352
sg56
(lp2364
S':'
asbag49
(g70
g51
NtRp2365
(dp2366
g54
(dp2367
sg63
g2352
sg56
(lp2368
g49
(g50
g51
NtRp2369
(dp2370
g54
(dp2371
g62
I5
ssg63
g2365
sg56
(lp2372
S''
asbasbasbag49
(g65
g51
NtRp2373
(dp2374
g54
(dp2375
sg63
g59
sg56
(lp2376
g49
(g70
g51
NtRp2377
(dp2378
g54
(dp2379
g74
g75
ssg63
g2373
sg56
(lp2380
S'raw_extension'
p2381
asbag49
(g70
g51
NtRp2382
(dp2383
g54
(dp2384
g81
g82
ssg63
g2373
sg56
(lp2385
S':'
asbag49
(g70
g51
NtRp2386
(dp2387
g54
(dp2388
sg63
g2373
sg56
(lp2389
g49
(g50
g51
NtRp2390
(dp2391
g54
(dp2392
g62
I5
ssg63
g2386
sg56
(lp2393
S'None'
p2394
asbasbasbag49
(g65
g51
NtRp2395
(dp2396
g54
(dp2397
sg63
g59
sg56
(lp2398
g49
(g70
g51
NtRp2399
(dp2400
g54
(dp2401
g74
g75
ssg63
g2395
sg56
(lp2402
S'url'
p2403
asbag49
(g70
g51
NtRp2404
(dp2405
g54
(dp2406
g81
g82
ssg63
g2395
sg56
(lp2407
S':'
asbag49
(g70
g51
NtRp2408
(dp2409
g54
(dp2410
sg63
g2395
sg56
(lp2411
g49
(g50
g51
NtRp2412
(dp2413
g54
(dp2414
g62
I5
ssg63
g2408
sg56
(lp2415
g1245
asbasbasbag49
(g65
g51
NtRp2416
(dp2417
g54
(dp2418
sg63
g59
sg56
(lp2419
g49
(g70
g51
NtRp2420
(dp2421
g54
(dp2422
g74
g75
ssg63
g2416
sg56
(lp2423
S'utcnow'
p2424
asbag49
(g70
g51
NtRp2425
(dp2426
g54
(dp2427
g81
g82
ssg63
g2416
sg56
(lp2428
S':'
asbag49
(g70
g51
NtRp2429
(dp2430
g54
(dp2431
sg63
g2416
sg56
(lp2432
g49
(g50
g51
NtRp2433
(dp2434
g54
(dp2435
g62
I5
ssg63
g2429
sg56
(lp2436
S'datetime.datetime(2014, 6, 5, 18, 40, 35, 353993)'
p2437
asbasbasbag49
(g65
g51
NtRp2438
(dp2439
g54
(dp2440
sg63
g59
sg56
(lp2441
g49
(g70
g51
NtRp2442
(dp2443
g54
(dp2444
g74
g75
ssg63
g2438
sg56
(lp2445
S'uuid'
p2446
asbag49
(g70
g51
NtRp2447
(dp2448
g54
(dp2449
g81
g82
ssg63
g2438
sg56
(lp2450
S':'
asbag49
(g70
g51
NtRp2451
(dp2452
g54
(dp2453
sg63
g2438
sg56
(lp2454
g49
(g50
g51
NtRp2455
(dp2456
g54
(dp2457
g62
I5
ssg63
g2451
sg56
(lp2458
S'Final_Impulse/127.0.0.1.2014-06-05.14-40-35.3ee47130-c68e-4047-9b68-aa3298cdf561'
p2459
asbasbasbag49
(g65
g51
NtRp2460
(dp2461
g54
(dp2462
sg63
g59
sg56
(lp2463
g49
(g70
g51
NtRp2464
(dp2465
g54
(dp2466
g74
g75
ssg63
g2460
sg56
(lp2467
S'vars'
p2468
asbag49
(g70
g51
NtRp2469
(dp2470
g54
(dp2471
g81
g82
ssg63
g2460
sg56
(lp2472
S':'
asbag49
(g70
g51
NtRp2473
(dp2474
g54
(dp2475
sg63
g2460
sg56
(lp2476
g49
(g50
g51
NtRp2477
(dp2478
g54
(dp2479
g62
I5
ssg63
g2473
sg56
(lp2480
g49
(g58
g51
NtRp2481
(dp2482
g54
(dp2483
g62
I4
ssg63
Nsg56
(lp2484
sbasbasbasbag49
(g65
g51
NtRp2485
(dp2486
g54
(dp2487
sg63
g59
sg56
(lp2488
g49
(g70
g51
NtRp2489
(dp2490
g54
(dp2491
g74
g75
ssg63
g2485
sg56
(lp2492
S'wsgi'
p2493
asbag49
(g70
g51
NtRp2494
(dp2495
g54
(dp2496
g81
g82
ssg63
g2485
sg56
(lp2497
S':'
asbag49
(g70
g51
NtRp2498
(dp2499
g54
(dp2500
sg63
g2485
sg56
(lp2501
g49
(g50
g51
NtRp2502
(dp2503
g54
(dp2504
g62
I5
ssg63
g2498
sg56
(lp2505
g49
(g58
g51
NtRp2506
(dp2507
g54
(dp2508
g62
I4
ssg63
Nsg56
(lp2509
g49
(g65
g51
NtRp2510
(dp2511
g54
(dp2512
sg63
g2506
sg56
(lp2513
g49
(g70
g51
NtRp2514
(dp2515
g54
(dp2516
g74
g75
ssg63
g2510
sg56
(lp2517
S'environ'
p2518
asbag49
(g70
g51
NtRp2519
(dp2520
g54
(dp2521
g81
g82
ssg63
g2510
sg56
(lp2522
S':'
asbag49
(g70
g51
NtRp2523
(dp2524
g54
(dp2525
sg63
g2510
sg56
(lp2526
g49
(g50
g51
NtRp2527
(dp2528
g54
(dp2529
g62
I4
ssg63
g2523
sg56
(lp2530
g49
(g58
g51
NtRp2531
(dp2532
g54
(dp2533
g62
I3
ssg63
Nsg56
(lp2534
g49
(g65
g51
NtRp2535
(dp2536
g54
(dp2537
sg63
g2531
sg56
(lp2538
g49
(g70
g51
NtRp2539
(dp2540
g54
(dp2541
g74
g75
ssg63
g2535
sg56
(lp2542
S'HTTP_ACCEPT'
p2543
asbag49
(g70
g51
NtRp2544
(dp2545
g54
(dp2546
g81
g82
ssg63
g2535
sg56
(lp2547
S':'
asbag49
(g70
g51
NtRp2548
(dp2549
g54
(dp2550
sg63
g2535
sg56
(lp2551
g49
(g50
g51
NtRp2552
(dp2553
g54
(dp2554
g62
I3
ssg63
g2548
sg56
(lp2555
g959
asbasbasbag49
(g65
g51
NtRp2556
(dp2557
g54
(dp2558
sg63
g2531
sg56
(lp2559
g49
(g70
g51
NtRp2560
(dp2561
g54
(dp2562
g74
g75
ssg63
g2556
sg56
(lp2563
S'HTTP_ACCEPT_ENCODING'
p2564
asbag49
(g70
g51
NtRp2565
(dp2566
g54
(dp2567
g81
g82
ssg63
g2556
sg56
(lp2568
S':'
asbag49
(g70
g51
NtRp2569
(dp2570
g54
(dp2571
sg63
g2556
sg56
(lp2572
g49
(g50
g51
NtRp2573
(dp2574
g54
(dp2575
g62
I3
ssg63
g2569
sg56
(lp2576
g981
asbasbasbag49
(g65
g51
NtRp2577
(dp2578
g54
(dp2579
sg63
g2531
sg56
(lp2580
g49
(g70
g51
NtRp2581
(dp2582
g54
(dp2583
g74
g75
ssg63
g2577
sg56
(lp2584
S'HTTP_ACCEPT_LANGUAGE'
p2585
asbag49
(g70
g51
NtRp2586
(dp2587
g54
(dp2588
g81
g82
ssg63
g2577
sg56
(lp2589
S':'
asbag49
(g70
g51
NtRp2590
(dp2591
g54
(dp2592
sg63
g2577
sg56
(lp2593
g49
(g50
g51
NtRp2594
(dp2595
g54
(dp2596
g62
I3
ssg63
g2590
sg56
(lp2597
g1003
asbasbasbag49
(g65
g51
NtRp2598
(dp2599
g54
(dp2600
sg63
g2531
sg56
(lp2601
g49
(g70
g51
NtRp2602
(dp2603
g54
(dp2604
g74
g75
ssg63
g2598
sg56
(lp2605
S'HTTP_CONNECTION'
p2606
asbag49
(g70
g51
NtRp2607
(dp2608
g54
(dp2609
g81
g82
ssg63
g2598
sg56
(lp2610
S':'
asbag49
(g70
g51
NtRp2611
(dp2612
g54
(dp2613
sg63
g2598
sg56
(lp2614
g49
(g50
g51
NtRp2615
(dp2616
g54
(dp2617
g62
I3
ssg63
g2611
sg56
(lp2618
g1025
asbasbasbag49
(g65
g51
NtRp2619
(dp2620
g54
(dp2621
sg63
g2531
sg56
(lp2622
g49
(g70
g51
NtRp2623
(dp2624
g54
(dp2625
g74
g75
ssg63
g2619
sg56
(lp2626
S'HTTP_COOKIE'
p2627
asbag49
(g70
g51
NtRp2628
(dp2629
g54
(dp2630
g81
g82
ssg63
g2619
sg56
(lp2631
S':'
asbag49
(g70
g51
NtRp2632
(dp2633
g54
(dp2634
sg63
g2619
sg56
(lp2635
g49
(g50
g51
NtRp2636
(dp2637
g54
(dp2638
g62
I3
ssg63
g2632
sg56
(lp2639
g1047
asbasbasbag49
(g65
g51
NtRp2640
(dp2641
g54
(dp2642
sg63
g2531
sg56
(lp2643
g49
(g70
g51
NtRp2644
(dp2645
g54
(dp2646
g74
g75
ssg63
g2640
sg56
(lp2647
S'HTTP_HOST'
p2648
asbag49
(g70
g51
NtRp2649
(dp2650
g54
(dp2651
g81
g82
ssg63
g2640
sg56
(lp2652
S':'
asbag49
(g70
g51
NtRp2653
(dp2654
g54
(dp2655
sg63
g2640
sg56
(lp2656
g49
(g50
g51
NtRp2657
(dp2658
g54
(dp2659
g62
I3
ssg63
g2653
sg56
(lp2660
g1069
asbasbasbag49
(g65
g51
NtRp2661
(dp2662
g54
(dp2663
sg63
g2531
sg56
(lp2664
g49
(g70
g51
NtRp2665
(dp2666
g54
(dp2667
g74
g75
ssg63
g2661
sg56
(lp2668
S'HTTP_USER_AGENT'
p2669
asbag49
(g70
g51
NtRp2670
(dp2671
g54
(dp2672
g81
g82
ssg63
g2661
sg56
(lp2673
S':'
asbag49
(g70
g51
NtRp2674
(dp2675
g54
(dp2676
sg63
g2661
sg56
(lp2677
g49
(g50
g51
NtRp2678
(dp2679
g54
(dp2680
g62
I3
ssg63
g2674
sg56
(lp2681
g1091
asbasbasbag49
(g65
g51
NtRp2682
(dp2683
g54
(dp2684
sg63
g2531
sg56
(lp2685
g49
(g70
g51
NtRp2686
(dp2687
g54
(dp2688
g74
g75
ssg63
g2682
sg56
(lp2689
S'PATH_INFO'
p2690
asbag49
(g70
g51
NtRp2691
(dp2692
g54
(dp2693
g81
g82
ssg63
g2682
sg56
(lp2694
S':'
asbag49
(g70
g51
NtRp2695
(dp2696
g54
(dp2697
sg63
g2682
sg56
(lp2698
g49
(g50
g51
NtRp2699
(dp2700
g54
(dp2701
g62
I3
ssg63
g2695
sg56
(lp2702
g1245
asbasbasbag49
(g65
g51
NtRp2703
(dp2704
g54
(dp2705
sg63
g2531
sg56
(lp2706
g49
(g70
g51
NtRp2707
(dp2708
g54
(dp2709
g74
g75
ssg63
g2703
sg56
(lp2710
S'QUERY_STRING'
p2711
asbag49
(g70
g51
NtRp2712
(dp2713
g54
(dp2714
g81
g82
ssg63
g2703
sg56
(lp2715
S':'
asbag49
(g70
g51
NtRp2716
(dp2717
g54
(dp2718
sg63
g2703
sg56
(lp2719
g49
(g50
g51
NtRp2720
(dp2721
g54
(dp2722
g62
I3
ssg63
g2716
sg56
(lp2723
S''
asbasbasbag49
(g65
g51
NtRp2724
(dp2725
g54
(dp2726
sg63
g2531
sg56
(lp2727
g49
(g70
g51
NtRp2728
(dp2729
g54
(dp2730
g74
g75
ssg63
g2724
sg56
(lp2731
S'REMOTE_ADDR'
p2732
asbag49
(g70
g51
NtRp2733
(dp2734
g54
(dp2735
g81
g82
ssg63
g2724
sg56
(lp2736
S':'
asbag49
(g70
g51
NtRp2737
(dp2738
g54
(dp2739
sg63
g2724
sg56
(lp2740
g49
(g50
g51
NtRp2741
(dp2742
g54
(dp2743
g62
I3
ssg63
g2737
sg56
(lp2744
g204
asbasbasbag49
(g65
g51
NtRp2745
(dp2746
g54
(dp2747
sg63
g2531
sg56
(lp2748
g49
(g70
g51
NtRp2749
(dp2750
g54
(dp2751
g74
g75
ssg63
g2745
sg56
(lp2752
S'REMOTE_PORT'
p2753
asbag49
(g70
g51
NtRp2754
(dp2755
g54
(dp2756
g81
g82
ssg63
g2745
sg56
(lp2757
S':'
asbag49
(g70
g51
NtRp2758
(dp2759
g54
(dp2760
sg63
g2745
sg56
(lp2761
g49
(g50
g51
NtRp2762
(dp2763
g54
(dp2764
g62
I3
ssg63
g2758
sg56
(lp2765
g1309
asbasbasbag49
(g65
g51
NtRp2766
(dp2767
g54
(dp2768
sg63
g2531
sg56
(lp2769
g49
(g70
g51
NtRp2770
(dp2771
g54
(dp2772
g74
g75
ssg63
g2766
sg56
(lp2773
S'REQUEST_METHOD'
p2774
asbag49
(g70
g51
NtRp2775
(dp2776
g54
(dp2777
g81
g82
ssg63
g2766
sg56
(lp2778
S':'
asbag49
(g70
g51
NtRp2779
(dp2780
g54
(dp2781
sg63
g2766
sg56
(lp2782
g49
(g50
g51
NtRp2783
(dp2784
g54
(dp2785
g62
I3
ssg63
g2779
sg56
(lp2786
g1331
asbasbasbag49
(g65
g51
NtRp2787
(dp2788
g54
(dp2789
sg63
g2531
sg56
(lp2790
g49
(g70
g51
NtRp2791
(dp2792
g54
(dp2793
g74
g75
ssg63
g2787
sg56
(lp2794
S'REQUEST_URI'
p2795
asbag49
(g70
g51
NtRp2796
(dp2797
g54
(dp2798
g81
g82
ssg63
g2787
sg56
(lp2799
S':'
asbag49
(g70
g51
NtRp2800
(dp2801
g54
(dp2802
sg63
g2787
sg56
(lp2803
g49
(g50
g51
NtRp2804
(dp2805
g54
(dp2806
g62
I3
ssg63
g2800
sg56
(lp2807
g1245
asbasbasbag49
(g65
g51
NtRp2808
(dp2809
g54
(dp2810
sg63
g2531
sg56
(lp2811
g49
(g70
g51
NtRp2812
(dp2813
g54
(dp2814
g74
g75
ssg63
g2808
sg56
(lp2815
S'SCRIPT_NAME'
p2816
asbag49
(g70
g51
NtRp2817
(dp2818
g54
(dp2819
g81
g82
ssg63
g2808
sg56
(lp2820
S':'
asbag49
(g70
g51
NtRp2821
(dp2822
g54
(dp2823
sg63
g2808
sg56
(lp2824
g49
(g50
g51
NtRp2825
(dp2826
g54
(dp2827
g62
I3
ssg63
g2821
sg56
(lp2828
S''
asbasbasbag49
(g65
g51
NtRp2829
(dp2830
g54
(dp2831
sg63
g2531
sg56
(lp2832
g49
(g70
g51
NtRp2833
(dp2834
g54
(dp2835
g74
g75
ssg63
g2829
sg56
(lp2836
S'SERVER_NAME'
p2837
asbag49
(g70
g51
NtRp2838
(dp2839
g54
(dp2840
g81
g82
ssg63
g2829
sg56
(lp2841
S':'
asbag49
(g70
g51
NtRp2842
(dp2843
g54
(dp2844
sg63
g2829
sg56
(lp2845
g49
(g50
g51
NtRp2846
(dp2847
g54
(dp2848
g62
I3
ssg63
g2842
sg56
(lp2849
g1210
asbasbasbag49
(g65
g51
NtRp2850
(dp2851
g54
(dp2852
sg63
g2531
sg56
(lp2853
g49
(g70
g51
NtRp2854
(dp2855
g54
(dp2856
g74
g75
ssg63
g2850
sg56
(lp2857
S'SERVER_PORT'
p2858
asbag49
(g70
g51
NtRp2859
(dp2860
g54
(dp2861
g81
g82
ssg63
g2850
sg56
(lp2862
S':'
asbag49
(g70
g51
NtRp2863
(dp2864
g54
(dp2865
sg63
g2850
sg56
(lp2866
g49
(g50
g51
NtRp2867
(dp2868
g54
(dp2869
g62
I3
ssg63
g2863
sg56
(lp2870
g1416
asbasbasbag49
(g65
g51
NtRp2871
(dp2872
g54
(dp2873
sg63
g2531
sg56
(lp2874
g49
(g70
g51
NtRp2875
(dp2876
g54
(dp2877
g74
g75
ssg63
g2871
sg56
(lp2878
S'SERVER_PROTOCOL'
p2879
asbag49
(g70
g51
NtRp2880
(dp2881
g54
(dp2882
g81
g82
ssg63
g2871
sg56
(lp2883
S':'
asbag49
(g70
g51
NtRp2884
(dp2885
g54
(dp2886
sg63
g2871
sg56
(lp2887
g49
(g50
g51
NtRp2888
(dp2889
g54
(dp2890
g62
I3
ssg63
g2884
sg56
(lp2891
g1438
asbasbasbag49
(g65
g51
NtRp2892
(dp2893
g54
(dp2894
sg63
g2531
sg56
(lp2895
g49
(g70
g51
NtRp2896
(dp2897
g54
(dp2898
g74
g75
ssg63
g2892
sg56
(lp2899
S'SERVER_SOFTWARE'
p2900
asbag49
(g70
g51
NtRp2901
(dp2902
g54
(dp2903
g81
g82
ssg63
g2892
sg56
(lp2904
S':'
asbag49
(g70
g51
NtRp2905
(dp2906
g54
(dp2907
sg63
g2892
sg56
(lp2908
g49
(g50
g51
NtRp2909
(dp2910
g54
(dp2911
g62
I3
ssg63
g2905
sg56
(lp2912
g1460
asbasbasbag49
(g65
g51
NtRp2913
(dp2914
g54
(dp2915
sg63
g2531
sg56
(lp2916
g49
(g70
g51
NtRp2917
(dp2918
g54
(dp2919
g74
g75
ssg63
g2913
sg56
(lp2920
S'wsgi.errors'
p2921
asbag49
(g70
g51
NtRp2922
(dp2923
g54
(dp2924
g81
g82
ssg63
g2913
sg56
(lp2925
S':'
asbag49
(g70
g51
NtRp2926
(dp2927
g54
(dp2928
sg63
g2913
sg56
(lp2929
g49
(g50
g51
NtRp2930
(dp2931
g54
(dp2932
g62
I3
ssg63
g2926
sg56
(lp2933
S"<open file '<stderr>', mode 'w' at 0x540b0>"
p2934
asbasbasbag49
(g65
g51
NtRp2935
(dp2936
g54
(dp2937
sg63
g2531
sg56
(lp2938
g49
(g70
g51
NtRp2939
(dp2940
g54
(dp2941
g74
g75
ssg63
g2935
sg56
(lp2942
S'wsgi.file_wrapper'
p2943
asbag49
(g70
g51
NtRp2944
(dp2945
g54
(dp2946
g81
g82
ssg63
g2935
sg56
(lp2947
S':'
asbag49
(g70
g51
NtRp2948
(dp2949
g54
(dp2950
sg63
g2935
sg56
(lp2951
g49
(g50
g51
NtRp2952
(dp2953
g54
(dp2954
g62
I3
ssg63
g2948
sg56
(lp2955
S'<class wsgiref.util.FileWrapper at 0x443f2d0>'
p2956
asbasbasbag49
(g65
g51
NtRp2957
(dp2958
g54
(dp2959
sg63
g2531
sg56
(lp2960
g49
(g70
g51
NtRp2961
(dp2962
g54
(dp2963
g74
g75
ssg63
g2957
sg56
(lp2964
S'wsgi.input'
p2965
asbag49
(g70
g51
NtRp2966
(dp2967
g54
(dp2968
g81
g82
ssg63
g2957
sg56
(lp2969
S':'
asbag49
(g70
g51
NtRp2970
(dp2971
g54
(dp2972
sg63
g2957
sg56
(lp2973
g49
(g50
g51
NtRp2974
(dp2975
g54
(dp2976
g62
I3
ssg63
g2970
sg56
(lp2977
S'<cStringIO.StringO object at 0x756c040>'
p2978
asbasbasbag49
(g65
g51
NtRp2979
(dp2980
g54
(dp2981
sg63
g2531
sg56
(lp2982
g49
(g70
g51
NtRp2983
(dp2984
g54
(dp2985
g74
g75
ssg63
g2979
sg56
(lp2986
S'wsgi.multiprocess'
p2987
asbag49
(g70
g51
NtRp2988
(dp2989
g54
(dp2990
g81
g82
ssg63
g2979
sg56
(lp2991
S':'
asbag49
(g70
g51
NtRp2992
(dp2993
g54
(dp2994
sg63
g2979
sg56
(lp2995
g49
(g50
g51
NtRp2996
(dp2997
g54
(dp2998
g62
I3
ssg63
g2992
sg56
(lp2999
g92
asbasbasbag49
(g65
g51
NtRp3000
(dp3001
g54
(dp3002
sg63
g2531
sg56
(lp3003
g49
(g70
g51
NtRp3004
(dp3005
g54
(dp3006
g74
g75
ssg63
g3000
sg56
(lp3007
S'wsgi.multithread'
p3008
asbag49
(g70
g51
NtRp3009
(dp3010
g54
(dp3011
g81
g82
ssg63
g3000
sg56
(lp3012
S':'
asbag49
(g70
g51
NtRp3013
(dp3014
g54
(dp3015
sg63
g3000
sg56
(lp3016
g49
(g50
g51
NtRp3017
(dp3018
g54
(dp3019
g62
I3
ssg63
g3013
sg56
(lp3020
g1677
asbasbasbag49
(g65
g51
NtRp3021
(dp3022
g54
(dp3023
sg63
g2531
sg56
(lp3024
g49
(g70
g51
NtRp3025
(dp3026
g54
(dp3027
g74
g75
ssg63
g3021
sg56
(lp3028
S'wsgi.run_once'
p3029
asbag49
(g70
g51
NtRp3030
(dp3031
g54
(dp3032
g81
g82
ssg63
g3021
sg56
(lp3033
S':'
asbag49
(g70
g51
NtRp3034
(dp3035
g54
(dp3036
sg63
g3021
sg56
(lp3037
g49
(g50
g51
NtRp3038
(dp3039
g54
(dp3040
g62
I3
ssg63
g3034
sg56
(lp3041
g92
asbasbasbag49
(g65
g51
NtRp3042
(dp3043
g54
(dp3044
sg63
g2531
sg56
(lp3045
g49
(g70
g51
NtRp3046
(dp3047
g54
(dp3048
g74
g75
ssg63
g3042
sg56
(lp3049
S'wsgi.url_scheme'
p3050
asbag49
(g70
g51
NtRp3051
(dp3052
g54
(dp3053
g81
g82
ssg63
g3042
sg56
(lp3054
S':'
asbag49
(g70
g51
NtRp3055
(dp3056
g54
(dp3057
sg63
g3042
sg56
(lp3058
g49
(g50
g51
NtRp3059
(dp3060
g54
(dp3061
g62
I3
ssg63
g3055
sg56
(lp3062
g1720
asbasbasbag49
(g65
g51
NtRp3063
(dp3064
g54
(dp3065
sg63
g2531
sg56
(lp3066
g49
(g70
g51
NtRp3067
(dp3068
g54
(dp3069
g74
g75
ssg63
g3063
sg56
(lp3070
S'wsgi.version'
p3071
asbag49
(g70
g51
NtRp3072
(dp3073
g54
(dp3074
g81
g82
ssg63
g3063
sg56
(lp3075
S':'
asbag49
(g70
g51
NtRp3076
(dp3077
g54
(dp3078
sg63
g3063
sg56
(lp3079
g49
(g50
g51
NtRp3080
(dp3081
g54
(dp3082
g62
I3
ssg63
g3076
sg56
(lp3083
S'1'
asbasbasbasbasbasbasbasbasbasbasbasbasbsS'frames'
p3084
(lp3085
(dp3086
S'file'
p3087
S'/Users/abaric/Downloads/web2py/web2py.app/Contents/Resources/gluon/restricted.py'
p3088
sS'dump'
p3089
(dp3090
sS'lnum'
p3091
I212
sS'lines'
p3092
(dp3093
sS'call'
p3094
S"(code='from gluon.tools import datetime\\nfrom gluon.tool...onse._vars=response._caller(show_image_comments)\\n', environment={'A': <class 'gluon.html.A'>, 'Auth': <class 'gluon.tools.Auth'>, 'B': <class 'gluon.html.B'>, 'BEAUTIFY': <class 'gluon.html.BEAUTIFY'>, 'BODY': <class 'gluon.html.BODY'>, 'BR': <class 'gluon.html.BR'>, 'BUTTON': <class 'gluon.html.BUTTON'>, 'CAT': <class 'gluon.html.CAT'>, 'CENTER': <class 'gluon.html.CENTER'>, 'CLEANUP': <class 'gluon.validators.CLEANUP'>, ...}, layer='/Users/abaric/Downloads/web2py/web2py.app/Conten...applications/Final_Impulse/controllers/default.py')"
p3095
sS'func'
p3096
S'restricted'
p3097
sa(dp3098
g3087
S'/Users/abaric/Downloads/web2py/web2py.app/Contents/Resources/applications/Final_Impulse/controllers/default.py'
p3099
sg3089
(dp3100
sg3091
I149
sg3092
(dp3101
I138
S'                                  video_id=video_id,'
p3102
sI139
S'                                  email=None,'
p3103
sI140
S'                                  body=video_comment,'
p3104
sI141
S'                                  date_of_entry=datetime.datetime.today())'
p3105
sI142
S'        db.commit()'
p3106
sI143
S''
sI144
S'    else:'
p3107
sI145
S"        session.flash='You must log in to post a comment.'"
p3108
sI146
S"    redirect(URL('show_video_comments'))"
p3109
sI147
S'    return locals()'
p3110
ssg3094
S'()'
p3111
sg3096
S'<module>'
p3112
sa(dp3113
g3087
S'/Users/abaric/Downloads/web2py/web2py.app/Contents/Resources/gluon/globals.py'
p3114
sg3089
(dp3115
sg3091
I188
sg3092
(dp3116
sg3094
S'(f=<function show_image_comments at 0x89ad7f0>)'
p3117
sg3096
S'<lambda>'
p3118
sa(dp3119
g3087
S'/Users/abaric/Downloads/web2py/web2py.app/Contents/Resources/applications/Final_Impulse/controllers/default.py'
p3120
sg3089
(dp3121
sg3091
I36
sg3092
(dp3122
I32
S'    return response.download(request, db)'
p3123
sI33
S''
sI34
S'def show_image_comments():'
p3124
sI35
S"    image_form=SQLFORM(db.image,fields=['title','file'],labels={'file':'Your Image'})"
p3125
sI36
S'    image_form.vars.author_id=auth.user.id'
p3126
sI37
S'    if image_form.process().accepted:'
p3127
sI38
S"        response.flash='image submitted!'"
p3128
sI39
S'    images=db(db.image).select(db.image.ALL, orderby=db.image.id)'
p3129
sI40
S'    d={}'
p3130
sI31
S'def download():'
p3131
ssg3094
S'()'
p3132
sg3096
S'show_image_comments'
p3133
sasS'pyver'
p3134
S'Python 2.5.1: /Users/abaric/Downloads/web2py/web2py.app/Contents/MacOS/python'
p3135
sS'session'
p3136
g49
(g50
g51
NtRp3137
(dp3138
g54
(dp3139
sg56
(lp3140
g49
(g58
g51
NtRp3141
(dp3142
g54
(dp3143
g62
I5
ssg63
Nsg56
(lp3144
g49
(g65
g51
NtRp3145
(dp3146
g54
(dp3147
sg63
g3141
sg56
(lp3148
g49
(g70
g51
NtRp3149
(dp3150
g54
(dp3151
g74
g75
ssg63
g3145
sg56
(lp3152
S'flash'
p3153
asbag49
(g70
g51
NtRp3154
(dp3155
g54
(dp3156
g81
g82
ssg63
g3145
sg56
(lp3157
S':'
asbag49
(g70
g51
NtRp3158
(dp3159
g54
(dp3160
sg63
g3145
sg56
(lp3161
g49
(g50
g51
NtRp3162
(dp3163
g54
(dp3164
g62
I5
ssg63
g3158
sg56
(lp3165
S''
asbasbasbasbasbsS'etype'
p3166
S"<type 'exceptions.AttributeError'>"
p3167
sS'date'
p3168
S'Thu Jun  5 14:40:35 2014'
p3169
sS'response'
p3170
g49
(g50
g51
NtRp3171
(dp3172
g54
(dp3173
sg56
(lp3174
g49
(g58
g51
NtRp3175
(dp3176
g54
(dp3177
g62
I5
ssg63
Nsg56
(lp3178
g49
(g65
g51
NtRp3179
(dp3180
g54
(dp3181
sg63
g3175
sg56
(lp3182
g49
(g70
g51
NtRp3183
(dp3184
g54
(dp3185
g74
g75
ssg63
g3179
sg56
(lp3186
g147
asbag49
(g70
g51
NtRp3187
(dp3188
g54
(dp3189
g81
g82
ssg63
g3179
sg56
(lp3190
S':'
asbag49
(g70
g51
NtRp3191
(dp3192
g54
(dp3193
sg63
g3179
sg56
(lp3194
g49
(g50
g51
NtRp3195
(dp3196
g54
(dp3197
g62
I5
ssg63
g3191
sg56
(lp3198
S'<cStringIO.StringO object at 0x8ba8660>'
p3199
asbasbasbag49
(g65
g51
NtRp3200
(dp3201
g54
(dp3202
sg63
g3175
sg56
(lp3203
g49
(g70
g51
NtRp3204
(dp3205
g54
(dp3206
g74
g75
ssg63
g3200
sg56
(lp3207
g235
asbag49
(g70
g51
NtRp3208
(dp3209
g54
(dp3210
g81
g82
ssg63
g3200
sg56
(lp3211
S':'
asbag49
(g70
g51
NtRp3212
(dp3213
g54
(dp3214
sg63
g3200
sg56
(lp3215
g49
(g50
g51
NtRp3216
(dp3217
g54
(dp3218
g62
I5
ssg63
g3212
sg56
(lp3219
g49
(g58
g51
NtRp3220
(dp3221
g54
(dp3222
g62
I4
ssg63
Nsg56
(lp3223
g49
(g65
g51
NtRp3224
(dp3225
g54
(dp3226
sg63
g3220
sg56
(lp3227
g49
(g70
g51
NtRp3228
(dp3229
g54
(dp3230
g74
g75
ssg63
g3224
sg56
(lp3231
S'session_id_final_impulse'
p3232
asbag49
(g70
g51
NtRp3233
(dp3234
g54
(dp3235
g81
g82
ssg63
g3224
sg56
(lp3236
S':'
asbag49
(g70
g51
NtRp3237
(dp3238
g54
(dp3239
sg63
g3224
sg56
(lp3240
g49
(g50
g51
NtRp3241
(dp3242
g54
(dp3243
g62
I4
ssg63
g3237
sg56
(lp3244
g446
ag49
(g58
g51
NtRp3245
(dp3246
g54
(dp3247
g62
I3
ssg63
Nsg56
(lp3248
g49
(g65
g51
NtRp3249
(dp3250
g54
(dp3251
sg63
g3245
sg56
(lp3252
g49
(g70
g51
NtRp3253
(dp3254
g54
(dp3255
g74
g75
ssg63
g3249
sg56
(lp3256
g286
asbag49
(g70
g51
NtRp3257
(dp3258
g54
(dp3259
g81
g82
ssg63
g3249
sg56
(lp3260
S':'
asbag49
(g70
g51
NtRp3261
(dp3262
g54
(dp3263
sg63
g3249
sg56
(lp3264
g49
(g50
g51
NtRp3265
(dp3266
g54
(dp3267
g62
I3
ssg63
g3261
sg56
(lp3268
S''
asbasbasbag49
(g65
g51
NtRp3269
(dp3270
g54
(dp3271
sg63
g3245
sg56
(lp3272
g49
(g70
g51
NtRp3273
(dp3274
g54
(dp3275
g74
g75
ssg63
g3269
sg56
(lp3276
g307
asbag49
(g70
g51
NtRp3277
(dp3278
g54
(dp3279
g81
g82
ssg63
g3269
sg56
(lp3280
S':'
asbag49
(g70
g51
NtRp3281
(dp3282
g54
(dp3283
sg63
g3269
sg56
(lp3284
g49
(g50
g51
NtRp3285
(dp3286
g54
(dp3287
g62
I3
ssg63
g3281
sg56
(lp3288
S''
asbasbasbag49
(g65
g51
NtRp3289
(dp3290
g54
(dp3291
sg63
g3245
sg56
(lp3292
g49
(g70
g51
NtRp3293
(dp3294
g54
(dp3295
g74
g75
ssg63
g3289
sg56
(lp3296
g328
asbag49
(g70
g51
NtRp3297
(dp3298
g54
(dp3299
g81
g82
ssg63
g3289
sg56
(lp3300
S':'
asbag49
(g70
g51
NtRp3301
(dp3302
g54
(dp3303
sg63
g3289
sg56
(lp3304
g49
(g50
g51
NtRp3305
(dp3306
g54
(dp3307
g62
I3
ssg63
g3301
sg56
(lp3308
S''
asbasbasbag49
(g65
g51
NtRp3309
(dp3310
g54
(dp3311
sg63
g3245
sg56
(lp3312
g49
(g70
g51
NtRp3313
(dp3314
g54
(dp3315
g74
g75
ssg63
g3309
sg56
(lp3316
g349
asbag49
(g70
g51
NtRp3317
(dp3318
g54
(dp3319
g81
g82
ssg63
g3309
sg56
(lp3320
S':'
asbag49
(g70
g51
NtRp3321
(dp3322
g54
(dp3323
sg63
g3309
sg56
(lp3324
g49
(g50
g51
NtRp3325
(dp3326
g54
(dp3327
g62
I3
ssg63
g3321
sg56
(lp3328
S''
asbasbasbag49
(g65
g51
NtRp3329
(dp3330
g54
(dp3331
sg63
g3245
sg56
(lp3332
g49
(g70
g51
NtRp3333
(dp3334
g54
(dp3335
g74
g75
ssg63
g3329
sg56
(lp3336
g370
asbag49
(g70
g51
NtRp3337
(dp3338
g54
(dp3339
g81
g82
ssg63
g3329
sg56
(lp3340
S':'
asbag49
(g70
g51
NtRp3341
(dp3342
g54
(dp3343
sg63
g3329
sg56
(lp3344
g49
(g50
g51
NtRp3345
(dp3346
g54
(dp3347
g62
I3
ssg63
g3341
sg56
(lp3348
S'/'
asbasbasbag49
(g65
g51
NtRp3349
(dp3350
g54
(dp3351
sg63
g3245
sg56
(lp3352
g49
(g70
g51
NtRp3353
(dp3354
g54
(dp3355
g74
g75
ssg63
g3349
sg56
(lp3356
g391
asbag49
(g70
g51
NtRp3357
(dp3358
g54
(dp3359
g81
g82
ssg63
g3349
sg56
(lp3360
S':'
asbag49
(g70
g51
NtRp3361
(dp3362
g54
(dp3363
sg63
g3349
sg56
(lp3364
g49
(g50
g51
NtRp3365
(dp3366
g54
(dp3367
g62
I3
ssg63
g3361
sg56
(lp3368
S''
asbasbasbag49
(g65
g51
NtRp3369
(dp3370
g54
(dp3371
sg63
g3245
sg56
(lp3372
g49
(g70
g51
NtRp3373
(dp3374
g54
(dp3375
g74
g75
ssg63
g3369
sg56
(lp3376
g412
asbag49
(g70
g51
NtRp3377
(dp3378
g54
(dp3379
g81
g82
ssg63
g3369
sg56
(lp3380
S':'
asbag49
(g70
g51
NtRp3381
(dp3382
g54
(dp3383
sg63
g3369
sg56
(lp3384
g49
(g50
g51
NtRp3385
(dp3386
g54
(dp3387
g62
I3
ssg63
g3381
sg56
(lp3388
S''
asbasbasbasbasbasbasbasbasbasbasbag49
(g65
g51
NtRp3389
(dp3390
g54
(dp3391
sg63
g3175
sg56
(lp3392
g49
(g70
g51
NtRp3393
(dp3394
g54
(dp3395
g74
g75
ssg63
g3389
sg56
(lp3396
S'delimiters'
p3397
asbag49
(g70
g51
NtRp3398
(dp3399
g54
(dp3400
g81
g82
ssg63
g3389
sg56
(lp3401
S':'
asbag49
(g70
g51
NtRp3402
(dp3403
g54
(dp3404
sg63
g3389
sg56
(lp3405
g49
(g50
g51
NtRp3406
(dp3407
g54
(dp3408
g62
I5
ssg63
g3402
sg56
(lp3409
g49
(g58
g51
NtRp3410
(dp3411
g54
(dp3412
g62
I4
ssg63
Nsg56
(lp3413
g49
(g65
g51
NtRp3414
(dp3415
g54
(dp3416
sg63
g3410
sg56
(lp3417
g49
(g70
g51
NtRp3418
(dp3419
g54
(dp3420
sg63
g3414
sg56
(lp3421
g49
(g50
g51
NtRp3422
(dp3423
g54
(dp3424
g62
I4
ssg63
g3418
sg56
(lp3425
S'{{'
p3426
asbasbasbag49
(g65
g51
NtRp3427
(dp3428
g54
(dp3429
sg63
g3410
sg56
(lp3430
g49
(g70
g51
NtRp3431
(dp3432
g54
(dp3433
sg63
g3427
sg56
(lp3434
g49
(g50
g51
NtRp3435
(dp3436
g54
(dp3437
g62
I4
ssg63
g3431
sg56
(lp3438
S'}}'
p3439
asbasbasbasbasbasbasbag49
(g65
g51
NtRp3440
(dp3441
g54
(dp3442
sg63
g3175
sg56
(lp3443
g49
(g70
g51
NtRp3444
(dp3445
g54
(dp3446
g74
g75
ssg63
g3440
sg56
(lp3447
S'files'
p3448
asbag49
(g70
g51
NtRp3449
(dp3450
g54
(dp3451
g81
g82
ssg63
g3440
sg56
(lp3452
S':'
asbag49
(g70
g51
NtRp3453
(dp3454
g54
(dp3455
sg63
g3440
sg56
(lp3456
g49
(g50
g51
NtRp3457
(dp3458
g54
(dp3459
g62
I5
ssg63
g3453
sg56
(lp3460
g49
(g58
g51
NtRp3461
(dp3462
g54
(dp3463
g62
I4
ssg63
Nsg56
(lp3464
sbasbasbasbag49
(g65
g51
NtRp3465
(dp3466
g54
(dp3467
sg63
g3175
sg56
(lp3468
g49
(g70
g51
NtRp3469
(dp3470
g54
(dp3471
g74
g75
ssg63
g3465
sg56
(lp3472
S'flash'
p3473
asbag49
(g70
g51
NtRp3474
(dp3475
g54
(dp3476
g81
g82
ssg63
g3465
sg56
(lp3477
S':'
asbag49
(g70
g51
NtRp3478
(dp3479
g54
(dp3480
sg63
g3465
sg56
(lp3481
g49
(g50
g51
NtRp3482
(dp3483
g54
(dp3484
g62
I5
ssg63
g3478
sg56
(lp3485
S''
asbasbasbag49
(g65
g51
NtRp3486
(dp3487
g54
(dp3488
sg63
g3175
sg56
(lp3489
g49
(g70
g51
NtRp3490
(dp3491
g54
(dp3492
g74
g75
ssg63
g3486
sg56
(lp3493
S'generic_patterns'
p3494
asbag49
(g70
g51
NtRp3495
(dp3496
g54
(dp3497
g81
g82
ssg63
g3486
sg56
(lp3498
S':'
asbag49
(g70
g51
NtRp3499
(dp3500
g54
(dp3501
sg63
g3486
sg56
(lp3502
g49
(g50
g51
NtRp3503
(dp3504
g54
(dp3505
g62
I5
ssg63
g3499
sg56
(lp3506
g49
(g58
g51
NtRp3507
(dp3508
g54
(dp3509
g62
I4
ssg63
Nsg56
(lp3510
sbasbasbasbag49
(g65
g51
NtRp3511
(dp3512
g54
(dp3513
sg63
g3175
sg56
(lp3514
g49
(g70
g51
NtRp3515
(dp3516
g54
(dp3517
g74
g75
ssg63
g3511
sg56
(lp3518
S'google_analytics_id'
p3519
asbag49
(g70
g51
NtRp3520
(dp3521
g54
(dp3522
g81
g82
ssg63
g3511
sg56
(lp3523
S':'
asbag49
(g70
g51
NtRp3524
(dp3525
g54
(dp3526
sg63
g3511
sg56
(lp3527
g49
(g50
g51
NtRp3528
(dp3529
g54
(dp3530
g62
I5
ssg63
g3524
sg56
(lp3531
S'None'
p3532
asbasbasbag49
(g65
g51
NtRp3533
(dp3534
g54
(dp3535
sg63
g3175
sg56
(lp3536
g49
(g70
g51
NtRp3537
(dp3538
g54
(dp3539
g74
g75
ssg63
g3533
sg56
(lp3540
S'headers'
p3541
asbag49
(g70
g51
NtRp3542
(dp3543
g54
(dp3544
g81
g82
ssg63
g3533
sg56
(lp3545
S':'
asbag49
(g70
g51
NtRp3546
(dp3547
g54
(dp3548
sg63
g3533
sg56
(lp3549
g49
(g50
g51
NtRp3550
(dp3551
g54
(dp3552
g62
I5
ssg63
g3546
sg56
(lp3553
g49
(g58
g51
NtRp3554
(dp3555
g54
(dp3556
g62
I4
ssg63
Nsg56
(lp3557
g49
(g65
g51
NtRp3558
(dp3559
g54
(dp3560
sg63
g3554
sg56
(lp3561
g49
(g70
g51
NtRp3562
(dp3563
g54
(dp3564
g74
g75
ssg63
g3558
sg56
(lp3565
S'X-Powered-By'
p3566
asbag49
(g70
g51
NtRp3567
(dp3568
g54
(dp3569
g81
g82
ssg63
g3558
sg56
(lp3570
S':'
asbag49
(g70
g51
NtRp3571
(dp3572
g54
(dp3573
sg63
g3558
sg56
(lp3574
g49
(g50
g51
NtRp3575
(dp3576
g54
(dp3577
g62
I4
ssg63
g3571
sg56
(lp3578
S'web2py'
p3579
asbasbasbasbasbasbasbag49
(g65
g51
NtRp3580
(dp3581
g54
(dp3582
sg63
g3175
sg56
(lp3583
g49
(g70
g51
NtRp3584
(dp3585
g54
(dp3586
g74
g75
ssg63
g3580
sg56
(lp3587
S'menu'
p3588
asbag49
(g70
g51
NtRp3589
(dp3590
g54
(dp3591
g81
g82
ssg63
g3580
sg56
(lp3592
S':'
asbag49
(g70
g51
NtRp3593
(dp3594
g54
(dp3595
sg63
g3580
sg56
(lp3596
g49
(g50
g51
NtRp3597
(dp3598
g54
(dp3599
g62
I5
ssg63
g3593
sg56
(lp3600
g49
(g58
g51
NtRp3601
(dp3602
g54
(dp3603
g62
I4
ssg63
Nsg56
(lp3604
g49
(g65
g51
NtRp3605
(dp3606
g54
(dp3607
sg63
g3601
sg56
(lp3608
g49
(g70
g51
NtRp3609
(dp3610
g54
(dp3611
sg63
g3605
sg56
(lp3612
g49
(g50
g51
NtRp3613
(dp3614
g54
(dp3615
g62
I4
ssg63
g3609
sg56
(lp3616
g49
(g58
g51
NtRp3617
(dp3618
g54
(dp3619
g62
I3
ssg63
Nsg56
(lp3620
g49
(g65
g51
NtRp3621
(dp3622
g54
(dp3623
sg63
g3617
sg56
(lp3624
g49
(g70
g51
NtRp3625
(dp3626
g54
(dp3627
sg63
g3621
sg56
(lp3628
g49
(g50
g51
NtRp3629
(dp3630
g54
(dp3631
g62
I3
ssg63
g3625
sg56
(lp3632
cgluon.languages
lazyT_unpickle
p3633
(S't\x04\x00\x00\x00Home'
tRp3634
asbasbasbag49
(g65
g51
NtRp3635
(dp3636
g54
(dp3637
sg63
g3617
sg56
(lp3638
g49
(g70
g51
NtRp3639
(dp3640
g54
(dp3641
sg63
g3635
sg56
(lp3642
g49
(g50
g51
NtRp3643
(dp3644
g54
(dp3645
g62
I3
ssg63
g3639
sg56
(lp3646
g92
asbasbasbag49
(g65
g51
NtRp3647
(dp3648
g54
(dp3649
sg63
g3617
sg56
(lp3650
g49
(g70
g51
NtRp3651
(dp3652
g54
(dp3653
sg63
g3647
sg56
(lp3654
g49
(g50
g51
NtRp3655
(dp3656
g54
(dp3657
g62
I3
ssg63
g3651
sg56
(lp3658
S'/Final_Impulse/default/index'
p3659
asbasbasbag49
(g65
g51
NtRp3660
(dp3661
g54
(dp3662
sg63
g3617
sg56
(lp3663
g49
(g70
g51
NtRp3664
(dp3665
g54
(dp3666
sg63
g3660
sg56
(lp3667
g49
(g50
g51
NtRp3668
(dp3669
g54
(dp3670
g62
I3
ssg63
g3664
sg56
(lp3671
g49
(g58
g51
NtRp3672
(dp3673
g54
(dp3674
g62
I2
ssg63
Nsg56
(lp3675
sbasbasbasbasbasbasbasbag49
(g65
g51
NtRp3676
(dp3677
g54
(dp3678
sg63
g3601
sg56
(lp3679
g49
(g70
g51
NtRp3680
(dp3681
g54
(dp3682
sg63
g3676
sg56
(lp3683
g49
(g50
g51
NtRp3684
(dp3685
g54
(dp3686
g62
I4
ssg63
g3680
sg56
(lp3687
g49
(g58
g51
NtRp3688
(dp3689
g54
(dp3690
g62
I3
ssg63
Nsg56
(lp3691
g49
(g65
g51
NtRp3692
(dp3693
g54
(dp3694
sg63
g3688
sg56
(lp3695
g49
(g70
g51
NtRp3696
(dp3697
g54
(dp3698
sg63
g3692
sg56
(lp3699
g49
(g50
g51
NtRp3700
(dp3701
g54
(dp3702
g62
I3
ssg63
g3696
sg56
(lp3703
g49
(cgluon.html
SPAN
p3704
g51
NtRp3705
(dp3706
g54
(dp3707
S'_class'
p3708
S'highlighted'
p3709
ssg63
Nsg56
(lp3710
g3579
asbasbasbasbag49
(g65
g51
NtRp3711
(dp3712
g54
(dp3713
sg63
g3688
sg56
(lp3714
g49
(g70
g51
NtRp3715
(dp3716
g54
(dp3717
sg63
g3711
sg56
(lp3718
g49
(g50
g51
NtRp3719
(dp3720
g54
(dp3721
g62
I3
ssg63
g3715
sg56
(lp3722
g92
asbasbasbag49
(g65
g51
NtRp3723
(dp3724
g54
(dp3725
sg63
g3688
sg56
(lp3726
g49
(g70
g51
NtRp3727
(dp3728
g54
(dp3729
sg63
g3723
sg56
(lp3730
g49
(g50
g51
NtRp3731
(dp3732
g54
(dp3733
g62
I3
ssg63
g3727
sg56
(lp3734
S'http://web2py.com'
p3735
asbasbasbag49
(g65
g51
NtRp3736
(dp3737
g54
(dp3738
sg63
g3688
sg56
(lp3739
g49
(g70
g51
NtRp3740
(dp3741
g54
(dp3742
sg63
g3736
sg56
(lp3743
g49
(g50
g51
NtRp3744
(dp3745
g54
(dp3746
g62
I3
ssg63
g3740
sg56
(lp3747
g49
(g58
g51
NtRp3748
(dp3749
g54
(dp3750
g62
I2
ssg63
Nsg56
(lp3751
g49
(g65
g51
NtRp3752
(dp3753
g54
(dp3754
sg63
g3748
sg56
(lp3755
g49
(g70
g51
NtRp3756
(dp3757
g54
(dp3758
sg63
g3752
sg56
(lp3759
g49
(g50
g51
NtRp3760
(dp3761
g54
(dp3762
g62
I2
ssg63
g3756
sg56
(lp3763
g49
(g58
g51
NtRp3764
(dp3765
g54
(dp3766
g62
I1
ssg63
Nsg56
(lp3767
g49
(g65
g51
NtRp3768
(dp3769
g54
(dp3770
sg63
g3764
sg56
(lp3771
g49
(g70
g51
NtRp3772
(dp3773
g54
(dp3774
sg63
g3768
sg56
(lp3775
g49
(g50
g51
NtRp3776
(dp3777
g54
(dp3778
g62
I1
ssg63
g3772
sg56
(lp3779
g3633
(S's\x08\x00\x00\x00My Sites'
tRp3780
asbasbasbag49
(g65
g51
NtRp3781
(dp3782
g54
(dp3783
sg63
g3764
sg56
(lp3784
g49
(g70
g51
NtRp3785
(dp3786
g54
(dp3787
sg63
g3781
sg56
(lp3788
g49
(g50
g51
NtRp3789
(dp3790
g54
(dp3791
g62
I1
ssg63
g3785
sg56
(lp3792
I00
asbasbasbag49
(g65
g51
NtRp3793
(dp3794
g54
(dp3795
sg63
g3764
sg56
(lp3796
g49
(g70
g51
NtRp3797
(dp3798
g54
(dp3799
sg63
g3793
sg56
(lp3800
g49
(g50
g51
NtRp3801
(dp3802
g54
(dp3803
g62
I1
ssg63
g3797
sg56
(lp3804
S'/admin/default/site'
p3805
asbasbasbasbasbasbasbag49
(g65
g51
NtRp3806
(dp3807
g54
(dp3808
sg63
g3748
sg56
(lp3809
g49
(g70
g51
NtRp3810
(dp3811
g54
(dp3812
sg63
g3806
sg56
(lp3813
g49
(g50
g51
NtRp3814
(dp3815
g54
(dp3816
g62
I2
ssg63
g3810
sg56
(lp3817
g49
(g58
g51
NtRp3818
(dp3819
g54
(dp3820
g62
I1
ssg63
Nsg56
(lp3821
g49
(g65
g51
NtRp3822
(dp3823
g54
(dp3824
sg63
g3818
sg56
(lp3825
g49
(g70
g51
NtRp3826
(dp3827
g54
(dp3828
sg63
g3822
sg56
(lp3829
g49
(g50
g51
NtRp3830
(dp3831
g54
(dp3832
g62
I1
ssg63
g3826
sg56
(lp3833
g3633
(S's\x08\x00\x00\x00This App'
tRp3834
asbasbasbag49
(g65
g51
NtRp3835
(dp3836
g54
(dp3837
sg63
g3818
sg56
(lp3838
g49
(g70
g51
NtRp3839
(dp3840
g54
(dp3841
sg63
g3835
sg56
(lp3842
g49
(g50
g51
NtRp3843
(dp3844
g54
(dp3845
g62
I1
ssg63
g3839
sg56
(lp3846
I00
asbasbasbag49
(g65
g51
NtRp3847
(dp3848
g54
(dp3849
sg63
g3818
sg56
(lp3850
g49
(g70
g51
NtRp3851
(dp3852
g54
(dp3853
sg63
g3847
sg56
(lp3854
g49
(g50
g51
NtRp3855
(dp3856
g54
(dp3857
g62
I1
ssg63
g3851
sg56
(lp3858
S'/admin/default/design/Final_Impulse'
p3859
asbasbasbag49
(g65
g51
NtRp3860
(dp3861
g54
(dp3862
sg63
g3818
sg56
(lp3863
g49
(g70
g51
NtRp3864
(dp3865
g54
(dp3866
sg63
g3860
sg56
(lp3867
g49
(g50
g51
NtRp3868
(dp3869
g54
(dp3870
g62
I1
ssg63
g3864
sg56
(lp3871
(lp3872
(g3633
(S't\n\x00\x00\x00Controller'
tRp3873
I00
S'/admin/default/edit/Final_Impulse/controllers/default.py'
tp3874
a(g3633
(S't\x04\x00\x00\x00View'
tRp3875
I00
S'/admin/default/edit/Final_Impulse/views/default/show_image_comments.html'
tp3876
a(g3633
(S't\x06\x00\x00\x00Layout'
tRp3877
I00
S'/admin/default/edit/Final_Impulse/views/layout.html'
tp3878
a(g3633
(S't\n\x00\x00\x00Stylesheet'
tRp3879
I00
S'/admin/default/edit/Final_Impulse/static/css/web2py.css'
tp3880
a(g3633
(S's\x08\x00\x00\x00DB Model'
tRp3881
I00
S'/admin/default/edit/Final_Impulse/models/db.py'
tp3882
a(g3633
(S's\n\x00\x00\x00Menu Model'
tRp3883
I00
S'/admin/default/edit/Final_Impulse/models/menu.py'
tp3884
a(g3633
(S't\x08\x00\x00\x00Database'
tRp3885
I00
S'/Final_Impulse/appadmin/index'
tp3886
a(g3633
(S't\x06\x00\x00\x00Errors'
tRp3887
I00
S'/admin/default/errors/Final_Impulse'
tp3888
a(g3633
(S't\x05\x00\x00\x00About'
tRp3889
I00
S'/admin/default/about/Final_Impulse'
tp3890
aasbasbasbasbasbasbasbag49
(g65
g51
NtRp3891
(dp3892
g54
(dp3893
sg63
g3748
sg56
(lp3894
g49
(g70
g51
NtRp3895
(dp3896
g54
(dp3897
sg63
g3891
sg56
(lp3898
g49
(g50
g51
NtRp3899
(dp3900
g54
(dp3901
g62
I2
ssg63
g3895
sg56
(lp3902
g49
(g58
g51
NtRp3903
(dp3904
g54
(dp3905
g62
I1
ssg63
Nsg56
(lp3906
g49
(g65
g51
NtRp3907
(dp3908
g54
(dp3909
sg63
g3903
sg56
(lp3910
g49
(g70
g51
NtRp3911
(dp3912
g54
(dp3913
sg63
g3907
sg56
(lp3914
g49
(g50
g51
NtRp3915
(dp3916
g54
(dp3917
g62
I1
ssg63
g3911
sg56
(lp3918
S'web2py.com'
p3919
asbasbasbag49
(g65
g51
NtRp3920
(dp3921
g54
(dp3922
sg63
g3903
sg56
(lp3923
g49
(g70
g51
NtRp3924
(dp3925
g54
(dp3926
sg63
g3920
sg56
(lp3927
g49
(g50
g51
NtRp3928
(dp3929
g54
(dp3930
g62
I1
ssg63
g3924
sg56
(lp3931
I00
asbasbasbag49
(g65
g51
NtRp3932
(dp3933
g54
(dp3934
sg63
g3903
sg56
(lp3935
g49
(g70
g51
NtRp3936
(dp3937
g54
(dp3938
sg63
g3932
sg56
(lp3939
g49
(g50
g51
NtRp3940
(dp3941
g54
(dp3942
g62
I1
ssg63
g3936
sg56
(lp3943
S'http://www.web2py.com'
p3944
asbasbasbag49
(g65
g51
NtRp3945
(dp3946
g54
(dp3947
sg63
g3903
sg56
(lp3948
g49
(g70
g51
NtRp3949
(dp3950
g54
(dp3951
sg63
g3945
sg56
(lp3952
g49
(g50
g51
NtRp3953
(dp3954
g54
(dp3955
g62
I1
ssg63
g3949
sg56
(lp3956
(lp3957
(g3633
(S't\x08\x00\x00\x00Download'
tRp3958
I00
S'http://www.web2py.com/examples/default/download'
p3959
tp3960
a(g3633
(S't\x07\x00\x00\x00Support'
tRp3961
I00
S'http://www.web2py.com/examples/default/support'
p3962
tp3963
a(g3633
(S't\x04\x00\x00\x00Demo'
tRp3964
I00
S'http://web2py.com/demo_admin'
p3965
tp3966
a(g3633
(S's\x0e\x00\x00\x00Quick Examples'
tRp3967
I00
S'http://web2py.com/examples/default/examples'
p3968
tp3969
a(g3633
(S't\x03\x00\x00\x00FAQ'
tRp3970
I00
S'http://web2py.com/AlterEgo'
p3971
tp3972
a(g3633
(S't\x06\x00\x00\x00Videos'
tRp3973
I00
S'http://www.web2py.com/examples/default/videos/'
p3974
tp3975
a(g3633
(S's\x11\x00\x00\x00Free Applications'
tRp3976
I00
S'http://web2py.com/appliances'
p3977
tp3978
a(g3633
(S't\x07\x00\x00\x00Plugins'
tRp3979
I00
S'http://web2py.com/plugins'
p3980
tp3981
a(g3633
(S't\x07\x00\x00\x00Layouts'
tRp3982
I00
S'http://web2py.com/layouts'
p3983
tp3984
a(g3633
(S't\x07\x00\x00\x00Recipes'
tRp3985
I00
S'http://web2pyslices.com/'
p3986
tp3987
a(g3633
(S't\x08\x00\x00\x00Semantic'
tRp3988
I00
S'http://web2py.com/semantic'
p3989
tp3990
aasbasbasbasbasbasbasbag49
(g65
g51
NtRp3991
(dp3992
g54
(dp3993
sg63
g3748
sg56
(lp3994
g49
(g70
g51
NtRp3995
(dp3996
g54
(dp3997
sg63
g3991
sg56
(lp3998
g49
(g50
g51
NtRp3999
(dp4000
g54
(dp4001
g62
I2
ssg63
g3995
sg56
(lp4002
g49
(g58
g51
NtRp4003
(dp4004
g54
(dp4005
g62
I1
ssg63
Nsg56
(lp4006
g49
(g65
g51
NtRp4007
(dp4008
g54
(dp4009
sg63
g4003
sg56
(lp4010
g49
(g70
g51
NtRp4011
(dp4012
g54
(dp4013
sg63
g4007
sg56
(lp4014
g49
(g50
g51
NtRp4015
(dp4016
g54
(dp4017
g62
I1
ssg63
g4011
sg56
(lp4018
g3633
(S't\r\x00\x00\x00Documentation'
tRp4019
asbasbasbag49
(g65
g51
NtRp4020
(dp4021
g54
(dp4022
sg63
g4003
sg56
(lp4023
g49
(g70
g51
NtRp4024
(dp4025
g54
(dp4026
sg63
g4020
sg56
(lp4027
g49
(g50
g51
NtRp4028
(dp4029
g54
(dp4030
g62
I1
ssg63
g4024
sg56
(lp4031
I00
asbasbasbag49
(g65
g51
NtRp4032
(dp4033
g54
(dp4034
sg63
g4003
sg56
(lp4035
g49
(g70
g51
NtRp4036
(dp4037
g54
(dp4038
sg63
g4032
sg56
(lp4039
g49
(g50
g51
NtRp4040
(dp4041
g54
(dp4042
g62
I1
ssg63
g4036
sg56
(lp4043
S'http://www.web2py.com/book'
p4044
asbasbasbag49
(g65
g51
NtRp4045
(dp4046
g54
(dp4047
sg63
g4003
sg56
(lp4048
g49
(g70
g51
NtRp4049
(dp4050
g54
(dp4051
sg63
g4045
sg56
(lp4052
g49
(g50
g51
NtRp4053
(dp4054
g54
(dp4055
g62
I1
ssg63
g4049
sg56
(lp4056
(lp4057
(g3633
(S't\x07\x00\x00\x00Preface'
tRp4058
I00
S'http://www.web2py.com/book/default/chapter/00'
p4059
tp4060
a(g3633
(S't\x0c\x00\x00\x00Introduction'
tRp4061
I00
S'http://www.web2py.com/book/default/chapter/01'
p4062
tp4063
a(g3633
(S't\x06\x00\x00\x00Python'
tRp4064
I00
S'http://www.web2py.com/book/default/chapter/02'
p4065
tp4066
a(g3633
(S't\x08\x00\x00\x00Overview'
tRp4067
I00
S'http://www.web2py.com/book/default/chapter/03'
p4068
tp4069
a(g3633
(S's\x08\x00\x00\x00The Core'
tRp4070
I00
S'http://www.web2py.com/book/default/chapter/04'
p4071
tp4072
a(g3633
(S's\t\x00\x00\x00The Views'
tRp4073
I00
S'http://www.web2py.com/book/default/chapter/05'
p4074
tp4075
a(g3633
(S't\x08\x00\x00\x00Database'
tRp4076
I00
S'http://www.web2py.com/book/default/chapter/06'
p4077
tp4078
a(g3633
(S's\x14\x00\x00\x00Forms and Validators'
tRp4079
I00
S'http://www.web2py.com/book/default/chapter/07'
p4080
tp4081
a(g3633
(S's\r\x00\x00\x00Email and SMS'
tRp4082
I00
S'http://www.web2py.com/book/default/chapter/08'
p4083
tp4084
a(g3633
(S's\x0e\x00\x00\x00Access Control'
tRp4085
I00
S'http://www.web2py.com/book/default/chapter/09'
p4086
tp4087
a(g3633
(S't\x08\x00\x00\x00Services'
tRp4088
I00
S'http://www.web2py.com/book/default/chapter/10'
p4089
tp4090
a(g3633
(S's\x0c\x00\x00\x00Ajax Recipes'
tRp4091
I00
S'http://www.web2py.com/book/default/chapter/11'
p4092
tp4093
a(g3633
(S's\x16\x00\x00\x00Components and Plugins'
tRp4094
I00
S'http://www.web2py.com/book/default/chapter/12'
p4095
tp4096
a(g3633
(S's\x12\x00\x00\x00Deployment Recipes'
tRp4097
I00
S'http://www.web2py.com/book/default/chapter/13'
p4098
tp4099
a(g3633
(S's\r\x00\x00\x00Other Recipes'
tRp4100
I00
S'http://www.web2py.com/book/default/chapter/14'
p4101
tp4102
a(g3633
(S's\r\x00\x00\x00Buy this book'
tRp4103
I00
S'http://stores.lulu.com/web2py'
p4104
tp4105
aasbasbasbasbasbasbasbag49
(g65
g51
NtRp4106
(dp4107
g54
(dp4108
sg63
g3748
sg56
(lp4109
g49
(g70
g51
NtRp4110
(dp4111
g54
(dp4112
sg63
g4106
sg56
(lp4113
g49
(g50
g51
NtRp4114
(dp4115
g54
(dp4116
g62
I2
ssg63
g4110
sg56
(lp4117
g49
(g58
g51
NtRp4118
(dp4119
g54
(dp4120
g62
I1
ssg63
Nsg56
(lp4121
g49
(g65
g51
NtRp4122
(dp4123
g54
(dp4124
sg63
g4118
sg56
(lp4125
g49
(g70
g51
NtRp4126
(dp4127
g54
(dp4128
sg63
g4122
sg56
(lp4129
g49
(g50
g51
NtRp4130
(dp4131
g54
(dp4132
g62
I1
ssg63
g4126
sg56
(lp4133
g3633
(S't\t\x00\x00\x00Community'
tRp4134
asbasbasbag49
(g65
g51
NtRp4135
(dp4136
g54
(dp4137
sg63
g4118
sg56
(lp4138
g49
(g70
g51
NtRp4139
(dp4140
g54
(dp4141
sg63
g4135
sg56
(lp4142
g49
(g50
g51
NtRp4143
(dp4144
g54
(dp4145
g62
I1
ssg63
g4139
sg56
(lp4146
I00
asbasbasbag49
(g65
g51
NtRp4147
(dp4148
g54
(dp4149
sg63
g4118
sg56
(lp4150
g49
(g70
g51
NtRp4151
(dp4152
g54
(dp4153
sg63
g4147
sg56
(lp4154
g49
(g50
g51
NtRp4155
(dp4156
g54
(dp4157
g62
I1
ssg63
g4151
sg56
(lp4158
Nasbasbasbag49
(g65
g51
NtRp4159
(dp4160
g54
(dp4161
sg63
g4118
sg56
(lp4162
g49
(g70
g51
NtRp4163
(dp4164
g54
(dp4165
sg63
g4159
sg56
(lp4166
g49
(g50
g51
NtRp4167
(dp4168
g54
(dp4169
g62
I1
ssg63
g4163
sg56
(lp4170
(lp4171
(g3633
(S't\x06\x00\x00\x00Groups'
tRp4172
I00
S'http://www.web2py.com/examples/default/usergroups'
p4173
tp4174
a(g3633
(S't\x07\x00\x00\x00Twitter'
tRp4175
I00
S'http://twitter.com/web2py'
p4176
tp4177
a(g3633
(S's\t\x00\x00\x00Live Chat'
tRp4178
I00
S'http://webchat.freenode.net/?channels=web2py'
p4179
tp4180
aasbasbasbasbasbasbasbag49
(g65
g51
NtRp4181
(dp4182
g54
(dp4183
sg63
g3748
sg56
(lp4184
g49
(g70
g51
NtRp4185
(dp4186
g54
(dp4187
sg63
g4181
sg56
(lp4188
g49
(g50
g51
NtRp4189
(dp4190
g54
(dp4191
g62
I2
ssg63
g4185
sg56
(lp4192
g49
(g58
g51
NtRp4193
(dp4194
g54
(dp4195
g62
I1
ssg63
Nsg56
(lp4196
g49
(g65
g51
NtRp4197
(dp4198
g54
(dp4199
sg63
g4193
sg56
(lp4200
g49
(g70
g51
NtRp4201
(dp4202
g54
(dp4203
sg63
g4197
sg56
(lp4204
g49
(g50
g51
NtRp4205
(dp4206
g54
(dp4207
g62
I1
ssg63
g4201
sg56
(lp4208
g3633
(S't\x07\x00\x00\x00Plugins'
tRp4209
asbasbasbag49
(g65
g51
NtRp4210
(dp4211
g54
(dp4212
sg63
g4193
sg56
(lp4213
g49
(g70
g51
NtRp4214
(dp4215
g54
(dp4216
sg63
g4210
sg56
(lp4217
g49
(g50
g51
NtRp4218
(dp4219
g54
(dp4220
g62
I1
ssg63
g4214
sg56
(lp4221
I00
asbasbasbag49
(g65
g51
NtRp4222
(dp4223
g54
(dp4224
sg63
g4193
sg56
(lp4225
g49
(g70
g51
NtRp4226
(dp4227
g54
(dp4228
sg63
g4222
sg56
(lp4229
g49
(g50
g51
NtRp4230
(dp4231
g54
(dp4232
g62
I1
ssg63
g4226
sg56
(lp4233
Nasbasbasbag49
(g65
g51
NtRp4234
(dp4235
g54
(dp4236
sg63
g4193
sg56
(lp4237
g49
(g70
g51
NtRp4238
(dp4239
g54
(dp4240
sg63
g4234
sg56
(lp4241
g49
(g50
g51
NtRp4242
(dp4243
g54
(dp4244
g62
I1
ssg63
g4238
sg56
(lp4245
(lp4246
(S'plugin_wiki'
p4247
I00
S'http://web2py.com/examples/default/download'
p4248
tp4249
a(g3633
(S's\r\x00\x00\x00Other Plugins'
tRp4250
I00
g3980
tp4251
a(g3633
(S's\x0e\x00\x00\x00Layout Plugins'
tRp4252
I00
g3983
tp4253
aasbasbasbasbasbasbasbasbasbasbasbasbasbasbasbasbasbasbasbag49
(g65
g51
NtRp4254
(dp4255
g54
(dp4256
sg63
g3175
sg56
(lp4257
g49
(g70
g51
NtRp4258
(dp4259
g54
(dp4260
g74
g75
ssg63
g4254
sg56
(lp4261
S'meta'
p4262
asbag49
(g70
g51
NtRp4263
(dp4264
g54
(dp4265
g81
g82
ssg63
g4254
sg56
(lp4266
S':'
asbag49
(g70
g51
NtRp4267
(dp4268
g54
(dp4269
sg63
g4254
sg56
(lp4270
g49
(g50
g51
NtRp4271
(dp4272
g54
(dp4273
g62
I5
ssg63
g4267
sg56
(lp4274
g49
(g58
g51
NtRp4275
(dp4276
g54
(dp4277
g62
I4
ssg63
Nsg56
(lp4278
g49
(g65
g51
NtRp4279
(dp4280
g54
(dp4281
sg63
g4275
sg56
(lp4282
g49
(g70
g51
NtRp4283
(dp4284
g54
(dp4285
g74
g75
ssg63
g4279
sg56
(lp4286
S'author'
p4287
asbag49
(g70
g51
NtRp4288
(dp4289
g54
(dp4290
g81
g82
ssg63
g4279
sg56
(lp4291
S':'
asbag49
(g70
g51
NtRp4292
(dp4293
g54
(dp4294
sg63
g4279
sg56
(lp4295
g49
(g50
g51
NtRp4296
(dp4297
g54
(dp4298
g62
I4
ssg63
g4292
sg56
(lp4299
S'Your Name <you@example.com>'
p4300
asbasbasbag49
(g65
g51
NtRp4301
(dp4302
g54
(dp4303
sg63
g4275
sg56
(lp4304
g49
(g70
g51
NtRp4305
(dp4306
g54
(dp4307
g74
g75
ssg63
g4301
sg56
(lp4308
S'description'
p4309
asbag49
(g70
g51
NtRp4310
(dp4311
g54
(dp4312
g81
g82
ssg63
g4301
sg56
(lp4313
S':'
asbag49
(g70
g51
NtRp4314
(dp4315
g54
(dp4316
sg63
g4301
sg56
(lp4317
g49
(g50
g51
NtRp4318
(dp4319
g54
(dp4320
g62
I4
ssg63
g4314
sg56
(lp4321
S'a cool new app'
p4322
asbasbasbag49
(g65
g51
NtRp4323
(dp4324
g54
(dp4325
sg63
g4275
sg56
(lp4326
g49
(g70
g51
NtRp4327
(dp4328
g54
(dp4329
g74
g75
ssg63
g4323
sg56
(lp4330
S'generator'
p4331
asbag49
(g70
g51
NtRp4332
(dp4333
g54
(dp4334
g81
g82
ssg63
g4323
sg56
(lp4335
S':'
asbag49
(g70
g51
NtRp4336
(dp4337
g54
(dp4338
sg63
g4323
sg56
(lp4339
g49
(g50
g51
NtRp4340
(dp4341
g54
(dp4342
g62
I4
ssg63
g4336
sg56
(lp4343
S'Web2py Web Framework'
p4344
asbasbasbag49
(g65
g51
NtRp4345
(dp4346
g54
(dp4347
sg63
g4275
sg56
(lp4348
g49
(g70
g51
NtRp4349
(dp4350
g54
(dp4351
g74
g75
ssg63
g4345
sg56
(lp4352
S'keywords'
p4353
asbag49
(g70
g51
NtRp4354
(dp4355
g54
(dp4356
g81
g82
ssg63
g4345
sg56
(lp4357
S':'
asbag49
(g70
g51
NtRp4358
(dp4359
g54
(dp4360
sg63
g4345
sg56
(lp4361
g49
(g50
g51
NtRp4362
(dp4363
g54
(dp4364
g62
I4
ssg63
g4358
sg56
(lp4365
S'web2py, python, framework'
p4366
asbasbasbasbasbasbasbag49
(g65
g51
NtRp4367
(dp4368
g54
(dp4369
sg63
g3175
sg56
(lp4370
g49
(g70
g51
NtRp4371
(dp4372
g54
(dp4373
g74
g75
ssg63
g4367
sg56
(lp4374
S'models_to_run'
p4375
asbag49
(g70
g51
NtRp4376
(dp4377
g54
(dp4378
g81
g82
ssg63
g4367
sg56
(lp4379
S':'
asbag49
(g70
g51
NtRp4380
(dp4381
g54
(dp4382
sg63
g4367
sg56
(lp4383
g49
(g50
g51
NtRp4384
(dp4385
g54
(dp4386
g62
I5
ssg63
g4380
sg56
(lp4387
g49
(g58
g51
NtRp4388
(dp4389
g54
(dp4390
g62
I4
ssg63
Nsg56
(lp4391
g49
(g65
g51
NtRp4392
(dp4393
g54
(dp4394
sg63
g4388
sg56
(lp4395
g49
(g70
g51
NtRp4396
(dp4397
g54
(dp4398
sg63
g4392
sg56
(lp4399
g49
(g50
g51
NtRp4400
(dp4401
g54
(dp4402
g62
I4
ssg63
g4396
sg56
(lp4403
S'^\\w+\\.py$'
p4404
asbasbasbag49
(g65
g51
NtRp4405
(dp4406
g54
(dp4407
sg63
g4388
sg56
(lp4408
g49
(g70
g51
NtRp4409
(dp4410
g54
(dp4411
sg63
g4405
sg56
(lp4412
g49
(g50
g51
NtRp4413
(dp4414
g54
(dp4415
g62
I4
ssg63
g4409
sg56
(lp4416
S'^default/\\w+\\.py$'
p4417
asbasbasbag49
(g65
g51
NtRp4418
(dp4419
g54
(dp4420
sg63
g4388
sg56
(lp4421
g49
(g70
g51
NtRp4422
(dp4423
g54
(dp4424
sg63
g4418
sg56
(lp4425
g49
(g50
g51
NtRp4426
(dp4427
g54
(dp4428
g62
I4
ssg63
g4422
sg56
(lp4429
S'^default/show_image_comments/\\w+\\.py$'
p4430
asbasbasbasbasbasbasbag49
(g65
g51
NtRp4431
(dp4432
g54
(dp4433
sg63
g3175
sg56
(lp4434
g49
(g70
g51
NtRp4435
(dp4436
g54
(dp4437
g74
g75
ssg63
g4431
sg56
(lp4438
S'postprocessing'
p4439
asbag49
(g70
g51
NtRp4440
(dp4441
g54
(dp4442
g81
g82
ssg63
g4431
sg56
(lp4443
S':'
asbag49
(g70
g51
NtRp4444
(dp4445
g54
(dp4446
sg63
g4431
sg56
(lp4447
g49
(g50
g51
NtRp4448
(dp4449
g54
(dp4450
g62
I5
ssg63
g4444
sg56
(lp4451
g49
(g58
g51
NtRp4452
(dp4453
g54
(dp4454
g62
I4
ssg63
Nsg56
(lp4455
sbasbasbasbag49
(g65
g51
NtRp4456
(dp4457
g54
(dp4458
sg63
g3175
sg56
(lp4459
g49
(g70
g51
NtRp4460
(dp4461
g54
(dp4462
g74
g75
ssg63
g4456
sg56
(lp4463
S'session_cookie_expires'
p4464
asbag49
(g70
g51
NtRp4465
(dp4466
g54
(dp4467
g81
g82
ssg63
g4456
sg56
(lp4468
S':'
asbag49
(g70
g51
NtRp4469
(dp4470
g54
(dp4471
sg63
g4456
sg56
(lp4472
g49
(g50
g51
NtRp4473
(dp4474
g54
(dp4475
g62
I5
ssg63
g4469
sg56
(lp4476
S'None'
p4477
asbasbasbag49
(g65
g51
NtRp4478
(dp4479
g54
(dp4480
sg63
g3175
sg56
(lp4481
g49
(g70
g51
NtRp4482
(dp4483
g54
(dp4484
g74
g75
ssg63
g4478
sg56
(lp4485
S'session_data_name'
p4486
asbag49
(g70
g51
NtRp4487
(dp4488
g54
(dp4489
g81
g82
ssg63
g4478
sg56
(lp4490
S':'
asbag49
(g70
g51
NtRp4491
(dp4492
g54
(dp4493
sg63
g4478
sg56
(lp4494
g49
(g50
g51
NtRp4495
(dp4496
g54
(dp4497
g62
I5
ssg63
g4491
sg56
(lp4498
S'session_data_final_impulse'
p4499
asbasbasbag49
(g65
g51
NtRp4500
(dp4501
g54
(dp4502
sg63
g3175
sg56
(lp4503
g49
(g70
g51
NtRp4504
(dp4505
g54
(dp4506
g74
g75
ssg63
g4500
sg56
(lp4507
S'session_file'
p4508
asbag49
(g70
g51
NtRp4509
(dp4510
g54
(dp4511
g81
g82
ssg63
g4500
sg56
(lp4512
S':'
asbag49
(g70
g51
NtRp4513
(dp4514
g54
(dp4515
sg63
g4500
sg56
(lp4516
g49
(g50
g51
NtRp4517
(dp4518
g54
(dp4519
g62
I5
ssg63
g4513
sg56
(lp4520
S"<open file '/Users/abaric/Downloads/web2py/web2py.app/Contents/Resources/applications/Final_Impulse/sessions/127.0.0.1-9ec1eaa7-e960-4ffd-b185-8aa1d4348b8d', mode 'rb+' at 0x89ba3c8>"
p4521
asbasbasbag49
(g65
g51
NtRp4522
(dp4523
g54
(dp4524
sg63
g3175
sg56
(lp4525
g49
(g70
g51
NtRp4526
(dp4527
g54
(dp4528
g74
g75
ssg63
g4522
sg56
(lp4529
S'session_filename'
p4530
asbag49
(g70
g51
NtRp4531
(dp4532
g54
(dp4533
g81
g82
ssg63
g4522
sg56
(lp4534
S':'
asbag49
(g70
g51
NtRp4535
(dp4536
g54
(dp4537
sg63
g4522
sg56
(lp4538
g49
(g50
g51
NtRp4539
(dp4540
g54
(dp4541
g62
I5
ssg63
g4535
sg56
(lp4542
S'/Users/abaric/Downloads/web2py/web2py.app/Contents/Resources/applications/Final_Impulse/sessions/127.0.0.1-9ec1eaa7-e960-4ffd-b185-8aa1d4348b8d'
p4543
asbasbasbag49
(g65
g51
NtRp4544
(dp4545
g54
(dp4546
sg63
g3175
sg56
(lp4547
g49
(g70
g51
NtRp4548
(dp4549
g54
(dp4550
g74
g75
ssg63
g4544
sg56
(lp4551
S'session_id'
p4552
asbag49
(g70
g51
NtRp4553
(dp4554
g54
(dp4555
g81
g82
ssg63
g4544
sg56
(lp4556
S':'
asbag49
(g70
g51
NtRp4557
(dp4558
g54
(dp4559
sg63
g4544
sg56
(lp4560
g49
(g50
g51
NtRp4561
(dp4562
g54
(dp4563
g62
I5
ssg63
g4557
sg56
(lp4564
g446
asbasbasbag49
(g65
g51
NtRp4565
(dp4566
g54
(dp4567
sg63
g3175
sg56
(lp4568
g49
(g70
g51
NtRp4569
(dp4570
g54
(dp4571
g74
g75
ssg63
g4565
sg56
(lp4572
S'session_id_name'
p4573
asbag49
(g70
g51
NtRp4574
(dp4575
g54
(dp4576
g81
g82
ssg63
g4565
sg56
(lp4577
S':'
asbag49
(g70
g51
NtRp4578
(dp4579
g54
(dp4580
sg63
g4565
sg56
(lp4581
g49
(g50
g51
NtRp4582
(dp4583
g54
(dp4584
g62
I5
ssg63
g4578
sg56
(lp4585
g3232
asbasbasbag49
(g65
g51
NtRp4586
(dp4587
g54
(dp4588
sg63
g3175
sg56
(lp4589
g49
(g70
g51
NtRp4590
(dp4591
g54
(dp4592
g74
g75
ssg63
g4586
sg56
(lp4593
S'session_locked'
p4594
asbag49
(g70
g51
NtRp4595
(dp4596
g54
(dp4597
g81
g82
ssg63
g4586
sg56
(lp4598
S':'
asbag49
(g70
g51
NtRp4599
(dp4600
g54
(dp4601
sg63
g4586
sg56
(lp4602
g49
(g50
g51
NtRp4603
(dp4604
g54
(dp4605
g62
I5
ssg63
g4599
sg56
(lp4606
g1677
asbasbasbag49
(g65
g51
NtRp4607
(dp4608
g54
(dp4609
sg63
g3175
sg56
(lp4610
g49
(g70
g51
NtRp4611
(dp4612
g54
(dp4613
g74
g75
ssg63
g4607
sg56
(lp4614
S'session_new'
p4615
asbag49
(g70
g51
NtRp4616
(dp4617
g54
(dp4618
g81
g82
ssg63
g4607
sg56
(lp4619
S':'
asbag49
(g70
g51
NtRp4620
(dp4621
g54
(dp4622
sg63
g4607
sg56
(lp4623
g49
(g50
g51
NtRp4624
(dp4625
g54
(dp4626
g62
I5
ssg63
g4620
sg56
(lp4627
g92
asbasbasbag49
(g65
g51
NtRp4628
(dp4629
g54
(dp4630
sg63
g3175
sg56
(lp4631
g49
(g70
g51
NtRp4632
(dp4633
g54
(dp4634
g74
g75
ssg63
g4628
sg56
(lp4635
S'session_storage_type'
p4636
asbag49
(g70
g51
NtRp4637
(dp4638
g54
(dp4639
g81
g82
ssg63
g4628
sg56
(lp4640
S':'
asbag49
(g70
g51
NtRp4641
(dp4642
g54
(dp4643
sg63
g4628
sg56
(lp4644
g49
(g50
g51
NtRp4645
(dp4646
g54
(dp4647
g62
I5
ssg63
g4641
sg56
(lp4648
g3087
asbasbasbag49
(g65
g51
NtRp4649
(dp4650
g54
(dp4651
sg63
g3175
sg56
(lp4652
g49
(g70
g51
NtRp4653
(dp4654
g54
(dp4655
g74
g75
ssg63
g4649
sg56
(lp4656
S'status'
p4657
asbag49
(g70
g51
NtRp4658
(dp4659
g54
(dp4660
g81
g82
ssg63
g4649
sg56
(lp4661
S':'
asbag49
(g70
g51
NtRp4662
(dp4663
g54
(dp4664
sg63
g4649
sg56
(lp4665
g49
(g50
g51
NtRp4666
(dp4667
g54
(dp4668
g62
I5
ssg63
g4662
sg56
(lp4669
S'200'
p4670
asbasbasbag49
(g65
g51
NtRp4671
(dp4672
g54
(dp4673
sg63
g3175
sg56
(lp4674
g49
(g70
g51
NtRp4675
(dp4676
g54
(dp4677
g74
g75
ssg63
g4671
sg56
(lp4678
S'subtitle'
p4679
asbag49
(g70
g51
NtRp4680
(dp4681
g54
(dp4682
g81
g82
ssg63
g4671
sg56
(lp4683
S':'
asbag49
(g70
g51
NtRp4684
(dp4685
g54
(dp4686
sg63
g4671
sg56
(lp4687
g49
(g50
g51
NtRp4688
(dp4689
g54
(dp4690
g62
I5
ssg63
g4684
sg56
(lp4691
g3633
(S's\r\x00\x00\x00customize me!'
tRp4692
asbasbasbag49
(g65
g51
NtRp4693
(dp4694
g54
(dp4695
sg63
g3175
sg56
(lp4696
g49
(g70
g51
NtRp4697
(dp4698
g54
(dp4699
g74
g75
ssg63
g4693
sg56
(lp4700
S'title'
p4701
asbag49
(g70
g51
NtRp4702
(dp4703
g54
(dp4704
g81
g82
ssg63
g4693
sg56
(lp4705
S':'
asbag49
(g70
g51
NtRp4706
(dp4707
g54
(dp4708
sg63
g4693
sg56
(lp4709
g49
(g50
g51
NtRp4710
(dp4711
g54
(dp4712
g62
I5
ssg63
g4706
sg56
(lp4713
S'Final Impulse'
p4714
asbasbasbag49
(g65
g51
NtRp4715
(dp4716
g54
(dp4717
sg63
g3175
sg56
(lp4718
g49
(g70
g51
NtRp4719
(dp4720
g54
(dp4721
g74
g75
ssg63
g4715
sg56
(lp4722
S'view'
p4723
asbag49
(g70
g51
NtRp4724
(dp4725
g54
(dp4726
g81
g82
ssg63
g4715
sg56
(lp4727
S':'
asbag49
(g70
g51
NtRp4728
(dp4729
g54
(dp4730
sg63
g4715
sg56
(lp4731
g49
(g50
g51
NtRp4732
(dp4733
g54
(dp4734
g62
I5
ssg63
g4728
sg56
(lp4735
S'default/show_image_comments.html'
p4736
asbasbasbasbasbsS'locals'
p4737
(dp4738
S'image_form'
p4739
S'<gluon.sqlhtml.SQLFORM object at 0x8b696b0>'
p4740
sssS'traceback'
p4741
S'Traceback (most recent call last):\n  File "gluon/restricted.py", line 212, in restricted\n  File "/Users/abaric/Downloads/web2py/web2py.app/Contents/Resources/applications/Final_Impulse/controllers/default.py", line 149, in <module>\n  File "gluon/globals.py", line 188, in <lambda>\n  File "/Users/abaric/Downloads/web2py/web2py.app/Contents/Resources/applications/Final_Impulse/controllers/default.py", line 36, in show_image_comments\nAttributeError: \'NoneType\' object has no attribute \'id\'\n'
p4742
s.